ARM GAS  C:\Users\Admin\AppData\Local\Temp\ccXpqitw.s 			page 1


   1              		.cpu cortex-m3
   2              		.eabi_attribute 20, 1
   3              		.eabi_attribute 21, 1
   4              		.eabi_attribute 23, 3
   5              		.eabi_attribute 24, 1
   6              		.eabi_attribute 25, 1
   7              		.eabi_attribute 26, 1
   8              		.eabi_attribute 30, 1
   9              		.eabi_attribute 34, 1
  10              		.eabi_attribute 18, 4
  11              		.file	"Intercom.cpp"
  12              		.text
  13              	.Ltext0:
  14              		.cfi_sections	.debug_frame
  15              		.section	.text._ZN8IntercomD2Ev,"ax",%progbits
  16              		.align	1
  17              		.global	_ZN8IntercomD2Ev
  18              		.arch armv7-m
  19              		.syntax unified
  20              		.thumb
  21              		.thumb_func
  22              		.fpu softvfp
  24              	_ZN8IntercomD2Ev:
  25              		.fnstart
  26              	.LVL0:
  27              	.LFB4:
  28              		.file 1 "Core/Src/Intercom/Intercom.cpp"
   1:Core/Src/Intercom/Intercom.cpp **** #include "Intercom/Intercom.h"
   2:Core/Src/Intercom/Intercom.cpp **** #include "UART_Print.h"
   3:Core/Src/Intercom/Intercom.cpp **** 
   4:Core/Src/Intercom/Intercom.cpp **** Intercom::Intercom(Mode *mode, Side side) : mode(nullptr)
   5:Core/Src/Intercom/Intercom.cpp **** {
   6:Core/Src/Intercom/Intercom.cpp ****     this->TransitionTo(mode);
   7:Core/Src/Intercom/Intercom.cpp ****     this->side = side;
   8:Core/Src/Intercom/Intercom.cpp **** }
   9:Core/Src/Intercom/Intercom.cpp **** 
  10:Core/Src/Intercom/Intercom.cpp **** Intercom::~Intercom()
  29              		.loc 1 10 1 view -0
  30              		.cfi_startproc
  31              		@ args = 0, pretend = 0, frame = 0
  32              		@ frame_needed = 0, uses_anonymous_args = 0
  33              		.loc 1 10 1 is_stmt 0 view .LVU1
  34 0000 10B5     		push	{r4, lr}
  35              	.LCFI0:
  36              		.cfi_def_cfa_offset 8
  37              		.cfi_offset 4, -8
  38              		.cfi_offset 14, -4
  39 0002 0446     		mov	r4, r0
  40              	.LBB2:
  11:Core/Src/Intercom/Intercom.cpp **** {
  12:Core/Src/Intercom/Intercom.cpp ****     delete this->mode;
  41              		.loc 1 12 5 is_stmt 1 view .LVU2
  42              		.loc 1 12 18 is_stmt 0 view .LVU3
  43 0004 4068     		ldr	r0, [r0, #4]
  44              	.LVL1:
  45              		.loc 1 12 5 view .LVU4
  46 0006 10B1     		cbz	r0, .L2
ARM GAS  C:\Users\Admin\AppData\Local\Temp\ccXpqitw.s 			page 2


  47              		.loc 1 12 18 discriminator 1 view .LVU5
  48 0008 0368     		ldr	r3, [r0]
  49 000a 5B68     		ldr	r3, [r3, #4]
  50 000c 9847     		blx	r3
  51              	.LVL2:
  52              	.L2:
  53              	.LBE2:
  13:Core/Src/Intercom/Intercom.cpp **** }
  54              		.loc 1 13 1 view .LVU6
  55 000e 2046     		mov	r0, r4
  56 0010 10BD     		pop	{r4, pc}
  57              		.loc 1 13 1 view .LVU7
  58              		.cfi_endproc
  59              	.LFE4:
  60              		.cantunwind
  61              		.fnend
  63              		.global	_ZN8IntercomD1Ev
  64              		.thumb_set _ZN8IntercomD1Ev,_ZN8IntercomD2Ev
  65              		.section	.text._ZN8Intercom12TransitionToEP4Mode,"ax",%progbits
  66              		.align	1
  67              		.global	_ZN8Intercom12TransitionToEP4Mode
  68              		.syntax unified
  69              		.thumb
  70              		.thumb_func
  71              		.fpu softvfp
  73              	_ZN8Intercom12TransitionToEP4Mode:
  74              		.fnstart
  75              	.LVL3:
  76              	.LFB6:
  14:Core/Src/Intercom/Intercom.cpp **** 
  15:Core/Src/Intercom/Intercom.cpp **** void Intercom::TransitionTo(Mode *mode)
  16:Core/Src/Intercom/Intercom.cpp **** {
  77              		.loc 1 16 1 is_stmt 1 view -0
  78              		.cfi_startproc
  79              		@ args = 0, pretend = 0, frame = 0
  80              		@ frame_needed = 0, uses_anonymous_args = 0
  81              		.loc 1 16 1 is_stmt 0 view .LVU9
  82 0000 08B5     		push	{r3, lr}
  83              		.save {r3, lr}
  84              	.LCFI1:
  85              		.cfi_def_cfa_offset 8
  86              		.cfi_offset 3, -8
  87              		.cfi_offset 14, -4
  88 0002 0346     		mov	r3, r0
  89 0004 0846     		mov	r0, r1
  90              	.LVL4:
  17:Core/Src/Intercom/Intercom.cpp ****     if (this->mode == nullptr)
  91              		.loc 1 17 5 is_stmt 1 view .LVU10
  18:Core/Src/Intercom/Intercom.cpp ****     {
  19:Core/Src/Intercom/Intercom.cpp ****         delete this->mode;
  20:Core/Src/Intercom/Intercom.cpp ****     }
  21:Core/Src/Intercom/Intercom.cpp **** 
  22:Core/Src/Intercom/Intercom.cpp ****     this->mode = mode;
  92              		.loc 1 22 5 view .LVU11
  93              		.loc 1 22 16 is_stmt 0 view .LVU12
  94 0006 5960     		str	r1, [r3, #4]
  23:Core/Src/Intercom/Intercom.cpp ****     this->mode->SetMode(this);
ARM GAS  C:\Users\Admin\AppData\Local\Temp\ccXpqitw.s 			page 3


  95              		.loc 1 23 5 is_stmt 1 view .LVU13
  96              		.loc 1 23 24 is_stmt 0 view .LVU14
  97 0008 1946     		mov	r1, r3
  98              	.LVL5:
  99              		.loc 1 23 24 view .LVU15
 100 000a FFF7FEFF 		bl	_ZN4Mode7SetModeEP8Intercom
 101              	.LVL6:
  24:Core/Src/Intercom/Intercom.cpp **** }
 102              		.loc 1 24 1 view .LVU16
 103 000e 08BD     		pop	{r3, pc}
 104              		.cfi_endproc
 105              	.LFE6:
 106              		.fnend
 108              		.section	.text._ZN8IntercomC2EP4Mode4Side,"ax",%progbits
 109              		.align	1
 110              		.global	_ZN8IntercomC2EP4Mode4Side
 111              		.syntax unified
 112              		.thumb
 113              		.thumb_func
 114              		.fpu softvfp
 116              	_ZN8IntercomC2EP4Mode4Side:
 117              		.fnstart
 118              	.LVL7:
 119              	.LFB1:
   4:Core/Src/Intercom/Intercom.cpp **** {
 120              		.loc 1 4 1 is_stmt 1 view -0
 121              		.cfi_startproc
 122              		@ args = 0, pretend = 0, frame = 0
 123              		@ frame_needed = 0, uses_anonymous_args = 0
   4:Core/Src/Intercom/Intercom.cpp **** {
 124              		.loc 1 4 1 is_stmt 0 view .LVU18
 125 0000 38B5     		push	{r3, r4, r5, lr}
 126              		.save {r3, r4, r5, lr}
 127              	.LCFI2:
 128              		.cfi_def_cfa_offset 16
 129              		.cfi_offset 3, -16
 130              		.cfi_offset 4, -12
 131              		.cfi_offset 5, -8
 132              		.cfi_offset 14, -4
 133 0002 0446     		mov	r4, r0
 134 0004 1546     		mov	r5, r2
 135              	.LBB3:
   4:Core/Src/Intercom/Intercom.cpp **** {
 136              		.loc 1 4 57 view .LVU19
 137 0006 0023     		movs	r3, #0
 138 0008 4360     		str	r3, [r0, #4]
   6:Core/Src/Intercom/Intercom.cpp ****     this->side = side;
 139              		.loc 1 6 5 is_stmt 1 view .LVU20
   6:Core/Src/Intercom/Intercom.cpp ****     this->side = side;
 140              		.loc 1 6 23 is_stmt 0 view .LVU21
 141 000a FFF7FEFF 		bl	_ZN8Intercom12TransitionToEP4Mode
 142              	.LVL8:
   7:Core/Src/Intercom/Intercom.cpp **** }
 143              		.loc 1 7 5 is_stmt 1 view .LVU22
   7:Core/Src/Intercom/Intercom.cpp **** }
 144              		.loc 1 7 16 is_stmt 0 view .LVU23
 145 000e 2560     		str	r5, [r4]
ARM GAS  C:\Users\Admin\AppData\Local\Temp\ccXpqitw.s 			page 4


 146              	.LBE3:
   8:Core/Src/Intercom/Intercom.cpp **** 
 147              		.loc 1 8 1 view .LVU24
 148 0010 2046     		mov	r0, r4
 149 0012 38BD     		pop	{r3, r4, r5, pc}
   8:Core/Src/Intercom/Intercom.cpp **** 
 150              		.loc 1 8 1 view .LVU25
 151              		.cfi_endproc
 152              	.LFE1:
 153              		.fnend
 155              		.global	_ZN8IntercomC1EP4Mode4Side
 156              		.thumb_set _ZN8IntercomC1EP4Mode4Side,_ZN8IntercomC2EP4Mode4Side
 157              		.section	.text._ZN8Intercom8CheckKeyEm,"ax",%progbits
 158              		.align	1
 159              		.global	_ZN8Intercom8CheckKeyEm
 160              		.syntax unified
 161              		.thumb
 162              		.thumb_func
 163              		.fpu softvfp
 165              	_ZN8Intercom8CheckKeyEm:
 166              		.fnstart
 167              	.LVL9:
 168              	.LFB7:
  25:Core/Src/Intercom/Intercom.cpp **** 
  26:Core/Src/Intercom/Intercom.cpp **** bool Intercom::CheckKey(uint32_t key)
  27:Core/Src/Intercom/Intercom.cpp **** {
 169              		.loc 1 27 1 is_stmt 1 view -0
 170              		.cfi_startproc
 171              		@ args = 0, pretend = 0, frame = 0
 172              		@ frame_needed = 0, uses_anonymous_args = 0
 173              		.loc 1 27 1 is_stmt 0 view .LVU27
 174 0000 10B5     		push	{r4, lr}
 175              		.save {r4, lr}
 176              	.LCFI3:
 177              		.cfi_def_cfa_offset 8
 178              		.cfi_offset 4, -8
 179              		.cfi_offset 14, -4
 180 0002 0346     		mov	r3, r0
  28:Core/Src/Intercom/Intercom.cpp ****     return this->mode->CheckKey(key, this->side);
 181              		.loc 1 28 5 is_stmt 1 view .LVU28
 182              		.loc 1 28 18 is_stmt 0 view .LVU29
 183 0004 4068     		ldr	r0, [r0, #4]
 184              	.LVL10:
 185              		.loc 1 28 48 view .LVU30
 186 0006 0268     		ldr	r2, [r0]
 187 0008 9468     		ldr	r4, [r2, #8]
 188              		.loc 1 28 32 view .LVU31
 189 000a 1A68     		ldr	r2, [r3]
 190 000c A047     		blx	r4
 191              	.LVL11:
  29:Core/Src/Intercom/Intercom.cpp **** }...
 192              		.loc 1 29 1 view .LVU32
 193 000e 10BD     		pop	{r4, pc}
 194              		.cfi_endproc
 195              	.LFE7:
 196              		.fnend
 198              		.text
ARM GAS  C:\Users\Admin\AppData\Local\Temp\ccXpqitw.s 			page 5


 199              	.Letext0:
 200              		.file 2 "e:\\dev\\tools\\gcc-arm-none-eabi-10-2020-q4-major\\arm-none-eabi\\include\\c++\\10.2.1\\
 201              		.file 3 "e:\\dev\\tools\\gcc-arm-none-eabi-10-2020-q4-major\\arm-none-eabi\\include\\c++\\10.2.1\\
 202              		.file 4 "e:\\dev\\tools\\gcc-arm-none-eabi-10-2020-q4-major\\arm-none-eabi\\include\\machine\\_def
 203              		.file 5 "e:\\dev\\tools\\gcc-arm-none-eabi-10-2020-q4-major\\arm-none-eabi\\include\\sys\\_stdint.
 204              		.file 6 "e:\\dev\\tools\\gcc-arm-none-eabi-10-2020-q4-major\\arm-none-eabi\\include\\stdint.h"
 205              		.file 7 "Core/Inc/Intercom/Intercom.h"
 206              		.file 8 "<built-in>"
 207              		.file 9 "Core/Inc/Side.h"
ARM GAS  C:\Users\Admin\AppData\Local\Temp\ccXpqitw.s 			page 6


DEFINED SYMBOLS
                            *ABS*:00000000 Intercom.cpp
C:\Users\Admin\AppData\Local\Temp\ccXpqitw.s:16     .text._ZN8IntercomD2Ev:00000000 $t
C:\Users\Admin\AppData\Local\Temp\ccXpqitw.s:24     .text._ZN8IntercomD2Ev:00000000 _ZN8IntercomD2Ev
 .ARM.exidx.text._ZN8IntercomD2Ev:00000000 $d
C:\Users\Admin\AppData\Local\Temp\ccXpqitw.s:24     .text._ZN8IntercomD2Ev:00000000 _ZN8IntercomD1Ev
C:\Users\Admin\AppData\Local\Temp\ccXpqitw.s:66     .text._ZN8Intercom12TransitionToEP4Mode:00000000 $t
C:\Users\Admin\AppData\Local\Temp\ccXpqitw.s:73     .text._ZN8Intercom12TransitionToEP4Mode:00000000 _ZN8Intercom12TransitionToEP4Mode
.ARM.extab.text._ZN8Intercom12TransitionToEP4Mode:00000000 $d
.ARM.exidx.text._ZN8Intercom12TransitionToEP4Mode:00000000 $d
C:\Users\Admin\AppData\Local\Temp\ccXpqitw.s:109    .text._ZN8IntercomC2EP4Mode4Side:00000000 $t
C:\Users\Admin\AppData\Local\Temp\ccXpqitw.s:116    .text._ZN8IntercomC2EP4Mode4Side:00000000 _ZN8IntercomC2EP4Mode4Side
.ARM.exidx.text._ZN8IntercomC2EP4Mode4Side:00000000 $d
C:\Users\Admin\AppData\Local\Temp\ccXpqitw.s:116    .text._ZN8IntercomC2EP4Mode4Side:00000000 _ZN8IntercomC1EP4Mode4Side
C:\Users\Admin\AppData\Local\Temp\ccXpqitw.s:158    .text._ZN8Intercom8CheckKeyEm:00000000 $t
C:\Users\Admin\AppData\Local\Temp\ccXpqitw.s:165    .text._ZN8Intercom8CheckKeyEm:00000000 _ZN8Intercom8CheckKeyEm
.ARM.exidx.text._ZN8Intercom8CheckKeyEm:00000000 $d

UNDEFINED SYMBOLS
_ZN4Mode7SetModeEP8Intercom
__aeabi_unwind_cpp_pr1
__aeabi_unwind_cpp_pr0
