ARM GAS  C:\Users\Admin\AppData\Local\Temp\ccTeEp2P.s 			page 1


   1              		.cpu cortex-m3
   2              		.eabi_attribute 20, 1
   3              		.eabi_attribute 21, 1
   4              		.eabi_attribute 23, 3
   5              		.eabi_attribute 24, 1
   6              		.eabi_attribute 25, 1
   7              		.eabi_attribute 26, 1
   8              		.eabi_attribute 30, 1
   9              		.eabi_attribute 34, 1
  10              		.eabi_attribute 18, 4
  11              		.file	"InterruptPin.cpp"
  12              		.text
  13              	.Ltext0:
  14              		.cfi_sections	.debug_frame
  15              		.section	.text._ZN12InterruptPinC2EP12GPIO_TypeDeft,"ax",%progbits
  16              		.align	1
  17              		.global	_ZN12InterruptPinC2EP12GPIO_TypeDeft
  18              		.arch armv7-m
  19              		.syntax unified
  20              		.thumb
  21              		.thumb_func
  22              		.fpu softvfp
  24              	_ZN12InterruptPinC2EP12GPIO_TypeDeft:
  25              		.fnstart
  26              	.LVL0:
  27              	.LFB73:
  28              		.file 1 "Core/Src/InterruptPin.cpp"
   1:Core/Src/InterruptPin.cpp **** #include "InterruptPin.h"
   2:Core/Src/InterruptPin.cpp **** 
   3:Core/Src/InterruptPin.cpp **** InterruptPin::InterruptPin(GPIO_TypeDef *GPIOx, uint16_t GPIO_Pin) : PinIn(GPIOx, GPIO_Pin)
  29              		.loc 1 3 1 view -0
  30              		.cfi_startproc
  31              		@ args = 0, pretend = 0, frame = 0
  32              		@ frame_needed = 0, uses_anonymous_args = 0
  33              		.loc 1 3 1 is_stmt 0 view .LVU1
  34 0000 10B5     		push	{r4, lr}
  35              		.save {r4, lr}
  36              	.LCFI0:
  37              		.cfi_def_cfa_offset 8
  38              		.cfi_offset 4, -8
  39              		.cfi_offset 14, -4
  40 0002 0446     		mov	r4, r0
  41              	.LBB2:
  42              		.loc 1 3 91 view .LVU2
  43 0004 FFF7FEFF 		bl	_ZN5PinInC2EP12GPIO_TypeDeft
  44              	.LVL1:
   4:Core/Src/InterruptPin.cpp **** {
   5:Core/Src/InterruptPin.cpp ****     this->stateChanged = false;
  45              		.loc 1 5 5 is_stmt 1 view .LVU3
  46              		.loc 1 5 24 is_stmt 0 view .LVU4
  47 0008 0023     		movs	r3, #0
  48 000a A371     		strb	r3, [r4, #6]
  49              	.LBE2:
   6:Core/Src/InterruptPin.cpp **** }
  50              		.loc 1 6 1 view .LVU5
  51 000c 2046     		mov	r0, r4
  52 000e 10BD     		pop	{r4, pc}
ARM GAS  C:\Users\Admin\AppData\Local\Temp\ccTeEp2P.s 			page 2


  53              		.loc 1 6 1 view .LVU6
  54              		.cfi_endproc
  55              	.LFE73:
  56              		.fnend
  58              		.global	_ZN12InterruptPinC1EP12GPIO_TypeDeft
  59              		.thumb_set _ZN12InterruptPinC1EP12GPIO_TypeDeft,_ZN12InterruptPinC2EP12GPIO_TypeDeft
  60              		.section	.text._ZN12InterruptPin14isStateChangedEv,"ax",%progbits
  61              		.align	1
  62              		.global	_ZN12InterruptPin14isStateChangedEv
  63              		.syntax unified
  64              		.thumb
  65              		.thumb_func
  66              		.fpu softvfp
  68              	_ZN12InterruptPin14isStateChangedEv:
  69              		.fnstart
  70              	.LVL2:
  71              	.LFB75:
   7:Core/Src/InterruptPin.cpp **** 
   8:Core/Src/InterruptPin.cpp **** bool InterruptPin::isStateChanged()
   9:Core/Src/InterruptPin.cpp **** {
  72              		.loc 1 9 1 is_stmt 1 view -0
  73              		.cfi_startproc
  74              		@ args = 0, pretend = 0, frame = 0
  75              		@ frame_needed = 0, uses_anonymous_args = 0
  76              		@ link register save eliminated.
  77              		.loc 1 9 1 is_stmt 0 view .LVU8
  78 0000 0346     		mov	r3, r0
  10:Core/Src/InterruptPin.cpp ****     if (this->stateChanged == true)
  79              		.loc 1 10 5 is_stmt 1 view .LVU9
  80              		.loc 1 10 15 is_stmt 0 view .LVU10
  81 0002 8079     		ldrb	r0, [r0, #6]	@ zero_extendqisi2
  82              	.LVL3:
  83              		.loc 1 10 5 view .LVU11
  84 0004 00B9     		cbnz	r0, .L5
  85              	.L4:
  11:Core/Src/InterruptPin.cpp ****     {
  12:Core/Src/InterruptPin.cpp ****         this->stateChanged = false;
  13:Core/Src/InterruptPin.cpp ****         return true;
  14:Core/Src/InterruptPin.cpp ****     }
  15:Core/Src/InterruptPin.cpp **** 
  16:Core/Src/InterruptPin.cpp ****     return false;
  17:Core/Src/InterruptPin.cpp **** }
  86              		.loc 1 17 1 view .LVU12
  87 0006 7047     		bx	lr
  88              	.L5:
  12:Core/Src/InterruptPin.cpp ****         return true;
  89              		.loc 1 12 9 is_stmt 1 view .LVU13
  12:Core/Src/InterruptPin.cpp ****         return true;
  90              		.loc 1 12 28 is_stmt 0 view .LVU14
  91 0008 0022     		movs	r2, #0
  92 000a 9A71     		strb	r2, [r3, #6]
  13:Core/Src/InterruptPin.cpp ****     }
  93              		.loc 1 13 9 is_stmt 1 view .LVU15
  13:Core/Src/InterruptPin.cpp ****     }
  94              		.loc 1 13 16 is_stmt 0 view .LVU16
  95 000c FBE7     		b	.L4
  96              		.cfi_endproc
ARM GAS  C:\Users\Admin\AppData\Local\Temp\ccTeEp2P.s 			page 3


  97              	.LFE75:
  98              		.cantunwind
  99              		.fnend
 101              		.section	.text._ZN12InterruptPin15setStateChangedEv,"ax",%progbits
 102              		.align	1
 103              		.global	_ZN12InterruptPin15setStateChangedEv
 104              		.syntax unified
 105              		.thumb
 106              		.thumb_func
 107              		.fpu softvfp
 109              	_ZN12InterruptPin15setStateChangedEv:
 110              		.fnstart
 111              	.LVL4:
 112              	.LFB76:
  18:Core/Src/InterruptPin.cpp **** 
  19:Core/Src/InterruptPin.cpp **** void InterruptPin::setStateChanged()
  20:Core/Src/InterruptPin.cpp **** {
 113              		.loc 1 20 1 is_stmt 1 view -0
 114              		.cfi_startproc
 115              		@ args = 0, pretend = 0, frame = 0
 116              		@ frame_needed = 0, uses_anonymous_args = 0
 117              		@ link register save eliminated.
  21:Core/Src/InterruptPin.cpp ****     this->stateChanged = true;
 118              		.loc 1 21 5 view .LVU18
 119              		.loc 1 21 24 is_stmt 0 view .LVU19
 120 0000 0123     		movs	r3, #1
 121 0002 8371     		strb	r3, [r0, #6]
  22:Core/Src/InterruptPin.cpp **** }...
 122              		.loc 1 22 1 view .LVU20
 123 0004 7047     		bx	lr
 124              		.cfi_endproc
 125              	.LFE76:
 126              		.cantunwind
 127              		.fnend
 129              		.text
 130              	.Letext0:
 131              		.file 2 "e:\\dev\\tools\\gcc-arm-none-eabi-10-2020-q4-major\\arm-none-eabi\\include\\machine\\_def
 132              		.file 3 "e:\\dev\\tools\\gcc-arm-none-eabi-10-2020-q4-major\\arm-none-eabi\\include\\sys\\_stdint.
 133              		.file 4 "Drivers/CMSIS/Device/ST/STM32F1xx/Include/stm32f103xg.h"
 134              		.file 5 "Core/Inc/PinIn.h"
 135              		.file 6 "Core/Inc/InterruptPin.h"
 136              		.file 7 "Core/Inc/State.h"
ARM GAS  C:\Users\Admin\AppData\Local\Temp\ccTeEp2P.s 			page 4

