ARM GAS  C:\Users\Admin\AppData\Local\Temp\cc2jMLrb.s 			page 1


   1              		.cpu cortex-m3
   2              		.eabi_attribute 20, 1
   3              		.eabi_attribute 21, 1
   4              		.eabi_attribute 23, 3
   5              		.eabi_attribute 24, 1
   6              		.eabi_attribute 25, 1
   7              		.eabi_attribute 26, 1
   8              		.eabi_attribute 30, 1
   9              		.eabi_attribute 34, 1
  10              		.eabi_attribute 18, 4
  11              		.file	"InvertedPinOut.cpp"
  12              		.text
  13              	.Ltext0:
  14              		.cfi_sections	.debug_frame
  15              		.section	.text._ZN14InvertedPinOutC2EP12GPIO_TypeDeft,"ax",%progbits
  16              		.align	1
  17              		.global	_ZN14InvertedPinOutC2EP12GPIO_TypeDeft
  18              		.arch armv7-m
  19              		.syntax unified
  20              		.thumb
  21              		.thumb_func
  22              		.fpu softvfp
  24              	_ZN14InvertedPinOutC2EP12GPIO_TypeDeft:
  25              		.fnstart
  26              	.LVL0:
  27              	.LFB73:
  28              		.file 1 "Core/Src/InvertedPinOut.cpp"
   1:Core/Src/InvertedPinOut.cpp **** #include "InvertedPinOut.h"
   2:Core/Src/InvertedPinOut.cpp **** 
   3:Core/Src/InvertedPinOut.cpp **** InvertedPinOut::InvertedPinOut(GPIO_TypeDef *GPIOx, uint16_t GPIO_Pin) : PinOut(GPIOx, GPIO_Pin)
  29              		.loc 1 3 1 view -0
  30              		.cfi_startproc
  31              		@ args = 0, pretend = 0, frame = 0
  32              		@ frame_needed = 0, uses_anonymous_args = 0
  33              		.loc 1 3 1 is_stmt 0 view .LVU1
  34 0000 10B5     		push	{r4, lr}
  35              		.save {r4, lr}
  36              	.LCFI0:
  37              		.cfi_def_cfa_offset 8
  38              		.cfi_offset 4, -8
  39              		.cfi_offset 14, -4
  40 0002 0446     		mov	r4, r0
  41              	.LBB2:
  42              		.loc 1 3 96 view .LVU2
  43 0004 FFF7FEFF 		bl	_ZN6PinOutC2EP12GPIO_TypeDeft
  44              	.LVL1:
  45              		.loc 1 3 96 view .LVU3
  46              	.LBE2:
   4:Core/Src/InvertedPinOut.cpp **** {
   5:Core/Src/InvertedPinOut.cpp **** }
  47              		.loc 1 5 1 view .LVU4
  48 0008 2046     		mov	r0, r4
  49 000a 10BD     		pop	{r4, pc}
  50              		.loc 1 5 1 view .LVU5
  51              		.cfi_endproc
  52              	.LFE73:
  53              		.fnend
ARM GAS  C:\Users\Admin\AppData\Local\Temp\cc2jMLrb.s 			page 2


  55              		.global	_ZN14InvertedPinOutC1EP12GPIO_TypeDeft
  56              		.thumb_set _ZN14InvertedPinOutC1EP12GPIO_TypeDeft,_ZN14InvertedPinOutC2EP12GPIO_TypeDeft
  57              		.section	.text._ZN14InvertedPinOut6turnOnEv,"ax",%progbits
  58              		.align	1
  59              		.global	_ZN14InvertedPinOut6turnOnEv
  60              		.syntax unified
  61              		.thumb
  62              		.thumb_func
  63              		.fpu softvfp
  65              	_ZN14InvertedPinOut6turnOnEv:
  66              		.fnstart
  67              	.LVL2:
  68              	.LFB75:
   6:Core/Src/InvertedPinOut.cpp **** 
   7:Core/Src/InvertedPinOut.cpp **** void InvertedPinOut::turnOn()
   8:Core/Src/InvertedPinOut.cpp **** {
  69              		.loc 1 8 1 is_stmt 1 view -0
  70              		.cfi_startproc
  71              		@ args = 0, pretend = 0, frame = 0
  72              		@ frame_needed = 0, uses_anonymous_args = 0
  73              		.loc 1 8 1 is_stmt 0 view .LVU7
  74 0000 08B5     		push	{r3, lr}
  75              		.save {r3, lr}
  76              	.LCFI1:
  77              		.cfi_def_cfa_offset 8
  78              		.cfi_offset 3, -8
  79              		.cfi_offset 14, -4
   9:Core/Src/InvertedPinOut.cpp ****     setState(State::Off);
  80              		.loc 1 9 5 is_stmt 1 view .LVU8
  81              		.loc 1 9 13 is_stmt 0 view .LVU9
  82 0002 0021     		movs	r1, #0
  83 0004 FFF7FEFF 		bl	_ZN6PinOut8setStateE5State
  84              	.LVL3:
  10:Core/Src/InvertedPinOut.cpp **** }
  85              		.loc 1 10 1 view .LVU10
  86 0008 08BD     		pop	{r3, pc}
  87              		.cfi_endproc
  88              	.LFE75:
  89              		.fnend
  91              		.section	.text._ZN14InvertedPinOut7turnOffEv,"ax",%progbits
  92              		.align	1
  93              		.global	_ZN14InvertedPinOut7turnOffEv
  94              		.syntax unified
  95              		.thumb
  96              		.thumb_func
  97              		.fpu softvfp
  99              	_ZN14InvertedPinOut7turnOffEv:
 100              		.fnstart
 101              	.LVL4:
 102              	.LFB76:
  11:Core/Src/InvertedPinOut.cpp **** 
  12:Core/Src/InvertedPinOut.cpp **** void InvertedPinOut::turnOff()
  13:Core/Src/InvertedPinOut.cpp **** {
 103              		.loc 1 13 1 is_stmt 1 view -0
 104              		.cfi_startproc
 105              		@ args = 0, pretend = 0, frame = 0
 106              		@ frame_needed = 0, uses_anonymous_args = 0
ARM GAS  C:\Users\Admin\AppData\Local\Temp\cc2jMLrb.s 			page 3


 107              		.loc 1 13 1 is_stmt 0 view .LVU12
 108 0000 08B5     		push	{r3, lr}
 109              		.save {r3, lr}
 110              	.LCFI2:
 111              		.cfi_def_cfa_offset 8
 112              		.cfi_offset 3, -8
 113              		.cfi_offset 14, -4
  14:Core/Src/InvertedPinOut.cpp ****     setState(State::On);
 114              		.loc 1 14 5 is_stmt 1 view .LVU13
 115              		.loc 1 14 13 is_stmt 0 view .LVU14
 116 0002 0121     		movs	r1, #1
 117 0004 FFF7FEFF 		bl	_ZN6PinOut8setStateE5State
 118              	.LVL5:
  15:Core/Src/InvertedPinOut.cpp **** }...
 119              		.loc 1 15 1 view .LVU15
 120 0008 08BD     		pop	{r3, pc}
 121              		.cfi_endproc
 122              	.LFE76:
 123              		.fnend
 125              		.text
 126              	.Letext0:
 127              		.file 2 "e:\\dev\\tools\\gcc-arm-none-eabi-10-2020-q4-major\\arm-none-eabi\\include\\machine\\_def
 128              		.file 3 "e:\\dev\\tools\\gcc-arm-none-eabi-10-2020-q4-major\\arm-none-eabi\\include\\sys\\_stdint.
 129              		.file 4 "Drivers/CMSIS/Device/ST/STM32F1xx/Include/stm32f103xg.h"
 130              		.file 5 "Core/Inc/PinOut.h"
 131              		.file 6 "Core/Inc/InvertedPinOut.h"
 132              		.file 7 "Core/Inc/State.h"
ARM GAS  C:\Users\Admin\AppData\Local\Temp\cc2jMLrb.s 			page 4

