ARM GAS  C:\Users\Admin\AppData\Local\Temp\cchwZgJb.s 			page 1


   1              		.cpu cortex-m3
   2              		.eabi_attribute 20, 1
   3              		.eabi_attribute 21, 1
   4              		.eabi_attribute 23, 3
   5              		.eabi_attribute 24, 1
   6              		.eabi_attribute 25, 1
   7              		.eabi_attribute 26, 1
   8              		.eabi_attribute 30, 1
   9              		.eabi_attribute 34, 1
  10              		.eabi_attribute 18, 4
  11              		.file	"main.cpp"
  12              		.text
  13              	.Ltext0:
  14              		.cfi_sections	.debug_frame
  15              		.section	.text._ZL12MX_GPIO_Initv,"ax",%progbits
  16              		.align	1
  17              		.arch armv7-m
  18              		.syntax unified
  19              		.thumb
  20              		.thumb_func
  21              		.fpu softvfp
  23              	_ZL12MX_GPIO_Initv:
  24              		.fnstart
  25              	.LFB76:
  26              		.file 1 "Core/Src/main.cpp"
   1:Core/Src/main.cpp **** /* USER CODE BEGIN Header */
   2:Core/Src/main.cpp **** /**
   3:Core/Src/main.cpp ****   ******************************************************************************
   4:Core/Src/main.cpp ****   * @file           : main.c
   5:Core/Src/main.cpp ****   * @brief          : Main program body
   6:Core/Src/main.cpp ****   ******************************************************************************
   7:Core/Src/main.cpp ****   * @attention
   8:Core/Src/main.cpp ****   *
   9:Core/Src/main.cpp ****   * <h2><center>&copy; Copyright (c) 2021 STMicroelectronics.
  10:Core/Src/main.cpp ****   * All rights reserved.</center></h2>
  11:Core/Src/main.cpp ****   *
  12:Core/Src/main.cpp ****   * This software component is licensed by ST under BSD 3-Clause license,
  13:Core/Src/main.cpp ****   * the "License"; You may not use this file except in compliance with the
  14:Core/Src/main.cpp ****   * License. You may obtain a copy of the License at:
  15:Core/Src/main.cpp ****   *                        opensource.org/licenses/BSD-3-Clause
  16:Core/Src/main.cpp ****   *
  17:Core/Src/main.cpp ****   ******************************************************************************
  18:Core/Src/main.cpp ****   */
  19:Core/Src/main.cpp **** /* USER CODE END Header */
  20:Core/Src/main.cpp **** /* Includes ------------------------------------------------------------------*/
  21:Core/Src/main.cpp **** #include "main.h"
  22:Core/Src/main.cpp **** 
  23:Core/Src/main.cpp **** /* Private includes ----------------------------------------------------------*/
  24:Core/Src/main.cpp **** /* USER CODE BEGIN Includes */
  25:Core/Src/main.cpp **** #include "string.h"
  26:Core/Src/main.cpp **** #include <stdio.h>
  27:Core/Src/main.cpp **** #include "wiegand.h"
  28:Core/Src/main.cpp **** #include <stdarg.h>
  29:Core/Src/main.cpp **** // #include <stdbool.h>
  30:Core/Src/main.cpp **** /* USER CODE END Includes */
  31:Core/Src/main.cpp **** 
  32:Core/Src/main.cpp **** /* Private typedef -----------------------------------------------------------*/
ARM GAS  C:\Users\Admin\AppData\Local\Temp\cchwZgJb.s 			page 2


  33:Core/Src/main.cpp **** /* USER CODE BEGIN PTD */
  34:Core/Src/main.cpp **** 
  35:Core/Src/main.cpp **** /* USER CODE END PTD */
  36:Core/Src/main.cpp **** 
  37:Core/Src/main.cpp **** /* Private define ------------------------------------------------------------*/
  38:Core/Src/main.cpp **** /* USER CODE BEGIN PD */
  39:Core/Src/main.cpp **** /* USER CODE END PD */
  40:Core/Src/main.cpp **** 
  41:Core/Src/main.cpp **** /* Private macro -------------------------------------------------------------*/
  42:Core/Src/main.cpp **** /* USER CODE BEGIN PM */
  43:Core/Src/main.cpp **** /* USER CODE END PM */
  44:Core/Src/main.cpp **** 
  45:Core/Src/main.cpp **** /* Private variables ---------------------------------------------------------*/
  46:Core/Src/main.cpp **** UART_HandleTypeDef huart1;
  47:Core/Src/main.cpp **** 
  48:Core/Src/main.cpp **** /* USER CODE BEGIN PV */
  49:Core/Src/main.cpp **** 
  50:Core/Src/main.cpp **** volatile uint8_t wig_flag_inrt = 1;
  51:Core/Src/main.cpp **** 
  52:Core/Src/main.cpp **** /* USER CODE END PV */
  53:Core/Src/main.cpp **** 
  54:Core/Src/main.cpp **** /* Private function prototypes -----------------------------------------------*/
  55:Core/Src/main.cpp **** void SystemClock_Config(void);
  56:Core/Src/main.cpp **** static void MX_GPIO_Init(void);
  57:Core/Src/main.cpp **** static void MX_USART1_UART_Init(void);
  58:Core/Src/main.cpp **** /* USER CODE BEGIN PFP */
  59:Core/Src/main.cpp **** 
  60:Core/Src/main.cpp **** /* USER CODE END PFP */
  61:Core/Src/main.cpp **** 
  62:Core/Src/main.cpp **** /* Private user code ---------------------------------------------------------*/
  63:Core/Src/main.cpp **** /* USER CODE BEGIN 0 */
  64:Core/Src/main.cpp **** 
  65:Core/Src/main.cpp **** enum WorkMode
  66:Core/Src/main.cpp **** {
  67:Core/Src/main.cpp ****   NormalMode,
  68:Core/Src/main.cpp ****   ClosedMode,
  69:Core/Src/main.cpp ****   OpenMode,
  70:Core/Src/main.cpp ****   CondOpenMode,
  71:Core/Src/main.cpp ****   TempOpenMode,
  72:Core/Src/main.cpp ****   AlarmMode
  73:Core/Src/main.cpp **** };
  74:Core/Src/main.cpp **** /**
  75:Core/Src/main.cpp ****    * NormalMode,
  76:Core/Src/main.cpp ****    * ClosedMode,
  77:Core/Src/main.cpp ****    * OpenMode,
  78:Core/Src/main.cpp ****    * CondOpenMode,
  79:Core/Src/main.cpp ****    * TempOpenMode,
  80:Core/Src/main.cpp ****    * AlarmMode
  81:Core/Src/main.cpp ****   */
  82:Core/Src/main.cpp **** WorkMode workMode = NormalMode, previousWorkMode = NormalMode;
  83:Core/Src/main.cpp **** 
  84:Core/Src/main.cpp **** enum States
  85:Core/Src/main.cpp **** {
  86:Core/Src/main.cpp ****   OpenedState,
  87:Core/Src/main.cpp ****   ClosedState,
  88:Core/Src/main.cpp ****   NullState
  89:Core/Src/main.cpp **** };
ARM GAS  C:\Users\Admin\AppData\Local\Temp\cchwZgJb.s 			page 3


  90:Core/Src/main.cpp **** /**
  91:Core/Src/main.cpp ****    * OpenedState,
  92:Core/Src/main.cpp ****    * ClosedState,
  93:Core/Src/main.cpp ****    * NullState
  94:Core/Src/main.cpp ****   */
  95:Core/Src/main.cpp **** States doorState = ClosedState, relayState = ClosedState;
  96:Core/Src/main.cpp **** 
  97:Core/Src/main.cpp **** enum RelayMode
  98:Core/Src/main.cpp **** {
  99:Core/Src/main.cpp ****   Constant,
 100:Core/Src/main.cpp ****   Impulse,
 101:Core/Src/main.cpp ****   ConstantSwitch,
 102:Core/Src/main.cpp ****   Valve,
 103:Core/Src/main.cpp ****   Null
 104:Core/Src/main.cpp **** };
 105:Core/Src/main.cpp **** RelayMode relayMode = Constant;
 106:Core/Src/main.cpp **** 
 107:Core/Src/main.cpp **** enum AlarmCause
 108:Core/Src/main.cpp **** {
 109:Core/Src/main.cpp ****   OpenedDoor,
 110:Core/Src/main.cpp ****   None
 111:Core/Src/main.cpp **** };
 112:Core/Src/main.cpp **** AlarmCause alarmCause = None;
 113:Core/Src/main.cpp **** 
 114:Core/Src/main.cpp **** // time ticker for verifying if 15 seconds passed to switch mode
 115:Core/Src/main.cpp **** uint32_t timme = 0;
 116:Core/Src/main.cpp **** 
 117:Core/Src/main.cpp **** // was button to open the door pressed?
 118:Core/Src/main.cpp **** bool
 119:Core/Src/main.cpp ****   insideButtonPressed = false,
 120:Core/Src/main.cpp ****   outsideButtonPressed = false,
 121:Core/Src/main.cpp ****   insideKeyRead = false,
 122:Core/Src/main.cpp ****   outsideKeyRead = false,
 123:Core/Src/main.cpp ****   firstTime = false,
 124:Core/Src/main.cpp ****   doorRecentlyClosed = false,
 125:Core/Src/main.cpp ****   alarmTrigger = false,
 126:Core/Src/main.cpp ****   toBlink = false;
 127:Core/Src/main.cpp **** 
 128:Core/Src/main.cpp **** uint32_t
 129:Core/Src/main.cpp ****   relayUnlockingTime = 0,
 130:Core/Src/main.cpp ****   timmeTrack = 0,
 131:Core/Src/main.cpp ****   blinkTime = 0,
 132:Core/Src/main.cpp ****   blinkStart = 0;
 133:Core/Src/main.cpp **** 
 134:Core/Src/main.cpp **** // enum Direction
 135:Core/Src/main.cpp **** // {
 136:Core/Src/main.cpp **** //   IN,
 137:Core/Src/main.cpp **** //   OUT,
 138:Core/Src/main.cpp **** //   BOTH
 139:Core/Src/main.cpp **** // };
 140:Core/Src/main.cpp **** 
 141:Core/Src/main.cpp **** // struct Key
 142:Core/Src/main.cpp **** // {
 143:Core/Src/main.cpp **** //   uint32_t code;
 144:Core/Src/main.cpp **** //   enum Direction direction;
 145:Core/Src/main.cpp **** //   uint32_t accessTime;
 146:Core/Src/main.cpp **** // };
ARM GAS  C:\Users\Admin\AppData\Local\Temp\cchwZgJb.s 			page 4


 147:Core/Src/main.cpp **** 
 148:Core/Src/main.cpp **** /*----> Functions Declaration <----*/
 149:Core/Src/main.cpp **** 
 150:Core/Src/main.cpp **** void timeTrackEvent();
 151:Core/Src/main.cpp **** void changeModeEvent();
 152:Core/Src/main.cpp **** void blinkEvent();
 153:Core/Src/main.cpp **** void intercomKeyEvent();
 154:Core/Src/main.cpp **** void buttonPressedEvent();
 155:Core/Src/main.cpp **** void doorUnlockEvent();
 156:Core/Src/main.cpp **** void doorClosedEvent();
 157:Core/Src/main.cpp **** void greenLightEvent();
 158:Core/Src/main.cpp **** void bellEvent();
 159:Core/Src/main.cpp **** void alarmEvent();
 160:Core/Src/main.cpp **** 
 161:Core/Src/main.cpp **** bool verifyCode(uint32_t code);
 162:Core/Src/main.cpp **** void UART_Printf(const char *fmt, ...);
 163:Core/Src/main.cpp **** void switchMode();
 164:Core/Src/main.cpp **** void unlockDoor();
 165:Core/Src/main.cpp **** void unlockRelay();
 166:Core/Src/main.cpp **** void lockDoor();
 167:Core/Src/main.cpp **** void doorChangedState(enum States currentState);
 168:Core/Src/main.cpp **** 
 169:Core/Src/main.cpp **** /* USER CODE END 0 */
 170:Core/Src/main.cpp **** 
 171:Core/Src/main.cpp **** /**
 172:Core/Src/main.cpp ****   * @brief  The application entry point.
 173:Core/Src/main.cpp ****   * @retval int
 174:Core/Src/main.cpp ****   */
 175:Core/Src/main.cpp **** int main(void)
 176:Core/Src/main.cpp **** {
 177:Core/Src/main.cpp ****   /* USER CODE BEGIN 1 */
 178:Core/Src/main.cpp **** 
 179:Core/Src/main.cpp ****   /* USER CODE END 1 */
 180:Core/Src/main.cpp **** 
 181:Core/Src/main.cpp ****   /* MCU Configuration--------------------------------------------------------*/
 182:Core/Src/main.cpp **** 
 183:Core/Src/main.cpp ****   /* Reset of all peripherals, Initializes the Flash interface and the Systick. */
 184:Core/Src/main.cpp ****   HAL_Init();
 185:Core/Src/main.cpp **** 
 186:Core/Src/main.cpp ****   /* USER CODE BEGIN Init */
 187:Core/Src/main.cpp **** 
 188:Core/Src/main.cpp ****   /* USER CODE END Init */
 189:Core/Src/main.cpp **** 
 190:Core/Src/main.cpp ****   /* Configure the system clock */
 191:Core/Src/main.cpp ****   SystemClock_Config();
 192:Core/Src/main.cpp **** 
 193:Core/Src/main.cpp ****   /* USER CODE BEGIN SysInit */
 194:Core/Src/main.cpp **** 
 195:Core/Src/main.cpp ****   /* USER CODE END SysInit */
 196:Core/Src/main.cpp **** 
 197:Core/Src/main.cpp ****   /* Initialize all configured peripherals */
 198:Core/Src/main.cpp ****   MX_GPIO_Init();
 199:Core/Src/main.cpp ****   MX_USART1_UART_Init();
 200:Core/Src/main.cpp ****   /* USER CODE BEGIN 2 */
 201:Core/Src/main.cpp **** 
 202:Core/Src/main.cpp ****   /* USER CODE END 2 */
 203:Core/Src/main.cpp **** 
ARM GAS  C:\Users\Admin\AppData\Local\Temp\cchwZgJb.s 			page 5


 204:Core/Src/main.cpp ****   /* Infinite loop */
 205:Core/Src/main.cpp ****   /* USER CODE BEGIN WHILE */
 206:Core/Src/main.cpp ****   while (1)
 207:Core/Src/main.cpp ****   {
 208:Core/Src/main.cpp ****     timeTrackEvent();
 209:Core/Src/main.cpp **** 
 210:Core/Src/main.cpp ****     changeModeEvent();
 211:Core/Src/main.cpp **** 
 212:Core/Src/main.cpp ****     blinkEvent();
 213:Core/Src/main.cpp **** 
 214:Core/Src/main.cpp ****     intercomKeyEvent();
 215:Core/Src/main.cpp **** 
 216:Core/Src/main.cpp ****     buttonPressedEvent();
 217:Core/Src/main.cpp **** 
 218:Core/Src/main.cpp ****     doorUnlockEvent();
 219:Core/Src/main.cpp **** 
 220:Core/Src/main.cpp ****     doorClosedEvent();
 221:Core/Src/main.cpp **** 
 222:Core/Src/main.cpp ****     greenLightEvent();
 223:Core/Src/main.cpp **** 
 224:Core/Src/main.cpp ****     bellEvent();
 225:Core/Src/main.cpp **** 
 226:Core/Src/main.cpp ****     alarmEvent();
 227:Core/Src/main.cpp ****     /* USER CODE END WHILE */
 228:Core/Src/main.cpp **** 
 229:Core/Src/main.cpp ****     /* USER CODE BEGIN 3 */
 230:Core/Src/main.cpp ****   }
 231:Core/Src/main.cpp ****   /* USER CODE END 3 */
 232:Core/Src/main.cpp **** }
 233:Core/Src/main.cpp **** 
 234:Core/Src/main.cpp **** /**
 235:Core/Src/main.cpp ****   * @brief System Clock Configuration
 236:Core/Src/main.cpp ****   * @retval None
 237:Core/Src/main.cpp ****   */
 238:Core/Src/main.cpp **** void SystemClock_Config(void)
 239:Core/Src/main.cpp **** {
 240:Core/Src/main.cpp ****   RCC_OscInitTypeDef RCC_OscInitStruct = {0};
 241:Core/Src/main.cpp ****   RCC_ClkInitTypeDef RCC_ClkInitStruct = {0};
 242:Core/Src/main.cpp **** 
 243:Core/Src/main.cpp ****   /** Initializes the RCC Oscillators according to the specified parameters
 244:Core/Src/main.cpp ****   * in the RCC_OscInitTypeDef structure.
 245:Core/Src/main.cpp ****   */
 246:Core/Src/main.cpp ****   RCC_OscInitStruct.OscillatorType = RCC_OSCILLATORTYPE_HSI;
 247:Core/Src/main.cpp ****   RCC_OscInitStruct.HSIState = RCC_HSI_ON;
 248:Core/Src/main.cpp ****   RCC_OscInitStruct.HSICalibrationValue = RCC_HSICALIBRATION_DEFAULT;
 249:Core/Src/main.cpp ****   RCC_OscInitStruct.PLL.PLLState = RCC_PLL_ON;
 250:Core/Src/main.cpp ****   RCC_OscInitStruct.PLL.PLLSource = RCC_PLLSOURCE_HSI_DIV2;
 251:Core/Src/main.cpp ****   RCC_OscInitStruct.PLL.PLLMUL = RCC_PLL_MUL9;
 252:Core/Src/main.cpp ****   if (HAL_RCC_OscConfig(&RCC_OscInitStruct) != HAL_OK)
 253:Core/Src/main.cpp ****   {
 254:Core/Src/main.cpp ****     Error_Handler();
 255:Core/Src/main.cpp ****   }
 256:Core/Src/main.cpp ****   /** Initializes the CPU, AHB and APB buses clocks
 257:Core/Src/main.cpp ****   */
 258:Core/Src/main.cpp ****   RCC_ClkInitStruct.ClockType = RCC_CLOCKTYPE_HCLK | RCC_CLOCKTYPE_SYSCLK | RCC_CLOCKTYPE_PCLK1 | R
 259:Core/Src/main.cpp ****   RCC_ClkInitStruct.SYSCLKSource = RCC_SYSCLKSOURCE_PLLCLK;
 260:Core/Src/main.cpp ****   RCC_ClkInitStruct.AHBCLKDivider = RCC_SYSCLK_DIV1;
ARM GAS  C:\Users\Admin\AppData\Local\Temp\cchwZgJb.s 			page 6


 261:Core/Src/main.cpp ****   RCC_ClkInitStruct.APB1CLKDivider = RCC_HCLK_DIV2;
 262:Core/Src/main.cpp ****   RCC_ClkInitStruct.APB2CLKDivider = RCC_HCLK_DIV1;
 263:Core/Src/main.cpp **** 
 264:Core/Src/main.cpp ****   if (HAL_RCC_ClockConfig(&RCC_ClkInitStruct, FLASH_LATENCY_1) != HAL_OK)
 265:Core/Src/main.cpp ****   {
 266:Core/Src/main.cpp ****     Error_Handler();
 267:Core/Src/main.cpp ****   }
 268:Core/Src/main.cpp **** }
 269:Core/Src/main.cpp **** 
 270:Core/Src/main.cpp **** /**
 271:Core/Src/main.cpp ****   * @brief USART1 Initialization Function
 272:Core/Src/main.cpp ****   * @param None
 273:Core/Src/main.cpp ****   * @retval None
 274:Core/Src/main.cpp ****   */
 275:Core/Src/main.cpp **** static void MX_USART1_UART_Init(void)
 276:Core/Src/main.cpp **** {
 277:Core/Src/main.cpp **** 
 278:Core/Src/main.cpp ****   /* USER CODE BEGIN USART1_Init 0 */
 279:Core/Src/main.cpp **** 
 280:Core/Src/main.cpp ****   /* USER CODE END USART1_Init 0 */
 281:Core/Src/main.cpp **** 
 282:Core/Src/main.cpp ****   /* USER CODE BEGIN USART1_Init 1 */
 283:Core/Src/main.cpp **** 
 284:Core/Src/main.cpp ****   /* USER CODE END USART1_Init 1 */
 285:Core/Src/main.cpp ****   huart1.Instance = USART1;
 286:Core/Src/main.cpp ****   huart1.Init.BaudRate = 115200;
 287:Core/Src/main.cpp ****   huart1.Init.WordLength = UART_WORDLENGTH_8B;
 288:Core/Src/main.cpp ****   huart1.Init.StopBits = UART_STOPBITS_1;
 289:Core/Src/main.cpp ****   huart1.Init.Parity = UART_PARITY_NONE;
 290:Core/Src/main.cpp ****   huart1.Init.Mode = UART_MODE_TX_RX;
 291:Core/Src/main.cpp ****   huart1.Init.HwFlowCtl = UART_HWCONTROL_NONE;
 292:Core/Src/main.cpp ****   huart1.Init.OverSampling = UART_OVERSAMPLING_16;
 293:Core/Src/main.cpp ****   if (HAL_UART_Init(&huart1) != HAL_OK)
 294:Core/Src/main.cpp ****   {
 295:Core/Src/main.cpp ****     Error_Handler();
 296:Core/Src/main.cpp ****   }
 297:Core/Src/main.cpp ****   /* USER CODE BEGIN USART1_Init 2 */
 298:Core/Src/main.cpp **** 
 299:Core/Src/main.cpp ****   /* USER CODE END USART1_Init 2 */
 300:Core/Src/main.cpp **** }
 301:Core/Src/main.cpp **** 
 302:Core/Src/main.cpp **** /**
 303:Core/Src/main.cpp ****   * @brief GPIO Initialization Function
 304:Core/Src/main.cpp ****   * @param None
 305:Core/Src/main.cpp ****   * @retval None
 306:Core/Src/main.cpp ****   */
 307:Core/Src/main.cpp **** static void MX_GPIO_Init(void)
 308:Core/Src/main.cpp **** {
  27              		.loc 1 308 1 view -0
  28              		.cfi_startproc
  29              		@ args = 0, pretend = 0, frame = 32
  30              		@ frame_needed = 0, uses_anonymous_args = 0
  31 0000 70B5     		push	{r4, r5, r6, lr}
  32              		.save {r4, r5, r6, lr}
  33              	.LCFI0:
  34              		.cfi_def_cfa_offset 16
  35              		.cfi_offset 4, -16
ARM GAS  C:\Users\Admin\AppData\Local\Temp\cchwZgJb.s 			page 7


  36              		.cfi_offset 5, -12
  37              		.cfi_offset 6, -8
  38              		.cfi_offset 14, -4
  39              		.pad #32
  40 0002 88B0     		sub	sp, sp, #32
  41              	.LCFI1:
  42              		.cfi_def_cfa_offset 48
 309:Core/Src/main.cpp ****   GPIO_InitTypeDef GPIO_InitStruct = {0};
  43              		.loc 1 309 3 view .LVU1
  44              		.loc 1 309 20 is_stmt 0 view .LVU2
  45 0004 0024     		movs	r4, #0
  46 0006 0494     		str	r4, [sp, #16]
  47 0008 0594     		str	r4, [sp, #20]
  48 000a 0694     		str	r4, [sp, #24]
  49 000c 0794     		str	r4, [sp, #28]
 310:Core/Src/main.cpp **** 
 311:Core/Src/main.cpp ****   /* GPIO Ports Clock Enable */
 312:Core/Src/main.cpp ****   __HAL_RCC_GPIOC_CLK_ENABLE();
  50              		.loc 1 312 3 is_stmt 1 view .LVU3
  51              	.LBB4:
  52              		.loc 1 312 3 view .LVU4
  53              		.loc 1 312 3 view .LVU5
  54 000e 3B4B     		ldr	r3, .L3
  55 0010 9A69     		ldr	r2, [r3, #24]
  56 0012 42F01002 		orr	r2, r2, #16
  57 0016 9A61     		str	r2, [r3, #24]
  58              		.loc 1 312 3 view .LVU6
  59 0018 9A69     		ldr	r2, [r3, #24]
  60 001a 02F01002 		and	r2, r2, #16
  61 001e 0192     		str	r2, [sp, #4]
  62              		.loc 1 312 3 view .LVU7
  63 0020 019A     		ldr	r2, [sp, #4]
  64              	.LBE4:
 313:Core/Src/main.cpp ****   __HAL_RCC_GPIOB_CLK_ENABLE();
  65              		.loc 1 313 3 view .LVU8
  66              	.LBB5:
  67              		.loc 1 313 3 view .LVU9
  68              		.loc 1 313 3 view .LVU10
  69 0022 9A69     		ldr	r2, [r3, #24]
  70 0024 42F00802 		orr	r2, r2, #8
  71 0028 9A61     		str	r2, [r3, #24]
  72              		.loc 1 313 3 view .LVU11
  73 002a 9A69     		ldr	r2, [r3, #24]
  74 002c 02F00802 		and	r2, r2, #8
  75 0030 0292     		str	r2, [sp, #8]
  76              		.loc 1 313 3 view .LVU12
  77 0032 029A     		ldr	r2, [sp, #8]
  78              	.LBE5:
 314:Core/Src/main.cpp ****   __HAL_RCC_GPIOA_CLK_ENABLE();
  79              		.loc 1 314 3 view .LVU13
  80              	.LBB6:
  81              		.loc 1 314 3 view .LVU14
  82              		.loc 1 314 3 view .LVU15
  83 0034 9A69     		ldr	r2, [r3, #24]
  84 0036 42F00402 		orr	r2, r2, #4
  85 003a 9A61     		str	r2, [r3, #24]
  86              		.loc 1 314 3 view .LVU16
ARM GAS  C:\Users\Admin\AppData\Local\Temp\cchwZgJb.s 			page 8


  87 003c 9B69     		ldr	r3, [r3, #24]
  88 003e 03F00403 		and	r3, r3, #4
  89 0042 0393     		str	r3, [sp, #12]
  90              		.loc 1 314 3 view .LVU17
  91 0044 039B     		ldr	r3, [sp, #12]
  92              	.LBE6:
 315:Core/Src/main.cpp **** 
 316:Core/Src/main.cpp ****   /*Configure GPIO pin Output Level */
 317:Core/Src/main.cpp ****   HAL_GPIO_WritePin(GPIOB, Zumer1_Pin | Zumer2_Pin | GreenLed_1_Pin | GreenLed_2_Pin, GPIO_PIN_SET)
  93              		.loc 1 317 3 view .LVU18
  94              		.loc 1 317 20 is_stmt 0 view .LVU19
  95 0046 2E4E     		ldr	r6, .L3+4
  96 0048 0122     		movs	r2, #1
  97 004a 4FF44C41 		mov	r1, #52224
  98 004e 3046     		mov	r0, r6
  99 0050 FFF7FEFF 		bl	HAL_GPIO_WritePin
 100              	.LVL0:
 318:Core/Src/main.cpp **** 
 319:Core/Src/main.cpp ****   /*Configure GPIO pins : D_01_Pin D_11_Pin D_02_Pin D_12_Pin */
 320:Core/Src/main.cpp ****   GPIO_InitStruct.Pin = D_01_Pin | D_11_Pin | D_02_Pin | D_12_Pin;
 101              		.loc 1 320 3 is_stmt 1 view .LVU20
 102              		.loc 1 320 23 is_stmt 0 view .LVU21
 103 0054 C323     		movs	r3, #195
 104 0056 0493     		str	r3, [sp, #16]
 321:Core/Src/main.cpp ****   GPIO_InitStruct.Mode = GPIO_MODE_IT_FALLING;
 105              		.loc 1 321 3 is_stmt 1 view .LVU22
 106              		.loc 1 321 24 is_stmt 0 view .LVU23
 107 0058 2A4B     		ldr	r3, .L3+8
 108 005a 0593     		str	r3, [sp, #20]
 322:Core/Src/main.cpp ****   GPIO_InitStruct.Pull = GPIO_NOPULL;
 109              		.loc 1 322 3 is_stmt 1 view .LVU24
 110              		.loc 1 322 24 is_stmt 0 view .LVU25
 111 005c 0694     		str	r4, [sp, #24]
 323:Core/Src/main.cpp ****   HAL_GPIO_Init(GPIOC, &GPIO_InitStruct);
 112              		.loc 1 323 3 is_stmt 1 view .LVU26
 113              		.loc 1 323 16 is_stmt 0 view .LVU27
 114 005e 2A4D     		ldr	r5, .L3+12
 115 0060 04A9     		add	r1, sp, #16
 116 0062 2846     		mov	r0, r5
 117 0064 FFF7FEFF 		bl	HAL_GPIO_Init
 118              	.LVL1:
 324:Core/Src/main.cpp **** 
 325:Core/Src/main.cpp ****   /*Configure GPIO pins : BT_0_Pin BT_1_Pin */
 326:Core/Src/main.cpp ****   GPIO_InitStruct.Pin = BT_0_Pin | BT_1_Pin;
 119              		.loc 1 326 3 is_stmt 1 view .LVU28
 120              		.loc 1 326 23 is_stmt 0 view .LVU29
 121 0068 0C23     		movs	r3, #12
 122 006a 0493     		str	r3, [sp, #16]
 327:Core/Src/main.cpp ****   GPIO_InitStruct.Mode = GPIO_MODE_IT_RISING;
 123              		.loc 1 327 3 is_stmt 1 view .LVU30
 124              		.loc 1 327 24 is_stmt 0 view .LVU31
 125 006c 274B     		ldr	r3, .L3+16
 126 006e 0593     		str	r3, [sp, #20]
 328:Core/Src/main.cpp ****   GPIO_InitStruct.Pull = GPIO_NOPULL;
 127              		.loc 1 328 3 is_stmt 1 view .LVU32
 128              		.loc 1 328 24 is_stmt 0 view .LVU33
 129 0070 0694     		str	r4, [sp, #24]
ARM GAS  C:\Users\Admin\AppData\Local\Temp\cchwZgJb.s 			page 9


 329:Core/Src/main.cpp ****   HAL_GPIO_Init(GPIOC, &GPIO_InitStruct);
 130              		.loc 1 329 3 is_stmt 1 view .LVU34
 131              		.loc 1 329 16 is_stmt 0 view .LVU35
 132 0072 04A9     		add	r1, sp, #16
 133 0074 2846     		mov	r0, r5
 134 0076 FFF7FEFF 		bl	HAL_GPIO_Init
 135              	.LVL2:
 330:Core/Src/main.cpp **** 
 331:Core/Src/main.cpp ****   /*Configure GPIO pins : Zumer1_Pin Zumer2_Pin GreenLed_1_Pin GreenLed_2_Pin */
 332:Core/Src/main.cpp ****   GPIO_InitStruct.Pin = Zumer1_Pin | Zumer2_Pin | GreenLed_1_Pin | GreenLed_2_Pin;
 136              		.loc 1 332 3 is_stmt 1 view .LVU36
 137              		.loc 1 332 23 is_stmt 0 view .LVU37
 138 007a 4FF44C43 		mov	r3, #52224
 139 007e 0493     		str	r3, [sp, #16]
 333:Core/Src/main.cpp ****   GPIO_InitStruct.Mode = GPIO_MODE_OUTPUT_PP;
 140              		.loc 1 333 3 is_stmt 1 view .LVU38
 141              		.loc 1 333 24 is_stmt 0 view .LVU39
 142 0080 0123     		movs	r3, #1
 143 0082 0593     		str	r3, [sp, #20]
 334:Core/Src/main.cpp ****   GPIO_InitStruct.Pull = GPIO_NOPULL;
 144              		.loc 1 334 3 is_stmt 1 view .LVU40
 145              		.loc 1 334 24 is_stmt 0 view .LVU41
 146 0084 0694     		str	r4, [sp, #24]
 335:Core/Src/main.cpp ****   GPIO_InitStruct.Speed = GPIO_SPEED_FREQ_LOW;
 147              		.loc 1 335 3 is_stmt 1 view .LVU42
 148              		.loc 1 335 25 is_stmt 0 view .LVU43
 149 0086 0223     		movs	r3, #2
 150 0088 0793     		str	r3, [sp, #28]
 336:Core/Src/main.cpp ****   HAL_GPIO_Init(GPIOB, &GPIO_InitStruct);
 151              		.loc 1 336 3 is_stmt 1 view .LVU44
 152              		.loc 1 336 16 is_stmt 0 view .LVU45
 153 008a 04A9     		add	r1, sp, #16
 154 008c 3046     		mov	r0, r6
 155 008e FFF7FEFF 		bl	HAL_GPIO_Init
 156              	.LVL3:
 337:Core/Src/main.cpp **** 
 338:Core/Src/main.cpp ****   /*Configure GPIO pin : Door_Pin */
 339:Core/Src/main.cpp ****   GPIO_InitStruct.Pin = Door_Pin;
 157              		.loc 1 339 3 is_stmt 1 view .LVU46
 158              		.loc 1 339 23 is_stmt 0 view .LVU47
 159 0092 4FF48073 		mov	r3, #256
 160 0096 0493     		str	r3, [sp, #16]
 340:Core/Src/main.cpp ****   GPIO_InitStruct.Mode = GPIO_MODE_IT_RISING_FALLING;
 161              		.loc 1 340 3 is_stmt 1 view .LVU48
 162              		.loc 1 340 24 is_stmt 0 view .LVU49
 163 0098 1D4B     		ldr	r3, .L3+20
 164 009a 0593     		str	r3, [sp, #20]
 341:Core/Src/main.cpp ****   GPIO_InitStruct.Pull = GPIO_NOPULL;
 165              		.loc 1 341 3 is_stmt 1 view .LVU50
 166              		.loc 1 341 24 is_stmt 0 view .LVU51
 167 009c 0694     		str	r4, [sp, #24]
 342:Core/Src/main.cpp ****   HAL_GPIO_Init(Door_GPIO_Port, &GPIO_InitStruct);
 168              		.loc 1 342 3 is_stmt 1 view .LVU52
 169              		.loc 1 342 16 is_stmt 0 view .LVU53
 170 009e 04A9     		add	r1, sp, #16
 171 00a0 2846     		mov	r0, r5
 172 00a2 FFF7FEFF 		bl	HAL_GPIO_Init
ARM GAS  C:\Users\Admin\AppData\Local\Temp\cchwZgJb.s 			page 10


 173              	.LVL4:
 343:Core/Src/main.cpp **** 
 344:Core/Src/main.cpp ****   /* EXTI interrupt init*/
 345:Core/Src/main.cpp ****   HAL_NVIC_SetPriority(EXTI0_IRQn, 0, 0);
 174              		.loc 1 345 3 is_stmt 1 view .LVU54
 175              		.loc 1 345 23 is_stmt 0 view .LVU55
 176 00a6 2246     		mov	r2, r4
 177 00a8 2146     		mov	r1, r4
 178 00aa 0620     		movs	r0, #6
 179 00ac FFF7FEFF 		bl	HAL_NVIC_SetPriority
 180              	.LVL5:
 346:Core/Src/main.cpp ****   HAL_NVIC_EnableIRQ(EXTI0_IRQn);
 181              		.loc 1 346 3 is_stmt 1 view .LVU56
 182              		.loc 1 346 21 is_stmt 0 view .LVU57
 183 00b0 0620     		movs	r0, #6
 184 00b2 FFF7FEFF 		bl	HAL_NVIC_EnableIRQ
 185              	.LVL6:
 347:Core/Src/main.cpp **** 
 348:Core/Src/main.cpp ****   HAL_NVIC_SetPriority(EXTI1_IRQn, 0, 0);
 186              		.loc 1 348 3 is_stmt 1 view .LVU58
 187              		.loc 1 348 23 is_stmt 0 view .LVU59
 188 00b6 2246     		mov	r2, r4
 189 00b8 2146     		mov	r1, r4
 190 00ba 0720     		movs	r0, #7
 191 00bc FFF7FEFF 		bl	HAL_NVIC_SetPriority
 192              	.LVL7:
 349:Core/Src/main.cpp ****   HAL_NVIC_EnableIRQ(EXTI1_IRQn);
 193              		.loc 1 349 3 is_stmt 1 view .LVU60
 194              		.loc 1 349 21 is_stmt 0 view .LVU61
 195 00c0 0720     		movs	r0, #7
 196 00c2 FFF7FEFF 		bl	HAL_NVIC_EnableIRQ
 197              	.LVL8:
 350:Core/Src/main.cpp **** 
 351:Core/Src/main.cpp ****   HAL_NVIC_SetPriority(EXTI2_IRQn, 0, 0);
 198              		.loc 1 351 3 is_stmt 1 view .LVU62
 199              		.loc 1 351 23 is_stmt 0 view .LVU63
 200 00c6 2246     		mov	r2, r4
 201 00c8 2146     		mov	r1, r4
 202 00ca 0820     		movs	r0, #8
 203 00cc FFF7FEFF 		bl	HAL_NVIC_SetPriority
 204              	.LVL9:
 352:Core/Src/main.cpp ****   HAL_NVIC_EnableIRQ(EXTI2_IRQn);
 205              		.loc 1 352 3 is_stmt 1 view .LVU64
 206              		.loc 1 352 21 is_stmt 0 view .LVU65
 207 00d0 0820     		movs	r0, #8
 208 00d2 FFF7FEFF 		bl	HAL_NVIC_EnableIRQ
 209              	.LVL10:
 353:Core/Src/main.cpp **** 
 354:Core/Src/main.cpp ****   HAL_NVIC_SetPriority(EXTI3_IRQn, 0, 0);
 210              		.loc 1 354 3 is_stmt 1 view .LVU66
 211              		.loc 1 354 23 is_stmt 0 view .LVU67
 212 00d6 2246     		mov	r2, r4
 213 00d8 2146     		mov	r1, r4
 214 00da 0920     		movs	r0, #9
 215 00dc FFF7FEFF 		bl	HAL_NVIC_SetPriority
 216              	.LVL11:
 355:Core/Src/main.cpp ****   HAL_NVIC_EnableIRQ(EXTI3_IRQn);
ARM GAS  C:\Users\Admin\AppData\Local\Temp\cchwZgJb.s 			page 11


 217              		.loc 1 355 3 is_stmt 1 view .LVU68
 218              		.loc 1 355 21 is_stmt 0 view .LVU69
 219 00e0 0920     		movs	r0, #9
 220 00e2 FFF7FEFF 		bl	HAL_NVIC_EnableIRQ
 221              	.LVL12:
 356:Core/Src/main.cpp **** 
 357:Core/Src/main.cpp ****   HAL_NVIC_SetPriority(EXTI9_5_IRQn, 0, 0);
 222              		.loc 1 357 3 is_stmt 1 view .LVU70
 223              		.loc 1 357 23 is_stmt 0 view .LVU71
 224 00e6 2246     		mov	r2, r4
 225 00e8 2146     		mov	r1, r4
 226 00ea 1720     		movs	r0, #23
 227 00ec FFF7FEFF 		bl	HAL_NVIC_SetPriority
 228              	.LVL13:
 358:Core/Src/main.cpp ****   HAL_NVIC_EnableIRQ(EXTI9_5_IRQn);
 229              		.loc 1 358 3 is_stmt 1 view .LVU72
 230              		.loc 1 358 21 is_stmt 0 view .LVU73
 231 00f0 1720     		movs	r0, #23
 232 00f2 FFF7FEFF 		bl	HAL_NVIC_EnableIRQ
 233              	.LVL14:
 359:Core/Src/main.cpp **** }
 234              		.loc 1 359 1 view .LVU74
 235 00f6 08B0     		add	sp, sp, #32
 236              	.LCFI2:
 237              		.cfi_def_cfa_offset 16
 238              		@ sp needed
 239 00f8 70BD     		pop	{r4, r5, r6, pc}
 240              	.L4:
 241 00fa 00BF     		.align	2
 242              	.L3:
 243 00fc 00100240 		.word	1073876992
 244 0100 000C0140 		.word	1073810432
 245 0104 00002110 		.word	270598144
 246 0108 00100140 		.word	1073811456
 247 010c 00001110 		.word	269549568
 248 0110 00003110 		.word	271646720
 249              		.cfi_endproc
 250              	.LFE76:
 251              		.fnend
 253              		.section	.text._Z10blinkEventv,"ax",%progbits
 254              		.align	1
 255              		.global	_Z10blinkEventv
 256              		.syntax unified
 257              		.thumb
 258              		.thumb_func
 259              		.fpu softvfp
 261              	_Z10blinkEventv:
 262              		.fnstart
 263              	.LFB79:
 360:Core/Src/main.cpp **** 
 361:Core/Src/main.cpp **** /* USER CODE BEGIN 4 */
 362:Core/Src/main.cpp **** 
 363:Core/Src/main.cpp **** /* Events */
 364:Core/Src/main.cpp **** 
 365:Core/Src/main.cpp **** void timeTrackEvent()
 366:Core/Src/main.cpp **** {
 367:Core/Src/main.cpp ****   if ((HAL_GetTick() - timmeTrack) > 1000)
ARM GAS  C:\Users\Admin\AppData\Local\Temp\cchwZgJb.s 			page 12


 368:Core/Src/main.cpp ****   {
 369:Core/Src/main.cpp ****     UART_Printf("Time passed: %d\r\n", (HAL_GetTick() - timme));
 370:Core/Src/main.cpp ****     timmeTrack = HAL_GetTick();
 371:Core/Src/main.cpp ****   }
 372:Core/Src/main.cpp **** }
 373:Core/Src/main.cpp **** 
 374:Core/Src/main.cpp **** /**
 375:Core/Src/main.cpp ****   * @brief Event for acting when it is time to change modes
 376:Core/Src/main.cpp ****   * @retval None
 377:Core/Src/main.cpp **** */
 378:Core/Src/main.cpp **** void changeModeEvent()
 379:Core/Src/main.cpp **** {
 380:Core/Src/main.cpp ****   if ((HAL_GetTick() - timme) > 15000)
 381:Core/Src/main.cpp ****   {
 382:Core/Src/main.cpp ****     switchMode();
 383:Core/Src/main.cpp ****     timme = HAL_GetTick();
 384:Core/Src/main.cpp ****   }
 385:Core/Src/main.cpp **** }
 386:Core/Src/main.cpp **** 
 387:Core/Src/main.cpp **** void blinkEvent()
 388:Core/Src/main.cpp **** {
 264              		.loc 1 388 1 is_stmt 1 view -0
 265              		.cfi_startproc
 266              		@ args = 0, pretend = 0, frame = 0
 267              		@ frame_needed = 0, uses_anonymous_args = 0
 389:Core/Src/main.cpp ****   if (toBlink && (HAL_GetTick() - blinkStart) > blinkTime)
 268              		.loc 1 389 3 view .LVU76
 269              		.loc 1 389 15 is_stmt 0 view .LVU77
 270 0000 0F4B     		ldr	r3, .L13
 271 0002 1B78     		ldrb	r3, [r3]	@ zero_extendqisi2
 272 0004 03B9     		cbnz	r3, .L11
 273 0006 7047     		bx	lr
 274              	.L11:
 388:Core/Src/main.cpp ****   if (toBlink && (HAL_GetTick() - blinkStart) > blinkTime)
 275              		.loc 1 388 1 discriminator 1 view .LVU78
 276 0008 10B5     		push	{r4, lr}
 277              		.save {r4, lr}
 278              	.LCFI3:
 279              		.cfi_def_cfa_offset 8
 280              		.cfi_offset 4, -8
 281              		.cfi_offset 14, -4
 282              		.loc 1 389 30 discriminator 1 view .LVU79
 283 000a FFF7FEFF 		bl	HAL_GetTick
 284              	.LVL15:
 285              		.loc 1 389 33 discriminator 1 view .LVU80
 286 000e 0D4B     		ldr	r3, .L13+4
 287 0010 1B68     		ldr	r3, [r3]
 288 0012 C01A     		subs	r0, r0, r3
 289              		.loc 1 389 47 discriminator 1 view .LVU81
 290 0014 0C4B     		ldr	r3, .L13+8
 291 0016 1B68     		ldr	r3, [r3]
 292              		.loc 1 389 15 discriminator 1 view .LVU82
 293 0018 9842     		cmp	r0, r3
 294 001a 00D8     		bhi	.L12
 295              	.L5:
 390:Core/Src/main.cpp ****   {
 391:Core/Src/main.cpp ****     HAL_GPIO_WritePin(GreenLed_1_GPIO_Port, GreenLed_1_Pin, GPIO_PIN_SET);
ARM GAS  C:\Users\Admin\AppData\Local\Temp\cchwZgJb.s 			page 13


 392:Core/Src/main.cpp ****     HAL_GPIO_WritePin(GreenLed_2_GPIO_Port, GreenLed_2_Pin, GPIO_PIN_SET);
 393:Core/Src/main.cpp ****     toBlink = false;
 394:Core/Src/main.cpp ****   }
 395:Core/Src/main.cpp **** }
 296              		.loc 1 395 1 view .LVU83
 297 001c 10BD     		pop	{r4, pc}
 298              	.L12:
 391:Core/Src/main.cpp ****     HAL_GPIO_WritePin(GreenLed_2_GPIO_Port, GreenLed_2_Pin, GPIO_PIN_SET);
 299              		.loc 1 391 5 is_stmt 1 view .LVU84
 391:Core/Src/main.cpp ****     HAL_GPIO_WritePin(GreenLed_2_GPIO_Port, GreenLed_2_Pin, GPIO_PIN_SET);
 300              		.loc 1 391 22 is_stmt 0 view .LVU85
 301 001e 0B4C     		ldr	r4, .L13+12
 302 0020 0122     		movs	r2, #1
 303 0022 4FF48041 		mov	r1, #16384
 304 0026 2046     		mov	r0, r4
 305 0028 FFF7FEFF 		bl	HAL_GPIO_WritePin
 306              	.LVL16:
 392:Core/Src/main.cpp ****     toBlink = false;
 307              		.loc 1 392 5 is_stmt 1 view .LVU86
 392:Core/Src/main.cpp ****     toBlink = false;
 308              		.loc 1 392 22 is_stmt 0 view .LVU87
 309 002c 0122     		movs	r2, #1
 310 002e 4FF40041 		mov	r1, #32768
 311 0032 2046     		mov	r0, r4
 312 0034 FFF7FEFF 		bl	HAL_GPIO_WritePin
 313              	.LVL17:
 393:Core/Src/main.cpp ****   }
 314              		.loc 1 393 5 is_stmt 1 view .LVU88
 393:Core/Src/main.cpp ****   }
 315              		.loc 1 393 13 is_stmt 0 view .LVU89
 316 0038 014B     		ldr	r3, .L13
 317 003a 0022     		movs	r2, #0
 318 003c 1A70     		strb	r2, [r3]
 319              		.loc 1 395 1 view .LVU90
 320 003e EDE7     		b	.L5
 321              	.L14:
 322              		.align	2
 323              	.L13:
 324 0040 00000000 		.word	.LANCHOR0
 325 0044 00000000 		.word	.LANCHOR1
 326 0048 00000000 		.word	.LANCHOR2
 327 004c 000C0140 		.word	1073810432
 328              		.cfi_endproc
 329              	.LFE79:
 330              		.fnend
 332              		.section	.text._Z15doorClosedEventv,"ax",%progbits
 333              		.align	1
 334              		.global	_Z15doorClosedEventv
 335              		.syntax unified
 336              		.thumb
 337              		.thumb_func
 338              		.fpu softvfp
 340              	_Z15doorClosedEventv:
 341              		.fnstart
 342              	.LFB83:
 396:Core/Src/main.cpp **** 
 397:Core/Src/main.cpp **** /**
ARM GAS  C:\Users\Admin\AppData\Local\Temp\cchwZgJb.s 			page 14


 398:Core/Src/main.cpp ****  * @brief Event for acting when intercom key was inserted
 399:Core/Src/main.cpp ****  * @retval None
 400:Core/Src/main.cpp **** */
 401:Core/Src/main.cpp **** void intercomKeyEvent()
 402:Core/Src/main.cpp **** {
 403:Core/Src/main.cpp ****   if (wig_available())
 404:Core/Src/main.cpp ****   {
 405:Core/Src/main.cpp ****     if (insideKeyRead)
 406:Core/Src/main.cpp ****       UART_Printf("Inside reader was used.\r\n");
 407:Core/Src/main.cpp **** 
 408:Core/Src/main.cpp ****     if (outsideKeyRead)
 409:Core/Src/main.cpp ****       UART_Printf("Outside reader was used.\r\n");
 410:Core/Src/main.cpp **** 
 411:Core/Src/main.cpp ****     if(verifyCode(getCode()))
 412:Core/Src/main.cpp ****     {  
 413:Core/Src/main.cpp ****       switch (workMode)
 414:Core/Src/main.cpp ****       {
 415:Core/Src/main.cpp ****         case NormalMode:
 416:Core/Src/main.cpp ****           unlockRelay();
 417:Core/Src/main.cpp ****           UART_Printf("Code id: %d\r\n", getCode());
 418:Core/Src/main.cpp ****           break;
 419:Core/Src/main.cpp **** 
 420:Core/Src/main.cpp ****         case ClosedMode:
 421:Core/Src/main.cpp ****           break;
 422:Core/Src/main.cpp **** 
 423:Core/Src/main.cpp ****         case OpenMode:
 424:Core/Src/main.cpp ****         case TempOpenMode:
 425:Core/Src/main.cpp ****           break;
 426:Core/Src/main.cpp **** 
 427:Core/Src/main.cpp ****         case CondOpenMode:
 428:Core/Src/main.cpp ****           workMode = OpenMode;
 429:Core/Src/main.cpp ****           unlockRelay();
 430:Core/Src/main.cpp ****           break;
 431:Core/Src/main.cpp **** 
 432:Core/Src/main.cpp ****         default:
 433:Core/Src/main.cpp ****           break;
 434:Core/Src/main.cpp ****       }
 435:Core/Src/main.cpp ****     }
 436:Core/Src/main.cpp ****     insideKeyRead = false;
 437:Core/Src/main.cpp ****     outsideKeyRead = false;
 438:Core/Src/main.cpp ****   }
 439:Core/Src/main.cpp **** }
 440:Core/Src/main.cpp **** 
 441:Core/Src/main.cpp **** /**
 442:Core/Src/main.cpp ****  * @brief Event for acting when a button to open the door was pressed
 443:Core/Src/main.cpp ****  * @retval None
 444:Core/Src/main.cpp **** */
 445:Core/Src/main.cpp **** void buttonPressedEvent()
 446:Core/Src/main.cpp **** {
 447:Core/Src/main.cpp ****   if (insideButtonPressed)
 448:Core/Src/main.cpp ****     UART_Printf("Inside button was pressed.\r\n");
 449:Core/Src/main.cpp **** 
 450:Core/Src/main.cpp ****   if (outsideButtonPressed)
 451:Core/Src/main.cpp ****     UART_Printf("Outside button was pressed.\r\n");
 452:Core/Src/main.cpp **** 
 453:Core/Src/main.cpp ****   if (outsideButtonPressed || insideButtonPressed)
 454:Core/Src/main.cpp ****   {
ARM GAS  C:\Users\Admin\AppData\Local\Temp\cchwZgJb.s 			page 15


 455:Core/Src/main.cpp ****     switch (workMode)
 456:Core/Src/main.cpp ****     {
 457:Core/Src/main.cpp ****       case NormalMode:
 458:Core/Src/main.cpp ****       case ClosedMode:
 459:Core/Src/main.cpp ****       {
 460:Core/Src/main.cpp ****         unlockRelay();
 461:Core/Src/main.cpp ****         previousWorkMode = workMode;
 462:Core/Src/main.cpp ****         workMode = TempOpenMode;
 463:Core/Src/main.cpp ****         break;
 464:Core/Src/main.cpp ****       }
 465:Core/Src/main.cpp ****       case OpenMode:
 466:Core/Src/main.cpp ****       case TempOpenMode:
 467:Core/Src/main.cpp ****       {
 468:Core/Src/main.cpp ****         break;
 469:Core/Src/main.cpp ****       }
 470:Core/Src/main.cpp ****       case CondOpenMode:
 471:Core/Src/main.cpp ****       {
 472:Core/Src/main.cpp ****         workMode = OpenMode;
 473:Core/Src/main.cpp ****         break;
 474:Core/Src/main.cpp ****       }
 475:Core/Src/main.cpp ****       default:
 476:Core/Src/main.cpp ****       {
 477:Core/Src/main.cpp ****         break;  
 478:Core/Src/main.cpp ****       }
 479:Core/Src/main.cpp ****     }
 480:Core/Src/main.cpp ****     outsideButtonPressed = false;
 481:Core/Src/main.cpp ****     insideButtonPressed = false;
 482:Core/Src/main.cpp ****   }
 483:Core/Src/main.cpp **** }
 484:Core/Src/main.cpp **** 
 485:Core/Src/main.cpp **** void doorUnlockEvent()
 486:Core/Src/main.cpp **** {
 487:Core/Src/main.cpp ****   if (doorRecentlyClosed)
 488:Core/Src/main.cpp ****   {
 489:Core/Src/main.cpp ****     lockDoor();
 490:Core/Src/main.cpp ****     doorRecentlyClosed = false;
 491:Core/Src/main.cpp ****   }
 492:Core/Src/main.cpp **** 
 493:Core/Src/main.cpp ****   if ((HAL_GetTick() - relayUnlockingTime) > 10000 && !doorRecentlyClosed)
 494:Core/Src/main.cpp ****   {
 495:Core/Src/main.cpp ****     alarmCause = OpenedDoor;
 496:Core/Src/main.cpp ****   }
 497:Core/Src/main.cpp ****   else if (doorState == ClosedState)
 498:Core/Src/main.cpp ****   {
 499:Core/Src/main.cpp ****     alarmCause = None;
 500:Core/Src/main.cpp ****   }
 501:Core/Src/main.cpp **** }
 502:Core/Src/main.cpp **** 
 503:Core/Src/main.cpp **** void doorClosedEvent()
 504:Core/Src/main.cpp **** {
 343              		.loc 1 504 1 is_stmt 1 view -0
 344              		.cfi_startproc
 345              		@ args = 0, pretend = 0, frame = 0
 346              		@ frame_needed = 0, uses_anonymous_args = 0
 347              		@ link register save eliminated.
 505:Core/Src/main.cpp ****   if (doorState == ClosedState)
 348              		.loc 1 505 3 view .LVU92
ARM GAS  C:\Users\Admin\AppData\Local\Temp\cchwZgJb.s 			page 16


 349              		.loc 1 505 17 is_stmt 0 view .LVU93
 350 0000 044B     		ldr	r3, .L18
 351 0002 1B78     		ldrb	r3, [r3]	@ zero_extendqisi2
 352              		.loc 1 505 3 view .LVU94
 353 0004 012B     		cmp	r3, #1
 354 0006 00D0     		beq	.L17
 355              	.L15:
 506:Core/Src/main.cpp ****   {
 507:Core/Src/main.cpp ****     //relay closing mechanics
 508:Core/Src/main.cpp ****     relayState = ClosedState;
 509:Core/Src/main.cpp ****   }
 510:Core/Src/main.cpp **** }
 356              		.loc 1 510 1 view .LVU95
 357 0008 7047     		bx	lr
 358              	.L17:
 508:Core/Src/main.cpp ****   }
 359              		.loc 1 508 5 is_stmt 1 view .LVU96
 508:Core/Src/main.cpp ****   }
 360              		.loc 1 508 16 is_stmt 0 view .LVU97
 361 000a 034B     		ldr	r3, .L18+4
 362 000c 0122     		movs	r2, #1
 363 000e 1A70     		strb	r2, [r3]
 364              		.loc 1 510 1 view .LVU98
 365 0010 FAE7     		b	.L15
 366              	.L19:
 367 0012 00BF     		.align	2
 368              	.L18:
 369 0014 00000000 		.word	.LANCHOR3
 370 0018 00000000 		.word	.LANCHOR4
 371              		.cfi_endproc
 372              	.LFE83:
 373              		.cantunwind
 374              		.fnend
 376              		.section	.text._Z15greenLightEventv,"ax",%progbits
 377              		.align	1
 378              		.global	_Z15greenLightEventv
 379              		.syntax unified
 380              		.thumb
 381              		.thumb_func
 382              		.fpu softvfp
 384              	_Z15greenLightEventv:
 385              		.fnstart
 386              	.LFB84:
 511:Core/Src/main.cpp **** 
 512:Core/Src/main.cpp **** void greenLightEvent()
 513:Core/Src/main.cpp **** {
 387              		.loc 1 513 1 is_stmt 1 view -0
 388              		.cfi_startproc
 389              		@ args = 0, pretend = 0, frame = 0
 390              		@ frame_needed = 0, uses_anonymous_args = 0
 391 0000 10B5     		push	{r4, lr}
 392              		.save {r4, lr}
 393              	.LCFI4:
 394              		.cfi_def_cfa_offset 8
 395              		.cfi_offset 4, -8
 396              		.cfi_offset 14, -4
 514:Core/Src/main.cpp ****   switch (relayState)
ARM GAS  C:\Users\Admin\AppData\Local\Temp\cchwZgJb.s 			page 17


 397              		.loc 1 514 3 view .LVU100
 398              		.loc 1 514 11 is_stmt 0 view .LVU101
 399 0002 174B     		ldr	r3, .L25
 400 0004 1B78     		ldrb	r3, [r3]	@ zero_extendqisi2
 401              		.loc 1 514 3 view .LVU102
 402 0006 7BB1     		cbz	r3, .L21
 403 0008 012B     		cmp	r3, #1
 404 000a 1BD1     		bne	.L22
 515:Core/Src/main.cpp ****   {
 516:Core/Src/main.cpp ****     case ClosedState:
 405              		.loc 1 516 5 is_stmt 1 view .LVU103
 517:Core/Src/main.cpp ****     {
 406              		.loc 1 517 5 view .LVU104
 518:Core/Src/main.cpp ****       HAL_GPIO_WritePin(GreenLed_1_GPIO_Port, GreenLed_1_Pin, GPIO_PIN_SET);
 407              		.loc 1 518 7 view .LVU105
 408              		.loc 1 518 24 is_stmt 0 view .LVU106
 409 000c 154C     		ldr	r4, .L25+4
 410 000e 0122     		movs	r2, #1
 411 0010 4FF48041 		mov	r1, #16384
 412 0014 2046     		mov	r0, r4
 413 0016 FFF7FEFF 		bl	HAL_GPIO_WritePin
 414              	.LVL18:
 519:Core/Src/main.cpp ****       HAL_GPIO_WritePin(GreenLed_2_GPIO_Port, GreenLed_2_Pin, GPIO_PIN_SET);
 415              		.loc 1 519 7 is_stmt 1 view .LVU107
 416              		.loc 1 519 24 is_stmt 0 view .LVU108
 417 001a 0122     		movs	r2, #1
 418 001c 4FF40041 		mov	r1, #32768
 419 0020 2046     		mov	r0, r4
 420 0022 FFF7FEFF 		bl	HAL_GPIO_WritePin
 421              	.LVL19:
 520:Core/Src/main.cpp ****       break;
 422              		.loc 1 520 7 is_stmt 1 view .LVU109
 423              	.L20:
 521:Core/Src/main.cpp ****     }
 522:Core/Src/main.cpp ****     case OpenedState:
 523:Core/Src/main.cpp ****     {
 524:Core/Src/main.cpp ****       HAL_GPIO_WritePin(GreenLed_1_GPIO_Port, GreenLed_1_Pin, GPIO_PIN_RESET);
 525:Core/Src/main.cpp ****       HAL_GPIO_WritePin(GreenLed_2_GPIO_Port, GreenLed_2_Pin, GPIO_PIN_RESET);
 526:Core/Src/main.cpp ****       break;
 527:Core/Src/main.cpp ****     }
 528:Core/Src/main.cpp ****     default:
 529:Core/Src/main.cpp ****     {
 530:Core/Src/main.cpp ****       HAL_GPIO_WritePin(GreenLed_1_GPIO_Port, GreenLed_1_Pin, GPIO_PIN_SET);
 531:Core/Src/main.cpp ****       HAL_GPIO_WritePin(GreenLed_2_GPIO_Port, GreenLed_2_Pin, GPIO_PIN_SET);
 532:Core/Src/main.cpp ****       break;
 533:Core/Src/main.cpp ****     }
 534:Core/Src/main.cpp ****   }
 535:Core/Src/main.cpp **** }
 424              		.loc 1 535 1 is_stmt 0 view .LVU110
 425 0026 10BD     		pop	{r4, pc}
 426              	.L21:
 522:Core/Src/main.cpp ****     {
 427              		.loc 1 522 5 is_stmt 1 view .LVU111
 523:Core/Src/main.cpp ****       HAL_GPIO_WritePin(GreenLed_1_GPIO_Port, GreenLed_1_Pin, GPIO_PIN_RESET);
 428              		.loc 1 523 5 view .LVU112
 524:Core/Src/main.cpp ****       HAL_GPIO_WritePin(GreenLed_2_GPIO_Port, GreenLed_2_Pin, GPIO_PIN_RESET);
 429              		.loc 1 524 7 view .LVU113
ARM GAS  C:\Users\Admin\AppData\Local\Temp\cchwZgJb.s 			page 18


 524:Core/Src/main.cpp ****       HAL_GPIO_WritePin(GreenLed_2_GPIO_Port, GreenLed_2_Pin, GPIO_PIN_RESET);
 430              		.loc 1 524 24 is_stmt 0 view .LVU114
 431 0028 0E4C     		ldr	r4, .L25+4
 432 002a 0022     		movs	r2, #0
 433 002c 4FF48041 		mov	r1, #16384
 434 0030 2046     		mov	r0, r4
 435 0032 FFF7FEFF 		bl	HAL_GPIO_WritePin
 436              	.LVL20:
 525:Core/Src/main.cpp ****       break;
 437              		.loc 1 525 7 is_stmt 1 view .LVU115
 525:Core/Src/main.cpp ****       break;
 438              		.loc 1 525 24 is_stmt 0 view .LVU116
 439 0036 0022     		movs	r2, #0
 440 0038 4FF40041 		mov	r1, #32768
 441 003c 2046     		mov	r0, r4
 442 003e FFF7FEFF 		bl	HAL_GPIO_WritePin
 443              	.LVL21:
 526:Core/Src/main.cpp ****     }
 444              		.loc 1 526 7 is_stmt 1 view .LVU117
 445 0042 F0E7     		b	.L20
 446              	.L22:
 528:Core/Src/main.cpp ****     {
 447              		.loc 1 528 5 view .LVU118
 529:Core/Src/main.cpp ****       HAL_GPIO_WritePin(GreenLed_1_GPIO_Port, GreenLed_1_Pin, GPIO_PIN_SET);
 448              		.loc 1 529 5 view .LVU119
 530:Core/Src/main.cpp ****       HAL_GPIO_WritePin(GreenLed_2_GPIO_Port, GreenLed_2_Pin, GPIO_PIN_SET);
 449              		.loc 1 530 7 view .LVU120
 530:Core/Src/main.cpp ****       HAL_GPIO_WritePin(GreenLed_2_GPIO_Port, GreenLed_2_Pin, GPIO_PIN_SET);
 450              		.loc 1 530 24 is_stmt 0 view .LVU121
 451 0044 074C     		ldr	r4, .L25+4
 452 0046 0122     		movs	r2, #1
 453 0048 4FF48041 		mov	r1, #16384
 454 004c 2046     		mov	r0, r4
 455 004e FFF7FEFF 		bl	HAL_GPIO_WritePin
 456              	.LVL22:
 531:Core/Src/main.cpp ****       break;
 457              		.loc 1 531 7 is_stmt 1 view .LVU122
 531:Core/Src/main.cpp ****       break;
 458              		.loc 1 531 24 is_stmt 0 view .LVU123
 459 0052 0122     		movs	r2, #1
 460 0054 4FF40041 		mov	r1, #32768
 461 0058 2046     		mov	r0, r4
 462 005a FFF7FEFF 		bl	HAL_GPIO_WritePin
 463              	.LVL23:
 532:Core/Src/main.cpp ****     }
 464              		.loc 1 532 7 is_stmt 1 view .LVU124
 465              		.loc 1 535 1 is_stmt 0 view .LVU125
 466 005e E2E7     		b	.L20
 467              	.L26:
 468              		.align	2
 469              	.L25:
 470 0060 00000000 		.word	.LANCHOR4
 471 0064 000C0140 		.word	1073810432
 472              		.cfi_endproc
 473              	.LFE84:
 474              		.fnend
 476              		.section	.text._Z9bellEventv,"ax",%progbits
ARM GAS  C:\Users\Admin\AppData\Local\Temp\cchwZgJb.s 			page 19


 477              		.align	1
 478              		.global	_Z9bellEventv
 479              		.syntax unified
 480              		.thumb
 481              		.thumb_func
 482              		.fpu softvfp
 484              	_Z9bellEventv:
 485              		.fnstart
 486              	.LFB85:
 536:Core/Src/main.cpp **** 
 537:Core/Src/main.cpp **** void bellEvent()
 538:Core/Src/main.cpp **** {
 487              		.loc 1 538 1 is_stmt 1 view -0
 488              		.cfi_startproc
 489              		@ args = 0, pretend = 0, frame = 0
 490              		@ frame_needed = 0, uses_anonymous_args = 0
 491              		@ link register save eliminated.
 539:Core/Src/main.cpp **** }
 492              		.loc 1 539 1 is_stmt 0 view .LVU127
 493 0000 7047     		bx	lr
 494              		.cfi_endproc
 495              	.LFE85:
 496              		.cantunwind
 497              		.fnend
 499              		.section	.text._Z10alarmEventv,"ax",%progbits
 500              		.align	1
 501              		.global	_Z10alarmEventv
 502              		.syntax unified
 503              		.thumb
 504              		.thumb_func
 505              		.fpu softvfp
 507              	_Z10alarmEventv:
 508              		.fnstart
 509              	.LFB86:
 540:Core/Src/main.cpp **** 
 541:Core/Src/main.cpp **** void alarmEvent()
 542:Core/Src/main.cpp **** {
 510              		.loc 1 542 1 is_stmt 1 view -0
 511              		.cfi_startproc
 512              		@ args = 0, pretend = 0, frame = 0
 513              		@ frame_needed = 0, uses_anonymous_args = 0
 514              		@ link register save eliminated.
 543:Core/Src/main.cpp **** }
 515              		.loc 1 543 1 is_stmt 0 view .LVU129
 516 0000 7047     		bx	lr
 517              		.cfi_endproc
 518              	.LFE86:
 519              		.cantunwind
 520              		.fnend
 522              		.section	.text.HAL_GPIO_EXTI_Callback,"ax",%progbits
 523              		.align	1
 524              		.global	HAL_GPIO_EXTI_Callback
 525              		.syntax unified
 526              		.thumb
 527              		.thumb_func
 528              		.fpu softvfp
 530              	HAL_GPIO_EXTI_Callback:
ARM GAS  C:\Users\Admin\AppData\Local\Temp\cchwZgJb.s 			page 20


 531              		.fnstart
 532              	.LVL24:
 533              	.LFB87:
 544:Core/Src/main.cpp **** 
 545:Core/Src/main.cpp **** /* Aux functions */
 546:Core/Src/main.cpp **** 
 547:Core/Src/main.cpp **** void HAL_GPIO_EXTI_Callback(uint16_t GPIO_Pin)
 548:Core/Src/main.cpp **** {
 534              		.loc 1 548 1 is_stmt 1 view -0
 535              		.cfi_startproc
 536              		@ args = 0, pretend = 0, frame = 0
 537              		@ frame_needed = 0, uses_anonymous_args = 0
 538              		.loc 1 548 1 is_stmt 0 view .LVU131
 539 0000 08B5     		push	{r3, lr}
 540              		.save {r3, lr}
 541              	.LCFI5:
 542              		.cfi_def_cfa_offset 8
 543              		.cfi_offset 3, -8
 544              		.cfi_offset 14, -4
 549:Core/Src/main.cpp ****   switch (GPIO_Pin)
 545              		.loc 1 549 3 is_stmt 1 view .LVU132
 546 0002 0828     		cmp	r0, #8
 547 0004 0AD8     		bhi	.L30
 548 0006 03B2     		sxth	r3, r0
 549 0008 2BB3     		cbz	r3, .L29
 550 000a 0138     		subs	r0, r0, #1
 551              	.LVL25:
 552              		.loc 1 549 3 is_stmt 0 view .LVU133
 553 000c 0728     		cmp	r0, #7
 554 000e 22D8     		bhi	.L29
 555 0010 DFE800F0 		tbb	[pc, r0]
 556              	.LVL26:
 557              	.L33:
 558 0014 33       		.byte	(.L36-.L33)/2
 559 0015 3D       		.byte	(.L35-.L33)/2
 560 0016 21       		.byte	(.L29-.L33)/2
 561 0017 1E       		.byte	(.L34-.L33)/2
 562 0018 21       		.byte	(.L29-.L33)/2
 563 0019 21       		.byte	(.L29-.L33)/2
 564 001a 21       		.byte	(.L29-.L33)/2
 565 001b 22       		.byte	(.L32-.L33)/2
 566              		.p2align 1
 567              	.L30:
 568              		.loc 1 549 3 view .LVU134
 569 001c 8028     		cmp	r0, #128
 570 001e 40D0     		beq	.L37
 571 0020 B0F5807F 		cmp	r0, #256
 572 0024 09D1     		bne	.L42
 550:Core/Src/main.cpp ****   {
 551:Core/Src/main.cpp ****   case BT_0_Pin:
 552:Core/Src/main.cpp ****     insideButtonPressed = true;
 553:Core/Src/main.cpp ****     break;
 554:Core/Src/main.cpp **** 
 555:Core/Src/main.cpp ****   case BT_1_Pin:
 556:Core/Src/main.cpp ****     outsideButtonPressed = true;
 557:Core/Src/main.cpp ****     break;
 558:Core/Src/main.cpp **** 
ARM GAS  C:\Users\Admin\AppData\Local\Temp\cchwZgJb.s 			page 21


 559:Core/Src/main.cpp ****   case Door_Pin:
 573              		.loc 1 559 3 is_stmt 1 view .LVU135
 560:Core/Src/main.cpp ****   {
 574              		.loc 1 560 3 view .LVU136
 561:Core/Src/main.cpp ****     if (HAL_GPIO_ReadPin(Door_GPIO_Port, Door_Pin) == 0)
 575              		.loc 1 561 5 view .LVU137
 576              		.loc 1 561 25 is_stmt 0 view .LVU138
 577 0026 4FF48071 		mov	r1, #256
 578 002a 2348     		ldr	r0, .L43
 579              	.LVL27:
 580              		.loc 1 561 25 view .LVU139
 581 002c FFF7FEFF 		bl	HAL_GPIO_ReadPin
 582              	.LVL28:
 583              		.loc 1 561 5 view .LVU140
 584 0030 B0B9     		cbnz	r0, .L40
 562:Core/Src/main.cpp ****     {
 563:Core/Src/main.cpp ****       doorState = OpenedState;
 585              		.loc 1 563 7 is_stmt 1 view .LVU141
 586              		.loc 1 563 17 is_stmt 0 view .LVU142
 587 0032 224B     		ldr	r3, .L43+4
 588 0034 0022     		movs	r2, #0
 589 0036 1A70     		strb	r2, [r3]
 590 0038 0DE0     		b	.L29
 591              	.LVL29:
 592              	.L42:
 549:Core/Src/main.cpp ****   {
 593              		.loc 1 549 3 view .LVU143
 594 003a 4028     		cmp	r0, #64
 595 003c 0BD1     		bne	.L29
 564:Core/Src/main.cpp ****     }
 565:Core/Src/main.cpp ****     else if (HAL_GPIO_ReadPin(Door_GPIO_Port, Door_Pin) == 1)
 566:Core/Src/main.cpp ****     {
 567:Core/Src/main.cpp ****       doorState = ClosedState;
 568:Core/Src/main.cpp ****       doorRecentlyClosed = true;
 569:Core/Src/main.cpp ****     }
 570:Core/Src/main.cpp ****     break;
 571:Core/Src/main.cpp ****   }
 572:Core/Src/main.cpp **** 
 573:Core/Src/main.cpp ****   case D_01_Pin:
 574:Core/Src/main.cpp ****     if (wig_flag_inrt)
 575:Core/Src/main.cpp ****     {
 576:Core/Src/main.cpp ****       ReadD0();
 577:Core/Src/main.cpp ****       insideKeyRead = true;
 578:Core/Src/main.cpp ****     }
 579:Core/Src/main.cpp ****     break;
 580:Core/Src/main.cpp **** 
 581:Core/Src/main.cpp ****   case D_11_Pin:
 582:Core/Src/main.cpp ****     if (wig_flag_inrt)
 583:Core/Src/main.cpp ****     {
 584:Core/Src/main.cpp ****       ReadD1();
 585:Core/Src/main.cpp ****       insideKeyRead = true;
 586:Core/Src/main.cpp ****     }
 587:Core/Src/main.cpp ****     break;
 588:Core/Src/main.cpp **** 
 589:Core/Src/main.cpp ****   case D_02_Pin:
 596              		.loc 1 589 3 is_stmt 1 view .LVU144
 590:Core/Src/main.cpp ****     if (wig_flag_inrt)
ARM GAS  C:\Users\Admin\AppData\Local\Temp\cchwZgJb.s 			page 22


 597              		.loc 1 590 5 view .LVU145
 598              		.loc 1 590 9 is_stmt 0 view .LVU146
 599 003e 204B     		ldr	r3, .L43+8
 600 0040 1B78     		ldrb	r3, [r3]	@ zero_extendqisi2
 601              		.loc 1 590 5 view .LVU147
 602 0042 43B1     		cbz	r3, .L29
 591:Core/Src/main.cpp ****     {
 592:Core/Src/main.cpp ****       ReadD0();
 603              		.loc 1 592 7 is_stmt 1 view .LVU148
 604              		.loc 1 592 13 is_stmt 0 view .LVU149
 605 0044 FFF7FEFF 		bl	ReadD0
 606              	.LVL30:
 593:Core/Src/main.cpp ****       outsideKeyRead = true;
 607              		.loc 1 593 7 is_stmt 1 view .LVU150
 608              		.loc 1 593 22 is_stmt 0 view .LVU151
 609 0048 1E4B     		ldr	r3, .L43+12
 610 004a 0122     		movs	r2, #1
 611 004c 1A70     		strb	r2, [r3]
 612 004e 02E0     		b	.L29
 613              	.L34:
 551:Core/Src/main.cpp ****     insideButtonPressed = true;
 614              		.loc 1 551 3 is_stmt 1 view .LVU152
 552:Core/Src/main.cpp ****     break;
 615              		.loc 1 552 5 view .LVU153
 552:Core/Src/main.cpp ****     break;
 616              		.loc 1 552 25 is_stmt 0 view .LVU154
 617 0050 1D4B     		ldr	r3, .L43+16
 618 0052 0122     		movs	r2, #1
 619 0054 1A70     		strb	r2, [r3]
 553:Core/Src/main.cpp **** 
 620              		.loc 1 553 5 is_stmt 1 view .LVU155
 621              	.L29:
 594:Core/Src/main.cpp ****     }
 595:Core/Src/main.cpp ****     break;
 596:Core/Src/main.cpp **** 
 597:Core/Src/main.cpp ****   case D_12_Pin:
 598:Core/Src/main.cpp ****     if (wig_flag_inrt)
 599:Core/Src/main.cpp ****     {
 600:Core/Src/main.cpp ****       ReadD1();
 601:Core/Src/main.cpp ****       outsideKeyRead = true;
 602:Core/Src/main.cpp ****     }
 603:Core/Src/main.cpp ****     break;
 604:Core/Src/main.cpp **** 
 605:Core/Src/main.cpp ****   default:
 606:Core/Src/main.cpp ****     break;
 607:Core/Src/main.cpp ****   }
 608:Core/Src/main.cpp **** }
 622              		.loc 1 608 1 is_stmt 0 view .LVU156
 623 0056 08BD     		pop	{r3, pc}
 624              	.L32:
 555:Core/Src/main.cpp ****     outsideButtonPressed = true;
 625              		.loc 1 555 3 is_stmt 1 view .LVU157
 556:Core/Src/main.cpp ****     break;
 626              		.loc 1 556 5 view .LVU158
 556:Core/Src/main.cpp ****     break;
 627              		.loc 1 556 26 is_stmt 0 view .LVU159
 628 0058 1C4B     		ldr	r3, .L43+20
ARM GAS  C:\Users\Admin\AppData\Local\Temp\cchwZgJb.s 			page 23


 629 005a 0122     		movs	r2, #1
 630 005c 1A70     		strb	r2, [r3]
 557:Core/Src/main.cpp **** 
 631              		.loc 1 557 5 is_stmt 1 view .LVU160
 632 005e FAE7     		b	.L29
 633              	.L40:
 565:Core/Src/main.cpp ****     {
 634              		.loc 1 565 10 view .LVU161
 565:Core/Src/main.cpp ****     {
 635              		.loc 1 565 30 is_stmt 0 view .LVU162
 636 0060 4FF48071 		mov	r1, #256
 637 0064 1448     		ldr	r0, .L43
 638 0066 FFF7FEFF 		bl	HAL_GPIO_ReadPin
 639              	.LVL31:
 565:Core/Src/main.cpp ****     {
 640              		.loc 1 565 10 view .LVU163
 641 006a 0128     		cmp	r0, #1
 642 006c F3D1     		bne	.L29
 567:Core/Src/main.cpp ****       doorRecentlyClosed = true;
 643              		.loc 1 567 7 is_stmt 1 view .LVU164
 567:Core/Src/main.cpp ****       doorRecentlyClosed = true;
 644              		.loc 1 567 17 is_stmt 0 view .LVU165
 645 006e 0123     		movs	r3, #1
 646 0070 124A     		ldr	r2, .L43+4
 647 0072 1370     		strb	r3, [r2]
 568:Core/Src/main.cpp ****     }
 648              		.loc 1 568 7 is_stmt 1 view .LVU166
 568:Core/Src/main.cpp ****     }
 649              		.loc 1 568 26 is_stmt 0 view .LVU167
 650 0074 164A     		ldr	r2, .L43+24
 651 0076 1370     		strb	r3, [r2]
 652 0078 EDE7     		b	.L29
 653              	.L36:
 573:Core/Src/main.cpp ****     if (wig_flag_inrt)
 654              		.loc 1 573 3 is_stmt 1 view .LVU168
 574:Core/Src/main.cpp ****     {
 655              		.loc 1 574 5 view .LVU169
 574:Core/Src/main.cpp ****     {
 656              		.loc 1 574 9 is_stmt 0 view .LVU170
 657 007a 114B     		ldr	r3, .L43+8
 658 007c 1B78     		ldrb	r3, [r3]	@ zero_extendqisi2
 574:Core/Src/main.cpp ****     {
 659              		.loc 1 574 5 view .LVU171
 660 007e 002B     		cmp	r3, #0
 661 0080 E9D0     		beq	.L29
 576:Core/Src/main.cpp ****       insideKeyRead = true;
 662              		.loc 1 576 7 is_stmt 1 view .LVU172
 576:Core/Src/main.cpp ****       insideKeyRead = true;
 663              		.loc 1 576 13 is_stmt 0 view .LVU173
 664 0082 FFF7FEFF 		bl	ReadD0
 665              	.LVL32:
 577:Core/Src/main.cpp ****     }
 666              		.loc 1 577 7 is_stmt 1 view .LVU174
 577:Core/Src/main.cpp ****     }
 667              		.loc 1 577 21 is_stmt 0 view .LVU175
 668 0086 134B     		ldr	r3, .L43+28
 669 0088 0122     		movs	r2, #1
ARM GAS  C:\Users\Admin\AppData\Local\Temp\cchwZgJb.s 			page 24


 670 008a 1A70     		strb	r2, [r3]
 671 008c E3E7     		b	.L29
 672              	.L35:
 581:Core/Src/main.cpp ****     if (wig_flag_inrt)
 673              		.loc 1 581 3 is_stmt 1 view .LVU176
 582:Core/Src/main.cpp ****     {
 674              		.loc 1 582 5 view .LVU177
 582:Core/Src/main.cpp ****     {
 675              		.loc 1 582 9 is_stmt 0 view .LVU178
 676 008e 0C4B     		ldr	r3, .L43+8
 677 0090 1B78     		ldrb	r3, [r3]	@ zero_extendqisi2
 582:Core/Src/main.cpp ****     {
 678              		.loc 1 582 5 view .LVU179
 679 0092 002B     		cmp	r3, #0
 680 0094 DFD0     		beq	.L29
 584:Core/Src/main.cpp ****       insideKeyRead = true;
 681              		.loc 1 584 7 is_stmt 1 view .LVU180
 584:Core/Src/main.cpp ****       insideKeyRead = true;
 682              		.loc 1 584 13 is_stmt 0 view .LVU181
 683 0096 FFF7FEFF 		bl	ReadD1
 684              	.LVL33:
 585:Core/Src/main.cpp ****     }
 685              		.loc 1 585 7 is_stmt 1 view .LVU182
 585:Core/Src/main.cpp ****     }
 686              		.loc 1 585 21 is_stmt 0 view .LVU183
 687 009a 0E4B     		ldr	r3, .L43+28
 688 009c 0122     		movs	r2, #1
 689 009e 1A70     		strb	r2, [r3]
 690 00a0 D9E7     		b	.L29
 691              	.LVL34:
 692              	.L37:
 597:Core/Src/main.cpp ****     if (wig_flag_inrt)
 693              		.loc 1 597 3 is_stmt 1 view .LVU184
 598:Core/Src/main.cpp ****     {
 694              		.loc 1 598 5 view .LVU185
 598:Core/Src/main.cpp ****     {
 695              		.loc 1 598 9 is_stmt 0 view .LVU186
 696 00a2 074B     		ldr	r3, .L43+8
 697 00a4 1B78     		ldrb	r3, [r3]	@ zero_extendqisi2
 598:Core/Src/main.cpp ****     {
 698              		.loc 1 598 5 view .LVU187
 699 00a6 002B     		cmp	r3, #0
 700 00a8 D5D0     		beq	.L29
 600:Core/Src/main.cpp ****       outsideKeyRead = true;
 701              		.loc 1 600 7 is_stmt 1 view .LVU188
 600:Core/Src/main.cpp ****       outsideKeyRead = true;
 702              		.loc 1 600 13 is_stmt 0 view .LVU189
 703 00aa FFF7FEFF 		bl	ReadD1
 704              	.LVL35:
 601:Core/Src/main.cpp ****     }
 705              		.loc 1 601 7 is_stmt 1 view .LVU190
 601:Core/Src/main.cpp ****     }
 706              		.loc 1 601 22 is_stmt 0 view .LVU191
 707 00ae 054B     		ldr	r3, .L43+12
 708 00b0 0122     		movs	r2, #1
 709 00b2 1A70     		strb	r2, [r3]
 710              		.loc 1 608 1 view .LVU192
ARM GAS  C:\Users\Admin\AppData\Local\Temp\cchwZgJb.s 			page 25


 711 00b4 CFE7     		b	.L29
 712              	.L44:
 713 00b6 00BF     		.align	2
 714              	.L43:
 715 00b8 00100140 		.word	1073811456
 716 00bc 00000000 		.word	.LANCHOR3
 717 00c0 00000000 		.word	.LANCHOR8
 718 00c4 00000000 		.word	.LANCHOR10
 719 00c8 00000000 		.word	.LANCHOR5
 720 00cc 00000000 		.word	.LANCHOR6
 721 00d0 00000000 		.word	.LANCHOR7
 722 00d4 00000000 		.word	.LANCHOR9
 723              		.cfi_endproc
 724              	.LFE87:
 725              		.fnend
 727              		.section	.text._Z10verifyCodem,"ax",%progbits
 728              		.align	1
 729              		.global	_Z10verifyCodem
 730              		.syntax unified
 731              		.thumb
 732              		.thumb_func
 733              		.fpu softvfp
 735              	_Z10verifyCodem:
 736              		.fnstart
 737              	.LVL36:
 738              	.LFB88:
 609:Core/Src/main.cpp **** 
 610:Core/Src/main.cpp **** /**
 611:Core/Src/main.cpp ****   @brief Verify if intercom code is valid
 612:Core/Src/main.cpp ****   @param code Intercom code to verify
 613:Core/Src/main.cpp ****   @retval bool value
 614:Core/Src/main.cpp **** */
 615:Core/Src/main.cpp **** bool verifyCode(uint32_t code)
 616:Core/Src/main.cpp **** {
 739              		.loc 1 616 1 is_stmt 1 view -0
 740              		.cfi_startproc
 741              		@ args = 0, pretend = 0, frame = 0
 742              		@ frame_needed = 0, uses_anonymous_args = 0
 743              		@ link register save eliminated.
 617:Core/Src/main.cpp ****   uint32_t codes[] =
 744              		.loc 1 617 3 view .LVU194
 618:Core/Src/main.cpp ****       {12563593};
 619:Core/Src/main.cpp **** 
 620:Core/Src/main.cpp ****   for (int i = 0; i < sizeof(codes) / sizeof(codes[0]); i++)
 745              		.loc 1 620 3 view .LVU195
 746              	.LBB7:
 747              		.loc 1 620 12 is_stmt 0 view .LVU196
 748 0000 0023     		movs	r3, #0
 749              	.LVL37:
 750              	.L47:
 751              		.loc 1 620 21 is_stmt 1 discriminator 1 view .LVU197
 752 0002 23B9     		cbnz	r3, .L48
 621:Core/Src/main.cpp ****   {
 622:Core/Src/main.cpp ****     if (code == codes[i])
 753              		.loc 1 622 5 view .LVU198
 754 0004 044A     		ldr	r2, .L50
 755 0006 9042     		cmp	r0, r2
ARM GAS  C:\Users\Admin\AppData\Local\Temp\cchwZgJb.s 			page 26


 756 0008 03D0     		beq	.L49
 620:Core/Src/main.cpp ****   {
 757              		.loc 1 620 3 discriminator 2 view .LVU199
 758 000a 0133     		adds	r3, r3, #1
 759              	.LVL38:
 620:Core/Src/main.cpp ****   {
 760              		.loc 1 620 3 is_stmt 0 discriminator 2 view .LVU200
 761 000c F9E7     		b	.L47
 762              	.L48:
 620:Core/Src/main.cpp ****   {
 763              		.loc 1 620 3 discriminator 2 view .LVU201
 764              	.LBE7:
 623:Core/Src/main.cpp ****       return true;
 624:Core/Src/main.cpp ****   }
 625:Core/Src/main.cpp **** 
 626:Core/Src/main.cpp ****   return false;
 765              		.loc 1 626 10 view .LVU202
 766 000e 0020     		movs	r0, #0
 767              	.LVL39:
 768              		.loc 1 626 10 view .LVU203
 769 0010 7047     		bx	lr
 770              	.LVL40:
 771              	.L49:
 772              	.LBB8:
 623:Core/Src/main.cpp ****       return true;
 773              		.loc 1 623 14 view .LVU204
 774 0012 0120     		movs	r0, #1
 775              	.LVL41:
 623:Core/Src/main.cpp ****       return true;
 776              		.loc 1 623 14 view .LVU205
 777              	.LBE8:
 627:Core/Src/main.cpp **** }
 778              		.loc 1 627 1 view .LVU206
 779 0014 7047     		bx	lr
 780              	.L51:
 781 0016 00BF     		.align	2
 782              	.L50:
 783 0018 89B4BF00 		.word	12563593
 784              		.cfi_endproc
 785              	.LFE88:
 786              		.cantunwind
 787              		.fnend
 789              		.section	.text._Z11UART_PrintfPKcz,"ax",%progbits
 790              		.align	1
 791              		.global	_Z11UART_PrintfPKcz
 792              		.syntax unified
 793              		.thumb
 794              		.thumb_func
 795              		.fpu softvfp
 797              	_Z11UART_PrintfPKcz:
 798              		.fnstart
 799              	.LVL42:
 800              	.LFB89:
 628:Core/Src/main.cpp **** 
 629:Core/Src/main.cpp **** /**
 630:Core/Src/main.cpp ****   @brief Print a string to the terminal
 631:Core/Src/main.cpp **** */
ARM GAS  C:\Users\Admin\AppData\Local\Temp\cchwZgJb.s 			page 27


 632:Core/Src/main.cpp **** void UART_Printf(const char *fmt, ...)
 633:Core/Src/main.cpp **** {
 801              		.loc 1 633 1 is_stmt 1 view -0
 802              		.cfi_startproc
 803              		@ args = 4, pretend = 16, frame = 264
 804              		@ frame_needed = 0, uses_anonymous_args = 1
 805              		.loc 1 633 1 is_stmt 0 view .LVU208
 806 0000 0FB4     		push	{r0, r1, r2, r3}
 807              		.save {r0, r1, r2, r3}
 808              	.LCFI6:
 809              		.cfi_def_cfa_offset 16
 810              		.cfi_offset 0, -16
 811              		.cfi_offset 1, -12
 812              		.cfi_offset 2, -8
 813              		.cfi_offset 3, -4
 814 0002 00B5     		push	{lr}
 815              		.save {lr}
 816              	.LCFI7:
 817              		.cfi_def_cfa_offset 20
 818              		.cfi_offset 14, -20
 819              		.pad #268
 820 0004 C3B0     		sub	sp, sp, #268
 821              	.LCFI8:
 822              		.cfi_def_cfa_offset 288
 823 0006 44AB     		add	r3, sp, #272
 824 0008 53F8042B 		ldr	r2, [r3], #4
 634:Core/Src/main.cpp ****   char buff[256];
 825              		.loc 1 634 3 is_stmt 1 view .LVU209
 635:Core/Src/main.cpp ****   va_list args;
 826              		.loc 1 635 3 view .LVU210
 636:Core/Src/main.cpp ****   va_start(args, fmt);
 827              		.loc 1 636 3 view .LVU211
 828 000c 0193     		str	r3, [sp, #4]
 637:Core/Src/main.cpp ****   vsnprintf(buff, sizeof(buff), fmt, args);
 829              		.loc 1 637 3 view .LVU212
 830              		.loc 1 637 12 is_stmt 0 view .LVU213
 831 000e 4FF48071 		mov	r1, #256
 832 0012 02A8     		add	r0, sp, #8
 833 0014 FFF7FEFF 		bl	vsnprintf
 834              	.LVL43:
 638:Core/Src/main.cpp ****   HAL_UART_Transmit(&huart1, (uint8_t *)buff, strlen(buff), HAL_MAX_DELAY);
 835              		.loc 1 638 3 is_stmt 1 view .LVU214
 836              		.loc 1 638 53 is_stmt 0 view .LVU215
 837 0018 02A8     		add	r0, sp, #8
 838 001a FFF7FEFF 		bl	strlen
 839              	.LVL44:
 840              		.loc 1 638 20 view .LVU216
 841 001e 4FF0FF33 		mov	r3, #-1
 842 0022 82B2     		uxth	r2, r0
 843 0024 02A9     		add	r1, sp, #8
 844 0026 0448     		ldr	r0, .L54
 845 0028 FFF7FEFF 		bl	HAL_UART_Transmit
 846              	.LVL45:
 639:Core/Src/main.cpp ****   va_end(args);
 847              		.loc 1 639 3 is_stmt 1 view .LVU217
 640:Core/Src/main.cpp **** }
 848              		.loc 1 640 1 is_stmt 0 view .LVU218
ARM GAS  C:\Users\Admin\AppData\Local\Temp\cchwZgJb.s 			page 28


 849 002c 43B0     		add	sp, sp, #268
 850              	.LCFI9:
 851              		.cfi_def_cfa_offset 20
 852              		@ sp needed
 853 002e 5DF804EB 		ldr	lr, [sp], #4
 854              	.LCFI10:
 855              		.cfi_restore 14
 856              		.cfi_def_cfa_offset 16
 857 0032 04B0     		add	sp, sp, #16
 858              	.LCFI11:
 859              		.cfi_restore 3
 860              		.cfi_restore 2
 861              		.cfi_restore 1
 862              		.cfi_restore 0
 863              		.cfi_def_cfa_offset 0
 864 0034 7047     		bx	lr
 865              	.L55:
 866 0036 00BF     		.align	2
 867              	.L54:
 868 0038 00000000 		.word	.LANCHOR11
 869              		.cfi_endproc
 870              	.LFE89:
 871              		.fnend
 873              		.section	.rodata._Z14timeTrackEventv.str1.4,"aMS",%progbits,1
 874              		.align	2
 875              	.LC0:
 876 0000 54696D65 		.ascii	"Time passed: %d\015\012\000"
 876      20706173 
 876      7365643A 
 876      2025640D 
 876      0A00
 877              		.section	.text._Z14timeTrackEventv,"ax",%progbits
 878              		.align	1
 879              		.global	_Z14timeTrackEventv
 880              		.syntax unified
 881              		.thumb
 882              		.thumb_func
 883              		.fpu softvfp
 885              	_Z14timeTrackEventv:
 886              		.fnstart
 887              	.LFB77:
 366:Core/Src/main.cpp ****   if ((HAL_GetTick() - timmeTrack) > 1000)
 888              		.loc 1 366 1 is_stmt 1 view -0
 889              		.cfi_startproc
 890              		@ args = 0, pretend = 0, frame = 0
 891              		@ frame_needed = 0, uses_anonymous_args = 0
 892 0000 08B5     		push	{r3, lr}
 893              		.save {r3, lr}
 894              	.LCFI12:
 895              		.cfi_def_cfa_offset 8
 896              		.cfi_offset 3, -8
 897              		.cfi_offset 14, -4
 367:Core/Src/main.cpp ****   {
 898              		.loc 1 367 3 view .LVU220
 367:Core/Src/main.cpp ****   {
 899              		.loc 1 367 19 is_stmt 0 view .LVU221
 900 0002 FFF7FEFF 		bl	HAL_GetTick
ARM GAS  C:\Users\Admin\AppData\Local\Temp\cchwZgJb.s 			page 29


 901              	.LVL46:
 367:Core/Src/main.cpp ****   {
 902              		.loc 1 367 22 view .LVU222
 903 0006 0A4B     		ldr	r3, .L60
 904 0008 1B68     		ldr	r3, [r3]
 905 000a C01A     		subs	r0, r0, r3
 367:Core/Src/main.cpp ****   {
 906              		.loc 1 367 3 view .LVU223
 907 000c B0F57A7F 		cmp	r0, #1000
 908 0010 00D8     		bhi	.L59
 909              	.L56:
 372:Core/Src/main.cpp **** 
 910              		.loc 1 372 1 view .LVU224
 911 0012 08BD     		pop	{r3, pc}
 912              	.L59:
 369:Core/Src/main.cpp ****     timmeTrack = HAL_GetTick();
 913              		.loc 1 369 5 is_stmt 1 view .LVU225
 369:Core/Src/main.cpp ****     timmeTrack = HAL_GetTick();
 914              		.loc 1 369 52 is_stmt 0 view .LVU226
 915 0014 FFF7FEFF 		bl	HAL_GetTick
 916              	.LVL47:
 369:Core/Src/main.cpp ****     timmeTrack = HAL_GetTick();
 917              		.loc 1 369 16 view .LVU227
 918 0018 064B     		ldr	r3, .L60+4
 919 001a 1968     		ldr	r1, [r3]
 920 001c 411A     		subs	r1, r0, r1
 921 001e 0648     		ldr	r0, .L60+8
 922 0020 FFF7FEFF 		bl	_Z11UART_PrintfPKcz
 923              	.LVL48:
 370:Core/Src/main.cpp ****   }
 924              		.loc 1 370 5 is_stmt 1 view .LVU228
 370:Core/Src/main.cpp ****   }
 925              		.loc 1 370 29 is_stmt 0 view .LVU229
 926 0024 FFF7FEFF 		bl	HAL_GetTick
 927              	.LVL49:
 370:Core/Src/main.cpp ****   }
 928              		.loc 1 370 16 view .LVU230
 929 0028 014B     		ldr	r3, .L60
 930 002a 1860     		str	r0, [r3]
 372:Core/Src/main.cpp **** 
 931              		.loc 1 372 1 view .LVU231
 932 002c F1E7     		b	.L56
 933              	.L61:
 934 002e 00BF     		.align	2
 935              	.L60:
 936 0030 00000000 		.word	.LANCHOR12
 937 0034 00000000 		.word	.LANCHOR13
 938 0038 00000000 		.word	.LC0
 939              		.cfi_endproc
 940              	.LFE77:
 941              		.fnend
 943              		.section	.rodata._Z10switchModev.str1.4,"aMS",%progbits,1
 944              		.align	2
 945              	.LC1:
 946 0000 556E6B6E 		.ascii	"Unknown mode switched to normal.\015\012\000"
 946      6F776E20 
 946      6D6F6465 
ARM GAS  C:\Users\Admin\AppData\Local\Temp\cchwZgJb.s 			page 30


 946      20737769 
 946      74636865 
 947 0023 00       		.align	2
 948              	.LC2:
 949 0024 53776974 		.ascii	"Switched to mode %d\015\012\000"
 949      63686564 
 949      20746F20 
 949      6D6F6465 
 949      2025640D 
 950              		.section	.text._Z10switchModev,"ax",%progbits
 951              		.align	1
 952              		.global	_Z10switchModev
 953              		.syntax unified
 954              		.thumb
 955              		.thumb_func
 956              		.fpu softvfp
 958              	_Z10switchModev:
 959              		.fnstart
 960              	.LFB90:
 641:Core/Src/main.cpp **** 
 642:Core/Src/main.cpp **** /**
 643:Core/Src/main.cpp ****   * @brief If mode is not 3, increment it. If it is, set mode to 0
 644:Core/Src/main.cpp **** */
 645:Core/Src/main.cpp **** void switchMode()
 646:Core/Src/main.cpp **** {
 961              		.loc 1 646 1 is_stmt 1 view -0
 962              		.cfi_startproc
 963              		@ args = 0, pretend = 0, frame = 0
 964              		@ frame_needed = 0, uses_anonymous_args = 0
 965 0000 08B5     		push	{r3, lr}
 966              		.save {r3, lr}
 967              	.LCFI13:
 968              		.cfi_def_cfa_offset 8
 969              		.cfi_offset 3, -8
 970              		.cfi_offset 14, -4
 647:Core/Src/main.cpp ****   switch(workMode)
 971              		.loc 1 647 3 view .LVU233
 972              		.loc 1 647 10 is_stmt 0 view .LVU234
 973 0002 124B     		ldr	r3, .L71
 974 0004 1B78     		ldrb	r3, [r3]	@ zero_extendqisi2
 975 0006 032B     		cmp	r3, #3
 976 0008 18D8     		bhi	.L63
 977 000a DFE803F0 		tbb	[pc, r3]
 978              	.L65:
 979 000e 02       		.byte	(.L68-.L65)/2
 980 000f 0B       		.byte	(.L67-.L65)/2
 981 0010 0F       		.byte	(.L66-.L65)/2
 982 0011 13       		.byte	(.L64-.L65)/2
 983              		.p2align 1
 984              	.L68:
 648:Core/Src/main.cpp ****   {
 649:Core/Src/main.cpp ****     case NormalMode:
 985              		.loc 1 649 5 is_stmt 1 view .LVU235
 650:Core/Src/main.cpp ****     {
 986              		.loc 1 650 5 view .LVU236
 651:Core/Src/main.cpp ****       workMode = ClosedMode;
 987              		.loc 1 651 7 view .LVU237
ARM GAS  C:\Users\Admin\AppData\Local\Temp\cchwZgJb.s 			page 31


 988              		.loc 1 651 16 is_stmt 0 view .LVU238
 989 0012 0E4B     		ldr	r3, .L71
 990 0014 0122     		movs	r2, #1
 991 0016 1A70     		strb	r2, [r3]
 652:Core/Src/main.cpp ****       break;
 992              		.loc 1 652 7 is_stmt 1 view .LVU239
 993              	.L69:
 653:Core/Src/main.cpp ****     }
 654:Core/Src/main.cpp ****     case ClosedMode:
 655:Core/Src/main.cpp ****     {
 656:Core/Src/main.cpp ****       workMode = OpenMode;
 657:Core/Src/main.cpp ****       break;
 658:Core/Src/main.cpp ****     }
 659:Core/Src/main.cpp ****     case OpenMode:
 660:Core/Src/main.cpp ****     {
 661:Core/Src/main.cpp ****       workMode = CondOpenMode;
 662:Core/Src/main.cpp ****       break;
 663:Core/Src/main.cpp ****     }
 664:Core/Src/main.cpp ****     case CondOpenMode:
 665:Core/Src/main.cpp ****     {
 666:Core/Src/main.cpp ****       workMode = NormalMode;
 667:Core/Src/main.cpp ****       break;
 668:Core/Src/main.cpp ****     }
 669:Core/Src/main.cpp ****     default:
 670:Core/Src/main.cpp ****     {
 671:Core/Src/main.cpp ****       UART_Printf("Unknown mode switched to normal.\r\n");
 672:Core/Src/main.cpp ****       workMode = NormalMode;
 673:Core/Src/main.cpp ****       break;
 674:Core/Src/main.cpp ****     }
 675:Core/Src/main.cpp ****   }
 676:Core/Src/main.cpp **** 
 677:Core/Src/main.cpp ****   UART_Printf("Switched to mode %d\r\n", workMode);
 994              		.loc 1 677 3 view .LVU240
 995              		.loc 1 677 14 is_stmt 0 view .LVU241
 996 0018 0C4B     		ldr	r3, .L71
 997 001a 1978     		ldrb	r1, [r3]	@ zero_extendqisi2
 998 001c 0C48     		ldr	r0, .L71+4
 999 001e FFF7FEFF 		bl	_Z11UART_PrintfPKcz
 1000              	.LVL50:
 678:Core/Src/main.cpp **** 
 679:Core/Src/main.cpp ****   return;
 1001              		.loc 1 679 3 is_stmt 1 view .LVU242
 680:Core/Src/main.cpp **** }
 1002              		.loc 1 680 1 is_stmt 0 view .LVU243
 1003 0022 08BD     		pop	{r3, pc}
 1004              	.L67:
 654:Core/Src/main.cpp ****     {
 1005              		.loc 1 654 5 is_stmt 1 view .LVU244
 655:Core/Src/main.cpp ****       workMode = OpenMode;
 1006              		.loc 1 655 5 view .LVU245
 656:Core/Src/main.cpp ****       break;
 1007              		.loc 1 656 7 view .LVU246
 656:Core/Src/main.cpp ****       break;
 1008              		.loc 1 656 16 is_stmt 0 view .LVU247
 1009 0024 094B     		ldr	r3, .L71
 1010 0026 0222     		movs	r2, #2
 1011 0028 1A70     		strb	r2, [r3]
ARM GAS  C:\Users\Admin\AppData\Local\Temp\cchwZgJb.s 			page 32


 657:Core/Src/main.cpp ****     }
 1012              		.loc 1 657 7 is_stmt 1 view .LVU248
 1013 002a F5E7     		b	.L69
 1014              	.L66:
 659:Core/Src/main.cpp ****     {
 1015              		.loc 1 659 5 view .LVU249
 660:Core/Src/main.cpp ****       workMode = CondOpenMode;
 1016              		.loc 1 660 5 view .LVU250
 661:Core/Src/main.cpp ****       break;
 1017              		.loc 1 661 7 view .LVU251
 661:Core/Src/main.cpp ****       break;
 1018              		.loc 1 661 16 is_stmt 0 view .LVU252
 1019 002c 074B     		ldr	r3, .L71
 1020 002e 0322     		movs	r2, #3
 1021 0030 1A70     		strb	r2, [r3]
 662:Core/Src/main.cpp ****     }
 1022              		.loc 1 662 7 is_stmt 1 view .LVU253
 1023 0032 F1E7     		b	.L69
 1024              	.L64:
 664:Core/Src/main.cpp ****     {
 1025              		.loc 1 664 5 view .LVU254
 665:Core/Src/main.cpp ****       workMode = NormalMode;
 1026              		.loc 1 665 5 view .LVU255
 666:Core/Src/main.cpp ****       break;
 1027              		.loc 1 666 7 view .LVU256
 666:Core/Src/main.cpp ****       break;
 1028              		.loc 1 666 16 is_stmt 0 view .LVU257
 1029 0034 054B     		ldr	r3, .L71
 1030 0036 0022     		movs	r2, #0
 1031 0038 1A70     		strb	r2, [r3]
 667:Core/Src/main.cpp ****     }
 1032              		.loc 1 667 7 is_stmt 1 view .LVU258
 1033 003a EDE7     		b	.L69
 1034              	.L63:
 669:Core/Src/main.cpp ****     {
 1035              		.loc 1 669 5 view .LVU259
 670:Core/Src/main.cpp ****       UART_Printf("Unknown mode switched to normal.\r\n");
 1036              		.loc 1 670 5 view .LVU260
 671:Core/Src/main.cpp ****       workMode = NormalMode;
 1037              		.loc 1 671 7 view .LVU261
 671:Core/Src/main.cpp ****       workMode = NormalMode;
 1038              		.loc 1 671 18 is_stmt 0 view .LVU262
 1039 003c 0548     		ldr	r0, .L71+8
 1040 003e FFF7FEFF 		bl	_Z11UART_PrintfPKcz
 1041              	.LVL51:
 672:Core/Src/main.cpp ****       break;
 1042              		.loc 1 672 7 is_stmt 1 view .LVU263
 672:Core/Src/main.cpp ****       break;
 1043              		.loc 1 672 16 is_stmt 0 view .LVU264
 1044 0042 024B     		ldr	r3, .L71
 1045 0044 0022     		movs	r2, #0
 1046 0046 1A70     		strb	r2, [r3]
 673:Core/Src/main.cpp ****     }
 1047              		.loc 1 673 7 is_stmt 1 view .LVU265
 1048 0048 E6E7     		b	.L69
 1049              	.L72:
 1050 004a 00BF     		.align	2
ARM GAS  C:\Users\Admin\AppData\Local\Temp\cchwZgJb.s 			page 33


 1051              	.L71:
 1052 004c 00000000 		.word	.LANCHOR14
 1053 0050 24000000 		.word	.LC2
 1054 0054 00000000 		.word	.LC1
 1055              		.cfi_endproc
 1056              	.LFE90:
 1057              		.fnend
 1059              		.section	.text._Z15changeModeEventv,"ax",%progbits
 1060              		.align	1
 1061              		.global	_Z15changeModeEventv
 1062              		.syntax unified
 1063              		.thumb
 1064              		.thumb_func
 1065              		.fpu softvfp
 1067              	_Z15changeModeEventv:
 1068              		.fnstart
 1069              	.LFB78:
 379:Core/Src/main.cpp ****   if ((HAL_GetTick() - timme) > 15000)
 1070              		.loc 1 379 1 view -0
 1071              		.cfi_startproc
 1072              		@ args = 0, pretend = 0, frame = 0
 1073              		@ frame_needed = 0, uses_anonymous_args = 0
 1074 0000 08B5     		push	{r3, lr}
 1075              		.save {r3, lr}
 1076              	.LCFI14:
 1077              		.cfi_def_cfa_offset 8
 1078              		.cfi_offset 3, -8
 1079              		.cfi_offset 14, -4
 380:Core/Src/main.cpp ****   {
 1080              		.loc 1 380 3 view .LVU267
 380:Core/Src/main.cpp ****   {
 1081              		.loc 1 380 19 is_stmt 0 view .LVU268
 1082 0002 FFF7FEFF 		bl	HAL_GetTick
 1083              	.LVL52:
 380:Core/Src/main.cpp ****   {
 1084              		.loc 1 380 22 view .LVU269
 1085 0006 074B     		ldr	r3, .L77
 1086 0008 1B68     		ldr	r3, [r3]
 1087 000a C01A     		subs	r0, r0, r3
 380:Core/Src/main.cpp ****   {
 1088              		.loc 1 380 3 view .LVU270
 1089 000c 43F69823 		movw	r3, #15000
 1090 0010 9842     		cmp	r0, r3
 1091 0012 00D8     		bhi	.L76
 1092              	.L73:
 385:Core/Src/main.cpp **** 
 1093              		.loc 1 385 1 view .LVU271
 1094 0014 08BD     		pop	{r3, pc}
 1095              	.L76:
 382:Core/Src/main.cpp ****     timme = HAL_GetTick();
 1096              		.loc 1 382 5 is_stmt 1 view .LVU272
 382:Core/Src/main.cpp ****     timme = HAL_GetTick();
 1097              		.loc 1 382 15 is_stmt 0 view .LVU273
 1098 0016 FFF7FEFF 		bl	_Z10switchModev
 1099              	.LVL53:
 383:Core/Src/main.cpp ****   }
 1100              		.loc 1 383 5 is_stmt 1 view .LVU274
ARM GAS  C:\Users\Admin\AppData\Local\Temp\cchwZgJb.s 			page 34


 383:Core/Src/main.cpp ****   }
 1101              		.loc 1 383 24 is_stmt 0 view .LVU275
 1102 001a FFF7FEFF 		bl	HAL_GetTick
 1103              	.LVL54:
 383:Core/Src/main.cpp ****   }
 1104              		.loc 1 383 11 view .LVU276
 1105 001e 014B     		ldr	r3, .L77
 1106 0020 1860     		str	r0, [r3]
 385:Core/Src/main.cpp **** 
 1107              		.loc 1 385 1 view .LVU277
 1108 0022 F7E7     		b	.L73
 1109              	.L78:
 1110              		.align	2
 1111              	.L77:
 1112 0024 00000000 		.word	.LANCHOR13
 1113              		.cfi_endproc
 1114              	.LFE78:
 1115              		.fnend
 1117              		.section	.rodata._Z11unlockRelayv.str1.4,"aMS",%progbits,1
 1118              		.align	2
 1119              	.LC3:
 1120 0000 556E6C6F 		.ascii	"Unlocked the door.\015\012\000"
 1120      636B6564 
 1120      20746865 
 1120      20646F6F 
 1120      722E0D0A 
 1121              		.section	.text._Z11unlockRelayv,"ax",%progbits
 1122              		.align	1
 1123              		.global	_Z11unlockRelayv
 1124              		.syntax unified
 1125              		.thumb
 1126              		.thumb_func
 1127              		.fpu softvfp
 1129              	_Z11unlockRelayv:
 1130              		.fnstart
 1131              	.LFB91:
 681:Core/Src/main.cpp **** 
 682:Core/Src/main.cpp **** // void blink(uint16_t blinkDurration)
 683:Core/Src/main.cpp **** // {
 684:Core/Src/main.cpp **** //   toBlink = true;
 685:Core/Src/main.cpp **** //   blinkTime = blinkDurration;
 686:Core/Src/main.cpp **** //   blinkStart = HAL_GetTick();
 687:Core/Src/main.cpp **** //   HAL_GPIO_WritePin(GreenLed_1_GPIO_Port, GreenLed_1_Pin, RESET);
 688:Core/Src/main.cpp **** //   HAL_GPIO_WritePin(GreenLed_2_GPIO_Port, GreenLed_2_Pin, RESET);
 689:Core/Src/main.cpp **** // }
 690:Core/Src/main.cpp **** 
 691:Core/Src/main.cpp **** void unlockRelay()
 692:Core/Src/main.cpp **** {
 1132              		.loc 1 692 1 is_stmt 1 view -0
 1133              		.cfi_startproc
 1134              		@ args = 0, pretend = 0, frame = 0
 1135              		@ frame_needed = 0, uses_anonymous_args = 0
 1136 0000 08B5     		push	{r3, lr}
 1137              		.save {r3, lr}
 1138              	.LCFI15:
 1139              		.cfi_def_cfa_offset 8
 1140              		.cfi_offset 3, -8
ARM GAS  C:\Users\Admin\AppData\Local\Temp\cchwZgJb.s 			page 35


 1141              		.cfi_offset 14, -4
 693:Core/Src/main.cpp ****   UART_Printf("Unlocked the door.\r\n");
 1142              		.loc 1 693 3 view .LVU279
 1143              		.loc 1 693 14 is_stmt 0 view .LVU280
 1144 0002 0548     		ldr	r0, .L81
 1145 0004 FFF7FEFF 		bl	_Z11UART_PrintfPKcz
 1146              	.LVL55:
 694:Core/Src/main.cpp ****   // relay opening mechanics
 695:Core/Src/main.cpp ****   relayUnlockingTime = HAL_GetTick();
 1147              		.loc 1 695 3 is_stmt 1 view .LVU281
 1148              		.loc 1 695 35 is_stmt 0 view .LVU282
 1149 0008 FFF7FEFF 		bl	HAL_GetTick
 1150              	.LVL56:
 1151              		.loc 1 695 22 view .LVU283
 1152 000c 034B     		ldr	r3, .L81+4
 1153 000e 1860     		str	r0, [r3]
 696:Core/Src/main.cpp ****   relayState = OpenedState;
 1154              		.loc 1 696 3 is_stmt 1 view .LVU284
 1155              		.loc 1 696 14 is_stmt 0 view .LVU285
 1156 0010 034B     		ldr	r3, .L81+8
 1157 0012 0022     		movs	r2, #0
 1158 0014 1A70     		strb	r2, [r3]
 697:Core/Src/main.cpp **** }
 1159              		.loc 1 697 1 view .LVU286
 1160 0016 08BD     		pop	{r3, pc}
 1161              	.L82:
 1162              		.align	2
 1163              	.L81:
 1164 0018 00000000 		.word	.LC3
 1165 001c 00000000 		.word	.LANCHOR15
 1166 0020 00000000 		.word	.LANCHOR4
 1167              		.cfi_endproc
 1168              	.LFE91:
 1169              		.fnend
 1171              		.section	.rodata._Z16intercomKeyEventv.str1.4,"aMS",%progbits,1
 1172              		.align	2
 1173              	.LC4:
 1174 0000 496E7369 		.ascii	"Inside reader was used.\015\012\000"
 1174      64652072 
 1174      65616465 
 1174      72207761 
 1174      73207573 
 1175 001a 0000     		.align	2
 1176              	.LC5:
 1177 001c 4F757473 		.ascii	"Outside reader was used.\015\012\000"
 1177      69646520 
 1177      72656164 
 1177      65722077 
 1177      61732075 
 1178 0037 00       		.align	2
 1179              	.LC6:
 1180 0038 436F6465 		.ascii	"Code id: %d\015\012\000"
 1180      2069643A 
 1180      2025640D 
 1180      0A00
 1181              		.section	.text._Z16intercomKeyEventv,"ax",%progbits
 1182              		.align	1
ARM GAS  C:\Users\Admin\AppData\Local\Temp\cchwZgJb.s 			page 36


 1183              		.global	_Z16intercomKeyEventv
 1184              		.syntax unified
 1185              		.thumb
 1186              		.thumb_func
 1187              		.fpu softvfp
 1189              	_Z16intercomKeyEventv:
 1190              		.fnstart
 1191              	.LFB80:
 402:Core/Src/main.cpp ****   if (wig_available())
 1192              		.loc 1 402 1 is_stmt 1 view -0
 1193              		.cfi_startproc
 1194              		@ args = 0, pretend = 0, frame = 0
 1195              		@ frame_needed = 0, uses_anonymous_args = 0
 1196 0000 08B5     		push	{r3, lr}
 1197              		.save {r3, lr}
 1198              	.LCFI16:
 1199              		.cfi_def_cfa_offset 8
 1200              		.cfi_offset 3, -8
 1201              		.cfi_offset 14, -4
 403:Core/Src/main.cpp ****   {
 1202              		.loc 1 403 3 view .LVU288
 403:Core/Src/main.cpp ****   {
 1203              		.loc 1 403 20 is_stmt 0 view .LVU289
 1204 0002 FFF7FEFF 		bl	wig_available
 1205              	.LVL57:
 403:Core/Src/main.cpp ****   {
 1206              		.loc 1 403 3 view .LVU290
 1207 0006 A0B1     		cbz	r0, .L83
 405:Core/Src/main.cpp ****       UART_Printf("Inside reader was used.\r\n");
 1208              		.loc 1 405 5 is_stmt 1 view .LVU291
 1209 0008 164B     		ldr	r3, .L93
 1210 000a 1B78     		ldrb	r3, [r3]	@ zero_extendqisi2
 1211 000c 93B9     		cbnz	r3, .L91
 1212              	.L85:
 408:Core/Src/main.cpp ****       UART_Printf("Outside reader was used.\r\n");
 1213              		.loc 1 408 5 view .LVU292
 1214 000e 164B     		ldr	r3, .L93+4
 1215 0010 1B78     		ldrb	r3, [r3]	@ zero_extendqisi2
 1216 0012 9BB9     		cbnz	r3, .L92
 1217              	.L86:
 411:Core/Src/main.cpp ****     {  
 1218              		.loc 1 411 5 view .LVU293
 411:Core/Src/main.cpp ****     {  
 1219              		.loc 1 411 18 is_stmt 0 view .LVU294
 1220 0014 FFF7FEFF 		bl	getCode
 1221              	.LVL58:
 1222 0018 FFF7FEFF 		bl	_Z10verifyCodem
 1223              	.LVL59:
 411:Core/Src/main.cpp ****     {  
 1224              		.loc 1 411 5 view .LVU295
 1225 001c 20B1     		cbz	r0, .L87
 413:Core/Src/main.cpp ****       {
 1226              		.loc 1 413 7 is_stmt 1 view .LVU296
 413:Core/Src/main.cpp ****       {
 1227              		.loc 1 413 15 is_stmt 0 view .LVU297
 1228 001e 134B     		ldr	r3, .L93+8
 1229 0020 1B78     		ldrb	r3, [r3]	@ zero_extendqisi2
ARM GAS  C:\Users\Admin\AppData\Local\Temp\cchwZgJb.s 			page 37


 413:Core/Src/main.cpp ****       {
 1230              		.loc 1 413 7 view .LVU298
 1231 0022 7BB1     		cbz	r3, .L88
 1232 0024 032B     		cmp	r3, #3
 1233 0026 16D0     		beq	.L89
 1234              	.L87:
 436:Core/Src/main.cpp ****     outsideKeyRead = false;
 1235              		.loc 1 436 5 is_stmt 1 view .LVU299
 436:Core/Src/main.cpp ****     outsideKeyRead = false;
 1236              		.loc 1 436 19 is_stmt 0 view .LVU300
 1237 0028 0023     		movs	r3, #0
 1238 002a 0E4A     		ldr	r2, .L93
 1239 002c 1370     		strb	r3, [r2]
 437:Core/Src/main.cpp ****   }
 1240              		.loc 1 437 5 is_stmt 1 view .LVU301
 437:Core/Src/main.cpp ****   }
 1241              		.loc 1 437 20 is_stmt 0 view .LVU302
 1242 002e 0E4A     		ldr	r2, .L93+4
 1243 0030 1370     		strb	r3, [r2]
 1244              	.L83:
 439:Core/Src/main.cpp **** 
 1245              		.loc 1 439 1 view .LVU303
 1246 0032 08BD     		pop	{r3, pc}
 1247              	.L91:
 406:Core/Src/main.cpp **** 
 1248              		.loc 1 406 7 is_stmt 1 view .LVU304
 406:Core/Src/main.cpp **** 
 1249              		.loc 1 406 18 is_stmt 0 view .LVU305
 1250 0034 0E48     		ldr	r0, .L93+12
 1251 0036 FFF7FEFF 		bl	_Z11UART_PrintfPKcz
 1252              	.LVL60:
 1253 003a E8E7     		b	.L85
 1254              	.L92:
 409:Core/Src/main.cpp **** 
 1255              		.loc 1 409 7 is_stmt 1 view .LVU306
 409:Core/Src/main.cpp **** 
 1256              		.loc 1 409 18 is_stmt 0 view .LVU307
 1257 003c 0D48     		ldr	r0, .L93+16
 1258 003e FFF7FEFF 		bl	_Z11UART_PrintfPKcz
 1259              	.LVL61:
 1260 0042 E7E7     		b	.L86
 1261              	.L88:
 415:Core/Src/main.cpp ****           unlockRelay();
 1262              		.loc 1 415 9 is_stmt 1 view .LVU308
 416:Core/Src/main.cpp ****           UART_Printf("Code id: %d\r\n", getCode());
 1263              		.loc 1 416 11 view .LVU309
 416:Core/Src/main.cpp ****           UART_Printf("Code id: %d\r\n", getCode());
 1264              		.loc 1 416 22 is_stmt 0 view .LVU310
 1265 0044 FFF7FEFF 		bl	_Z11unlockRelayv
 1266              	.LVL62:
 417:Core/Src/main.cpp ****           break;
 1267              		.loc 1 417 11 is_stmt 1 view .LVU311
 417:Core/Src/main.cpp ****           break;
 1268              		.loc 1 417 22 is_stmt 0 view .LVU312
 1269 0048 FFF7FEFF 		bl	getCode
 1270              	.LVL63:
 1271 004c 0146     		mov	r1, r0
ARM GAS  C:\Users\Admin\AppData\Local\Temp\cchwZgJb.s 			page 38


 1272 004e 0A48     		ldr	r0, .L93+20
 1273 0050 FFF7FEFF 		bl	_Z11UART_PrintfPKcz
 1274              	.LVL64:
 418:Core/Src/main.cpp **** 
 1275              		.loc 1 418 11 is_stmt 1 view .LVU313
 1276 0054 E8E7     		b	.L87
 1277              	.L89:
 427:Core/Src/main.cpp ****           workMode = OpenMode;
 1278              		.loc 1 427 9 view .LVU314
 428:Core/Src/main.cpp ****           unlockRelay();
 1279              		.loc 1 428 11 view .LVU315
 428:Core/Src/main.cpp ****           unlockRelay();
 1280              		.loc 1 428 20 is_stmt 0 view .LVU316
 1281 0056 054B     		ldr	r3, .L93+8
 1282 0058 0222     		movs	r2, #2
 1283 005a 1A70     		strb	r2, [r3]
 429:Core/Src/main.cpp ****           break;
 1284              		.loc 1 429 11 is_stmt 1 view .LVU317
 429:Core/Src/main.cpp ****           break;
 1285              		.loc 1 429 22 is_stmt 0 view .LVU318
 1286 005c FFF7FEFF 		bl	_Z11unlockRelayv
 1287              	.LVL65:
 430:Core/Src/main.cpp **** 
 1288              		.loc 1 430 11 is_stmt 1 view .LVU319
 1289 0060 E2E7     		b	.L87
 1290              	.L94:
 1291 0062 00BF     		.align	2
 1292              	.L93:
 1293 0064 00000000 		.word	.LANCHOR9
 1294 0068 00000000 		.word	.LANCHOR10
 1295 006c 00000000 		.word	.LANCHOR14
 1296 0070 00000000 		.word	.LC4
 1297 0074 1C000000 		.word	.LC5
 1298 0078 38000000 		.word	.LC6
 1299              		.cfi_endproc
 1300              	.LFE80:
 1301              		.fnend
 1303              		.section	.rodata._Z18buttonPressedEventv.str1.4,"aMS",%progbits,1
 1304              		.align	2
 1305              	.LC7:
 1306 0000 496E7369 		.ascii	"Inside button was pressed.\015\012\000"
 1306      64652062 
 1306      7574746F 
 1306      6E207761 
 1306      73207072 
 1307 001d 000000   		.align	2
 1308              	.LC8:
 1309 0020 4F757473 		.ascii	"Outside button was pressed.\015\012\000"
 1309      69646520 
 1309      62757474 
 1309      6F6E2077 
 1309      61732070 
 1310              		.section	.text._Z18buttonPressedEventv,"ax",%progbits
 1311              		.align	1
 1312              		.global	_Z18buttonPressedEventv
 1313              		.syntax unified
 1314              		.thumb
ARM GAS  C:\Users\Admin\AppData\Local\Temp\cchwZgJb.s 			page 39


 1315              		.thumb_func
 1316              		.fpu softvfp
 1318              	_Z18buttonPressedEventv:
 1319              		.fnstart
 1320              	.LFB81:
 446:Core/Src/main.cpp ****   if (insideButtonPressed)
 1321              		.loc 1 446 1 view -0
 1322              		.cfi_startproc
 1323              		@ args = 0, pretend = 0, frame = 0
 1324              		@ frame_needed = 0, uses_anonymous_args = 0
 1325 0000 08B5     		push	{r3, lr}
 1326              		.save {r3, lr}
 1327              	.LCFI17:
 1328              		.cfi_def_cfa_offset 8
 1329              		.cfi_offset 3, -8
 1330              		.cfi_offset 14, -4
 447:Core/Src/main.cpp ****     UART_Printf("Inside button was pressed.\r\n");
 1331              		.loc 1 447 3 view .LVU321
 1332 0002 164B     		ldr	r3, .L106
 1333 0004 1B78     		ldrb	r3, [r3]	@ zero_extendqisi2
 1334 0006 93B9     		cbnz	r3, .L104
 1335              	.L96:
 450:Core/Src/main.cpp ****     UART_Printf("Outside button was pressed.\r\n");
 1336              		.loc 1 450 3 view .LVU322
 1337 0008 154B     		ldr	r3, .L106+4
 1338 000a 1B78     		ldrb	r3, [r3]	@ zero_extendqisi2
 1339 000c 9BB9     		cbnz	r3, .L105
 1340              	.L97:
 453:Core/Src/main.cpp ****   {
 1341              		.loc 1 453 3 view .LVU323
 1342 000e 144B     		ldr	r3, .L106+4
 1343 0010 1B78     		ldrb	r3, [r3]	@ zero_extendqisi2
 1344 0012 13B9     		cbnz	r3, .L98
 453:Core/Src/main.cpp ****   {
 1345              		.loc 1 453 28 is_stmt 0 discriminator 1 view .LVU324
 1346 0014 114B     		ldr	r3, .L106
 1347 0016 1B78     		ldrb	r3, [r3]	@ zero_extendqisi2
 1348 0018 F3B1     		cbz	r3, .L95
 1349              	.L98:
 455:Core/Src/main.cpp ****     {
 1350              		.loc 1 455 5 is_stmt 1 view .LVU325
 455:Core/Src/main.cpp ****     {
 1351              		.loc 1 455 13 is_stmt 0 view .LVU326
 1352 001a 124B     		ldr	r3, .L106+8
 1353 001c 1B78     		ldrb	r3, [r3]	@ zero_extendqisi2
 455:Core/Src/main.cpp ****     {
 1354              		.loc 1 455 5 view .LVU327
 1355 001e 012B     		cmp	r3, #1
 1356 0020 0DD9     		bls	.L100
 1357 0022 032B     		cmp	r3, #3
 1358 0024 13D1     		bne	.L102
 470:Core/Src/main.cpp ****       {
 1359              		.loc 1 470 7 is_stmt 1 view .LVU328
 471:Core/Src/main.cpp ****         workMode = OpenMode;
 1360              		.loc 1 471 7 view .LVU329
 472:Core/Src/main.cpp ****         break;
 1361              		.loc 1 472 9 view .LVU330
ARM GAS  C:\Users\Admin\AppData\Local\Temp\cchwZgJb.s 			page 40


 472:Core/Src/main.cpp ****         break;
 1362              		.loc 1 472 18 is_stmt 0 view .LVU331
 1363 0026 0F4B     		ldr	r3, .L106+8
 1364 0028 0222     		movs	r2, #2
 1365 002a 1A70     		strb	r2, [r3]
 473:Core/Src/main.cpp ****       }
 1366              		.loc 1 473 9 is_stmt 1 view .LVU332
 1367 002c 0FE0     		b	.L102
 1368              	.L104:
 448:Core/Src/main.cpp **** 
 1369              		.loc 1 448 5 view .LVU333
 448:Core/Src/main.cpp **** 
 1370              		.loc 1 448 16 is_stmt 0 view .LVU334
 1371 002e 0E48     		ldr	r0, .L106+12
 1372 0030 FFF7FEFF 		bl	_Z11UART_PrintfPKcz
 1373              	.LVL66:
 1374 0034 E8E7     		b	.L96
 1375              	.L105:
 451:Core/Src/main.cpp **** 
 1376              		.loc 1 451 5 is_stmt 1 view .LVU335
 451:Core/Src/main.cpp **** 
 1377              		.loc 1 451 16 is_stmt 0 view .LVU336
 1378 0036 0D48     		ldr	r0, .L106+16
 1379 0038 FFF7FEFF 		bl	_Z11UART_PrintfPKcz
 1380              	.LVL67:
 1381 003c E7E7     		b	.L97
 1382              	.L100:
 457:Core/Src/main.cpp ****       case ClosedMode:
 1383              		.loc 1 457 7 is_stmt 1 view .LVU337
 458:Core/Src/main.cpp ****       {
 1384              		.loc 1 458 7 view .LVU338
 459:Core/Src/main.cpp ****         unlockRelay();
 1385              		.loc 1 459 7 view .LVU339
 460:Core/Src/main.cpp ****         previousWorkMode = workMode;
 1386              		.loc 1 460 9 view .LVU340
 460:Core/Src/main.cpp ****         previousWorkMode = workMode;
 1387              		.loc 1 460 20 is_stmt 0 view .LVU341
 1388 003e FFF7FEFF 		bl	_Z11unlockRelayv
 1389              	.LVL68:
 461:Core/Src/main.cpp ****         workMode = TempOpenMode;
 1390              		.loc 1 461 9 is_stmt 1 view .LVU342
 461:Core/Src/main.cpp ****         workMode = TempOpenMode;
 1391              		.loc 1 461 26 is_stmt 0 view .LVU343
 1392 0042 084B     		ldr	r3, .L106+8
 1393 0044 1978     		ldrb	r1, [r3]	@ zero_extendqisi2
 1394 0046 0A4A     		ldr	r2, .L106+20
 1395 0048 1170     		strb	r1, [r2]
 462:Core/Src/main.cpp ****         break;
 1396              		.loc 1 462 9 is_stmt 1 view .LVU344
 462:Core/Src/main.cpp ****         break;
 1397              		.loc 1 462 18 is_stmt 0 view .LVU345
 1398 004a 0422     		movs	r2, #4
 1399 004c 1A70     		strb	r2, [r3]
 463:Core/Src/main.cpp ****       }
 1400              		.loc 1 463 9 is_stmt 1 view .LVU346
 1401              	.L102:
 480:Core/Src/main.cpp ****     insideButtonPressed = false;
ARM GAS  C:\Users\Admin\AppData\Local\Temp\cchwZgJb.s 			page 41


 1402              		.loc 1 480 5 view .LVU347
 480:Core/Src/main.cpp ****     insideButtonPressed = false;
 1403              		.loc 1 480 26 is_stmt 0 view .LVU348
 1404 004e 0023     		movs	r3, #0
 1405 0050 034A     		ldr	r2, .L106+4
 1406 0052 1370     		strb	r3, [r2]
 481:Core/Src/main.cpp ****   }
 1407              		.loc 1 481 5 is_stmt 1 view .LVU349
 481:Core/Src/main.cpp ****   }
 1408              		.loc 1 481 25 is_stmt 0 view .LVU350
 1409 0054 014A     		ldr	r2, .L106
 1410 0056 1370     		strb	r3, [r2]
 1411              	.L95:
 483:Core/Src/main.cpp **** 
 1412              		.loc 1 483 1 view .LVU351
 1413 0058 08BD     		pop	{r3, pc}
 1414              	.L107:
 1415 005a 00BF     		.align	2
 1416              	.L106:
 1417 005c 00000000 		.word	.LANCHOR5
 1418 0060 00000000 		.word	.LANCHOR6
 1419 0064 00000000 		.word	.LANCHOR14
 1420 0068 00000000 		.word	.LC7
 1421 006c 20000000 		.word	.LC8
 1422 0070 00000000 		.word	.LANCHOR16
 1423              		.cfi_endproc
 1424              	.LFE81:
 1425              		.fnend
 1427              		.section	.rodata._Z8lockDoorv.str1.4,"aMS",%progbits,1
 1428              		.align	2
 1429              	.LC9:
 1430 0000 4572726F 		.ascii	"Error. Door is not closed\015\012\000"
 1430      722E2044 
 1430      6F6F7220 
 1430      6973206E 
 1430      6F742063 
 1431              		.section	.text._Z8lockDoorv,"ax",%progbits
 1432              		.align	1
 1433              		.global	_Z8lockDoorv
 1434              		.syntax unified
 1435              		.thumb
 1436              		.thumb_func
 1437              		.fpu softvfp
 1439              	_Z8lockDoorv:
 1440              		.fnstart
 1441              	.LFB92:
 698:Core/Src/main.cpp **** 
 699:Core/Src/main.cpp **** void lockDoor()
 700:Core/Src/main.cpp **** {
 1442              		.loc 1 700 1 is_stmt 1 view -0
 1443              		.cfi_startproc
 1444              		@ args = 0, pretend = 0, frame = 0
 1445              		@ frame_needed = 0, uses_anonymous_args = 0
 1446 0000 08B5     		push	{r3, lr}
 1447              		.save {r3, lr}
 1448              	.LCFI18:
 1449              		.cfi_def_cfa_offset 8
ARM GAS  C:\Users\Admin\AppData\Local\Temp\cchwZgJb.s 			page 42


 1450              		.cfi_offset 3, -8
 1451              		.cfi_offset 14, -4
 701:Core/Src/main.cpp ****   if (doorState == ClosedState)
 1452              		.loc 1 701 3 view .LVU353
 1453              		.loc 1 701 17 is_stmt 0 view .LVU354
 1454 0002 064B     		ldr	r3, .L112
 1455 0004 1B78     		ldrb	r3, [r3]	@ zero_extendqisi2
 1456              		.loc 1 701 3 view .LVU355
 1457 0006 012B     		cmp	r3, #1
 1458 0008 03D1     		bne	.L109
 702:Core/Src/main.cpp ****   {
 703:Core/Src/main.cpp ****     //relay closing mechanics
 704:Core/Src/main.cpp ****     relayState = ClosedState;
 1459              		.loc 1 704 5 is_stmt 1 view .LVU356
 1460              		.loc 1 704 16 is_stmt 0 view .LVU357
 1461 000a 054B     		ldr	r3, .L112+4
 1462 000c 0122     		movs	r2, #1
 1463 000e 1A70     		strb	r2, [r3]
 1464              	.L108:
 705:Core/Src/main.cpp ****   }
 706:Core/Src/main.cpp ****   else
 707:Core/Src/main.cpp ****   {
 708:Core/Src/main.cpp ****     UART_Printf("Error. Door is not closed\r\n");
 709:Core/Src/main.cpp ****   }
 710:Core/Src/main.cpp **** }
 1465              		.loc 1 710 1 view .LVU358
 1466 0010 08BD     		pop	{r3, pc}
 1467              	.L109:
 708:Core/Src/main.cpp ****   }
 1468              		.loc 1 708 5 is_stmt 1 view .LVU359
 708:Core/Src/main.cpp ****   }
 1469              		.loc 1 708 16 is_stmt 0 view .LVU360
 1470 0012 0448     		ldr	r0, .L112+8
 1471 0014 FFF7FEFF 		bl	_Z11UART_PrintfPKcz
 1472              	.LVL69:
 1473              		.loc 1 710 1 view .LVU361
 1474 0018 FAE7     		b	.L108
 1475              	.L113:
 1476 001a 00BF     		.align	2
 1477              	.L112:
 1478 001c 00000000 		.word	.LANCHOR3
 1479 0020 00000000 		.word	.LANCHOR4
 1480 0024 00000000 		.word	.LC9
 1481              		.cfi_endproc
 1482              	.LFE92:
 1483              		.fnend
 1485              		.section	.text._Z15doorUnlockEventv,"ax",%progbits
 1486              		.align	1
 1487              		.global	_Z15doorUnlockEventv
 1488              		.syntax unified
 1489              		.thumb
 1490              		.thumb_func
 1491              		.fpu softvfp
 1493              	_Z15doorUnlockEventv:
 1494              		.fnstart
 1495              	.LFB82:
 486:Core/Src/main.cpp ****   if (doorRecentlyClosed)
ARM GAS  C:\Users\Admin\AppData\Local\Temp\cchwZgJb.s 			page 43


 1496              		.loc 1 486 1 is_stmt 1 view -0
 1497              		.cfi_startproc
 1498              		@ args = 0, pretend = 0, frame = 0
 1499              		@ frame_needed = 0, uses_anonymous_args = 0
 1500 0000 08B5     		push	{r3, lr}
 1501              		.save {r3, lr}
 1502              	.LCFI19:
 1503              		.cfi_def_cfa_offset 8
 1504              		.cfi_offset 3, -8
 1505              		.cfi_offset 14, -4
 487:Core/Src/main.cpp ****   {
 1506              		.loc 1 487 3 view .LVU363
 1507 0002 114B     		ldr	r3, .L121
 1508 0004 1B78     		ldrb	r3, [r3]	@ zero_extendqisi2
 1509 0006 7BB9     		cbnz	r3, .L119
 1510              	.L115:
 493:Core/Src/main.cpp ****   {
 1511              		.loc 1 493 3 view .LVU364
 493:Core/Src/main.cpp ****   {
 1512              		.loc 1 493 19 is_stmt 0 view .LVU365
 1513 0008 FFF7FEFF 		bl	HAL_GetTick
 1514              	.LVL70:
 493:Core/Src/main.cpp ****   {
 1515              		.loc 1 493 22 view .LVU366
 1516 000c 0F4B     		ldr	r3, .L121+4
 1517 000e 1B68     		ldr	r3, [r3]
 1518 0010 C01A     		subs	r0, r0, r3
 493:Core/Src/main.cpp ****   {
 1519              		.loc 1 493 52 view .LVU367
 1520 0012 42F21073 		movw	r3, #10000
 1521 0016 9842     		cmp	r0, r3
 1522 0018 0CD9     		bls	.L116
 493:Core/Src/main.cpp ****   {
 1523              		.loc 1 493 55 discriminator 1 view .LVU368
 1524 001a 0B4B     		ldr	r3, .L121
 1525 001c 1B78     		ldrb	r3, [r3]	@ zero_extendqisi2
 493:Core/Src/main.cpp ****   {
 1526              		.loc 1 493 52 discriminator 1 view .LVU369
 1527 001e 4BB9     		cbnz	r3, .L116
 495:Core/Src/main.cpp ****   }
 1528              		.loc 1 495 5 is_stmt 1 view .LVU370
 495:Core/Src/main.cpp ****   }
 1529              		.loc 1 495 16 is_stmt 0 view .LVU371
 1530 0020 0B4B     		ldr	r3, .L121+8
 1531 0022 0022     		movs	r2, #0
 1532 0024 1A70     		strb	r2, [r3]
 1533 0026 09E0     		b	.L114
 1534              	.L119:
 489:Core/Src/main.cpp ****     doorRecentlyClosed = false;
 1535              		.loc 1 489 5 is_stmt 1 view .LVU372
 489:Core/Src/main.cpp ****     doorRecentlyClosed = false;
 1536              		.loc 1 489 13 is_stmt 0 view .LVU373
 1537 0028 FFF7FEFF 		bl	_Z8lockDoorv
 1538              	.LVL71:
 490:Core/Src/main.cpp ****   }
 1539              		.loc 1 490 5 is_stmt 1 view .LVU374
 490:Core/Src/main.cpp ****   }
ARM GAS  C:\Users\Admin\AppData\Local\Temp\cchwZgJb.s 			page 44


 1540              		.loc 1 490 24 is_stmt 0 view .LVU375
 1541 002c 064B     		ldr	r3, .L121
 1542 002e 0022     		movs	r2, #0
 1543 0030 1A70     		strb	r2, [r3]
 1544 0032 E9E7     		b	.L115
 1545              	.L116:
 497:Core/Src/main.cpp ****   {
 1546              		.loc 1 497 8 is_stmt 1 view .LVU376
 497:Core/Src/main.cpp ****   {
 1547              		.loc 1 497 22 is_stmt 0 view .LVU377
 1548 0034 074B     		ldr	r3, .L121+12
 1549 0036 1B78     		ldrb	r3, [r3]	@ zero_extendqisi2
 497:Core/Src/main.cpp ****   {
 1550              		.loc 1 497 8 view .LVU378
 1551 0038 012B     		cmp	r3, #1
 1552 003a 00D0     		beq	.L120
 1553              	.L114:
 501:Core/Src/main.cpp **** 
 1554              		.loc 1 501 1 view .LVU379
 1555 003c 08BD     		pop	{r3, pc}
 1556              	.L120:
 499:Core/Src/main.cpp ****   }
 1557              		.loc 1 499 5 is_stmt 1 view .LVU380
 499:Core/Src/main.cpp ****   }
 1558              		.loc 1 499 16 is_stmt 0 view .LVU381
 1559 003e 044B     		ldr	r3, .L121+8
 1560 0040 0122     		movs	r2, #1
 1561 0042 1A70     		strb	r2, [r3]
 501:Core/Src/main.cpp **** 
 1562              		.loc 1 501 1 view .LVU382
 1563 0044 FAE7     		b	.L114
 1564              	.L122:
 1565 0046 00BF     		.align	2
 1566              	.L121:
 1567 0048 00000000 		.word	.LANCHOR7
 1568 004c 00000000 		.word	.LANCHOR15
 1569 0050 00000000 		.word	.LANCHOR17
 1570 0054 00000000 		.word	.LANCHOR3
 1571              		.cfi_endproc
 1572              	.LFE82:
 1573              		.fnend
 1575              		.section	.text.Error_Handler,"ax",%progbits
 1576              		.align	1
 1577              		.global	Error_Handler
 1578              		.syntax unified
 1579              		.thumb
 1580              		.thumb_func
 1581              		.fpu softvfp
 1583              	Error_Handler:
 1584              		.fnstart
 1585              	.LFB93:
 711:Core/Src/main.cpp **** /* USER CODE END 4 */
 712:Core/Src/main.cpp **** 
 713:Core/Src/main.cpp **** /**
 714:Core/Src/main.cpp ****   * @brief  This function is executed in case of error occurrence.
 715:Core/Src/main.cpp ****   * @retval None
 716:Core/Src/main.cpp ****   */
ARM GAS  C:\Users\Admin\AppData\Local\Temp\cchwZgJb.s 			page 45


 717:Core/Src/main.cpp **** void Error_Handler(void)
 718:Core/Src/main.cpp **** {
 1586              		.loc 1 718 1 is_stmt 1 view -0
 1587              		.cfi_startproc
 1588              		@ Volatile: function does not return.
 1589              		@ args = 0, pretend = 0, frame = 0
 1590              		@ frame_needed = 0, uses_anonymous_args = 0
 1591              		@ link register save eliminated.
 719:Core/Src/main.cpp ****   /* USER CODE BEGIN Error_Handler_Debug */
 720:Core/Src/main.cpp ****   /* User can add his own implementation to report the HAL error return state */
 721:Core/Src/main.cpp ****   __disable_irq();
 1592              		.loc 1 721 3 view .LVU384
 1593              	.LBB9:
 1594              	.LBI9:
 1595              		.file 2 "Drivers/CMSIS/Include/cmsis_gcc.h"
   1:Drivers/CMSIS/Include/cmsis_gcc.h **** /**************************************************************************//**
   2:Drivers/CMSIS/Include/cmsis_gcc.h ****  * @file     cmsis_gcc.h
   3:Drivers/CMSIS/Include/cmsis_gcc.h ****  * @brief    CMSIS compiler GCC header file
   4:Drivers/CMSIS/Include/cmsis_gcc.h ****  * @version  V5.0.4
   5:Drivers/CMSIS/Include/cmsis_gcc.h ****  * @date     09. April 2018
   6:Drivers/CMSIS/Include/cmsis_gcc.h ****  ******************************************************************************/
   7:Drivers/CMSIS/Include/cmsis_gcc.h **** /*
   8:Drivers/CMSIS/Include/cmsis_gcc.h ****  * Copyright (c) 2009-2018 Arm Limited. All rights reserved.
   9:Drivers/CMSIS/Include/cmsis_gcc.h ****  *
  10:Drivers/CMSIS/Include/cmsis_gcc.h ****  * SPDX-License-Identifier: Apache-2.0
  11:Drivers/CMSIS/Include/cmsis_gcc.h ****  *
  12:Drivers/CMSIS/Include/cmsis_gcc.h ****  * Licensed under the Apache License, Version 2.0 (the License); you may
  13:Drivers/CMSIS/Include/cmsis_gcc.h ****  * not use this file except in compliance with the License.
  14:Drivers/CMSIS/Include/cmsis_gcc.h ****  * You may obtain a copy of the License at
  15:Drivers/CMSIS/Include/cmsis_gcc.h ****  *
  16:Drivers/CMSIS/Include/cmsis_gcc.h ****  * www.apache.org/licenses/LICENSE-2.0
  17:Drivers/CMSIS/Include/cmsis_gcc.h ****  *
  18:Drivers/CMSIS/Include/cmsis_gcc.h ****  * Unless required by applicable law or agreed to in writing, software
  19:Drivers/CMSIS/Include/cmsis_gcc.h ****  * distributed under the License is distributed on an AS IS BASIS, WITHOUT
  20:Drivers/CMSIS/Include/cmsis_gcc.h ****  * WARRANTIES OR CONDITIONS OF ANY KIND, either express or implied.
  21:Drivers/CMSIS/Include/cmsis_gcc.h ****  * See the License for the specific language governing permissions and
  22:Drivers/CMSIS/Include/cmsis_gcc.h ****  * limitations under the License.
  23:Drivers/CMSIS/Include/cmsis_gcc.h ****  */
  24:Drivers/CMSIS/Include/cmsis_gcc.h **** 
  25:Drivers/CMSIS/Include/cmsis_gcc.h **** #ifndef __CMSIS_GCC_H
  26:Drivers/CMSIS/Include/cmsis_gcc.h **** #define __CMSIS_GCC_H
  27:Drivers/CMSIS/Include/cmsis_gcc.h **** 
  28:Drivers/CMSIS/Include/cmsis_gcc.h **** /* ignore some GCC warnings */
  29:Drivers/CMSIS/Include/cmsis_gcc.h **** #pragma GCC diagnostic push
  30:Drivers/CMSIS/Include/cmsis_gcc.h **** #pragma GCC diagnostic ignored "-Wsign-conversion"
  31:Drivers/CMSIS/Include/cmsis_gcc.h **** #pragma GCC diagnostic ignored "-Wconversion"
  32:Drivers/CMSIS/Include/cmsis_gcc.h **** #pragma GCC diagnostic ignored "-Wunused-parameter"
  33:Drivers/CMSIS/Include/cmsis_gcc.h **** 
  34:Drivers/CMSIS/Include/cmsis_gcc.h **** /* Fallback for __has_builtin */
  35:Drivers/CMSIS/Include/cmsis_gcc.h **** #ifndef __has_builtin
  36:Drivers/CMSIS/Include/cmsis_gcc.h ****   #define __has_builtin(x) (0)
  37:Drivers/CMSIS/Include/cmsis_gcc.h **** #endif
  38:Drivers/CMSIS/Include/cmsis_gcc.h **** 
  39:Drivers/CMSIS/Include/cmsis_gcc.h **** /* CMSIS compiler specific defines */
  40:Drivers/CMSIS/Include/cmsis_gcc.h **** #ifndef   __ASM
  41:Drivers/CMSIS/Include/cmsis_gcc.h ****   #define __ASM                                  __asm
  42:Drivers/CMSIS/Include/cmsis_gcc.h **** #endif
ARM GAS  C:\Users\Admin\AppData\Local\Temp\cchwZgJb.s 			page 46


  43:Drivers/CMSIS/Include/cmsis_gcc.h **** #ifndef   __INLINE
  44:Drivers/CMSIS/Include/cmsis_gcc.h ****   #define __INLINE                               inline
  45:Drivers/CMSIS/Include/cmsis_gcc.h **** #endif
  46:Drivers/CMSIS/Include/cmsis_gcc.h **** #ifndef   __STATIC_INLINE
  47:Drivers/CMSIS/Include/cmsis_gcc.h ****   #define __STATIC_INLINE                        static inline
  48:Drivers/CMSIS/Include/cmsis_gcc.h **** #endif
  49:Drivers/CMSIS/Include/cmsis_gcc.h **** #ifndef   __STATIC_FORCEINLINE                 
  50:Drivers/CMSIS/Include/cmsis_gcc.h ****   #define __STATIC_FORCEINLINE                   __attribute__((always_inline)) static inline
  51:Drivers/CMSIS/Include/cmsis_gcc.h **** #endif                                           
  52:Drivers/CMSIS/Include/cmsis_gcc.h **** #ifndef   __NO_RETURN
  53:Drivers/CMSIS/Include/cmsis_gcc.h ****   #define __NO_RETURN                            __attribute__((__noreturn__))
  54:Drivers/CMSIS/Include/cmsis_gcc.h **** #endif
  55:Drivers/CMSIS/Include/cmsis_gcc.h **** #ifndef   __USED
  56:Drivers/CMSIS/Include/cmsis_gcc.h ****   #define __USED                                 __attribute__((used))
  57:Drivers/CMSIS/Include/cmsis_gcc.h **** #endif
  58:Drivers/CMSIS/Include/cmsis_gcc.h **** #ifndef   __WEAK
  59:Drivers/CMSIS/Include/cmsis_gcc.h ****   #define __WEAK                                 __attribute__((weak))
  60:Drivers/CMSIS/Include/cmsis_gcc.h **** #endif
  61:Drivers/CMSIS/Include/cmsis_gcc.h **** #ifndef   __PACKED
  62:Drivers/CMSIS/Include/cmsis_gcc.h ****   #define __PACKED                               __attribute__((packed, aligned(1)))
  63:Drivers/CMSIS/Include/cmsis_gcc.h **** #endif
  64:Drivers/CMSIS/Include/cmsis_gcc.h **** #ifndef   __PACKED_STRUCT
  65:Drivers/CMSIS/Include/cmsis_gcc.h ****   #define __PACKED_STRUCT                        struct __attribute__((packed, aligned(1)))
  66:Drivers/CMSIS/Include/cmsis_gcc.h **** #endif
  67:Drivers/CMSIS/Include/cmsis_gcc.h **** #ifndef   __PACKED_UNION
  68:Drivers/CMSIS/Include/cmsis_gcc.h ****   #define __PACKED_UNION                         union __attribute__((packed, aligned(1)))
  69:Drivers/CMSIS/Include/cmsis_gcc.h **** #endif
  70:Drivers/CMSIS/Include/cmsis_gcc.h **** #ifndef   __UNALIGNED_UINT32        /* deprecated */
  71:Drivers/CMSIS/Include/cmsis_gcc.h ****   #pragma GCC diagnostic push
  72:Drivers/CMSIS/Include/cmsis_gcc.h ****   #pragma GCC diagnostic ignored "-Wpacked"
  73:Drivers/CMSIS/Include/cmsis_gcc.h ****   #pragma GCC diagnostic ignored "-Wattributes"
  74:Drivers/CMSIS/Include/cmsis_gcc.h ****   struct __attribute__((packed)) T_UINT32 { uint32_t v; };
  75:Drivers/CMSIS/Include/cmsis_gcc.h ****   #pragma GCC diagnostic pop
  76:Drivers/CMSIS/Include/cmsis_gcc.h ****   #define __UNALIGNED_UINT32(x)                  (((struct T_UINT32 *)(x))->v)
  77:Drivers/CMSIS/Include/cmsis_gcc.h **** #endif
  78:Drivers/CMSIS/Include/cmsis_gcc.h **** #ifndef   __UNALIGNED_UINT16_WRITE
  79:Drivers/CMSIS/Include/cmsis_gcc.h ****   #pragma GCC diagnostic push
  80:Drivers/CMSIS/Include/cmsis_gcc.h ****   #pragma GCC diagnostic ignored "-Wpacked"
  81:Drivers/CMSIS/Include/cmsis_gcc.h ****   #pragma GCC diagnostic ignored "-Wattributes"
  82:Drivers/CMSIS/Include/cmsis_gcc.h ****   __PACKED_STRUCT T_UINT16_WRITE { uint16_t v; };
  83:Drivers/CMSIS/Include/cmsis_gcc.h ****   #pragma GCC diagnostic pop
  84:Drivers/CMSIS/Include/cmsis_gcc.h ****   #define __UNALIGNED_UINT16_WRITE(addr, val)    (void)((((struct T_UINT16_WRITE *)(void *)(addr))-
  85:Drivers/CMSIS/Include/cmsis_gcc.h **** #endif
  86:Drivers/CMSIS/Include/cmsis_gcc.h **** #ifndef   __UNALIGNED_UINT16_READ
  87:Drivers/CMSIS/Include/cmsis_gcc.h ****   #pragma GCC diagnostic push
  88:Drivers/CMSIS/Include/cmsis_gcc.h ****   #pragma GCC diagnostic ignored "-Wpacked"
  89:Drivers/CMSIS/Include/cmsis_gcc.h ****   #pragma GCC diagnostic ignored "-Wattributes"
  90:Drivers/CMSIS/Include/cmsis_gcc.h ****   __PACKED_STRUCT T_UINT16_READ { uint16_t v; };
  91:Drivers/CMSIS/Include/cmsis_gcc.h ****   #pragma GCC diagnostic pop
  92:Drivers/CMSIS/Include/cmsis_gcc.h ****   #define __UNALIGNED_UINT16_READ(addr)          (((const struct T_UINT16_READ *)(const void *)(add
  93:Drivers/CMSIS/Include/cmsis_gcc.h **** #endif
  94:Drivers/CMSIS/Include/cmsis_gcc.h **** #ifndef   __UNALIGNED_UINT32_WRITE
  95:Drivers/CMSIS/Include/cmsis_gcc.h ****   #pragma GCC diagnostic push
  96:Drivers/CMSIS/Include/cmsis_gcc.h ****   #pragma GCC diagnostic ignored "-Wpacked"
  97:Drivers/CMSIS/Include/cmsis_gcc.h ****   #pragma GCC diagnostic ignored "-Wattributes"
  98:Drivers/CMSIS/Include/cmsis_gcc.h ****   __PACKED_STRUCT T_UINT32_WRITE { uint32_t v; };
  99:Drivers/CMSIS/Include/cmsis_gcc.h ****   #pragma GCC diagnostic pop
ARM GAS  C:\Users\Admin\AppData\Local\Temp\cchwZgJb.s 			page 47


 100:Drivers/CMSIS/Include/cmsis_gcc.h ****   #define __UNALIGNED_UINT32_WRITE(addr, val)    (void)((((struct T_UINT32_WRITE *)(void *)(addr))-
 101:Drivers/CMSIS/Include/cmsis_gcc.h **** #endif
 102:Drivers/CMSIS/Include/cmsis_gcc.h **** #ifndef   __UNALIGNED_UINT32_READ
 103:Drivers/CMSIS/Include/cmsis_gcc.h ****   #pragma GCC diagnostic push
 104:Drivers/CMSIS/Include/cmsis_gcc.h ****   #pragma GCC diagnostic ignored "-Wpacked"
 105:Drivers/CMSIS/Include/cmsis_gcc.h ****   #pragma GCC diagnostic ignored "-Wattributes"
 106:Drivers/CMSIS/Include/cmsis_gcc.h ****   __PACKED_STRUCT T_UINT32_READ { uint32_t v; };
 107:Drivers/CMSIS/Include/cmsis_gcc.h ****   #pragma GCC diagnostic pop
 108:Drivers/CMSIS/Include/cmsis_gcc.h ****   #define __UNALIGNED_UINT32_READ(addr)          (((const struct T_UINT32_READ *)(const void *)(add
 109:Drivers/CMSIS/Include/cmsis_gcc.h **** #endif
 110:Drivers/CMSIS/Include/cmsis_gcc.h **** #ifndef   __ALIGNED
 111:Drivers/CMSIS/Include/cmsis_gcc.h ****   #define __ALIGNED(x)                           __attribute__((aligned(x)))
 112:Drivers/CMSIS/Include/cmsis_gcc.h **** #endif
 113:Drivers/CMSIS/Include/cmsis_gcc.h **** #ifndef   __RESTRICT
 114:Drivers/CMSIS/Include/cmsis_gcc.h ****   #define __RESTRICT                             __restrict
 115:Drivers/CMSIS/Include/cmsis_gcc.h **** #endif
 116:Drivers/CMSIS/Include/cmsis_gcc.h **** 
 117:Drivers/CMSIS/Include/cmsis_gcc.h **** 
 118:Drivers/CMSIS/Include/cmsis_gcc.h **** /* ###########################  Core Function Access  ########################### */
 119:Drivers/CMSIS/Include/cmsis_gcc.h **** /** \ingroup  CMSIS_Core_FunctionInterface
 120:Drivers/CMSIS/Include/cmsis_gcc.h ****     \defgroup CMSIS_Core_RegAccFunctions CMSIS Core Register Access Functions
 121:Drivers/CMSIS/Include/cmsis_gcc.h ****   @{
 122:Drivers/CMSIS/Include/cmsis_gcc.h ****  */
 123:Drivers/CMSIS/Include/cmsis_gcc.h **** 
 124:Drivers/CMSIS/Include/cmsis_gcc.h **** /**
 125:Drivers/CMSIS/Include/cmsis_gcc.h ****   \brief   Enable IRQ Interrupts
 126:Drivers/CMSIS/Include/cmsis_gcc.h ****   \details Enables IRQ interrupts by clearing the I-bit in the CPSR.
 127:Drivers/CMSIS/Include/cmsis_gcc.h ****            Can only be executed in Privileged modes.
 128:Drivers/CMSIS/Include/cmsis_gcc.h ****  */
 129:Drivers/CMSIS/Include/cmsis_gcc.h **** __STATIC_FORCEINLINE void __enable_irq(void)
 130:Drivers/CMSIS/Include/cmsis_gcc.h **** {
 131:Drivers/CMSIS/Include/cmsis_gcc.h ****   __ASM volatile ("cpsie i" : : : "memory");
 132:Drivers/CMSIS/Include/cmsis_gcc.h **** }
 133:Drivers/CMSIS/Include/cmsis_gcc.h **** 
 134:Drivers/CMSIS/Include/cmsis_gcc.h **** 
 135:Drivers/CMSIS/Include/cmsis_gcc.h **** /**
 136:Drivers/CMSIS/Include/cmsis_gcc.h ****   \brief   Disable IRQ Interrupts
 137:Drivers/CMSIS/Include/cmsis_gcc.h ****   \details Disables IRQ interrupts by setting the I-bit in the CPSR.
 138:Drivers/CMSIS/Include/cmsis_gcc.h ****            Can only be executed in Privileged modes.
 139:Drivers/CMSIS/Include/cmsis_gcc.h ****  */
 140:Drivers/CMSIS/Include/cmsis_gcc.h **** __STATIC_FORCEINLINE void __disable_irq(void)
 1596              		.loc 2 140 27 view .LVU385
 1597              	.LBB10:
 141:Drivers/CMSIS/Include/cmsis_gcc.h **** {
 142:Drivers/CMSIS/Include/cmsis_gcc.h ****   __ASM volatile ("cpsid i" : : : "memory");
 1598              		.loc 2 142 3 view .LVU386
 1599              		.syntax unified
 1600              	@ 142 "Drivers/CMSIS/Include/cmsis_gcc.h" 1
 1601 0000 72B6     		cpsid i
 1602              	@ 0 "" 2
 1603              		.thumb
 1604              		.syntax unified
 1605              	.L124:
 1606              	.LBE10:
 1607              	.LBE9:
 722:Core/Src/main.cpp ****   while (1)
 1608              		.loc 1 722 3 discriminator 1 view .LVU387
ARM GAS  C:\Users\Admin\AppData\Local\Temp\cchwZgJb.s 			page 48


 1609              		.loc 1 722 3 discriminator 1 view .LVU388
 1610 0002 FEE7     		b	.L124
 1611              		.cfi_endproc
 1612              	.LFE93:
 1613              		.cantunwind
 1614              		.fnend
 1616              		.section	.text._ZL19MX_USART1_UART_Initv,"ax",%progbits
 1617              		.align	1
 1618              		.syntax unified
 1619              		.thumb
 1620              		.thumb_func
 1621              		.fpu softvfp
 1623              	_ZL19MX_USART1_UART_Initv:
 1624              		.fnstart
 1625              	.LFB75:
 276:Core/Src/main.cpp **** 
 1626              		.loc 1 276 1 view -0
 1627              		.cfi_startproc
 1628              		@ args = 0, pretend = 0, frame = 0
 1629              		@ frame_needed = 0, uses_anonymous_args = 0
 1630 0000 08B5     		push	{r3, lr}
 1631              		.save {r3, lr}
 1632              	.LCFI20:
 1633              		.cfi_def_cfa_offset 8
 1634              		.cfi_offset 3, -8
 1635              		.cfi_offset 14, -4
 285:Core/Src/main.cpp ****   huart1.Init.BaudRate = 115200;
 1636              		.loc 1 285 3 view .LVU390
 285:Core/Src/main.cpp ****   huart1.Init.BaudRate = 115200;
 1637              		.loc 1 285 19 is_stmt 0 view .LVU391
 1638 0002 0A48     		ldr	r0, .L129
 1639 0004 0A4B     		ldr	r3, .L129+4
 1640 0006 0360     		str	r3, [r0]
 286:Core/Src/main.cpp ****   huart1.Init.WordLength = UART_WORDLENGTH_8B;
 1641              		.loc 1 286 3 is_stmt 1 view .LVU392
 286:Core/Src/main.cpp ****   huart1.Init.WordLength = UART_WORDLENGTH_8B;
 1642              		.loc 1 286 24 is_stmt 0 view .LVU393
 1643 0008 4FF4E133 		mov	r3, #115200
 1644 000c 4360     		str	r3, [r0, #4]
 287:Core/Src/main.cpp ****   huart1.Init.StopBits = UART_STOPBITS_1;
 1645              		.loc 1 287 3 is_stmt 1 view .LVU394
 287:Core/Src/main.cpp ****   huart1.Init.StopBits = UART_STOPBITS_1;
 1646              		.loc 1 287 26 is_stmt 0 view .LVU395
 1647 000e 0023     		movs	r3, #0
 1648 0010 8360     		str	r3, [r0, #8]
 288:Core/Src/main.cpp ****   huart1.Init.Parity = UART_PARITY_NONE;
 1649              		.loc 1 288 3 is_stmt 1 view .LVU396
 288:Core/Src/main.cpp ****   huart1.Init.Parity = UART_PARITY_NONE;
 1650              		.loc 1 288 24 is_stmt 0 view .LVU397
 1651 0012 C360     		str	r3, [r0, #12]
 289:Core/Src/main.cpp ****   huart1.Init.Mode = UART_MODE_TX_RX;
 1652              		.loc 1 289 3 is_stmt 1 view .LVU398
 289:Core/Src/main.cpp ****   huart1.Init.Mode = UART_MODE_TX_RX;
 1653              		.loc 1 289 22 is_stmt 0 view .LVU399
 1654 0014 0361     		str	r3, [r0, #16]
 290:Core/Src/main.cpp ****   huart1.Init.HwFlowCtl = UART_HWCONTROL_NONE;
 1655              		.loc 1 290 3 is_stmt 1 view .LVU400
ARM GAS  C:\Users\Admin\AppData\Local\Temp\cchwZgJb.s 			page 49


 290:Core/Src/main.cpp ****   huart1.Init.HwFlowCtl = UART_HWCONTROL_NONE;
 1656              		.loc 1 290 20 is_stmt 0 view .LVU401
 1657 0016 0C22     		movs	r2, #12
 1658 0018 4261     		str	r2, [r0, #20]
 291:Core/Src/main.cpp ****   huart1.Init.OverSampling = UART_OVERSAMPLING_16;
 1659              		.loc 1 291 3 is_stmt 1 view .LVU402
 291:Core/Src/main.cpp ****   huart1.Init.OverSampling = UART_OVERSAMPLING_16;
 1660              		.loc 1 291 25 is_stmt 0 view .LVU403
 1661 001a 8361     		str	r3, [r0, #24]
 292:Core/Src/main.cpp ****   if (HAL_UART_Init(&huart1) != HAL_OK)
 1662              		.loc 1 292 3 is_stmt 1 view .LVU404
 292:Core/Src/main.cpp ****   if (HAL_UART_Init(&huart1) != HAL_OK)
 1663              		.loc 1 292 28 is_stmt 0 view .LVU405
 1664 001c C361     		str	r3, [r0, #28]
 293:Core/Src/main.cpp ****   {
 1665              		.loc 1 293 3 is_stmt 1 view .LVU406
 293:Core/Src/main.cpp ****   {
 1666              		.loc 1 293 20 is_stmt 0 view .LVU407
 1667 001e FFF7FEFF 		bl	HAL_UART_Init
 1668              	.LVL72:
 293:Core/Src/main.cpp ****   {
 1669              		.loc 1 293 3 view .LVU408
 1670 0022 00B9     		cbnz	r0, .L128
 300:Core/Src/main.cpp **** 
 1671              		.loc 1 300 1 view .LVU409
 1672 0024 08BD     		pop	{r3, pc}
 1673              	.L128:
 295:Core/Src/main.cpp ****   }
 1674              		.loc 1 295 5 is_stmt 1 view .LVU410
 295:Core/Src/main.cpp ****   }
 1675              		.loc 1 295 18 is_stmt 0 view .LVU411
 1676 0026 FFF7FEFF 		bl	Error_Handler
 1677              	.LVL73:
 1678              	.L130:
 1679 002a 00BF     		.align	2
 1680              	.L129:
 1681 002c 00000000 		.word	.LANCHOR11
 1682 0030 00380140 		.word	1073821696
 1683              		.cfi_endproc
 1684              	.LFE75:
 1685              		.fnend
 1687              		.section	.text._Z18SystemClock_Configv,"ax",%progbits
 1688              		.align	1
 1689              		.global	_Z18SystemClock_Configv
 1690              		.syntax unified
 1691              		.thumb
 1692              		.thumb_func
 1693              		.fpu softvfp
 1695              	_Z18SystemClock_Configv:
 1696              		.fnstart
 1697              	.LFB74:
 239:Core/Src/main.cpp ****   RCC_OscInitTypeDef RCC_OscInitStruct = {0};
 1698              		.loc 1 239 1 is_stmt 1 view -0
 1699              		.cfi_startproc
 1700              		@ args = 0, pretend = 0, frame = 64
 1701              		@ frame_needed = 0, uses_anonymous_args = 0
 1702 0000 00B5     		push	{lr}
ARM GAS  C:\Users\Admin\AppData\Local\Temp\cchwZgJb.s 			page 50


 1703              		.save {lr}
 1704              	.LCFI21:
 1705              		.cfi_def_cfa_offset 4
 1706              		.cfi_offset 14, -4
 1707              		.pad #68
 1708 0002 91B0     		sub	sp, sp, #68
 1709              	.LCFI22:
 1710              		.cfi_def_cfa_offset 72
 240:Core/Src/main.cpp ****   RCC_ClkInitTypeDef RCC_ClkInitStruct = {0};
 1711              		.loc 1 240 3 view .LVU413
 240:Core/Src/main.cpp ****   RCC_ClkInitTypeDef RCC_ClkInitStruct = {0};
 1712              		.loc 1 240 22 is_stmt 0 view .LVU414
 1713 0004 2822     		movs	r2, #40
 1714 0006 0021     		movs	r1, #0
 1715 0008 06A8     		add	r0, sp, #24
 1716 000a FFF7FEFF 		bl	memset
 1717              	.LVL74:
 241:Core/Src/main.cpp **** 
 1718              		.loc 1 241 3 is_stmt 1 view .LVU415
 241:Core/Src/main.cpp **** 
 1719              		.loc 1 241 22 is_stmt 0 view .LVU416
 1720 000e 0023     		movs	r3, #0
 1721 0010 0193     		str	r3, [sp, #4]
 1722 0012 0293     		str	r3, [sp, #8]
 1723 0014 0393     		str	r3, [sp, #12]
 1724 0016 0493     		str	r3, [sp, #16]
 1725 0018 0593     		str	r3, [sp, #20]
 246:Core/Src/main.cpp ****   RCC_OscInitStruct.HSIState = RCC_HSI_ON;
 1726              		.loc 1 246 3 is_stmt 1 view .LVU417
 246:Core/Src/main.cpp ****   RCC_OscInitStruct.HSIState = RCC_HSI_ON;
 1727              		.loc 1 246 36 is_stmt 0 view .LVU418
 1728 001a 0223     		movs	r3, #2
 1729 001c 0693     		str	r3, [sp, #24]
 247:Core/Src/main.cpp ****   RCC_OscInitStruct.HSICalibrationValue = RCC_HSICALIBRATION_DEFAULT;
 1730              		.loc 1 247 3 is_stmt 1 view .LVU419
 247:Core/Src/main.cpp ****   RCC_OscInitStruct.HSICalibrationValue = RCC_HSICALIBRATION_DEFAULT;
 1731              		.loc 1 247 30 is_stmt 0 view .LVU420
 1732 001e 0122     		movs	r2, #1
 1733 0020 0A92     		str	r2, [sp, #40]
 248:Core/Src/main.cpp ****   RCC_OscInitStruct.PLL.PLLState = RCC_PLL_ON;
 1734              		.loc 1 248 3 is_stmt 1 view .LVU421
 248:Core/Src/main.cpp ****   RCC_OscInitStruct.PLL.PLLState = RCC_PLL_ON;
 1735              		.loc 1 248 41 is_stmt 0 view .LVU422
 1736 0022 1022     		movs	r2, #16
 1737 0024 0B92     		str	r2, [sp, #44]
 249:Core/Src/main.cpp ****   RCC_OscInitStruct.PLL.PLLSource = RCC_PLLSOURCE_HSI_DIV2;
 1738              		.loc 1 249 3 is_stmt 1 view .LVU423
 249:Core/Src/main.cpp ****   RCC_OscInitStruct.PLL.PLLSource = RCC_PLLSOURCE_HSI_DIV2;
 1739              		.loc 1 249 34 is_stmt 0 view .LVU424
 1740 0026 0D93     		str	r3, [sp, #52]
 250:Core/Src/main.cpp ****   RCC_OscInitStruct.PLL.PLLMUL = RCC_PLL_MUL9;
 1741              		.loc 1 250 3 is_stmt 1 view .LVU425
 251:Core/Src/main.cpp ****   if (HAL_RCC_OscConfig(&RCC_OscInitStruct) != HAL_OK)
 1742              		.loc 1 251 3 view .LVU426
 251:Core/Src/main.cpp ****   if (HAL_RCC_OscConfig(&RCC_OscInitStruct) != HAL_OK)
 1743              		.loc 1 251 32 is_stmt 0 view .LVU427
 1744 0028 4FF4E013 		mov	r3, #1835008
ARM GAS  C:\Users\Admin\AppData\Local\Temp\cchwZgJb.s 			page 51


 1745 002c 0F93     		str	r3, [sp, #60]
 252:Core/Src/main.cpp ****   {
 1746              		.loc 1 252 3 is_stmt 1 view .LVU428
 252:Core/Src/main.cpp ****   {
 1747              		.loc 1 252 24 is_stmt 0 view .LVU429
 1748 002e 06A8     		add	r0, sp, #24
 1749 0030 FFF7FEFF 		bl	HAL_RCC_OscConfig
 1750              	.LVL75:
 252:Core/Src/main.cpp ****   {
 1751              		.loc 1 252 3 view .LVU430
 1752 0034 88B9     		cbnz	r0, .L135
 258:Core/Src/main.cpp ****   RCC_ClkInitStruct.SYSCLKSource = RCC_SYSCLKSOURCE_PLLCLK;
 1753              		.loc 1 258 3 is_stmt 1 view .LVU431
 258:Core/Src/main.cpp ****   RCC_ClkInitStruct.SYSCLKSource = RCC_SYSCLKSOURCE_PLLCLK;
 1754              		.loc 1 258 31 is_stmt 0 view .LVU432
 1755 0036 0F23     		movs	r3, #15
 1756 0038 0193     		str	r3, [sp, #4]
 259:Core/Src/main.cpp ****   RCC_ClkInitStruct.AHBCLKDivider = RCC_SYSCLK_DIV1;
 1757              		.loc 1 259 3 is_stmt 1 view .LVU433
 259:Core/Src/main.cpp ****   RCC_ClkInitStruct.AHBCLKDivider = RCC_SYSCLK_DIV1;
 1758              		.loc 1 259 34 is_stmt 0 view .LVU434
 1759 003a 0223     		movs	r3, #2
 1760 003c 0293     		str	r3, [sp, #8]
 260:Core/Src/main.cpp ****   RCC_ClkInitStruct.APB1CLKDivider = RCC_HCLK_DIV2;
 1761              		.loc 1 260 3 is_stmt 1 view .LVU435
 260:Core/Src/main.cpp ****   RCC_ClkInitStruct.APB1CLKDivider = RCC_HCLK_DIV2;
 1762              		.loc 1 260 35 is_stmt 0 view .LVU436
 1763 003e 0023     		movs	r3, #0
 1764 0040 0393     		str	r3, [sp, #12]
 261:Core/Src/main.cpp ****   RCC_ClkInitStruct.APB2CLKDivider = RCC_HCLK_DIV1;
 1765              		.loc 1 261 3 is_stmt 1 view .LVU437
 261:Core/Src/main.cpp ****   RCC_ClkInitStruct.APB2CLKDivider = RCC_HCLK_DIV1;
 1766              		.loc 1 261 36 is_stmt 0 view .LVU438
 1767 0042 4FF48062 		mov	r2, #1024
 1768 0046 0492     		str	r2, [sp, #16]
 262:Core/Src/main.cpp **** 
 1769              		.loc 1 262 3 is_stmt 1 view .LVU439
 262:Core/Src/main.cpp **** 
 1770              		.loc 1 262 36 is_stmt 0 view .LVU440
 1771 0048 0593     		str	r3, [sp, #20]
 264:Core/Src/main.cpp ****   {
 1772              		.loc 1 264 3 is_stmt 1 view .LVU441
 264:Core/Src/main.cpp ****   {
 1773              		.loc 1 264 26 is_stmt 0 view .LVU442
 1774 004a 0121     		movs	r1, #1
 1775 004c 01A8     		add	r0, sp, #4
 1776 004e FFF7FEFF 		bl	HAL_RCC_ClockConfig
 1777              	.LVL76:
 264:Core/Src/main.cpp ****   {
 1778              		.loc 1 264 3 view .LVU443
 1779 0052 20B9     		cbnz	r0, .L136
 268:Core/Src/main.cpp **** 
 1780              		.loc 1 268 1 view .LVU444
 1781 0054 11B0     		add	sp, sp, #68
 1782              	.LCFI23:
 1783              		.cfi_remember_state
 1784              		.cfi_def_cfa_offset 4
ARM GAS  C:\Users\Admin\AppData\Local\Temp\cchwZgJb.s 			page 52


 1785              		@ sp needed
 1786 0056 5DF804FB 		ldr	pc, [sp], #4
 1787              	.L135:
 1788              	.LCFI24:
 1789              		.cfi_restore_state
 254:Core/Src/main.cpp ****   }
 1790              		.loc 1 254 5 is_stmt 1 view .LVU445
 254:Core/Src/main.cpp ****   }
 1791              		.loc 1 254 18 is_stmt 0 view .LVU446
 1792 005a FFF7FEFF 		bl	Error_Handler
 1793              	.LVL77:
 1794              	.L136:
 266:Core/Src/main.cpp ****   }
 1795              		.loc 1 266 5 is_stmt 1 view .LVU447
 266:Core/Src/main.cpp ****   }
 1796              		.loc 1 266 18 is_stmt 0 view .LVU448
 1797 005e FFF7FEFF 		bl	Error_Handler
 1798              	.LVL78:
 1799              		.cfi_endproc
 1800              	.LFE74:
 1801              		.fnend
 1803              		.section	.text.main,"ax",%progbits
 1804              		.align	1
 1805              		.global	main
 1806              		.syntax unified
 1807              		.thumb
 1808              		.thumb_func
 1809              		.fpu softvfp
 1811              	main:
 1812              		.fnstart
 1813              	.LFB73:
 176:Core/Src/main.cpp ****   /* USER CODE BEGIN 1 */
 1814              		.loc 1 176 1 is_stmt 1 view -0
 1815              		.cfi_startproc
 1816              		@ args = 0, pretend = 0, frame = 0
 1817              		@ frame_needed = 0, uses_anonymous_args = 0
 1818 0000 08B5     		push	{r3, lr}
 1819              		.save {r3, lr}
 1820              	.LCFI25:
 1821              		.cfi_def_cfa_offset 8
 1822              		.cfi_offset 3, -8
 1823              		.cfi_offset 14, -4
 184:Core/Src/main.cpp **** 
 1824              		.loc 1 184 3 view .LVU450
 184:Core/Src/main.cpp **** 
 1825              		.loc 1 184 11 is_stmt 0 view .LVU451
 1826 0002 FFF7FEFF 		bl	HAL_Init
 1827              	.LVL79:
 191:Core/Src/main.cpp **** 
 1828              		.loc 1 191 3 is_stmt 1 view .LVU452
 191:Core/Src/main.cpp **** 
 1829              		.loc 1 191 21 is_stmt 0 view .LVU453
 1830 0006 FFF7FEFF 		bl	_Z18SystemClock_Configv
 1831              	.LVL80:
 198:Core/Src/main.cpp ****   MX_USART1_UART_Init();
 1832              		.loc 1 198 3 is_stmt 1 view .LVU454
 198:Core/Src/main.cpp ****   MX_USART1_UART_Init();
ARM GAS  C:\Users\Admin\AppData\Local\Temp\cchwZgJb.s 			page 53


 1833              		.loc 1 198 15 is_stmt 0 view .LVU455
 1834 000a FFF7FEFF 		bl	_ZL12MX_GPIO_Initv
 1835              	.LVL81:
 199:Core/Src/main.cpp ****   /* USER CODE BEGIN 2 */
 1836              		.loc 1 199 3 is_stmt 1 view .LVU456
 199:Core/Src/main.cpp ****   /* USER CODE BEGIN 2 */
 1837              		.loc 1 199 22 is_stmt 0 view .LVU457
 1838 000e FFF7FEFF 		bl	_ZL19MX_USART1_UART_Initv
 1839              	.LVL82:
 1840              	.L138:
 206:Core/Src/main.cpp ****   {
 1841              		.loc 1 206 3 is_stmt 1 discriminator 1 view .LVU458
 208:Core/Src/main.cpp **** 
 1842              		.loc 1 208 5 discriminator 1 view .LVU459
 208:Core/Src/main.cpp **** 
 1843              		.loc 1 208 19 is_stmt 0 discriminator 1 view .LVU460
 1844 0012 FFF7FEFF 		bl	_Z14timeTrackEventv
 1845              	.LVL83:
 210:Core/Src/main.cpp **** 
 1846              		.loc 1 210 5 is_stmt 1 discriminator 1 view .LVU461
 210:Core/Src/main.cpp **** 
 1847              		.loc 1 210 20 is_stmt 0 discriminator 1 view .LVU462
 1848 0016 FFF7FEFF 		bl	_Z15changeModeEventv
 1849              	.LVL84:
 212:Core/Src/main.cpp **** 
 1850              		.loc 1 212 5 is_stmt 1 discriminator 1 view .LVU463
 212:Core/Src/main.cpp **** 
 1851              		.loc 1 212 15 is_stmt 0 discriminator 1 view .LVU464
 1852 001a FFF7FEFF 		bl	_Z10blinkEventv
 1853              	.LVL85:
 214:Core/Src/main.cpp **** 
 1854              		.loc 1 214 5 is_stmt 1 discriminator 1 view .LVU465
 214:Core/Src/main.cpp **** 
 1855              		.loc 1 214 21 is_stmt 0 discriminator 1 view .LVU466
 1856 001e FFF7FEFF 		bl	_Z16intercomKeyEventv
 1857              	.LVL86:
 216:Core/Src/main.cpp **** 
 1858              		.loc 1 216 5 is_stmt 1 discriminator 1 view .LVU467
 216:Core/Src/main.cpp **** 
 1859              		.loc 1 216 23 is_stmt 0 discriminator 1 view .LVU468
 1860 0022 FFF7FEFF 		bl	_Z18buttonPressedEventv
 1861              	.LVL87:
 218:Core/Src/main.cpp **** 
 1862              		.loc 1 218 5 is_stmt 1 discriminator 1 view .LVU469
 218:Core/Src/main.cpp **** 
 1863              		.loc 1 218 20 is_stmt 0 discriminator 1 view .LVU470
 1864 0026 FFF7FEFF 		bl	_Z15doorUnlockEventv
 1865              	.LVL88:
 220:Core/Src/main.cpp **** 
 1866              		.loc 1 220 5 is_stmt 1 discriminator 1 view .LVU471
 220:Core/Src/main.cpp **** 
 1867              		.loc 1 220 20 is_stmt 0 discriminator 1 view .LVU472
 1868 002a FFF7FEFF 		bl	_Z15doorClosedEventv
 1869              	.LVL89:
 222:Core/Src/main.cpp **** 
 1870              		.loc 1 222 5 is_stmt 1 discriminator 1 view .LVU473
 222:Core/Src/main.cpp **** 
ARM GAS  C:\Users\Admin\AppData\Local\Temp\cchwZgJb.s 			page 54


 1871              		.loc 1 222 20 is_stmt 0 discriminator 1 view .LVU474
 1872 002e FFF7FEFF 		bl	_Z15greenLightEventv
 1873              	.LVL90:
 224:Core/Src/main.cpp **** 
 1874              		.loc 1 224 5 is_stmt 1 discriminator 1 view .LVU475
 226:Core/Src/main.cpp ****     /* USER CODE END WHILE */
 1875              		.loc 1 226 5 discriminator 1 view .LVU476
 206:Core/Src/main.cpp ****   {
 1876              		.loc 1 206 3 discriminator 1 view .LVU477
 1877 0032 EEE7     		b	.L138
 1878              		.cfi_endproc
 1879              	.LFE73:
 1880              		.fnend
 1882              		.global	blinkStart
 1883              		.global	blinkTime
 1884              		.global	timmeTrack
 1885              		.global	relayUnlockingTime
 1886              		.global	toBlink
 1887              		.global	alarmTrigger
 1888              		.global	doorRecentlyClosed
 1889              		.global	firstTime
 1890              		.global	outsideKeyRead
 1891              		.global	insideKeyRead
 1892              		.global	outsideButtonPressed
 1893              		.global	insideButtonPressed
 1894              		.global	timme
 1895              		.global	alarmCause
 1896              		.global	relayMode
 1897              		.global	relayState
 1898              		.global	doorState
 1899              		.global	previousWorkMode
 1900              		.global	workMode
 1901              		.global	wig_flag_inrt
 1902              		.global	huart1
 1903              		.section	.bss.alarmTrigger,"aw",%nobits
 1906              	alarmTrigger:
 1907 0000 00       		.space	1
 1908              		.section	.bss.blinkStart,"aw",%nobits
 1909              		.align	2
 1910              		.set	.LANCHOR1,. + 0
 1913              	blinkStart:
 1914 0000 00000000 		.space	4
 1915              		.section	.bss.blinkTime,"aw",%nobits
 1916              		.align	2
 1917              		.set	.LANCHOR2,. + 0
 1920              	blinkTime:
 1921 0000 00000000 		.space	4
 1922              		.section	.bss.doorRecentlyClosed,"aw",%nobits
 1923              		.set	.LANCHOR7,. + 0
 1926              	doorRecentlyClosed:
 1927 0000 00       		.space	1
 1928              		.section	.bss.firstTime,"aw",%nobits
 1931              	firstTime:
 1932 0000 00       		.space	1
 1933              		.section	.bss.huart1,"aw",%nobits
 1934              		.align	2
 1935              		.set	.LANCHOR11,. + 0
ARM GAS  C:\Users\Admin\AppData\Local\Temp\cchwZgJb.s 			page 55


 1938              	huart1:
 1939 0000 00000000 		.space	64
 1939      00000000 
 1939      00000000 
 1939      00000000 
 1939      00000000 
 1940              		.section	.bss.insideButtonPressed,"aw",%nobits
 1941              		.set	.LANCHOR5,. + 0
 1944              	insideButtonPressed:
 1945 0000 00       		.space	1
 1946              		.section	.bss.insideKeyRead,"aw",%nobits
 1947              		.set	.LANCHOR9,. + 0
 1950              	insideKeyRead:
 1951 0000 00       		.space	1
 1952              		.section	.bss.outsideButtonPressed,"aw",%nobits
 1953              		.set	.LANCHOR6,. + 0
 1956              	outsideButtonPressed:
 1957 0000 00       		.space	1
 1958              		.section	.bss.outsideKeyRead,"aw",%nobits
 1959              		.set	.LANCHOR10,. + 0
 1962              	outsideKeyRead:
 1963 0000 00       		.space	1
 1964              		.section	.bss.previousWorkMode,"aw",%nobits
 1965              		.set	.LANCHOR16,. + 0
 1968              	previousWorkMode:
 1969 0000 00       		.space	1
 1970              		.section	.bss.relayMode,"aw",%nobits
 1973              	relayMode:
 1974 0000 00       		.space	1
 1975              		.section	.bss.relayUnlockingTime,"aw",%nobits
 1976              		.align	2
 1977              		.set	.LANCHOR15,. + 0
 1980              	relayUnlockingTime:
 1981 0000 00000000 		.space	4
 1982              		.section	.bss.timme,"aw",%nobits
 1983              		.align	2
 1984              		.set	.LANCHOR13,. + 0
 1987              	timme:
 1988 0000 00000000 		.space	4
 1989              		.section	.bss.timmeTrack,"aw",%nobits
 1990              		.align	2
 1991              		.set	.LANCHOR12,. + 0
 1994              	timmeTrack:
 1995 0000 00000000 		.space	4
 1996              		.section	.bss.toBlink,"aw",%nobits
 1997              		.set	.LANCHOR0,. + 0
 2000              	toBlink:
 2001 0000 00       		.space	1
 2002              		.section	.bss.workMode,"aw",%nobits
 2003              		.set	.LANCHOR14,. + 0
 2006              	workMode:
 2007 0000 00       		.space	1
 2008              		.section	.data.alarmCause,"aw"
 2009              		.set	.LANCHOR17,. + 0
 2012              	alarmCause:
 2013 0000 01       		.byte	1
 2014              		.section	.data.doorState,"aw"
ARM GAS  C:\Users\Admin\AppData\Local\Temp\cchwZgJb.s 			page 56


 2015              		.set	.LANCHOR3,. + 0
 2018              	doorState:
 2019 0000 01       		.byte	1
 2020              		.section	.data.relayState,"aw"
 2021              		.set	.LANCHOR4,. + 0
 2024              	relayState:
 2025 0000 01       		.byte	1
 2026              		.section	.data.wig_flag_inrt,"aw"
 2027              		.set	.LANCHOR8,. + 0
 2030              	wig_flag_inrt:
 2031 0000 01       		.byte	1
 2032              		.text
 2033              	.Letext0:
 2034              		.file 3 "Drivers/CMSIS/Device/ST/STM32F1xx/Include/stm32f103xg.h"
 2035              		.file 4 "e:\\dev\\tools\\gcc-arm-none-eabi-10-2020-q4-major\\arm-none-eabi\\include\\machine\\_def
 2036              		.file 5 "e:\\dev\\tools\\gcc-arm-none-eabi-10-2020-q4-major\\arm-none-eabi\\include\\sys\\_stdint.
 2037              		.file 6 "Drivers/CMSIS/Device/ST/STM32F1xx/Include/stm32f1xx.h"
 2038              		.file 7 "Drivers/STM32F1xx_HAL_Driver/Inc/stm32f1xx_hal_def.h"
 2039              		.file 8 "Drivers/STM32F1xx_HAL_Driver/Inc/stm32f1xx_hal_rcc.h"
 2040              		.file 9 "Drivers/STM32F1xx_HAL_Driver/Inc/stm32f1xx_hal_rcc_ex.h"
 2041              		.file 10 "Drivers/STM32F1xx_HAL_Driver/Inc/stm32f1xx_hal_gpio.h"
 2042              		.file 11 "Drivers/STM32F1xx_HAL_Driver/Inc/stm32f1xx_hal_dma.h"
 2043              		.file 12 "Drivers/STM32F1xx_HAL_Driver/Inc/stm32f1xx_hal_uart.h"
 2044              		.file 13 "Drivers/STM32F1xx_HAL_Driver/Inc/stm32f1xx_hal.h"
 2045              		.file 14 "e:\\dev\\tools\\gcc-arm-none-eabi-10-2020-q4-major\\lib\\gcc\\arm-none-eabi\\10.2.1\\inc
 2046              		.file 15 "e:\\dev\\tools\\gcc-arm-none-eabi-10-2020-q4-major\\arm-none-eabi\\include\\stdio.h"
 2047              		.file 16 "e:\\dev\\tools\\gcc-arm-none-eabi-10-2020-q4-major\\arm-none-eabi\\include\\string.h"
 2048              		.file 17 "Core/Inc/wiegand.h"
 2049              		.file 18 "Drivers/STM32F1xx_HAL_Driver/Inc/stm32f1xx_hal_cortex.h"
 2050              		.file 19 "<built-in>"
ARM GAS  C:\Users\Admin\AppData\Local\Temp\cchwZgJb.s 			page 57

