ARM GAS  C:\Users\Admin\AppData\Local\Temp\ccvLA4Tr.s 			page 1


   1              		.cpu cortex-m3
   2              		.eabi_attribute 20, 1
   3              		.eabi_attribute 21, 1
   4              		.eabi_attribute 23, 3
   5              		.eabi_attribute 24, 1
   6              		.eabi_attribute 25, 1
   7              		.eabi_attribute 26, 1
   8              		.eabi_attribute 30, 1
   9              		.eabi_attribute 34, 1
  10              		.eabi_attribute 18, 4
  11              		.file	"main.c"
  12              		.text
  13              	.Ltext0:
  14              		.cfi_sections	.debug_frame
  15              		.section	.text.MX_GPIO_Init,"ax",%progbits
  16              		.align	1
  17              		.arch armv7-m
  18              		.syntax unified
  19              		.thumb
  20              		.thumb_func
  21              		.fpu softvfp
  23              	MX_GPIO_Init:
  24              	.LFB78:
  25              		.file 1 "Core/Src/main.c"
   1:Core/Src/main.c **** /* USER CODE BEGIN Header */
   2:Core/Src/main.c **** /**
   3:Core/Src/main.c ****   ******************************************************************************
   4:Core/Src/main.c ****   * @file           : main.c
   5:Core/Src/main.c ****   * @brief          : Main program body
   6:Core/Src/main.c ****   ******************************************************************************
   7:Core/Src/main.c ****   * @attention
   8:Core/Src/main.c ****   *
   9:Core/Src/main.c ****   * <h2><center>&copy; Copyright (c) 2021 STMicroelectronics.
  10:Core/Src/main.c ****   * All rights reserved.</center></h2>
  11:Core/Src/main.c ****   *
  12:Core/Src/main.c ****   * This software component is licensed by ST under BSD 3-Clause license,
  13:Core/Src/main.c ****   * the "License"; You may not use this file except in compliance with the
  14:Core/Src/main.c ****   * License. You may obtain a copy of the License at:
  15:Core/Src/main.c ****   *                        opensource.org/licenses/BSD-3-Clause
  16:Core/Src/main.c ****   *
  17:Core/Src/main.c ****   ******************************************************************************
  18:Core/Src/main.c ****   */
  19:Core/Src/main.c **** /* USER CODE END Header */
  20:Core/Src/main.c **** /* Includes ------------------------------------------------------------------*/
  21:Core/Src/main.c **** #include "main.h"
  22:Core/Src/main.c **** 
  23:Core/Src/main.c **** /* Private includes ----------------------------------------------------------*/
  24:Core/Src/main.c **** /* USER CODE BEGIN Includes */
  25:Core/Src/main.c **** #include "string.h"
  26:Core/Src/main.c **** #include <stdio.h>
  27:Core/Src/main.c **** #include "wiegand.h"
  28:Core/Src/main.c **** #include <stdarg.h>
  29:Core/Src/main.c **** #include <stdbool.h>
  30:Core/Src/main.c **** /* USER CODE END Includes */
  31:Core/Src/main.c **** 
  32:Core/Src/main.c **** /* Private typedef -----------------------------------------------------------*/
  33:Core/Src/main.c **** /* USER CODE BEGIN PTD */
ARM GAS  C:\Users\Admin\AppData\Local\Temp\ccvLA4Tr.s 			page 2


  34:Core/Src/main.c **** 
  35:Core/Src/main.c **** /* USER CODE END PTD */
  36:Core/Src/main.c **** 
  37:Core/Src/main.c **** /* Private define ------------------------------------------------------------*/
  38:Core/Src/main.c **** /* USER CODE BEGIN PD */
  39:Core/Src/main.c **** /* USER CODE END PD */
  40:Core/Src/main.c **** 
  41:Core/Src/main.c **** /* Private macro -------------------------------------------------------------*/
  42:Core/Src/main.c **** /* USER CODE BEGIN PM */
  43:Core/Src/main.c **** /* USER CODE END PM */
  44:Core/Src/main.c **** 
  45:Core/Src/main.c **** /* Private variables ---------------------------------------------------------*/
  46:Core/Src/main.c **** UART_HandleTypeDef huart1;
  47:Core/Src/main.c **** 
  48:Core/Src/main.c **** /* USER CODE BEGIN PV */
  49:Core/Src/main.c **** 
  50:Core/Src/main.c **** volatile uint8_t wig_flag_inrt = 1;
  51:Core/Src/main.c **** 
  52:Core/Src/main.c **** /* USER CODE END PV */
  53:Core/Src/main.c **** 
  54:Core/Src/main.c **** /* Private function prototypes -----------------------------------------------*/
  55:Core/Src/main.c **** void SystemClock_Config(void);
  56:Core/Src/main.c **** static void MX_GPIO_Init(void);
  57:Core/Src/main.c **** static void MX_USART1_UART_Init(void);
  58:Core/Src/main.c **** /* USER CODE BEGIN PFP */
  59:Core/Src/main.c **** 
  60:Core/Src/main.c **** /* USER CODE END PFP */
  61:Core/Src/main.c **** 
  62:Core/Src/main.c **** /* Private user code ---------------------------------------------------------*/
  63:Core/Src/main.c **** /* USER CODE BEGIN 0 */
  64:Core/Src/main.c **** 
  65:Core/Src/main.c ****   typedef enum
  66:Core/Src/main.c ****   {
  67:Core/Src/main.c ****     NormalMode,
  68:Core/Src/main.c ****     ClosedMode,
  69:Core/Src/main.c ****     OpenMode,
  70:Core/Src/main.c ****     CondOpenMode,
  71:Core/Src/main.c ****     TempOpenMode,
  72:Core/Src/main.c ****     AlarmMode
  73:Core/Src/main.c ****   } WorkMode;
  74:Core/Src/main.c ****   /**
  75:Core/Src/main.c ****    * NormalMode,
  76:Core/Src/main.c ****    * ClosedMode,
  77:Core/Src/main.c ****    * OpenMode,
  78:Core/Src/main.c ****    * CondOpenMode,
  79:Core/Src/main.c ****    * TempOpenMode,
  80:Core/Src/main.c ****    * AlarmMode
  81:Core/Src/main.c ****   */
  82:Core/Src/main.c ****   WorkMode workMode = NormalMode, previousWorkMode = NormalMode;
  83:Core/Src/main.c **** 
  84:Core/Src/main.c ****   typedef enum
  85:Core/Src/main.c ****   {
  86:Core/Src/main.c ****     OpenedState,
  87:Core/Src/main.c ****     ClosedState,
  88:Core/Src/main.c ****     NullState
  89:Core/Src/main.c ****   } States;
  90:Core/Src/main.c ****   /**
ARM GAS  C:\Users\Admin\AppData\Local\Temp\ccvLA4Tr.s 			page 3


  91:Core/Src/main.c ****    * OpenedState,
  92:Core/Src/main.c ****    * ClosedState,
  93:Core/Src/main.c ****    * NullState
  94:Core/Src/main.c ****   */
  95:Core/Src/main.c ****   States doorState = ClosedState, relayState = ClosedState;
  96:Core/Src/main.c **** 
  97:Core/Src/main.c ****   enum RelayMode
  98:Core/Src/main.c ****   {
  99:Core/Src/main.c ****     Constant,
 100:Core/Src/main.c ****     Impulse,
 101:Core/Src/main.c ****     ConstantSwitch,
 102:Core/Src/main.c ****     Valve,
 103:Core/Src/main.c ****     Null
 104:Core/Src/main.c ****   };
 105:Core/Src/main.c ****   enum RelayMode relayMode = Constant;
 106:Core/Src/main.c ****   
 107:Core/Src/main.c ****   enum AlarmCause
 108:Core/Src/main.c ****   {
 109:Core/Src/main.c ****     OpenedDoor,
 110:Core/Src/main.c ****     None
 111:Core/Src/main.c ****   };
 112:Core/Src/main.c ****   enum AlarmCause alarmCause = None;
 113:Core/Src/main.c **** 
 114:Core/Src/main.c ****   // time ticker for verifying if 15 seconds passed to switch mode
 115:Core/Src/main.c ****   uint32_t timme = 0;
 116:Core/Src/main.c **** 
 117:Core/Src/main.c ****   // was button to open the door pressed?
 118:Core/Src/main.c ****   bool
 119:Core/Src/main.c ****   insideButtonPressed = false,
 120:Core/Src/main.c ****   outsideButtonPressed = false,
 121:Core/Src/main.c ****   insideKeyRead = false,
 122:Core/Src/main.c ****   outsideKeyRead = false,
 123:Core/Src/main.c ****   firstTime = false,
 124:Core/Src/main.c ****   doorRecentlyClosed = false,
 125:Core/Src/main.c ****   alarmTrigger = false,
 126:Core/Src/main.c ****   toBlink = false;
 127:Core/Src/main.c **** 
 128:Core/Src/main.c ****   uint32_t
 129:Core/Src/main.c ****   relayUnlockingTime = 0,
 130:Core/Src/main.c ****   timmeTrack = 0,
 131:Core/Src/main.c ****   blinkTime = 0,
 132:Core/Src/main.c ****   blinkStart = 0;
 133:Core/Src/main.c **** 
 134:Core/Src/main.c **** 
 135:Core/Src/main.c ****   // enum Direction
 136:Core/Src/main.c ****   // {
 137:Core/Src/main.c ****   //   IN,
 138:Core/Src/main.c ****   //   OUT,
 139:Core/Src/main.c ****   //   BOTH
 140:Core/Src/main.c ****   // };
 141:Core/Src/main.c **** 
 142:Core/Src/main.c ****   // struct Key
 143:Core/Src/main.c ****   // {
 144:Core/Src/main.c ****   //   uint32_t code;
 145:Core/Src/main.c ****   //   enum Direction direction;
 146:Core/Src/main.c ****   //   uint32_t accessTime;
 147:Core/Src/main.c ****   // };
ARM GAS  C:\Users\Admin\AppData\Local\Temp\ccvLA4Tr.s 			page 4


 148:Core/Src/main.c **** 
 149:Core/Src/main.c ****   /*----> Functions Declaration <----*/
 150:Core/Src/main.c **** 
 151:Core/Src/main.c ****   void timeTrackEvent();
 152:Core/Src/main.c ****   void changeModeEvent();
 153:Core/Src/main.c ****   void blinkEvent();
 154:Core/Src/main.c ****   void intercomKeyEvent();
 155:Core/Src/main.c ****   void buttonPressedEvent();
 156:Core/Src/main.c ****   void doorUnlockEvent();
 157:Core/Src/main.c ****   void doorClosedEvent();
 158:Core/Src/main.c ****   void greenLightEvent();
 159:Core/Src/main.c ****   void bellEvent();
 160:Core/Src/main.c ****   void alarmEvent();
 161:Core/Src/main.c **** 
 162:Core/Src/main.c ****   bool verifyCode(uint32_t code);
 163:Core/Src/main.c ****   void UART_Printf(const char *fmt, ...);
 164:Core/Src/main.c ****   void switchMode();
 165:Core/Src/main.c ****   void unlockDoor();
 166:Core/Src/main.c ****   void unlockRelay();
 167:Core/Src/main.c ****   void lockDoor();
 168:Core/Src/main.c ****   void doorChangedState(States currentState);
 169:Core/Src/main.c **** 
 170:Core/Src/main.c **** /* USER CODE END 0 */
 171:Core/Src/main.c **** 
 172:Core/Src/main.c **** /**
 173:Core/Src/main.c ****   * @brief  The application entry point.
 174:Core/Src/main.c ****   * @retval int
 175:Core/Src/main.c ****   */
 176:Core/Src/main.c **** int main(void)
 177:Core/Src/main.c **** {
 178:Core/Src/main.c ****   /* USER CODE BEGIN 1 */
 179:Core/Src/main.c **** 
 180:Core/Src/main.c ****   /* USER CODE END 1 */
 181:Core/Src/main.c **** 
 182:Core/Src/main.c ****   /* MCU Configuration--------------------------------------------------------*/
 183:Core/Src/main.c **** 
 184:Core/Src/main.c ****   /* Reset of all peripherals, Initializes the Flash interface and the Systick. */
 185:Core/Src/main.c ****   HAL_Init();
 186:Core/Src/main.c **** 
 187:Core/Src/main.c ****   /* USER CODE BEGIN Init */
 188:Core/Src/main.c **** 
 189:Core/Src/main.c ****   /* USER CODE END Init */
 190:Core/Src/main.c **** 
 191:Core/Src/main.c ****   /* Configure the system clock */
 192:Core/Src/main.c ****   SystemClock_Config();
 193:Core/Src/main.c **** 
 194:Core/Src/main.c ****   /* USER CODE BEGIN SysInit */
 195:Core/Src/main.c **** 
 196:Core/Src/main.c ****   /* USER CODE END SysInit */
 197:Core/Src/main.c **** 
 198:Core/Src/main.c ****   /* Initialize all configured peripherals */
 199:Core/Src/main.c ****   MX_GPIO_Init();
 200:Core/Src/main.c ****   MX_USART1_UART_Init();
 201:Core/Src/main.c ****   /* USER CODE BEGIN 2 */
 202:Core/Src/main.c **** 
 203:Core/Src/main.c ****   /* USER CODE END 2 */
 204:Core/Src/main.c **** 
ARM GAS  C:\Users\Admin\AppData\Local\Temp\ccvLA4Tr.s 			page 5


 205:Core/Src/main.c ****   /* Infinite loop */
 206:Core/Src/main.c ****   /* USER CODE BEGIN WHILE */
 207:Core/Src/main.c ****   while (1)
 208:Core/Src/main.c ****   {
 209:Core/Src/main.c ****     timeTrackEvent();
 210:Core/Src/main.c **** 
 211:Core/Src/main.c ****     changeModeEvent();
 212:Core/Src/main.c **** 
 213:Core/Src/main.c ****     blinkEvent();
 214:Core/Src/main.c **** 
 215:Core/Src/main.c ****     intercomKeyEvent();
 216:Core/Src/main.c **** 
 217:Core/Src/main.c ****     buttonPressedEvent();
 218:Core/Src/main.c **** 
 219:Core/Src/main.c ****     doorUnlockEvent();
 220:Core/Src/main.c **** 
 221:Core/Src/main.c ****     doorClosedEvent();
 222:Core/Src/main.c **** 
 223:Core/Src/main.c ****     greenLightEvent();
 224:Core/Src/main.c **** 
 225:Core/Src/main.c ****     bellEvent();
 226:Core/Src/main.c **** 
 227:Core/Src/main.c ****     alarmEvent();
 228:Core/Src/main.c ****     /* USER CODE END WHILE */
 229:Core/Src/main.c **** 
 230:Core/Src/main.c ****     /* USER CODE BEGIN 3 */
 231:Core/Src/main.c ****   }
 232:Core/Src/main.c ****   /* USER CODE END 3 */
 233:Core/Src/main.c **** }
 234:Core/Src/main.c **** 
 235:Core/Src/main.c **** /**
 236:Core/Src/main.c ****   * @brief System Clock Configuration
 237:Core/Src/main.c ****   * @retval None
 238:Core/Src/main.c ****   */
 239:Core/Src/main.c **** void SystemClock_Config(void)
 240:Core/Src/main.c **** {
 241:Core/Src/main.c ****   RCC_OscInitTypeDef RCC_OscInitStruct = {0};
 242:Core/Src/main.c ****   RCC_ClkInitTypeDef RCC_ClkInitStruct = {0};
 243:Core/Src/main.c **** 
 244:Core/Src/main.c ****   /** Initializes the RCC Oscillators according to the specified parameters
 245:Core/Src/main.c ****   * in the RCC_OscInitTypeDef structure.
 246:Core/Src/main.c ****   */
 247:Core/Src/main.c ****   RCC_OscInitStruct.OscillatorType = RCC_OSCILLATORTYPE_HSI;
 248:Core/Src/main.c ****   RCC_OscInitStruct.HSIState = RCC_HSI_ON;
 249:Core/Src/main.c ****   RCC_OscInitStruct.HSICalibrationValue = RCC_HSICALIBRATION_DEFAULT;
 250:Core/Src/main.c ****   RCC_OscInitStruct.PLL.PLLState = RCC_PLL_ON;
 251:Core/Src/main.c ****   RCC_OscInitStruct.PLL.PLLSource = RCC_PLLSOURCE_HSI_DIV2;
 252:Core/Src/main.c ****   RCC_OscInitStruct.PLL.PLLMUL = RCC_PLL_MUL9;
 253:Core/Src/main.c ****   if (HAL_RCC_OscConfig(&RCC_OscInitStruct) != HAL_OK)
 254:Core/Src/main.c ****   {
 255:Core/Src/main.c ****     Error_Handler();
 256:Core/Src/main.c ****   }
 257:Core/Src/main.c ****   /** Initializes the CPU, AHB and APB buses clocks
 258:Core/Src/main.c ****   */
 259:Core/Src/main.c ****   RCC_ClkInitStruct.ClockType = RCC_CLOCKTYPE_HCLK|RCC_CLOCKTYPE_SYSCLK
 260:Core/Src/main.c ****                               |RCC_CLOCKTYPE_PCLK1|RCC_CLOCKTYPE_PCLK2;
 261:Core/Src/main.c ****   RCC_ClkInitStruct.SYSCLKSource = RCC_SYSCLKSOURCE_PLLCLK;
ARM GAS  C:\Users\Admin\AppData\Local\Temp\ccvLA4Tr.s 			page 6


 262:Core/Src/main.c ****   RCC_ClkInitStruct.AHBCLKDivider = RCC_SYSCLK_DIV1;
 263:Core/Src/main.c ****   RCC_ClkInitStruct.APB1CLKDivider = RCC_HCLK_DIV2;
 264:Core/Src/main.c ****   RCC_ClkInitStruct.APB2CLKDivider = RCC_HCLK_DIV1;
 265:Core/Src/main.c **** 
 266:Core/Src/main.c ****   if (HAL_RCC_ClockConfig(&RCC_ClkInitStruct, FLASH_LATENCY_1) != HAL_OK)
 267:Core/Src/main.c ****   {
 268:Core/Src/main.c ****     Error_Handler();
 269:Core/Src/main.c ****   }
 270:Core/Src/main.c **** }
 271:Core/Src/main.c **** 
 272:Core/Src/main.c **** /**
 273:Core/Src/main.c ****   * @brief USART1 Initialization Function
 274:Core/Src/main.c ****   * @param None
 275:Core/Src/main.c ****   * @retval None
 276:Core/Src/main.c ****   */
 277:Core/Src/main.c **** static void MX_USART1_UART_Init(void)
 278:Core/Src/main.c **** {
 279:Core/Src/main.c **** 
 280:Core/Src/main.c ****   /* USER CODE BEGIN USART1_Init 0 */
 281:Core/Src/main.c **** 
 282:Core/Src/main.c ****   /* USER CODE END USART1_Init 0 */
 283:Core/Src/main.c **** 
 284:Core/Src/main.c ****   /* USER CODE BEGIN USART1_Init 1 */
 285:Core/Src/main.c **** 
 286:Core/Src/main.c ****   /* USER CODE END USART1_Init 1 */
 287:Core/Src/main.c ****   huart1.Instance = USART1;
 288:Core/Src/main.c ****   huart1.Init.BaudRate = 115200;
 289:Core/Src/main.c ****   huart1.Init.WordLength = UART_WORDLENGTH_8B;
 290:Core/Src/main.c ****   huart1.Init.StopBits = UART_STOPBITS_1;
 291:Core/Src/main.c ****   huart1.Init.Parity = UART_PARITY_NONE;
 292:Core/Src/main.c ****   huart1.Init.Mode = UART_MODE_TX_RX;
 293:Core/Src/main.c ****   huart1.Init.HwFlowCtl = UART_HWCONTROL_NONE;
 294:Core/Src/main.c ****   huart1.Init.OverSampling = UART_OVERSAMPLING_16;
 295:Core/Src/main.c ****   if (HAL_UART_Init(&huart1) != HAL_OK)
 296:Core/Src/main.c ****   {
 297:Core/Src/main.c ****     Error_Handler();
 298:Core/Src/main.c ****   }
 299:Core/Src/main.c ****   /* USER CODE BEGIN USART1_Init 2 */
 300:Core/Src/main.c **** 
 301:Core/Src/main.c ****   /* USER CODE END USART1_Init 2 */
 302:Core/Src/main.c **** 
 303:Core/Src/main.c **** }
 304:Core/Src/main.c **** 
 305:Core/Src/main.c **** /**
 306:Core/Src/main.c ****   * @brief GPIO Initialization Function
 307:Core/Src/main.c ****   * @param None
 308:Core/Src/main.c ****   * @retval None
 309:Core/Src/main.c ****   */
 310:Core/Src/main.c **** static void MX_GPIO_Init(void)
 311:Core/Src/main.c **** {
  26              		.loc 1 311 1 view -0
  27              		.cfi_startproc
  28              		@ args = 0, pretend = 0, frame = 32
  29              		@ frame_needed = 0, uses_anonymous_args = 0
  30 0000 70B5     		push	{r4, r5, r6, lr}
  31              	.LCFI0:
  32              		.cfi_def_cfa_offset 16
ARM GAS  C:\Users\Admin\AppData\Local\Temp\ccvLA4Tr.s 			page 7


  33              		.cfi_offset 4, -16
  34              		.cfi_offset 5, -12
  35              		.cfi_offset 6, -8
  36              		.cfi_offset 14, -4
  37 0002 88B0     		sub	sp, sp, #32
  38              	.LCFI1:
  39              		.cfi_def_cfa_offset 48
 312:Core/Src/main.c ****   GPIO_InitTypeDef GPIO_InitStruct = {0};
  40              		.loc 1 312 3 view .LVU1
  41              		.loc 1 312 20 is_stmt 0 view .LVU2
  42 0004 0024     		movs	r4, #0
  43 0006 0494     		str	r4, [sp, #16]
  44 0008 0594     		str	r4, [sp, #20]
  45 000a 0694     		str	r4, [sp, #24]
  46 000c 0794     		str	r4, [sp, #28]
 313:Core/Src/main.c **** 
 314:Core/Src/main.c ****   /* GPIO Ports Clock Enable */
 315:Core/Src/main.c ****   __HAL_RCC_GPIOC_CLK_ENABLE();
  47              		.loc 1 315 3 is_stmt 1 view .LVU3
  48              	.LBB4:
  49              		.loc 1 315 3 view .LVU4
  50              		.loc 1 315 3 view .LVU5
  51 000e 3B4B     		ldr	r3, .L3
  52 0010 9A69     		ldr	r2, [r3, #24]
  53 0012 42F01002 		orr	r2, r2, #16
  54 0016 9A61     		str	r2, [r3, #24]
  55              		.loc 1 315 3 view .LVU6
  56 0018 9A69     		ldr	r2, [r3, #24]
  57 001a 02F01002 		and	r2, r2, #16
  58 001e 0192     		str	r2, [sp, #4]
  59              		.loc 1 315 3 view .LVU7
  60 0020 019A     		ldr	r2, [sp, #4]
  61              	.LBE4:
  62              		.loc 1 315 3 view .LVU8
 316:Core/Src/main.c ****   __HAL_RCC_GPIOB_CLK_ENABLE();
  63              		.loc 1 316 3 view .LVU9
  64              	.LBB5:
  65              		.loc 1 316 3 view .LVU10
  66              		.loc 1 316 3 view .LVU11
  67 0022 9A69     		ldr	r2, [r3, #24]
  68 0024 42F00802 		orr	r2, r2, #8
  69 0028 9A61     		str	r2, [r3, #24]
  70              		.loc 1 316 3 view .LVU12
  71 002a 9A69     		ldr	r2, [r3, #24]
  72 002c 02F00802 		and	r2, r2, #8
  73 0030 0292     		str	r2, [sp, #8]
  74              		.loc 1 316 3 view .LVU13
  75 0032 029A     		ldr	r2, [sp, #8]
  76              	.LBE5:
  77              		.loc 1 316 3 view .LVU14
 317:Core/Src/main.c ****   __HAL_RCC_GPIOA_CLK_ENABLE();
  78              		.loc 1 317 3 view .LVU15
  79              	.LBB6:
  80              		.loc 1 317 3 view .LVU16
  81              		.loc 1 317 3 view .LVU17
  82 0034 9A69     		ldr	r2, [r3, #24]
  83 0036 42F00402 		orr	r2, r2, #4
ARM GAS  C:\Users\Admin\AppData\Local\Temp\ccvLA4Tr.s 			page 8


  84 003a 9A61     		str	r2, [r3, #24]
  85              		.loc 1 317 3 view .LVU18
  86 003c 9B69     		ldr	r3, [r3, #24]
  87 003e 03F00403 		and	r3, r3, #4
  88 0042 0393     		str	r3, [sp, #12]
  89              		.loc 1 317 3 view .LVU19
  90 0044 039B     		ldr	r3, [sp, #12]
  91              	.LBE6:
  92              		.loc 1 317 3 view .LVU20
 318:Core/Src/main.c **** 
 319:Core/Src/main.c ****   /*Configure GPIO pin Output Level */
 320:Core/Src/main.c ****   HAL_GPIO_WritePin(GPIOB, Zumer1_Pin|Zumer2_Pin|GreenLed_1_Pin|GreenLed_2_Pin, GPIO_PIN_SET);
  93              		.loc 1 320 3 view .LVU21
  94 0046 2E4E     		ldr	r6, .L3+4
  95 0048 0122     		movs	r2, #1
  96 004a 4FF44C41 		mov	r1, #52224
  97 004e 3046     		mov	r0, r6
  98 0050 FFF7FEFF 		bl	HAL_GPIO_WritePin
  99              	.LVL0:
 321:Core/Src/main.c **** 
 322:Core/Src/main.c ****   /*Configure GPIO pins : D_01_Pin D_11_Pin D_02_Pin D_12_Pin */
 323:Core/Src/main.c ****   GPIO_InitStruct.Pin = D_01_Pin|D_11_Pin|D_02_Pin|D_12_Pin;
 100              		.loc 1 323 3 view .LVU22
 101              		.loc 1 323 23 is_stmt 0 view .LVU23
 102 0054 C323     		movs	r3, #195
 103 0056 0493     		str	r3, [sp, #16]
 324:Core/Src/main.c ****   GPIO_InitStruct.Mode = GPIO_MODE_IT_FALLING;
 104              		.loc 1 324 3 is_stmt 1 view .LVU24
 105              		.loc 1 324 24 is_stmt 0 view .LVU25
 106 0058 2A4B     		ldr	r3, .L3+8
 107 005a 0593     		str	r3, [sp, #20]
 325:Core/Src/main.c ****   GPIO_InitStruct.Pull = GPIO_NOPULL;
 108              		.loc 1 325 3 is_stmt 1 view .LVU26
 109              		.loc 1 325 24 is_stmt 0 view .LVU27
 110 005c 0694     		str	r4, [sp, #24]
 326:Core/Src/main.c ****   HAL_GPIO_Init(GPIOC, &GPIO_InitStruct);
 111              		.loc 1 326 3 is_stmt 1 view .LVU28
 112 005e 2A4D     		ldr	r5, .L3+12
 113 0060 04A9     		add	r1, sp, #16
 114 0062 2846     		mov	r0, r5
 115 0064 FFF7FEFF 		bl	HAL_GPIO_Init
 116              	.LVL1:
 327:Core/Src/main.c **** 
 328:Core/Src/main.c ****   /*Configure GPIO pins : BT_0_Pin BT_1_Pin */
 329:Core/Src/main.c ****   GPIO_InitStruct.Pin = BT_0_Pin|BT_1_Pin;
 117              		.loc 1 329 3 view .LVU29
 118              		.loc 1 329 23 is_stmt 0 view .LVU30
 119 0068 0C23     		movs	r3, #12
 120 006a 0493     		str	r3, [sp, #16]
 330:Core/Src/main.c ****   GPIO_InitStruct.Mode = GPIO_MODE_IT_RISING;
 121              		.loc 1 330 3 is_stmt 1 view .LVU31
 122              		.loc 1 330 24 is_stmt 0 view .LVU32
 123 006c 274B     		ldr	r3, .L3+16
 124 006e 0593     		str	r3, [sp, #20]
 331:Core/Src/main.c ****   GPIO_InitStruct.Pull = GPIO_NOPULL;
 125              		.loc 1 331 3 is_stmt 1 view .LVU33
 126              		.loc 1 331 24 is_stmt 0 view .LVU34
ARM GAS  C:\Users\Admin\AppData\Local\Temp\ccvLA4Tr.s 			page 9


 127 0070 0694     		str	r4, [sp, #24]
 332:Core/Src/main.c ****   HAL_GPIO_Init(GPIOC, &GPIO_InitStruct);
 128              		.loc 1 332 3 is_stmt 1 view .LVU35
 129 0072 04A9     		add	r1, sp, #16
 130 0074 2846     		mov	r0, r5
 131 0076 FFF7FEFF 		bl	HAL_GPIO_Init
 132              	.LVL2:
 333:Core/Src/main.c **** 
 334:Core/Src/main.c ****   /*Configure GPIO pins : Zumer1_Pin Zumer2_Pin GreenLed_1_Pin GreenLed_2_Pin */
 335:Core/Src/main.c ****   GPIO_InitStruct.Pin = Zumer1_Pin|Zumer2_Pin|GreenLed_1_Pin|GreenLed_2_Pin;
 133              		.loc 1 335 3 view .LVU36
 134              		.loc 1 335 23 is_stmt 0 view .LVU37
 135 007a 4FF44C43 		mov	r3, #52224
 136 007e 0493     		str	r3, [sp, #16]
 336:Core/Src/main.c ****   GPIO_InitStruct.Mode = GPIO_MODE_OUTPUT_PP;
 137              		.loc 1 336 3 is_stmt 1 view .LVU38
 138              		.loc 1 336 24 is_stmt 0 view .LVU39
 139 0080 0123     		movs	r3, #1
 140 0082 0593     		str	r3, [sp, #20]
 337:Core/Src/main.c ****   GPIO_InitStruct.Pull = GPIO_NOPULL;
 141              		.loc 1 337 3 is_stmt 1 view .LVU40
 142              		.loc 1 337 24 is_stmt 0 view .LVU41
 143 0084 0694     		str	r4, [sp, #24]
 338:Core/Src/main.c ****   GPIO_InitStruct.Speed = GPIO_SPEED_FREQ_LOW;
 144              		.loc 1 338 3 is_stmt 1 view .LVU42
 145              		.loc 1 338 25 is_stmt 0 view .LVU43
 146 0086 0223     		movs	r3, #2
 147 0088 0793     		str	r3, [sp, #28]
 339:Core/Src/main.c ****   HAL_GPIO_Init(GPIOB, &GPIO_InitStruct);
 148              		.loc 1 339 3 is_stmt 1 view .LVU44
 149 008a 04A9     		add	r1, sp, #16
 150 008c 3046     		mov	r0, r6
 151 008e FFF7FEFF 		bl	HAL_GPIO_Init
 152              	.LVL3:
 340:Core/Src/main.c **** 
 341:Core/Src/main.c ****   /*Configure GPIO pin : Door_Pin */
 342:Core/Src/main.c ****   GPIO_InitStruct.Pin = Door_Pin;
 153              		.loc 1 342 3 view .LVU45
 154              		.loc 1 342 23 is_stmt 0 view .LVU46
 155 0092 4FF48073 		mov	r3, #256
 156 0096 0493     		str	r3, [sp, #16]
 343:Core/Src/main.c ****   GPIO_InitStruct.Mode = GPIO_MODE_IT_RISING_FALLING;
 157              		.loc 1 343 3 is_stmt 1 view .LVU47
 158              		.loc 1 343 24 is_stmt 0 view .LVU48
 159 0098 1D4B     		ldr	r3, .L3+20
 160 009a 0593     		str	r3, [sp, #20]
 344:Core/Src/main.c ****   GPIO_InitStruct.Pull = GPIO_NOPULL;
 161              		.loc 1 344 3 is_stmt 1 view .LVU49
 162              		.loc 1 344 24 is_stmt 0 view .LVU50
 163 009c 0694     		str	r4, [sp, #24]
 345:Core/Src/main.c ****   HAL_GPIO_Init(Door_GPIO_Port, &GPIO_InitStruct);
 164              		.loc 1 345 3 is_stmt 1 view .LVU51
 165 009e 04A9     		add	r1, sp, #16
 166 00a0 2846     		mov	r0, r5
 167 00a2 FFF7FEFF 		bl	HAL_GPIO_Init
 168              	.LVL4:
 346:Core/Src/main.c **** 
ARM GAS  C:\Users\Admin\AppData\Local\Temp\ccvLA4Tr.s 			page 10


 347:Core/Src/main.c ****   /* EXTI interrupt init*/
 348:Core/Src/main.c ****   HAL_NVIC_SetPriority(EXTI0_IRQn, 0, 0);
 169              		.loc 1 348 3 view .LVU52
 170 00a6 2246     		mov	r2, r4
 171 00a8 2146     		mov	r1, r4
 172 00aa 0620     		movs	r0, #6
 173 00ac FFF7FEFF 		bl	HAL_NVIC_SetPriority
 174              	.LVL5:
 349:Core/Src/main.c ****   HAL_NVIC_EnableIRQ(EXTI0_IRQn);
 175              		.loc 1 349 3 view .LVU53
 176 00b0 0620     		movs	r0, #6
 177 00b2 FFF7FEFF 		bl	HAL_NVIC_EnableIRQ
 178              	.LVL6:
 350:Core/Src/main.c **** 
 351:Core/Src/main.c ****   HAL_NVIC_SetPriority(EXTI1_IRQn, 0, 0);
 179              		.loc 1 351 3 view .LVU54
 180 00b6 2246     		mov	r2, r4
 181 00b8 2146     		mov	r1, r4
 182 00ba 0720     		movs	r0, #7
 183 00bc FFF7FEFF 		bl	HAL_NVIC_SetPriority
 184              	.LVL7:
 352:Core/Src/main.c ****   HAL_NVIC_EnableIRQ(EXTI1_IRQn);
 185              		.loc 1 352 3 view .LVU55
 186 00c0 0720     		movs	r0, #7
 187 00c2 FFF7FEFF 		bl	HAL_NVIC_EnableIRQ
 188              	.LVL8:
 353:Core/Src/main.c **** 
 354:Core/Src/main.c ****   HAL_NVIC_SetPriority(EXTI2_IRQn, 0, 0);
 189              		.loc 1 354 3 view .LVU56
 190 00c6 2246     		mov	r2, r4
 191 00c8 2146     		mov	r1, r4
 192 00ca 0820     		movs	r0, #8
 193 00cc FFF7FEFF 		bl	HAL_NVIC_SetPriority
 194              	.LVL9:
 355:Core/Src/main.c ****   HAL_NVIC_EnableIRQ(EXTI2_IRQn);
 195              		.loc 1 355 3 view .LVU57
 196 00d0 0820     		movs	r0, #8
 197 00d2 FFF7FEFF 		bl	HAL_NVIC_EnableIRQ
 198              	.LVL10:
 356:Core/Src/main.c **** 
 357:Core/Src/main.c ****   HAL_NVIC_SetPriority(EXTI3_IRQn, 0, 0);
 199              		.loc 1 357 3 view .LVU58
 200 00d6 2246     		mov	r2, r4
 201 00d8 2146     		mov	r1, r4
 202 00da 0920     		movs	r0, #9
 203 00dc FFF7FEFF 		bl	HAL_NVIC_SetPriority
 204              	.LVL11:
 358:Core/Src/main.c ****   HAL_NVIC_EnableIRQ(EXTI3_IRQn);
 205              		.loc 1 358 3 view .LVU59
 206 00e0 0920     		movs	r0, #9
 207 00e2 FFF7FEFF 		bl	HAL_NVIC_EnableIRQ
 208              	.LVL12:
 359:Core/Src/main.c **** 
 360:Core/Src/main.c ****   HAL_NVIC_SetPriority(EXTI9_5_IRQn, 0, 0);
 209              		.loc 1 360 3 view .LVU60
 210 00e6 2246     		mov	r2, r4
 211 00e8 2146     		mov	r1, r4
ARM GAS  C:\Users\Admin\AppData\Local\Temp\ccvLA4Tr.s 			page 11


 212 00ea 1720     		movs	r0, #23
 213 00ec FFF7FEFF 		bl	HAL_NVIC_SetPriority
 214              	.LVL13:
 361:Core/Src/main.c ****   HAL_NVIC_EnableIRQ(EXTI9_5_IRQn);
 215              		.loc 1 361 3 view .LVU61
 216 00f0 1720     		movs	r0, #23
 217 00f2 FFF7FEFF 		bl	HAL_NVIC_EnableIRQ
 218              	.LVL14:
 362:Core/Src/main.c **** 
 363:Core/Src/main.c **** }
 219              		.loc 1 363 1 is_stmt 0 view .LVU62
 220 00f6 08B0     		add	sp, sp, #32
 221              	.LCFI2:
 222              		.cfi_def_cfa_offset 16
 223              		@ sp needed
 224 00f8 70BD     		pop	{r4, r5, r6, pc}
 225              	.L4:
 226 00fa 00BF     		.align	2
 227              	.L3:
 228 00fc 00100240 		.word	1073876992
 229 0100 000C0140 		.word	1073810432
 230 0104 00002110 		.word	270598144
 231 0108 00100140 		.word	1073811456
 232 010c 00001110 		.word	269549568
 233 0110 00003110 		.word	271646720
 234              		.cfi_endproc
 235              	.LFE78:
 237              		.section	.text.blinkEvent,"ax",%progbits
 238              		.align	1
 239              		.global	blinkEvent
 240              		.syntax unified
 241              		.thumb
 242              		.thumb_func
 243              		.fpu softvfp
 245              	blinkEvent:
 246              	.LFB81:
 364:Core/Src/main.c **** 
 365:Core/Src/main.c **** /* USER CODE BEGIN 4 */
 366:Core/Src/main.c **** 
 367:Core/Src/main.c **** /* Events */
 368:Core/Src/main.c **** 
 369:Core/Src/main.c **** void timeTrackEvent()
 370:Core/Src/main.c **** {
 371:Core/Src/main.c ****   if((HAL_GetTick() - timmeTrack) > 1000)
 372:Core/Src/main.c ****   {
 373:Core/Src/main.c ****     UART_Printf("Time passed: %d\r\n", (HAL_GetTick() - timme));
 374:Core/Src/main.c ****     timmeTrack = HAL_GetTick();
 375:Core/Src/main.c ****   }
 376:Core/Src/main.c **** }
 377:Core/Src/main.c **** 
 378:Core/Src/main.c **** /**
 379:Core/Src/main.c ****   * @brief Event for acting when it is time to change modes
 380:Core/Src/main.c ****   * @retval None
 381:Core/Src/main.c **** */
 382:Core/Src/main.c **** void changeModeEvent()
 383:Core/Src/main.c **** {
 384:Core/Src/main.c ****   if( (HAL_GetTick() - timme) > 15000 )
ARM GAS  C:\Users\Admin\AppData\Local\Temp\ccvLA4Tr.s 			page 12


 385:Core/Src/main.c ****   {
 386:Core/Src/main.c ****     switchMode();
 387:Core/Src/main.c ****     timme = HAL_GetTick();
 388:Core/Src/main.c ****   }
 389:Core/Src/main.c **** }
 390:Core/Src/main.c **** 
 391:Core/Src/main.c **** void blinkEvent()
 392:Core/Src/main.c **** {
 247              		.loc 1 392 1 is_stmt 1 view -0
 248              		.cfi_startproc
 249              		@ args = 0, pretend = 0, frame = 0
 250              		@ frame_needed = 0, uses_anonymous_args = 0
 393:Core/Src/main.c ****   if(toBlink && (HAL_GetTick() - blinkStart) > blinkTime)
 251              		.loc 1 393 3 view .LVU64
 252              		.loc 1 393 6 is_stmt 0 view .LVU65
 253 0000 0F4B     		ldr	r3, .L13
 254 0002 1B78     		ldrb	r3, [r3]	@ zero_extendqisi2
 255              		.loc 1 393 5 view .LVU66
 256 0004 03B9     		cbnz	r3, .L11
 257 0006 7047     		bx	lr
 258              	.L11:
 392:Core/Src/main.c ****   if(toBlink && (HAL_GetTick() - blinkStart) > blinkTime)
 259              		.loc 1 392 1 discriminator 1 view .LVU67
 260 0008 10B5     		push	{r4, lr}
 261              	.LCFI3:
 262              		.cfi_def_cfa_offset 8
 263              		.cfi_offset 4, -8
 264              		.cfi_offset 14, -4
 265              		.loc 1 393 18 discriminator 1 view .LVU68
 266 000a FFF7FEFF 		bl	HAL_GetTick
 267              	.LVL15:
 268              		.loc 1 393 32 discriminator 1 view .LVU69
 269 000e 0D4B     		ldr	r3, .L13+4
 270 0010 1B68     		ldr	r3, [r3]
 271 0012 C01A     		subs	r0, r0, r3
 272              		.loc 1 393 46 discriminator 1 view .LVU70
 273 0014 0C4B     		ldr	r3, .L13+8
 274 0016 1B68     		ldr	r3, [r3]
 275              		.loc 1 393 14 discriminator 1 view .LVU71
 276 0018 9842     		cmp	r0, r3
 277 001a 00D8     		bhi	.L12
 278              	.L5:
 394:Core/Src/main.c ****   {
 395:Core/Src/main.c ****     HAL_GPIO_WritePin(GreenLed_1_GPIO_Port, GreenLed_1_Pin, SET);
 396:Core/Src/main.c ****     HAL_GPIO_WritePin(GreenLed_2_GPIO_Port, GreenLed_2_Pin, SET);
 397:Core/Src/main.c ****     toBlink = false;
 398:Core/Src/main.c ****   }
 399:Core/Src/main.c **** }
 279              		.loc 1 399 1 view .LVU72
 280 001c 10BD     		pop	{r4, pc}
 281              	.L12:
 395:Core/Src/main.c ****     HAL_GPIO_WritePin(GreenLed_2_GPIO_Port, GreenLed_2_Pin, SET);
 282              		.loc 1 395 5 is_stmt 1 view .LVU73
 283 001e 0B4C     		ldr	r4, .L13+12
 284 0020 0122     		movs	r2, #1
 285 0022 4FF48041 		mov	r1, #16384
 286 0026 2046     		mov	r0, r4
ARM GAS  C:\Users\Admin\AppData\Local\Temp\ccvLA4Tr.s 			page 13


 287 0028 FFF7FEFF 		bl	HAL_GPIO_WritePin
 288              	.LVL16:
 396:Core/Src/main.c ****     toBlink = false;
 289              		.loc 1 396 5 view .LVU74
 290 002c 0122     		movs	r2, #1
 291 002e 4FF40041 		mov	r1, #32768
 292 0032 2046     		mov	r0, r4
 293 0034 FFF7FEFF 		bl	HAL_GPIO_WritePin
 294              	.LVL17:
 397:Core/Src/main.c ****   }
 295              		.loc 1 397 5 view .LVU75
 397:Core/Src/main.c ****   }
 296              		.loc 1 397 13 is_stmt 0 view .LVU76
 297 0038 014B     		ldr	r3, .L13
 298 003a 0022     		movs	r2, #0
 299 003c 1A70     		strb	r2, [r3]
 300              		.loc 1 399 1 view .LVU77
 301 003e EDE7     		b	.L5
 302              	.L14:
 303              		.align	2
 304              	.L13:
 305 0040 00000000 		.word	.LANCHOR0
 306 0044 00000000 		.word	.LANCHOR1
 307 0048 00000000 		.word	.LANCHOR2
 308 004c 000C0140 		.word	1073810432
 309              		.cfi_endproc
 310              	.LFE81:
 312              		.section	.text.doorClosedEvent,"ax",%progbits
 313              		.align	1
 314              		.global	doorClosedEvent
 315              		.syntax unified
 316              		.thumb
 317              		.thumb_func
 318              		.fpu softvfp
 320              	doorClosedEvent:
 321              	.LFB85:
 400:Core/Src/main.c **** 
 401:Core/Src/main.c **** /**
 402:Core/Src/main.c ****  * @brief Event for acting when intercom key was inserted
 403:Core/Src/main.c ****  * @retval None
 404:Core/Src/main.c **** */
 405:Core/Src/main.c **** void intercomKeyEvent()
 406:Core/Src/main.c **** {
 407:Core/Src/main.c ****   if(wig_available())
 408:Core/Src/main.c ****   {
 409:Core/Src/main.c ****     if(insideKeyRead)
 410:Core/Src/main.c ****       UART_Printf("Inside reader was used.\r\n");
 411:Core/Src/main.c **** 
 412:Core/Src/main.c ****     if(outsideKeyRead)
 413:Core/Src/main.c ****       UART_Printf("Outside reader was used.\r\n");
 414:Core/Src/main.c **** 
 415:Core/Src/main.c ****     if(verifyCode(getCode()))
 416:Core/Src/main.c ****     switch(workMode)
 417:Core/Src/main.c ****     {
 418:Core/Src/main.c ****       case NormalMode:
 419:Core/Src/main.c ****         unlockRelay();
 420:Core/Src/main.c ****         break;
ARM GAS  C:\Users\Admin\AppData\Local\Temp\ccvLA4Tr.s 			page 14


 421:Core/Src/main.c **** 
 422:Core/Src/main.c ****       case ClosedMode:
 423:Core/Src/main.c ****         break;
 424:Core/Src/main.c **** 
 425:Core/Src/main.c ****       case OpenMode:
 426:Core/Src/main.c ****       case TempOpenMode:
 427:Core/Src/main.c ****         break;
 428:Core/Src/main.c **** 
 429:Core/Src/main.c ****       case CondOpenMode:
 430:Core/Src/main.c ****         workMode = OpenMode;
 431:Core/Src/main.c ****         unlockRelay();
 432:Core/Src/main.c ****         break;
 433:Core/Src/main.c **** 
 434:Core/Src/main.c ****       default:
 435:Core/Src/main.c ****         break;
 436:Core/Src/main.c ****     }
 437:Core/Src/main.c ****   }
 438:Core/Src/main.c **** }
 439:Core/Src/main.c **** 
 440:Core/Src/main.c **** /**
 441:Core/Src/main.c ****  * @brief Event for acting when a button to open the door was pressed
 442:Core/Src/main.c ****  * @retval None
 443:Core/Src/main.c **** */
 444:Core/Src/main.c **** void buttonPressedEvent()
 445:Core/Src/main.c **** { 
 446:Core/Src/main.c ****   if(insideButtonPressed)
 447:Core/Src/main.c ****     UART_Printf("Inside button was pressed.\r\n");
 448:Core/Src/main.c **** 
 449:Core/Src/main.c ****   if(outsideButtonPressed)
 450:Core/Src/main.c ****     UART_Printf("Outside button was pressed.\r\n");
 451:Core/Src/main.c ****  
 452:Core/Src/main.c ****   if(outsideButtonPressed || insideButtonPressed)
 453:Core/Src/main.c ****   {
 454:Core/Src/main.c ****     switch(workMode)
 455:Core/Src/main.c ****     {
 456:Core/Src/main.c ****       case NormalMode:
 457:Core/Src/main.c ****       case ClosedMode:
 458:Core/Src/main.c ****         unlockRelay();
 459:Core/Src/main.c ****         break;
 460:Core/Src/main.c **** 
 461:Core/Src/main.c ****       case OpenMode:
 462:Core/Src/main.c ****       case TempOpenMode:
 463:Core/Src/main.c ****         break;
 464:Core/Src/main.c **** 
 465:Core/Src/main.c ****       case CondOpenMode:
 466:Core/Src/main.c ****         workMode = OpenMode;
 467:Core/Src/main.c ****         break;
 468:Core/Src/main.c **** 
 469:Core/Src/main.c ****       default:
 470:Core/Src/main.c ****         break;
 471:Core/Src/main.c ****     }
 472:Core/Src/main.c ****     outsideButtonPressed = false;
 473:Core/Src/main.c ****     insideButtonPressed = false;
 474:Core/Src/main.c ****   }
 475:Core/Src/main.c **** }
 476:Core/Src/main.c **** 
 477:Core/Src/main.c **** void doorUnlockEvent()
ARM GAS  C:\Users\Admin\AppData\Local\Temp\ccvLA4Tr.s 			page 15


 478:Core/Src/main.c **** {
 479:Core/Src/main.c ****   if(doorRecentlyClosed)
 480:Core/Src/main.c ****   {
 481:Core/Src/main.c ****     lockDoor();
 482:Core/Src/main.c ****     doorRecentlyClosed = false;
 483:Core/Src/main.c ****   }
 484:Core/Src/main.c ****   
 485:Core/Src/main.c ****   if((HAL_GetTick() - relayUnlockingTime) > 10000 && !doorRecentlyClosed)
 486:Core/Src/main.c ****   {
 487:Core/Src/main.c ****     alarmCause = OpenedDoor;
 488:Core/Src/main.c ****   }
 489:Core/Src/main.c ****   else if(doorState == ClosedState)
 490:Core/Src/main.c ****   {
 491:Core/Src/main.c ****     alarmCause = None;
 492:Core/Src/main.c ****   }
 493:Core/Src/main.c **** }
 494:Core/Src/main.c **** 
 495:Core/Src/main.c **** void doorClosedEvent()
 496:Core/Src/main.c **** {
 322              		.loc 1 496 1 is_stmt 1 view -0
 323              		.cfi_startproc
 324              		@ args = 0, pretend = 0, frame = 0
 325              		@ frame_needed = 0, uses_anonymous_args = 0
 326              		@ link register save eliminated.
 497:Core/Src/main.c ****   if(doorState == ClosedState)
 327              		.loc 1 497 3 view .LVU79
 328              		.loc 1 497 16 is_stmt 0 view .LVU80
 329 0000 044B     		ldr	r3, .L18
 330 0002 1B78     		ldrb	r3, [r3]	@ zero_extendqisi2
 331              		.loc 1 497 5 view .LVU81
 332 0004 012B     		cmp	r3, #1
 333 0006 00D0     		beq	.L17
 334              	.L15:
 498:Core/Src/main.c ****   {
 499:Core/Src/main.c ****     //relay closing mechanics
 500:Core/Src/main.c ****     relayState = ClosedState;
 501:Core/Src/main.c ****   }
 502:Core/Src/main.c **** }
 335              		.loc 1 502 1 view .LVU82
 336 0008 7047     		bx	lr
 337              	.L17:
 500:Core/Src/main.c ****   }
 338              		.loc 1 500 5 is_stmt 1 view .LVU83
 500:Core/Src/main.c ****   }
 339              		.loc 1 500 16 is_stmt 0 view .LVU84
 340 000a 034B     		ldr	r3, .L18+4
 341 000c 0122     		movs	r2, #1
 342 000e 1A70     		strb	r2, [r3]
 343              		.loc 1 502 1 view .LVU85
 344 0010 FAE7     		b	.L15
 345              	.L19:
 346 0012 00BF     		.align	2
 347              	.L18:
 348 0014 00000000 		.word	.LANCHOR3
 349 0018 00000000 		.word	.LANCHOR4
 350              		.cfi_endproc
 351              	.LFE85:
ARM GAS  C:\Users\Admin\AppData\Local\Temp\ccvLA4Tr.s 			page 16


 353              		.section	.text.bellEvent,"ax",%progbits
 354              		.align	1
 355              		.global	bellEvent
 356              		.syntax unified
 357              		.thumb
 358              		.thumb_func
 359              		.fpu softvfp
 361              	bellEvent:
 362              	.LFB87:
 503:Core/Src/main.c **** 
 504:Core/Src/main.c **** void greenLightEvent()
 505:Core/Src/main.c **** {
 506:Core/Src/main.c ****   switch(relayState)
 507:Core/Src/main.c ****   {
 508:Core/Src/main.c ****     case ClosedState:
 509:Core/Src/main.c ****       HAL_GPIO_WritePin(GreenLed_1_GPIO_Port, GreenLed_1_Pin, SET);
 510:Core/Src/main.c ****       HAL_GPIO_WritePin(GreenLed_2_GPIO_Port, GreenLed_2_Pin, SET);
 511:Core/Src/main.c ****       break;
 512:Core/Src/main.c ****     case OpenedState:
 513:Core/Src/main.c ****       HAL_GPIO_WritePin(GreenLed_1_GPIO_Port, GreenLed_1_Pin, RESET);
 514:Core/Src/main.c ****       HAL_GPIO_WritePin(GreenLed_2_GPIO_Port, GreenLed_2_Pin, RESET);
 515:Core/Src/main.c ****       break;
 516:Core/Src/main.c ****     default:
 517:Core/Src/main.c ****       UART_Printf("Unknown relay state.\r\n");
 518:Core/Src/main.c ****   }
 519:Core/Src/main.c **** }
 520:Core/Src/main.c **** 
 521:Core/Src/main.c **** void bellEvent()
 522:Core/Src/main.c **** {
 363              		.loc 1 522 1 is_stmt 1 view -0
 364              		.cfi_startproc
 365              		@ args = 0, pretend = 0, frame = 0
 366              		@ frame_needed = 0, uses_anonymous_args = 0
 367              		@ link register save eliminated.
 523:Core/Src/main.c ****   
 524:Core/Src/main.c **** }
 368              		.loc 1 524 1 view .LVU87
 369 0000 7047     		bx	lr
 370              		.cfi_endproc
 371              	.LFE87:
 373              		.section	.text.alarmEvent,"ax",%progbits
 374              		.align	1
 375              		.global	alarmEvent
 376              		.syntax unified
 377              		.thumb
 378              		.thumb_func
 379              		.fpu softvfp
 381              	alarmEvent:
 382              	.LFB88:
 525:Core/Src/main.c **** 
 526:Core/Src/main.c **** void alarmEvent()
 527:Core/Src/main.c **** {
 383              		.loc 1 527 1 view -0
 384              		.cfi_startproc
 385              		@ args = 0, pretend = 0, frame = 0
 386              		@ frame_needed = 0, uses_anonymous_args = 0
 387              		@ link register save eliminated.
ARM GAS  C:\Users\Admin\AppData\Local\Temp\ccvLA4Tr.s 			page 17


 528:Core/Src/main.c **** 
 529:Core/Src/main.c **** }
 388              		.loc 1 529 1 view .LVU89
 389 0000 7047     		bx	lr
 390              		.cfi_endproc
 391              	.LFE88:
 393              		.section	.text.HAL_GPIO_EXTI_Callback,"ax",%progbits
 394              		.align	1
 395              		.global	HAL_GPIO_EXTI_Callback
 396              		.syntax unified
 397              		.thumb
 398              		.thumb_func
 399              		.fpu softvfp
 401              	HAL_GPIO_EXTI_Callback:
 402              	.LVL18:
 403              	.LFB89:
 530:Core/Src/main.c **** 
 531:Core/Src/main.c **** /* Aux functions */
 532:Core/Src/main.c **** 
 533:Core/Src/main.c **** void HAL_GPIO_EXTI_Callback(uint16_t GPIO_Pin)
 534:Core/Src/main.c **** {
 404              		.loc 1 534 1 view -0
 405              		.cfi_startproc
 406              		@ args = 0, pretend = 0, frame = 0
 407              		@ frame_needed = 0, uses_anonymous_args = 0
 408              		.loc 1 534 1 is_stmt 0 view .LVU91
 409 0000 08B5     		push	{r3, lr}
 410              	.LCFI4:
 411              		.cfi_def_cfa_offset 8
 412              		.cfi_offset 3, -8
 413              		.cfi_offset 14, -4
 535:Core/Src/main.c ****   switch(GPIO_Pin)
 414              		.loc 1 535 3 is_stmt 1 view .LVU92
 415 0002 0828     		cmp	r0, #8
 416 0004 0AD8     		bhi	.L23
 417 0006 03B2     		sxth	r3, r0
 418 0008 2BB3     		cbz	r3, .L22
 419 000a 0138     		subs	r0, r0, #1
 420              	.LVL19:
 421              		.loc 1 535 3 is_stmt 0 view .LVU93
 422 000c 0728     		cmp	r0, #7
 423 000e 22D8     		bhi	.L22
 424 0010 DFE800F0 		tbb	[pc, r0]
 425              	.LVL20:
 426              	.L26:
 427 0014 33       		.byte	(.L29-.L26)/2
 428 0015 3D       		.byte	(.L28-.L26)/2
 429 0016 21       		.byte	(.L22-.L26)/2
 430 0017 1E       		.byte	(.L27-.L26)/2
 431 0018 21       		.byte	(.L22-.L26)/2
 432 0019 21       		.byte	(.L22-.L26)/2
 433 001a 21       		.byte	(.L22-.L26)/2
 434 001b 22       		.byte	(.L25-.L26)/2
 435              		.p2align 1
 436              	.L23:
 437              		.loc 1 535 3 view .LVU94
 438 001c 8028     		cmp	r0, #128
ARM GAS  C:\Users\Admin\AppData\Local\Temp\ccvLA4Tr.s 			page 18


 439 001e 40D0     		beq	.L30
 440 0020 B0F5807F 		cmp	r0, #256
 441 0024 09D1     		bne	.L35
 536:Core/Src/main.c ****   {
 537:Core/Src/main.c ****     case BT_0_Pin:
 538:Core/Src/main.c ****       insideButtonPressed = true;
 539:Core/Src/main.c ****       break;
 540:Core/Src/main.c **** 
 541:Core/Src/main.c ****     case BT_1_Pin:
 542:Core/Src/main.c ****       outsideButtonPressed = true;
 543:Core/Src/main.c ****       break;
 544:Core/Src/main.c **** 
 545:Core/Src/main.c ****     case Door_Pin:
 546:Core/Src/main.c ****       if(HAL_GPIO_ReadPin(Door_GPIO_Port, Door_Pin) == 0)
 442              		.loc 1 546 7 is_stmt 1 view .LVU95
 443              		.loc 1 546 10 is_stmt 0 view .LVU96
 444 0026 4FF48071 		mov	r1, #256
 445 002a 2348     		ldr	r0, .L36
 446              	.LVL21:
 447              		.loc 1 546 10 view .LVU97
 448 002c FFF7FEFF 		bl	HAL_GPIO_ReadPin
 449              	.LVL22:
 450              		.loc 1 546 9 view .LVU98
 451 0030 B0B9     		cbnz	r0, .L33
 547:Core/Src/main.c ****       {
 548:Core/Src/main.c ****         doorState = OpenedState;
 452              		.loc 1 548 9 is_stmt 1 view .LVU99
 453              		.loc 1 548 19 is_stmt 0 view .LVU100
 454 0032 224B     		ldr	r3, .L36+4
 455 0034 0022     		movs	r2, #0
 456 0036 1A70     		strb	r2, [r3]
 457 0038 0DE0     		b	.L22
 458              	.LVL23:
 459              	.L35:
 535:Core/Src/main.c ****   {
 460              		.loc 1 535 3 view .LVU101
 461 003a 4028     		cmp	r0, #64
 462 003c 0BD1     		bne	.L22
 549:Core/Src/main.c ****       }
 550:Core/Src/main.c ****       else if(HAL_GPIO_ReadPin(Door_GPIO_Port, Door_Pin) == 1)
 551:Core/Src/main.c ****       {
 552:Core/Src/main.c ****         doorState = ClosedState;
 553:Core/Src/main.c ****         doorRecentlyClosed = true;
 554:Core/Src/main.c ****       }
 555:Core/Src/main.c ****       break;
 556:Core/Src/main.c **** 
 557:Core/Src/main.c ****     case D_01_Pin:
 558:Core/Src/main.c ****       if(wig_flag_inrt)
 559:Core/Src/main.c ****       {
 560:Core/Src/main.c ****         ReadD0();
 561:Core/Src/main.c ****         insideKeyRead = true;
 562:Core/Src/main.c ****       }
 563:Core/Src/main.c ****       break;
 564:Core/Src/main.c ****     
 565:Core/Src/main.c ****     case D_11_Pin:
 566:Core/Src/main.c ****       if(wig_flag_inrt)
 567:Core/Src/main.c ****       {
ARM GAS  C:\Users\Admin\AppData\Local\Temp\ccvLA4Tr.s 			page 19


 568:Core/Src/main.c ****         ReadD1();
 569:Core/Src/main.c ****         insideKeyRead = true;
 570:Core/Src/main.c ****       }
 571:Core/Src/main.c ****       break;
 572:Core/Src/main.c **** 
 573:Core/Src/main.c ****     case D_02_Pin:
 574:Core/Src/main.c ****       if(wig_flag_inrt)
 463              		.loc 1 574 7 is_stmt 1 view .LVU102
 464              		.loc 1 574 10 is_stmt 0 view .LVU103
 465 003e 204B     		ldr	r3, .L36+8
 466 0040 1B78     		ldrb	r3, [r3]	@ zero_extendqisi2
 467              		.loc 1 574 9 view .LVU104
 468 0042 43B1     		cbz	r3, .L22
 575:Core/Src/main.c ****       {
 576:Core/Src/main.c ****         ReadD0();
 469              		.loc 1 576 9 is_stmt 1 view .LVU105
 470 0044 FFF7FEFF 		bl	ReadD0
 471              	.LVL24:
 577:Core/Src/main.c ****         outsideKeyRead = true;
 472              		.loc 1 577 9 view .LVU106
 473              		.loc 1 577 24 is_stmt 0 view .LVU107
 474 0048 1E4B     		ldr	r3, .L36+12
 475 004a 0122     		movs	r2, #1
 476 004c 1A70     		strb	r2, [r3]
 477 004e 02E0     		b	.L22
 478              	.L27:
 538:Core/Src/main.c ****       break;
 479              		.loc 1 538 7 is_stmt 1 view .LVU108
 538:Core/Src/main.c ****       break;
 480              		.loc 1 538 27 is_stmt 0 view .LVU109
 481 0050 1D4B     		ldr	r3, .L36+16
 482 0052 0122     		movs	r2, #1
 483 0054 1A70     		strb	r2, [r3]
 539:Core/Src/main.c **** 
 484              		.loc 1 539 7 is_stmt 1 view .LVU110
 485              	.L22:
 578:Core/Src/main.c ****       }
 579:Core/Src/main.c ****       break;
 580:Core/Src/main.c **** 
 581:Core/Src/main.c ****     case D_12_Pin:
 582:Core/Src/main.c ****       if(wig_flag_inrt)
 583:Core/Src/main.c ****       {
 584:Core/Src/main.c ****         ReadD1();
 585:Core/Src/main.c ****         outsideKeyRead = true;
 586:Core/Src/main.c ****       }
 587:Core/Src/main.c ****       break;
 588:Core/Src/main.c ****     
 589:Core/Src/main.c ****     default:
 590:Core/Src/main.c ****       break;
 591:Core/Src/main.c ****   }
 592:Core/Src/main.c **** }
 486              		.loc 1 592 1 is_stmt 0 view .LVU111
 487 0056 08BD     		pop	{r3, pc}
 488              	.L25:
 542:Core/Src/main.c ****       break;
 489              		.loc 1 542 7 is_stmt 1 view .LVU112
 542:Core/Src/main.c ****       break;
ARM GAS  C:\Users\Admin\AppData\Local\Temp\ccvLA4Tr.s 			page 20


 490              		.loc 1 542 28 is_stmt 0 view .LVU113
 491 0058 1C4B     		ldr	r3, .L36+20
 492 005a 0122     		movs	r2, #1
 493 005c 1A70     		strb	r2, [r3]
 543:Core/Src/main.c **** 
 494              		.loc 1 543 7 is_stmt 1 view .LVU114
 495 005e FAE7     		b	.L22
 496              	.L33:
 550:Core/Src/main.c ****       {
 497              		.loc 1 550 12 view .LVU115
 550:Core/Src/main.c ****       {
 498              		.loc 1 550 15 is_stmt 0 view .LVU116
 499 0060 4FF48071 		mov	r1, #256
 500 0064 1448     		ldr	r0, .L36
 501 0066 FFF7FEFF 		bl	HAL_GPIO_ReadPin
 502              	.LVL25:
 550:Core/Src/main.c ****       {
 503              		.loc 1 550 14 view .LVU117
 504 006a 0128     		cmp	r0, #1
 505 006c F3D1     		bne	.L22
 552:Core/Src/main.c ****         doorRecentlyClosed = true;
 506              		.loc 1 552 9 is_stmt 1 view .LVU118
 552:Core/Src/main.c ****         doorRecentlyClosed = true;
 507              		.loc 1 552 19 is_stmt 0 view .LVU119
 508 006e 0123     		movs	r3, #1
 509 0070 124A     		ldr	r2, .L36+4
 510 0072 1370     		strb	r3, [r2]
 553:Core/Src/main.c ****       }
 511              		.loc 1 553 9 is_stmt 1 view .LVU120
 553:Core/Src/main.c ****       }
 512              		.loc 1 553 28 is_stmt 0 view .LVU121
 513 0074 164A     		ldr	r2, .L36+24
 514 0076 1370     		strb	r3, [r2]
 515 0078 EDE7     		b	.L22
 516              	.L29:
 558:Core/Src/main.c ****       {
 517              		.loc 1 558 7 is_stmt 1 view .LVU122
 558:Core/Src/main.c ****       {
 518              		.loc 1 558 10 is_stmt 0 view .LVU123
 519 007a 114B     		ldr	r3, .L36+8
 520 007c 1B78     		ldrb	r3, [r3]	@ zero_extendqisi2
 558:Core/Src/main.c ****       {
 521              		.loc 1 558 9 view .LVU124
 522 007e 002B     		cmp	r3, #0
 523 0080 E9D0     		beq	.L22
 560:Core/Src/main.c ****         insideKeyRead = true;
 524              		.loc 1 560 9 is_stmt 1 view .LVU125
 525 0082 FFF7FEFF 		bl	ReadD0
 526              	.LVL26:
 561:Core/Src/main.c ****       }
 527              		.loc 1 561 9 view .LVU126
 561:Core/Src/main.c ****       }
 528              		.loc 1 561 23 is_stmt 0 view .LVU127
 529 0086 134B     		ldr	r3, .L36+28
 530 0088 0122     		movs	r2, #1
 531 008a 1A70     		strb	r2, [r3]
 532 008c E3E7     		b	.L22
ARM GAS  C:\Users\Admin\AppData\Local\Temp\ccvLA4Tr.s 			page 21


 533              	.L28:
 566:Core/Src/main.c ****       {
 534              		.loc 1 566 7 is_stmt 1 view .LVU128
 566:Core/Src/main.c ****       {
 535              		.loc 1 566 10 is_stmt 0 view .LVU129
 536 008e 0C4B     		ldr	r3, .L36+8
 537 0090 1B78     		ldrb	r3, [r3]	@ zero_extendqisi2
 566:Core/Src/main.c ****       {
 538              		.loc 1 566 9 view .LVU130
 539 0092 002B     		cmp	r3, #0
 540 0094 DFD0     		beq	.L22
 568:Core/Src/main.c ****         insideKeyRead = true;
 541              		.loc 1 568 9 is_stmt 1 view .LVU131
 542 0096 FFF7FEFF 		bl	ReadD1
 543              	.LVL27:
 569:Core/Src/main.c ****       }
 544              		.loc 1 569 9 view .LVU132
 569:Core/Src/main.c ****       }
 545              		.loc 1 569 23 is_stmt 0 view .LVU133
 546 009a 0E4B     		ldr	r3, .L36+28
 547 009c 0122     		movs	r2, #1
 548 009e 1A70     		strb	r2, [r3]
 549 00a0 D9E7     		b	.L22
 550              	.LVL28:
 551              	.L30:
 582:Core/Src/main.c ****       {
 552              		.loc 1 582 7 is_stmt 1 view .LVU134
 582:Core/Src/main.c ****       {
 553              		.loc 1 582 10 is_stmt 0 view .LVU135
 554 00a2 074B     		ldr	r3, .L36+8
 555 00a4 1B78     		ldrb	r3, [r3]	@ zero_extendqisi2
 582:Core/Src/main.c ****       {
 556              		.loc 1 582 9 view .LVU136
 557 00a6 002B     		cmp	r3, #0
 558 00a8 D5D0     		beq	.L22
 584:Core/Src/main.c ****         outsideKeyRead = true;
 559              		.loc 1 584 9 is_stmt 1 view .LVU137
 560 00aa FFF7FEFF 		bl	ReadD1
 561              	.LVL29:
 585:Core/Src/main.c ****       }
 562              		.loc 1 585 9 view .LVU138
 585:Core/Src/main.c ****       }
 563              		.loc 1 585 24 is_stmt 0 view .LVU139
 564 00ae 054B     		ldr	r3, .L36+12
 565 00b0 0122     		movs	r2, #1
 566 00b2 1A70     		strb	r2, [r3]
 567              		.loc 1 592 1 view .LVU140
 568 00b4 CFE7     		b	.L22
 569              	.L37:
 570 00b6 00BF     		.align	2
 571              	.L36:
 572 00b8 00100140 		.word	1073811456
 573 00bc 00000000 		.word	.LANCHOR3
 574 00c0 00000000 		.word	.LANCHOR8
 575 00c4 00000000 		.word	.LANCHOR10
 576 00c8 00000000 		.word	.LANCHOR5
 577 00cc 00000000 		.word	.LANCHOR6
ARM GAS  C:\Users\Admin\AppData\Local\Temp\ccvLA4Tr.s 			page 22


 578 00d0 00000000 		.word	.LANCHOR7
 579 00d4 00000000 		.word	.LANCHOR9
 580              		.cfi_endproc
 581              	.LFE89:
 583              		.section	.text.verifyCode,"ax",%progbits
 584              		.align	1
 585              		.global	verifyCode
 586              		.syntax unified
 587              		.thumb
 588              		.thumb_func
 589              		.fpu softvfp
 591              	verifyCode:
 592              	.LVL30:
 593              	.LFB90:
 593:Core/Src/main.c **** 
 594:Core/Src/main.c **** /**
 595:Core/Src/main.c ****   @brief Verify if intercom code is valid
 596:Core/Src/main.c ****   @param code Intercom code to verify
 597:Core/Src/main.c ****   @retval bool value
 598:Core/Src/main.c **** */
 599:Core/Src/main.c **** bool verifyCode(uint32_t code)
 600:Core/Src/main.c **** {
 594              		.loc 1 600 1 is_stmt 1 view -0
 595              		.cfi_startproc
 596              		@ args = 0, pretend = 0, frame = 0
 597              		@ frame_needed = 0, uses_anonymous_args = 0
 598              		@ link register save eliminated.
 601:Core/Src/main.c ****   uint32_t codes[] = {
 599              		.loc 1 601 3 view .LVU142
 602:Core/Src/main.c ****     12563593
 603:Core/Src/main.c ****   };
 604:Core/Src/main.c **** 
 605:Core/Src/main.c ****   for(int i = 0; i < sizeof(codes)/sizeof(codes[0]); i++){
 600              		.loc 1 605 3 view .LVU143
 601              	.LBB7:
 602              		.loc 1 605 7 view .LVU144
 603              		.loc 1 605 11 is_stmt 0 view .LVU145
 604 0000 0023     		movs	r3, #0
 605              	.LVL31:
 606              	.L39:
 607              		.loc 1 605 18 is_stmt 1 discriminator 1 view .LVU146
 608              		.loc 1 605 3 is_stmt 0 discriminator 1 view .LVU147
 609 0002 0BB1     		cbz	r3, .L41
 610              	.LBE7:
 606:Core/Src/main.c ****     if(code == codes[i])
 607:Core/Src/main.c ****       return true;
 608:Core/Src/main.c ****   }
 609:Core/Src/main.c **** 
 610:Core/Src/main.c ****   return false;
 611              		.loc 1 610 10 view .LVU148
 612 0004 0020     		movs	r0, #0
 613              	.LVL32:
 614              	.LBB8:
 615              		.loc 1 610 10 view .LVU149
 616 0006 7047     		bx	lr
 617              	.LVL33:
 618              	.L41:
ARM GAS  C:\Users\Admin\AppData\Local\Temp\ccvLA4Tr.s 			page 23


 606:Core/Src/main.c ****     if(code == codes[i])
 619              		.loc 1 606 5 is_stmt 1 view .LVU150
 606:Core/Src/main.c ****     if(code == codes[i])
 620              		.loc 1 606 7 is_stmt 0 view .LVU151
 621 0008 034A     		ldr	r2, .L43
 622 000a 9042     		cmp	r0, r2
 623 000c 01D0     		beq	.L42
 605:Core/Src/main.c ****     if(code == codes[i])
 624              		.loc 1 605 54 is_stmt 1 discriminator 2 view .LVU152
 605:Core/Src/main.c ****     if(code == codes[i])
 625              		.loc 1 605 55 is_stmt 0 discriminator 2 view .LVU153
 626 000e 0133     		adds	r3, r3, #1
 627              	.LVL34:
 605:Core/Src/main.c ****     if(code == codes[i])
 628              		.loc 1 605 55 discriminator 2 view .LVU154
 629 0010 F7E7     		b	.L39
 630              	.L42:
 607:Core/Src/main.c ****   }
 631              		.loc 1 607 14 view .LVU155
 632 0012 0120     		movs	r0, #1
 633              	.LVL35:
 607:Core/Src/main.c ****   }
 634              		.loc 1 607 14 view .LVU156
 635              	.LBE8:
 611:Core/Src/main.c **** }
 636              		.loc 1 611 1 view .LVU157
 637 0014 7047     		bx	lr
 638              	.L44:
 639 0016 00BF     		.align	2
 640              	.L43:
 641 0018 89B4BF00 		.word	12563593
 642              		.cfi_endproc
 643              	.LFE90:
 645              		.section	.text.UART_Printf,"ax",%progbits
 646              		.align	1
 647              		.global	UART_Printf
 648              		.syntax unified
 649              		.thumb
 650              		.thumb_func
 651              		.fpu softvfp
 653              	UART_Printf:
 654              	.LVL36:
 655              	.LFB91:
 612:Core/Src/main.c **** 
 613:Core/Src/main.c **** /**
 614:Core/Src/main.c ****   @brief Print a string to the terminal
 615:Core/Src/main.c **** */
 616:Core/Src/main.c **** void UART_Printf(const char *fmt, ...)
 617:Core/Src/main.c **** {
 656              		.loc 1 617 1 is_stmt 1 view -0
 657              		.cfi_startproc
 658              		@ args = 4, pretend = 16, frame = 264
 659              		@ frame_needed = 0, uses_anonymous_args = 1
 660              		.loc 1 617 1 is_stmt 0 view .LVU159
 661 0000 0FB4     		push	{r0, r1, r2, r3}
 662              	.LCFI5:
 663              		.cfi_def_cfa_offset 16
ARM GAS  C:\Users\Admin\AppData\Local\Temp\ccvLA4Tr.s 			page 24


 664              		.cfi_offset 0, -16
 665              		.cfi_offset 1, -12
 666              		.cfi_offset 2, -8
 667              		.cfi_offset 3, -4
 668 0002 00B5     		push	{lr}
 669              	.LCFI6:
 670              		.cfi_def_cfa_offset 20
 671              		.cfi_offset 14, -20
 672 0004 C3B0     		sub	sp, sp, #268
 673              	.LCFI7:
 674              		.cfi_def_cfa_offset 288
 675 0006 44AB     		add	r3, sp, #272
 676 0008 53F8042B 		ldr	r2, [r3], #4
 618:Core/Src/main.c ****   char buff[256];
 677              		.loc 1 618 3 is_stmt 1 view .LVU160
 619:Core/Src/main.c ****   va_list args;
 678              		.loc 1 619 3 view .LVU161
 620:Core/Src/main.c ****   va_start(args, fmt);
 679              		.loc 1 620 3 view .LVU162
 680 000c 0193     		str	r3, [sp, #4]
 621:Core/Src/main.c ****   vsnprintf(buff, sizeof(buff), fmt, args);
 681              		.loc 1 621 3 view .LVU163
 682 000e 4FF48071 		mov	r1, #256
 683 0012 02A8     		add	r0, sp, #8
 684 0014 FFF7FEFF 		bl	vsnprintf
 685              	.LVL37:
 622:Core/Src/main.c ****   HAL_UART_Transmit(&huart1, (uint8_t *)buff, strlen(buff), HAL_MAX_DELAY);
 686              		.loc 1 622 3 view .LVU164
 687              		.loc 1 622 47 is_stmt 0 view .LVU165
 688 0018 02A8     		add	r0, sp, #8
 689 001a FFF7FEFF 		bl	strlen
 690              	.LVL38:
 691              		.loc 1 622 3 view .LVU166
 692 001e 4FF0FF33 		mov	r3, #-1
 693 0022 82B2     		uxth	r2, r0
 694 0024 02A9     		add	r1, sp, #8
 695 0026 0448     		ldr	r0, .L47
 696 0028 FFF7FEFF 		bl	HAL_UART_Transmit
 697              	.LVL39:
 623:Core/Src/main.c ****   va_end(args);
 698              		.loc 1 623 3 is_stmt 1 view .LVU167
 624:Core/Src/main.c **** }
 699              		.loc 1 624 1 is_stmt 0 view .LVU168
 700 002c 43B0     		add	sp, sp, #268
 701              	.LCFI8:
 702              		.cfi_def_cfa_offset 20
 703              		@ sp needed
 704 002e 5DF804EB 		ldr	lr, [sp], #4
 705              	.LCFI9:
 706              		.cfi_restore 14
 707              		.cfi_def_cfa_offset 16
 708 0032 04B0     		add	sp, sp, #16
 709              	.LCFI10:
 710              		.cfi_restore 3
 711              		.cfi_restore 2
 712              		.cfi_restore 1
 713              		.cfi_restore 0
ARM GAS  C:\Users\Admin\AppData\Local\Temp\ccvLA4Tr.s 			page 25


 714              		.cfi_def_cfa_offset 0
 715 0034 7047     		bx	lr
 716              	.L48:
 717 0036 00BF     		.align	2
 718              	.L47:
 719 0038 00000000 		.word	.LANCHOR11
 720              		.cfi_endproc
 721              	.LFE91:
 723              		.section	.rodata.timeTrackEvent.str1.4,"aMS",%progbits,1
 724              		.align	2
 725              	.LC0:
 726 0000 54696D65 		.ascii	"Time passed: %d\015\012\000"
 726      20706173 
 726      7365643A 
 726      2025640D 
 726      0A00
 727              		.section	.text.timeTrackEvent,"ax",%progbits
 728              		.align	1
 729              		.global	timeTrackEvent
 730              		.syntax unified
 731              		.thumb
 732              		.thumb_func
 733              		.fpu softvfp
 735              	timeTrackEvent:
 736              	.LFB79:
 370:Core/Src/main.c ****   if((HAL_GetTick() - timmeTrack) > 1000)
 737              		.loc 1 370 1 is_stmt 1 view -0
 738              		.cfi_startproc
 739              		@ args = 0, pretend = 0, frame = 0
 740              		@ frame_needed = 0, uses_anonymous_args = 0
 741 0000 08B5     		push	{r3, lr}
 742              	.LCFI11:
 743              		.cfi_def_cfa_offset 8
 744              		.cfi_offset 3, -8
 745              		.cfi_offset 14, -4
 371:Core/Src/main.c ****   {
 746              		.loc 1 371 3 view .LVU170
 371:Core/Src/main.c ****   {
 747              		.loc 1 371 7 is_stmt 0 view .LVU171
 748 0002 FFF7FEFF 		bl	HAL_GetTick
 749              	.LVL40:
 371:Core/Src/main.c ****   {
 750              		.loc 1 371 21 view .LVU172
 751 0006 0A4B     		ldr	r3, .L53
 752 0008 1B68     		ldr	r3, [r3]
 753 000a C01A     		subs	r0, r0, r3
 371:Core/Src/main.c ****   {
 754              		.loc 1 371 5 view .LVU173
 755 000c B0F57A7F 		cmp	r0, #1000
 756 0010 00D8     		bhi	.L52
 757              	.L49:
 376:Core/Src/main.c **** 
 758              		.loc 1 376 1 view .LVU174
 759 0012 08BD     		pop	{r3, pc}
 760              	.L52:
 373:Core/Src/main.c ****     timmeTrack = HAL_GetTick();
 761              		.loc 1 373 5 is_stmt 1 view .LVU175
ARM GAS  C:\Users\Admin\AppData\Local\Temp\ccvLA4Tr.s 			page 26


 373:Core/Src/main.c ****     timmeTrack = HAL_GetTick();
 762              		.loc 1 373 41 is_stmt 0 view .LVU176
 763 0014 FFF7FEFF 		bl	HAL_GetTick
 764              	.LVL41:
 373:Core/Src/main.c ****     timmeTrack = HAL_GetTick();
 765              		.loc 1 373 5 view .LVU177
 766 0018 064B     		ldr	r3, .L53+4
 767 001a 1968     		ldr	r1, [r3]
 768 001c 411A     		subs	r1, r0, r1
 769 001e 0648     		ldr	r0, .L53+8
 770 0020 FFF7FEFF 		bl	UART_Printf
 771              	.LVL42:
 374:Core/Src/main.c ****   }
 772              		.loc 1 374 5 is_stmt 1 view .LVU178
 374:Core/Src/main.c ****   }
 773              		.loc 1 374 18 is_stmt 0 view .LVU179
 774 0024 FFF7FEFF 		bl	HAL_GetTick
 775              	.LVL43:
 374:Core/Src/main.c ****   }
 776              		.loc 1 374 16 view .LVU180
 777 0028 014B     		ldr	r3, .L53
 778 002a 1860     		str	r0, [r3]
 376:Core/Src/main.c **** 
 779              		.loc 1 376 1 view .LVU181
 780 002c F1E7     		b	.L49
 781              	.L54:
 782 002e 00BF     		.align	2
 783              	.L53:
 784 0030 00000000 		.word	.LANCHOR12
 785 0034 00000000 		.word	.LANCHOR13
 786 0038 00000000 		.word	.LC0
 787              		.cfi_endproc
 788              	.LFE79:
 790              		.section	.rodata.greenLightEvent.str1.4,"aMS",%progbits,1
 791              		.align	2
 792              	.LC1:
 793 0000 556E6B6E 		.ascii	"Unknown relay state.\015\012\000"
 793      6F776E20 
 793      72656C61 
 793      79207374 
 793      6174652E 
 794              		.section	.text.greenLightEvent,"ax",%progbits
 795              		.align	1
 796              		.global	greenLightEvent
 797              		.syntax unified
 798              		.thumb
 799              		.thumb_func
 800              		.fpu softvfp
 802              	greenLightEvent:
 803              	.LFB86:
 505:Core/Src/main.c ****   switch(relayState)
 804              		.loc 1 505 1 is_stmt 1 view -0
 805              		.cfi_startproc
 806              		@ args = 0, pretend = 0, frame = 0
 807              		@ frame_needed = 0, uses_anonymous_args = 0
 808 0000 10B5     		push	{r4, lr}
 809              	.LCFI12:
ARM GAS  C:\Users\Admin\AppData\Local\Temp\ccvLA4Tr.s 			page 27


 810              		.cfi_def_cfa_offset 8
 811              		.cfi_offset 4, -8
 812              		.cfi_offset 14, -4
 506:Core/Src/main.c ****   {
 813              		.loc 1 506 3 view .LVU183
 814 0002 124B     		ldr	r3, .L60
 815 0004 1B78     		ldrb	r3, [r3]	@ zero_extendqisi2
 816 0006 7BB1     		cbz	r3, .L56
 817 0008 012B     		cmp	r3, #1
 818 000a 1BD1     		bne	.L57
 509:Core/Src/main.c ****       HAL_GPIO_WritePin(GreenLed_2_GPIO_Port, GreenLed_2_Pin, SET);
 819              		.loc 1 509 7 view .LVU184
 820 000c 104C     		ldr	r4, .L60+4
 821 000e 0122     		movs	r2, #1
 822 0010 4FF48041 		mov	r1, #16384
 823 0014 2046     		mov	r0, r4
 824 0016 FFF7FEFF 		bl	HAL_GPIO_WritePin
 825              	.LVL44:
 510:Core/Src/main.c ****       break;
 826              		.loc 1 510 7 view .LVU185
 827 001a 0122     		movs	r2, #1
 828 001c 4FF40041 		mov	r1, #32768
 829 0020 2046     		mov	r0, r4
 830 0022 FFF7FEFF 		bl	HAL_GPIO_WritePin
 831              	.LVL45:
 511:Core/Src/main.c ****     case OpenedState:
 832              		.loc 1 511 7 view .LVU186
 833              	.L55:
 519:Core/Src/main.c **** 
 834              		.loc 1 519 1 is_stmt 0 view .LVU187
 835 0026 10BD     		pop	{r4, pc}
 836              	.L56:
 513:Core/Src/main.c ****       HAL_GPIO_WritePin(GreenLed_2_GPIO_Port, GreenLed_2_Pin, RESET);
 837              		.loc 1 513 7 is_stmt 1 view .LVU188
 838 0028 094C     		ldr	r4, .L60+4
 839 002a 0022     		movs	r2, #0
 840 002c 4FF48041 		mov	r1, #16384
 841 0030 2046     		mov	r0, r4
 842 0032 FFF7FEFF 		bl	HAL_GPIO_WritePin
 843              	.LVL46:
 514:Core/Src/main.c ****       break;
 844              		.loc 1 514 7 view .LVU189
 845 0036 0022     		movs	r2, #0
 846 0038 4FF40041 		mov	r1, #32768
 847 003c 2046     		mov	r0, r4
 848 003e FFF7FEFF 		bl	HAL_GPIO_WritePin
 849              	.LVL47:
 515:Core/Src/main.c ****     default:
 850              		.loc 1 515 7 view .LVU190
 851 0042 F0E7     		b	.L55
 852              	.L57:
 517:Core/Src/main.c ****   }
 853              		.loc 1 517 7 view .LVU191
 854 0044 0348     		ldr	r0, .L60+8
 855 0046 FFF7FEFF 		bl	UART_Printf
 856              	.LVL48:
 519:Core/Src/main.c **** 
ARM GAS  C:\Users\Admin\AppData\Local\Temp\ccvLA4Tr.s 			page 28


 857              		.loc 1 519 1 is_stmt 0 view .LVU192
 858 004a ECE7     		b	.L55
 859              	.L61:
 860              		.align	2
 861              	.L60:
 862 004c 00000000 		.word	.LANCHOR4
 863 0050 000C0140 		.word	1073810432
 864 0054 00000000 		.word	.LC1
 865              		.cfi_endproc
 866              	.LFE86:
 868              		.section	.rodata.switchMode.str1.4,"aMS",%progbits,1
 869              		.align	2
 870              	.LC2:
 871 0000 556E6B6E 		.ascii	"Unknown mode switched to normal.\015\012\000"
 871      6F776E20 
 871      6D6F6465 
 871      20737769 
 871      74636865 
 872 0023 00       		.align	2
 873              	.LC3:
 874 0024 53776974 		.ascii	"Switched to mode %d\015\012\000"
 874      63686564 
 874      20746F20 
 874      6D6F6465 
 874      2025640D 
 875              		.section	.text.switchMode,"ax",%progbits
 876              		.align	1
 877              		.global	switchMode
 878              		.syntax unified
 879              		.thumb
 880              		.thumb_func
 881              		.fpu softvfp
 883              	switchMode:
 884              	.LFB92:
 625:Core/Src/main.c **** 
 626:Core/Src/main.c **** /**
 627:Core/Src/main.c ****   * @brief If mode is not 3, increment it. If it is, set mode to 0
 628:Core/Src/main.c **** */
 629:Core/Src/main.c **** void switchMode()
 630:Core/Src/main.c **** {
 885              		.loc 1 630 1 is_stmt 1 view -0
 886              		.cfi_startproc
 887              		@ args = 0, pretend = 0, frame = 0
 888              		@ frame_needed = 0, uses_anonymous_args = 0
 889 0000 08B5     		push	{r3, lr}
 890              	.LCFI13:
 891              		.cfi_def_cfa_offset 8
 892              		.cfi_offset 3, -8
 893              		.cfi_offset 14, -4
 631:Core/Src/main.c ****   switch(workMode)
 894              		.loc 1 631 3 view .LVU194
 895 0002 124B     		ldr	r3, .L71
 896 0004 1B78     		ldrb	r3, [r3]	@ zero_extendqisi2
 897 0006 032B     		cmp	r3, #3
 898 0008 18D8     		bhi	.L63
 899 000a DFE803F0 		tbb	[pc, r3]
 900              	.L65:
ARM GAS  C:\Users\Admin\AppData\Local\Temp\ccvLA4Tr.s 			page 29


 901 000e 02       		.byte	(.L68-.L65)/2
 902 000f 0B       		.byte	(.L67-.L65)/2
 903 0010 0F       		.byte	(.L66-.L65)/2
 904 0011 13       		.byte	(.L64-.L65)/2
 905              		.p2align 1
 906              	.L68:
 632:Core/Src/main.c ****   {
 633:Core/Src/main.c ****     case NormalMode:
 634:Core/Src/main.c ****     {
 635:Core/Src/main.c ****       workMode = ClosedMode;
 907              		.loc 1 635 7 view .LVU195
 908              		.loc 1 635 16 is_stmt 0 view .LVU196
 909 0012 0E4B     		ldr	r3, .L71
 910 0014 0122     		movs	r2, #1
 911 0016 1A70     		strb	r2, [r3]
 636:Core/Src/main.c ****       break;
 912              		.loc 1 636 7 is_stmt 1 view .LVU197
 913              	.L69:
 637:Core/Src/main.c ****     }
 638:Core/Src/main.c ****     case ClosedMode:
 639:Core/Src/main.c ****     {
 640:Core/Src/main.c ****       workMode = OpenMode;
 641:Core/Src/main.c ****       break;
 642:Core/Src/main.c ****     }
 643:Core/Src/main.c ****     case OpenMode:
 644:Core/Src/main.c ****     {
 645:Core/Src/main.c ****       workMode = CondOpenMode;
 646:Core/Src/main.c ****       break;
 647:Core/Src/main.c ****     }
 648:Core/Src/main.c ****     case CondOpenMode:
 649:Core/Src/main.c ****     {
 650:Core/Src/main.c ****       workMode = NormalMode;
 651:Core/Src/main.c ****       break;
 652:Core/Src/main.c ****     }
 653:Core/Src/main.c ****     default:
 654:Core/Src/main.c ****     {
 655:Core/Src/main.c ****       UART_Printf("Unknown mode switched to normal.\r\n");
 656:Core/Src/main.c ****       workMode = NormalMode;
 657:Core/Src/main.c ****       break;
 658:Core/Src/main.c ****     }
 659:Core/Src/main.c ****   }
 660:Core/Src/main.c **** 
 661:Core/Src/main.c ****   UART_Printf("Switched to mode %d\r\n", workMode);
 914              		.loc 1 661 3 view .LVU198
 915 0018 0C4B     		ldr	r3, .L71
 916 001a 1978     		ldrb	r1, [r3]	@ zero_extendqisi2
 917 001c 0C48     		ldr	r0, .L71+4
 918 001e FFF7FEFF 		bl	UART_Printf
 919              	.LVL49:
 662:Core/Src/main.c **** 
 663:Core/Src/main.c ****   return;
 920              		.loc 1 663 3 view .LVU199
 664:Core/Src/main.c **** }
 921              		.loc 1 664 1 is_stmt 0 view .LVU200
 922 0022 08BD     		pop	{r3, pc}
 923              	.L67:
 640:Core/Src/main.c ****       break;
ARM GAS  C:\Users\Admin\AppData\Local\Temp\ccvLA4Tr.s 			page 30


 924              		.loc 1 640 7 is_stmt 1 view .LVU201
 640:Core/Src/main.c ****       break;
 925              		.loc 1 640 16 is_stmt 0 view .LVU202
 926 0024 094B     		ldr	r3, .L71
 927 0026 0222     		movs	r2, #2
 928 0028 1A70     		strb	r2, [r3]
 641:Core/Src/main.c ****     }
 929              		.loc 1 641 7 is_stmt 1 view .LVU203
 930 002a F5E7     		b	.L69
 931              	.L66:
 645:Core/Src/main.c ****       break;
 932              		.loc 1 645 7 view .LVU204
 645:Core/Src/main.c ****       break;
 933              		.loc 1 645 16 is_stmt 0 view .LVU205
 934 002c 074B     		ldr	r3, .L71
 935 002e 0322     		movs	r2, #3
 936 0030 1A70     		strb	r2, [r3]
 646:Core/Src/main.c ****     }
 937              		.loc 1 646 7 is_stmt 1 view .LVU206
 938 0032 F1E7     		b	.L69
 939              	.L64:
 650:Core/Src/main.c ****       break;
 940              		.loc 1 650 7 view .LVU207
 650:Core/Src/main.c ****       break;
 941              		.loc 1 650 16 is_stmt 0 view .LVU208
 942 0034 054B     		ldr	r3, .L71
 943 0036 0022     		movs	r2, #0
 944 0038 1A70     		strb	r2, [r3]
 651:Core/Src/main.c ****     }
 945              		.loc 1 651 7 is_stmt 1 view .LVU209
 946 003a EDE7     		b	.L69
 947              	.L63:
 655:Core/Src/main.c ****       workMode = NormalMode;
 948              		.loc 1 655 7 view .LVU210
 949 003c 0548     		ldr	r0, .L71+8
 950 003e FFF7FEFF 		bl	UART_Printf
 951              	.LVL50:
 656:Core/Src/main.c ****       break;
 952              		.loc 1 656 7 view .LVU211
 656:Core/Src/main.c ****       break;
 953              		.loc 1 656 16 is_stmt 0 view .LVU212
 954 0042 024B     		ldr	r3, .L71
 955 0044 0022     		movs	r2, #0
 956 0046 1A70     		strb	r2, [r3]
 657:Core/Src/main.c ****     }
 957              		.loc 1 657 7 is_stmt 1 view .LVU213
 958 0048 E6E7     		b	.L69
 959              	.L72:
 960 004a 00BF     		.align	2
 961              	.L71:
 962 004c 00000000 		.word	.LANCHOR14
 963 0050 24000000 		.word	.LC3
 964 0054 00000000 		.word	.LC2
 965              		.cfi_endproc
 966              	.LFE92:
 968              		.section	.text.changeModeEvent,"ax",%progbits
 969              		.align	1
ARM GAS  C:\Users\Admin\AppData\Local\Temp\ccvLA4Tr.s 			page 31


 970              		.global	changeModeEvent
 971              		.syntax unified
 972              		.thumb
 973              		.thumb_func
 974              		.fpu softvfp
 976              	changeModeEvent:
 977              	.LFB80:
 383:Core/Src/main.c ****   if( (HAL_GetTick() - timme) > 15000 )
 978              		.loc 1 383 1 view -0
 979              		.cfi_startproc
 980              		@ args = 0, pretend = 0, frame = 0
 981              		@ frame_needed = 0, uses_anonymous_args = 0
 982 0000 08B5     		push	{r3, lr}
 983              	.LCFI14:
 984              		.cfi_def_cfa_offset 8
 985              		.cfi_offset 3, -8
 986              		.cfi_offset 14, -4
 384:Core/Src/main.c ****   {
 987              		.loc 1 384 3 view .LVU215
 384:Core/Src/main.c ****   {
 988              		.loc 1 384 8 is_stmt 0 view .LVU216
 989 0002 FFF7FEFF 		bl	HAL_GetTick
 990              	.LVL51:
 384:Core/Src/main.c ****   {
 991              		.loc 1 384 22 view .LVU217
 992 0006 074B     		ldr	r3, .L77
 993 0008 1B68     		ldr	r3, [r3]
 994 000a C01A     		subs	r0, r0, r3
 384:Core/Src/main.c ****   {
 995              		.loc 1 384 5 view .LVU218
 996 000c 43F69823 		movw	r3, #15000
 997 0010 9842     		cmp	r0, r3
 998 0012 00D8     		bhi	.L76
 999              	.L73:
 389:Core/Src/main.c **** 
 1000              		.loc 1 389 1 view .LVU219
 1001 0014 08BD     		pop	{r3, pc}
 1002              	.L76:
 386:Core/Src/main.c ****     timme = HAL_GetTick();
 1003              		.loc 1 386 5 is_stmt 1 view .LVU220
 1004 0016 FFF7FEFF 		bl	switchMode
 1005              	.LVL52:
 387:Core/Src/main.c ****   }
 1006              		.loc 1 387 5 view .LVU221
 387:Core/Src/main.c ****   }
 1007              		.loc 1 387 13 is_stmt 0 view .LVU222
 1008 001a FFF7FEFF 		bl	HAL_GetTick
 1009              	.LVL53:
 387:Core/Src/main.c ****   }
 1010              		.loc 1 387 11 view .LVU223
 1011 001e 014B     		ldr	r3, .L77
 1012 0020 1860     		str	r0, [r3]
 389:Core/Src/main.c **** 
 1013              		.loc 1 389 1 view .LVU224
 1014 0022 F7E7     		b	.L73
 1015              	.L78:
 1016              		.align	2
ARM GAS  C:\Users\Admin\AppData\Local\Temp\ccvLA4Tr.s 			page 32


 1017              	.L77:
 1018 0024 00000000 		.word	.LANCHOR13
 1019              		.cfi_endproc
 1020              	.LFE80:
 1022              		.section	.rodata.unlockRelay.str1.4,"aMS",%progbits,1
 1023              		.align	2
 1024              	.LC4:
 1025 0000 556E6C6F 		.ascii	"Unlocked the door.\015\012\000"
 1025      636B6564 
 1025      20746865 
 1025      20646F6F 
 1025      722E0D0A 
 1026              		.section	.text.unlockRelay,"ax",%progbits
 1027              		.align	1
 1028              		.global	unlockRelay
 1029              		.syntax unified
 1030              		.thumb
 1031              		.thumb_func
 1032              		.fpu softvfp
 1034              	unlockRelay:
 1035              	.LFB93:
 665:Core/Src/main.c **** 
 666:Core/Src/main.c **** // void blink(uint16_t blinkDurration)
 667:Core/Src/main.c **** // {
 668:Core/Src/main.c **** //   toBlink = true;
 669:Core/Src/main.c **** //   blinkTime = blinkDurration;
 670:Core/Src/main.c **** //   blinkStart = HAL_GetTick();
 671:Core/Src/main.c **** //   HAL_GPIO_WritePin(GreenLed_1_GPIO_Port, GreenLed_1_Pin, RESET);
 672:Core/Src/main.c **** //   HAL_GPIO_WritePin(GreenLed_2_GPIO_Port, GreenLed_2_Pin, RESET);
 673:Core/Src/main.c **** // }
 674:Core/Src/main.c **** 
 675:Core/Src/main.c **** void unlockRelay()
 676:Core/Src/main.c **** {
 1036              		.loc 1 676 1 is_stmt 1 view -0
 1037              		.cfi_startproc
 1038              		@ args = 0, pretend = 0, frame = 0
 1039              		@ frame_needed = 0, uses_anonymous_args = 0
 1040 0000 08B5     		push	{r3, lr}
 1041              	.LCFI15:
 1042              		.cfi_def_cfa_offset 8
 1043              		.cfi_offset 3, -8
 1044              		.cfi_offset 14, -4
 677:Core/Src/main.c ****   UART_Printf("Unlocked the door.\r\n");
 1045              		.loc 1 677 3 view .LVU226
 1046 0002 0848     		ldr	r0, .L81
 1047 0004 FFF7FEFF 		bl	UART_Printf
 1048              	.LVL54:
 678:Core/Src/main.c ****   // relay opening mechanics
 679:Core/Src/main.c ****   relayUnlockingTime = HAL_GetTick();
 1049              		.loc 1 679 3 view .LVU227
 1050              		.loc 1 679 24 is_stmt 0 view .LVU228
 1051 0008 FFF7FEFF 		bl	HAL_GetTick
 1052              	.LVL55:
 1053              		.loc 1 679 22 view .LVU229
 1054 000c 064B     		ldr	r3, .L81+4
 1055 000e 1860     		str	r0, [r3]
 680:Core/Src/main.c ****   relayState = OpenedState;
ARM GAS  C:\Users\Admin\AppData\Local\Temp\ccvLA4Tr.s 			page 33


 1056              		.loc 1 680 3 is_stmt 1 view .LVU230
 1057              		.loc 1 680 14 is_stmt 0 view .LVU231
 1058 0010 064B     		ldr	r3, .L81+8
 1059 0012 0022     		movs	r2, #0
 1060 0014 1A70     		strb	r2, [r3]
 681:Core/Src/main.c ****   previousWorkMode = workMode;
 1061              		.loc 1 681 3 is_stmt 1 view .LVU232
 1062              		.loc 1 681 20 is_stmt 0 view .LVU233
 1063 0016 064B     		ldr	r3, .L81+12
 1064 0018 1978     		ldrb	r1, [r3]	@ zero_extendqisi2
 1065 001a 064A     		ldr	r2, .L81+16
 1066 001c 1170     		strb	r1, [r2]
 682:Core/Src/main.c ****   workMode = TempOpenMode;
 1067              		.loc 1 682 3 is_stmt 1 view .LVU234
 1068              		.loc 1 682 12 is_stmt 0 view .LVU235
 1069 001e 0422     		movs	r2, #4
 1070 0020 1A70     		strb	r2, [r3]
 683:Core/Src/main.c **** }
 1071              		.loc 1 683 1 view .LVU236
 1072 0022 08BD     		pop	{r3, pc}
 1073              	.L82:
 1074              		.align	2
 1075              	.L81:
 1076 0024 00000000 		.word	.LC4
 1077 0028 00000000 		.word	.LANCHOR15
 1078 002c 00000000 		.word	.LANCHOR4
 1079 0030 00000000 		.word	.LANCHOR14
 1080 0034 00000000 		.word	.LANCHOR16
 1081              		.cfi_endproc
 1082              	.LFE93:
 1084              		.section	.rodata.intercomKeyEvent.str1.4,"aMS",%progbits,1
 1085              		.align	2
 1086              	.LC5:
 1087 0000 496E7369 		.ascii	"Inside reader was used.\015\012\000"
 1087      64652072 
 1087      65616465 
 1087      72207761 
 1087      73207573 
 1088 001a 0000     		.align	2
 1089              	.LC6:
 1090 001c 4F757473 		.ascii	"Outside reader was used.\015\012\000"
 1090      69646520 
 1090      72656164 
 1090      65722077 
 1090      61732075 
 1091              		.section	.text.intercomKeyEvent,"ax",%progbits
 1092              		.align	1
 1093              		.global	intercomKeyEvent
 1094              		.syntax unified
 1095              		.thumb
 1096              		.thumb_func
 1097              		.fpu softvfp
 1099              	intercomKeyEvent:
 1100              	.LFB82:
 406:Core/Src/main.c ****   if(wig_available())
 1101              		.loc 1 406 1 is_stmt 1 view -0
 1102              		.cfi_startproc
ARM GAS  C:\Users\Admin\AppData\Local\Temp\ccvLA4Tr.s 			page 34


 1103              		@ args = 0, pretend = 0, frame = 0
 1104              		@ frame_needed = 0, uses_anonymous_args = 0
 1105 0000 08B5     		push	{r3, lr}
 1106              	.LCFI16:
 1107              		.cfi_def_cfa_offset 8
 1108              		.cfi_offset 3, -8
 1109              		.cfi_offset 14, -4
 407:Core/Src/main.c ****   {
 1110              		.loc 1 407 3 view .LVU238
 407:Core/Src/main.c ****   {
 1111              		.loc 1 407 6 is_stmt 0 view .LVU239
 1112 0002 FFF7FEFF 		bl	wig_available
 1113              	.LVL56:
 407:Core/Src/main.c ****   {
 1114              		.loc 1 407 5 view .LVU240
 1115 0006 78B1     		cbz	r0, .L83
 409:Core/Src/main.c ****       UART_Printf("Inside reader was used.\r\n");
 1116              		.loc 1 409 5 is_stmt 1 view .LVU241
 409:Core/Src/main.c ****       UART_Printf("Inside reader was used.\r\n");
 1117              		.loc 1 409 8 is_stmt 0 view .LVU242
 1118 0008 104B     		ldr	r3, .L92
 1119 000a 1B78     		ldrb	r3, [r3]	@ zero_extendqisi2
 409:Core/Src/main.c ****       UART_Printf("Inside reader was used.\r\n");
 1120              		.loc 1 409 7 view .LVU243
 1121 000c 6BB9     		cbnz	r3, .L90
 1122              	.L85:
 412:Core/Src/main.c ****       UART_Printf("Outside reader was used.\r\n");
 1123              		.loc 1 412 5 is_stmt 1 view .LVU244
 412:Core/Src/main.c ****       UART_Printf("Outside reader was used.\r\n");
 1124              		.loc 1 412 8 is_stmt 0 view .LVU245
 1125 000e 104B     		ldr	r3, .L92+4
 1126 0010 1B78     		ldrb	r3, [r3]	@ zero_extendqisi2
 412:Core/Src/main.c ****       UART_Printf("Outside reader was used.\r\n");
 1127              		.loc 1 412 7 view .LVU246
 1128 0012 73B9     		cbnz	r3, .L91
 1129              	.L86:
 415:Core/Src/main.c ****     switch(workMode)
 1130              		.loc 1 415 5 is_stmt 1 view .LVU247
 415:Core/Src/main.c ****     switch(workMode)
 1131              		.loc 1 415 8 is_stmt 0 view .LVU248
 1132 0014 FFF7FEFF 		bl	getCode
 1133              	.LVL57:
 1134 0018 FFF7FEFF 		bl	verifyCode
 1135              	.LVL58:
 415:Core/Src/main.c ****     switch(workMode)
 1136              		.loc 1 415 7 view .LVU249
 1137 001c 20B1     		cbz	r0, .L83
 416:Core/Src/main.c ****     {
 1138              		.loc 1 416 5 is_stmt 1 view .LVU250
 1139 001e 0D4B     		ldr	r3, .L92+8
 1140 0020 1B78     		ldrb	r3, [r3]	@ zero_extendqisi2
 1141 0022 53B1     		cbz	r3, .L87
 1142 0024 032B     		cmp	r3, #3
 1143 0026 0BD0     		beq	.L88
 1144              	.L83:
 438:Core/Src/main.c **** 
 1145              		.loc 1 438 1 is_stmt 0 view .LVU251
ARM GAS  C:\Users\Admin\AppData\Local\Temp\ccvLA4Tr.s 			page 35


 1146 0028 08BD     		pop	{r3, pc}
 1147              	.L90:
 410:Core/Src/main.c **** 
 1148              		.loc 1 410 7 is_stmt 1 view .LVU252
 1149 002a 0B48     		ldr	r0, .L92+12
 1150 002c FFF7FEFF 		bl	UART_Printf
 1151              	.LVL59:
 1152 0030 EDE7     		b	.L85
 1153              	.L91:
 413:Core/Src/main.c **** 
 1154              		.loc 1 413 7 view .LVU253
 1155 0032 0A48     		ldr	r0, .L92+16
 1156 0034 FFF7FEFF 		bl	UART_Printf
 1157              	.LVL60:
 1158 0038 ECE7     		b	.L86
 1159              	.L87:
 419:Core/Src/main.c ****         break;
 1160              		.loc 1 419 9 view .LVU254
 1161 003a FFF7FEFF 		bl	unlockRelay
 1162              	.LVL61:
 420:Core/Src/main.c **** 
 1163              		.loc 1 420 9 view .LVU255
 1164 003e F3E7     		b	.L83
 1165              	.L88:
 430:Core/Src/main.c ****         unlockRelay();
 1166              		.loc 1 430 9 view .LVU256
 430:Core/Src/main.c ****         unlockRelay();
 1167              		.loc 1 430 18 is_stmt 0 view .LVU257
 1168 0040 044B     		ldr	r3, .L92+8
 1169 0042 0222     		movs	r2, #2
 1170 0044 1A70     		strb	r2, [r3]
 431:Core/Src/main.c ****         break;
 1171              		.loc 1 431 9 is_stmt 1 view .LVU258
 1172 0046 FFF7FEFF 		bl	unlockRelay
 1173              	.LVL62:
 432:Core/Src/main.c **** 
 1174              		.loc 1 432 9 view .LVU259
 438:Core/Src/main.c **** 
 1175              		.loc 1 438 1 is_stmt 0 view .LVU260
 1176 004a EDE7     		b	.L83
 1177              	.L93:
 1178              		.align	2
 1179              	.L92:
 1180 004c 00000000 		.word	.LANCHOR9
 1181 0050 00000000 		.word	.LANCHOR10
 1182 0054 00000000 		.word	.LANCHOR14
 1183 0058 00000000 		.word	.LC5
 1184 005c 1C000000 		.word	.LC6
 1185              		.cfi_endproc
 1186              	.LFE82:
 1188              		.section	.rodata.buttonPressedEvent.str1.4,"aMS",%progbits,1
 1189              		.align	2
 1190              	.LC7:
 1191 0000 496E7369 		.ascii	"Inside button was pressed.\015\012\000"
 1191      64652062 
 1191      7574746F 
 1191      6E207761 
ARM GAS  C:\Users\Admin\AppData\Local\Temp\ccvLA4Tr.s 			page 36


 1191      73207072 
 1192 001d 000000   		.align	2
 1193              	.LC8:
 1194 0020 4F757473 		.ascii	"Outside button was pressed.\015\012\000"
 1194      69646520 
 1194      62757474 
 1194      6F6E2077 
 1194      61732070 
 1195              		.section	.text.buttonPressedEvent,"ax",%progbits
 1196              		.align	1
 1197              		.global	buttonPressedEvent
 1198              		.syntax unified
 1199              		.thumb
 1200              		.thumb_func
 1201              		.fpu softvfp
 1203              	buttonPressedEvent:
 1204              	.LFB83:
 445:Core/Src/main.c ****   if(insideButtonPressed)
 1205              		.loc 1 445 1 is_stmt 1 view -0
 1206              		.cfi_startproc
 1207              		@ args = 0, pretend = 0, frame = 0
 1208              		@ frame_needed = 0, uses_anonymous_args = 0
 1209 0000 08B5     		push	{r3, lr}
 1210              	.LCFI17:
 1211              		.cfi_def_cfa_offset 8
 1212              		.cfi_offset 3, -8
 1213              		.cfi_offset 14, -4
 446:Core/Src/main.c ****     UART_Printf("Inside button was pressed.\r\n");
 1214              		.loc 1 446 3 view .LVU262
 446:Core/Src/main.c ****     UART_Printf("Inside button was pressed.\r\n");
 1215              		.loc 1 446 6 is_stmt 0 view .LVU263
 1216 0002 134B     		ldr	r3, .L105
 1217 0004 1B78     		ldrb	r3, [r3]	@ zero_extendqisi2
 446:Core/Src/main.c ****     UART_Printf("Inside button was pressed.\r\n");
 1218              		.loc 1 446 5 view .LVU264
 1219 0006 93B9     		cbnz	r3, .L103
 1220              	.L95:
 449:Core/Src/main.c ****     UART_Printf("Outside button was pressed.\r\n");
 1221              		.loc 1 449 3 is_stmt 1 view .LVU265
 449:Core/Src/main.c ****     UART_Printf("Outside button was pressed.\r\n");
 1222              		.loc 1 449 6 is_stmt 0 view .LVU266
 1223 0008 124B     		ldr	r3, .L105+4
 1224 000a 1B78     		ldrb	r3, [r3]	@ zero_extendqisi2
 449:Core/Src/main.c ****     UART_Printf("Outside button was pressed.\r\n");
 1225              		.loc 1 449 5 view .LVU267
 1226 000c 9BB9     		cbnz	r3, .L104
 1227              	.L96:
 452:Core/Src/main.c ****   {
 1228              		.loc 1 452 3 is_stmt 1 view .LVU268
 452:Core/Src/main.c ****   {
 1229              		.loc 1 452 6 is_stmt 0 view .LVU269
 1230 000e 114B     		ldr	r3, .L105+4
 1231 0010 1B78     		ldrb	r3, [r3]	@ zero_extendqisi2
 452:Core/Src/main.c ****   {
 1232              		.loc 1 452 5 view .LVU270
 1233 0012 13B9     		cbnz	r3, .L97
 452:Core/Src/main.c ****   {
ARM GAS  C:\Users\Admin\AppData\Local\Temp\ccvLA4Tr.s 			page 37


 1234              		.loc 1 452 27 discriminator 1 view .LVU271
 1235 0014 0E4B     		ldr	r3, .L105
 1236 0016 1B78     		ldrb	r3, [r3]	@ zero_extendqisi2
 1237 0018 C3B1     		cbz	r3, .L94
 1238              	.L97:
 454:Core/Src/main.c ****     {
 1239              		.loc 1 454 5 is_stmt 1 view .LVU272
 1240 001a 0F4B     		ldr	r3, .L105+8
 1241 001c 1B78     		ldrb	r3, [r3]	@ zero_extendqisi2
 1242 001e 012B     		cmp	r3, #1
 1243 0020 0DD9     		bls	.L99
 1244 0022 032B     		cmp	r3, #3
 1245 0024 0DD1     		bne	.L101
 466:Core/Src/main.c ****         break;
 1246              		.loc 1 466 9 view .LVU273
 466:Core/Src/main.c ****         break;
 1247              		.loc 1 466 18 is_stmt 0 view .LVU274
 1248 0026 0C4B     		ldr	r3, .L105+8
 1249 0028 0222     		movs	r2, #2
 1250 002a 1A70     		strb	r2, [r3]
 467:Core/Src/main.c **** 
 1251              		.loc 1 467 9 is_stmt 1 view .LVU275
 1252 002c 09E0     		b	.L101
 1253              	.L103:
 447:Core/Src/main.c **** 
 1254              		.loc 1 447 5 view .LVU276
 1255 002e 0B48     		ldr	r0, .L105+12
 1256 0030 FFF7FEFF 		bl	UART_Printf
 1257              	.LVL63:
 1258 0034 E8E7     		b	.L95
 1259              	.L104:
 450:Core/Src/main.c ****  
 1260              		.loc 1 450 5 view .LVU277
 1261 0036 0A48     		ldr	r0, .L105+16
 1262 0038 FFF7FEFF 		bl	UART_Printf
 1263              	.LVL64:
 1264 003c E7E7     		b	.L96
 1265              	.L99:
 458:Core/Src/main.c ****         break;
 1266              		.loc 1 458 9 view .LVU278
 1267 003e FFF7FEFF 		bl	unlockRelay
 1268              	.LVL65:
 459:Core/Src/main.c **** 
 1269              		.loc 1 459 9 view .LVU279
 1270              	.L101:
 472:Core/Src/main.c ****     insideButtonPressed = false;
 1271              		.loc 1 472 5 view .LVU280
 472:Core/Src/main.c ****     insideButtonPressed = false;
 1272              		.loc 1 472 26 is_stmt 0 view .LVU281
 1273 0042 0023     		movs	r3, #0
 1274 0044 034A     		ldr	r2, .L105+4
 1275 0046 1370     		strb	r3, [r2]
 473:Core/Src/main.c ****   }
 1276              		.loc 1 473 5 is_stmt 1 view .LVU282
 473:Core/Src/main.c ****   }
 1277              		.loc 1 473 25 is_stmt 0 view .LVU283
 1278 0048 014A     		ldr	r2, .L105
ARM GAS  C:\Users\Admin\AppData\Local\Temp\ccvLA4Tr.s 			page 38


 1279 004a 1370     		strb	r3, [r2]
 1280              	.L94:
 475:Core/Src/main.c **** 
 1281              		.loc 1 475 1 view .LVU284
 1282 004c 08BD     		pop	{r3, pc}
 1283              	.L106:
 1284 004e 00BF     		.align	2
 1285              	.L105:
 1286 0050 00000000 		.word	.LANCHOR5
 1287 0054 00000000 		.word	.LANCHOR6
 1288 0058 00000000 		.word	.LANCHOR14
 1289 005c 00000000 		.word	.LC7
 1290 0060 20000000 		.word	.LC8
 1291              		.cfi_endproc
 1292              	.LFE83:
 1294              		.section	.rodata.lockDoor.str1.4,"aMS",%progbits,1
 1295              		.align	2
 1296              	.LC9:
 1297 0000 4572726F 		.ascii	"Error. Door is not closed\015\012\000"
 1297      722E2044 
 1297      6F6F7220 
 1297      6973206E 
 1297      6F742063 
 1298              		.section	.text.lockDoor,"ax",%progbits
 1299              		.align	1
 1300              		.global	lockDoor
 1301              		.syntax unified
 1302              		.thumb
 1303              		.thumb_func
 1304              		.fpu softvfp
 1306              	lockDoor:
 1307              	.LFB94:
 684:Core/Src/main.c **** 
 685:Core/Src/main.c **** void lockDoor()
 686:Core/Src/main.c **** {
 1308              		.loc 1 686 1 is_stmt 1 view -0
 1309              		.cfi_startproc
 1310              		@ args = 0, pretend = 0, frame = 0
 1311              		@ frame_needed = 0, uses_anonymous_args = 0
 1312 0000 10B5     		push	{r4, lr}
 1313              	.LCFI18:
 1314              		.cfi_def_cfa_offset 8
 1315              		.cfi_offset 4, -8
 1316              		.cfi_offset 14, -4
 687:Core/Src/main.c ****   if(doorState == ClosedState)
 1317              		.loc 1 687 3 view .LVU286
 1318              		.loc 1 687 16 is_stmt 0 view .LVU287
 1319 0002 0B4B     		ldr	r3, .L112
 1320 0004 1B78     		ldrb	r3, [r3]	@ zero_extendqisi2
 1321              		.loc 1 687 5 view .LVU288
 1322 0006 012B     		cmp	r3, #1
 1323 0008 03D0     		beq	.L111
 688:Core/Src/main.c ****   {
 689:Core/Src/main.c ****     HAL_GPIO_WritePin(GPIOB, GreenLed_1_Pin, SET);
 690:Core/Src/main.c ****     HAL_GPIO_WritePin(GPIOB, GreenLed_2_Pin, SET);
 691:Core/Src/main.c ****   }
 692:Core/Src/main.c ****   else
ARM GAS  C:\Users\Admin\AppData\Local\Temp\ccvLA4Tr.s 			page 39


 693:Core/Src/main.c ****   {
 694:Core/Src/main.c ****     UART_Printf("Error. Door is not closed\r\n");
 1324              		.loc 1 694 5 is_stmt 1 view .LVU289
 1325 000a 0A48     		ldr	r0, .L112+4
 1326 000c FFF7FEFF 		bl	UART_Printf
 1327              	.LVL66:
 1328              	.L107:
 695:Core/Src/main.c ****   }
 696:Core/Src/main.c **** }
 1329              		.loc 1 696 1 is_stmt 0 view .LVU290
 1330 0010 10BD     		pop	{r4, pc}
 1331              	.L111:
 689:Core/Src/main.c ****     HAL_GPIO_WritePin(GPIOB, GreenLed_2_Pin, SET);
 1332              		.loc 1 689 5 is_stmt 1 view .LVU291
 1333 0012 094C     		ldr	r4, .L112+8
 1334 0014 0122     		movs	r2, #1
 1335 0016 4FF48041 		mov	r1, #16384
 1336 001a 2046     		mov	r0, r4
 1337 001c FFF7FEFF 		bl	HAL_GPIO_WritePin
 1338              	.LVL67:
 690:Core/Src/main.c ****   }
 1339              		.loc 1 690 5 view .LVU292
 1340 0020 0122     		movs	r2, #1
 1341 0022 4FF40041 		mov	r1, #32768
 1342 0026 2046     		mov	r0, r4
 1343 0028 FFF7FEFF 		bl	HAL_GPIO_WritePin
 1344              	.LVL68:
 1345 002c F0E7     		b	.L107
 1346              	.L113:
 1347 002e 00BF     		.align	2
 1348              	.L112:
 1349 0030 00000000 		.word	.LANCHOR3
 1350 0034 00000000 		.word	.LC9
 1351 0038 000C0140 		.word	1073810432
 1352              		.cfi_endproc
 1353              	.LFE94:
 1355              		.section	.text.doorUnlockEvent,"ax",%progbits
 1356              		.align	1
 1357              		.global	doorUnlockEvent
 1358              		.syntax unified
 1359              		.thumb
 1360              		.thumb_func
 1361              		.fpu softvfp
 1363              	doorUnlockEvent:
 1364              	.LFB84:
 478:Core/Src/main.c ****   if(doorRecentlyClosed)
 1365              		.loc 1 478 1 view -0
 1366              		.cfi_startproc
 1367              		@ args = 0, pretend = 0, frame = 0
 1368              		@ frame_needed = 0, uses_anonymous_args = 0
 1369 0000 08B5     		push	{r3, lr}
 1370              	.LCFI19:
 1371              		.cfi_def_cfa_offset 8
 1372              		.cfi_offset 3, -8
 1373              		.cfi_offset 14, -4
 479:Core/Src/main.c ****   {
 1374              		.loc 1 479 3 view .LVU294
ARM GAS  C:\Users\Admin\AppData\Local\Temp\ccvLA4Tr.s 			page 40


 479:Core/Src/main.c ****   {
 1375              		.loc 1 479 6 is_stmt 0 view .LVU295
 1376 0002 114B     		ldr	r3, .L121
 1377 0004 1B78     		ldrb	r3, [r3]	@ zero_extendqisi2
 479:Core/Src/main.c ****   {
 1378              		.loc 1 479 5 view .LVU296
 1379 0006 7BB9     		cbnz	r3, .L119
 1380              	.L115:
 485:Core/Src/main.c ****   {
 1381              		.loc 1 485 3 is_stmt 1 view .LVU297
 485:Core/Src/main.c ****   {
 1382              		.loc 1 485 7 is_stmt 0 view .LVU298
 1383 0008 FFF7FEFF 		bl	HAL_GetTick
 1384              	.LVL69:
 485:Core/Src/main.c ****   {
 1385              		.loc 1 485 21 view .LVU299
 1386 000c 0F4B     		ldr	r3, .L121+4
 1387 000e 1B68     		ldr	r3, [r3]
 1388 0010 C01A     		subs	r0, r0, r3
 485:Core/Src/main.c ****   {
 1389              		.loc 1 485 5 view .LVU300
 1390 0012 42F21073 		movw	r3, #10000
 1391 0016 9842     		cmp	r0, r3
 1392 0018 0CD9     		bls	.L116
 485:Core/Src/main.c ****   {
 1393              		.loc 1 485 54 discriminator 1 view .LVU301
 1394 001a 0B4B     		ldr	r3, .L121
 1395 001c 1B78     		ldrb	r3, [r3]	@ zero_extendqisi2
 485:Core/Src/main.c ****   {
 1396              		.loc 1 485 51 discriminator 1 view .LVU302
 1397 001e 4BB9     		cbnz	r3, .L116
 487:Core/Src/main.c ****   }
 1398              		.loc 1 487 5 is_stmt 1 view .LVU303
 487:Core/Src/main.c ****   }
 1399              		.loc 1 487 16 is_stmt 0 view .LVU304
 1400 0020 0B4B     		ldr	r3, .L121+8
 1401 0022 0022     		movs	r2, #0
 1402 0024 1A70     		strb	r2, [r3]
 1403 0026 09E0     		b	.L114
 1404              	.L119:
 481:Core/Src/main.c ****     doorRecentlyClosed = false;
 1405              		.loc 1 481 5 is_stmt 1 view .LVU305
 1406 0028 FFF7FEFF 		bl	lockDoor
 1407              	.LVL70:
 482:Core/Src/main.c ****   }
 1408              		.loc 1 482 5 view .LVU306
 482:Core/Src/main.c ****   }
 1409              		.loc 1 482 24 is_stmt 0 view .LVU307
 1410 002c 064B     		ldr	r3, .L121
 1411 002e 0022     		movs	r2, #0
 1412 0030 1A70     		strb	r2, [r3]
 1413 0032 E9E7     		b	.L115
 1414              	.L116:
 489:Core/Src/main.c ****   {
 1415              		.loc 1 489 8 is_stmt 1 view .LVU308
 489:Core/Src/main.c ****   {
 1416              		.loc 1 489 21 is_stmt 0 view .LVU309
ARM GAS  C:\Users\Admin\AppData\Local\Temp\ccvLA4Tr.s 			page 41


 1417 0034 074B     		ldr	r3, .L121+12
 1418 0036 1B78     		ldrb	r3, [r3]	@ zero_extendqisi2
 489:Core/Src/main.c ****   {
 1419              		.loc 1 489 10 view .LVU310
 1420 0038 012B     		cmp	r3, #1
 1421 003a 00D0     		beq	.L120
 1422              	.L114:
 493:Core/Src/main.c **** 
 1423              		.loc 1 493 1 view .LVU311
 1424 003c 08BD     		pop	{r3, pc}
 1425              	.L120:
 491:Core/Src/main.c ****   }
 1426              		.loc 1 491 5 is_stmt 1 view .LVU312
 491:Core/Src/main.c ****   }
 1427              		.loc 1 491 16 is_stmt 0 view .LVU313
 1428 003e 044B     		ldr	r3, .L121+8
 1429 0040 0122     		movs	r2, #1
 1430 0042 1A70     		strb	r2, [r3]
 493:Core/Src/main.c **** 
 1431              		.loc 1 493 1 view .LVU314
 1432 0044 FAE7     		b	.L114
 1433              	.L122:
 1434 0046 00BF     		.align	2
 1435              	.L121:
 1436 0048 00000000 		.word	.LANCHOR7
 1437 004c 00000000 		.word	.LANCHOR15
 1438 0050 00000000 		.word	.LANCHOR17
 1439 0054 00000000 		.word	.LANCHOR3
 1440              		.cfi_endproc
 1441              	.LFE84:
 1443              		.section	.text.Error_Handler,"ax",%progbits
 1444              		.align	1
 1445              		.global	Error_Handler
 1446              		.syntax unified
 1447              		.thumb
 1448              		.thumb_func
 1449              		.fpu softvfp
 1451              	Error_Handler:
 1452              	.LFB95:
 697:Core/Src/main.c **** /* USER CODE END 4 */
 698:Core/Src/main.c **** 
 699:Core/Src/main.c **** /**
 700:Core/Src/main.c ****   * @brief  This function is executed in case of error occurrence.
 701:Core/Src/main.c ****   * @retval None
 702:Core/Src/main.c ****   */
 703:Core/Src/main.c **** void Error_Handler(void)
 704:Core/Src/main.c **** {
 1453              		.loc 1 704 1 is_stmt 1 view -0
 1454              		.cfi_startproc
 1455              		@ Volatile: function does not return.
 1456              		@ args = 0, pretend = 0, frame = 0
 1457              		@ frame_needed = 0, uses_anonymous_args = 0
 1458              		@ link register save eliminated.
 705:Core/Src/main.c ****   /* USER CODE BEGIN Error_Handler_Debug */
 706:Core/Src/main.c ****   /* User can add his own implementation to report the HAL error return state */
 707:Core/Src/main.c ****   __disable_irq();
 1459              		.loc 1 707 3 view .LVU316
ARM GAS  C:\Users\Admin\AppData\Local\Temp\ccvLA4Tr.s 			page 42


 1460              	.LBB9:
 1461              	.LBI9:
 1462              		.file 2 "Drivers/CMSIS/Include/cmsis_gcc.h"
   1:Drivers/CMSIS/Include/cmsis_gcc.h **** /**************************************************************************//**
   2:Drivers/CMSIS/Include/cmsis_gcc.h ****  * @file     cmsis_gcc.h
   3:Drivers/CMSIS/Include/cmsis_gcc.h ****  * @brief    CMSIS compiler GCC header file
   4:Drivers/CMSIS/Include/cmsis_gcc.h ****  * @version  V5.0.4
   5:Drivers/CMSIS/Include/cmsis_gcc.h ****  * @date     09. April 2018
   6:Drivers/CMSIS/Include/cmsis_gcc.h ****  ******************************************************************************/
   7:Drivers/CMSIS/Include/cmsis_gcc.h **** /*
   8:Drivers/CMSIS/Include/cmsis_gcc.h ****  * Copyright (c) 2009-2018 Arm Limited. All rights reserved.
   9:Drivers/CMSIS/Include/cmsis_gcc.h ****  *
  10:Drivers/CMSIS/Include/cmsis_gcc.h ****  * SPDX-License-Identifier: Apache-2.0
  11:Drivers/CMSIS/Include/cmsis_gcc.h ****  *
  12:Drivers/CMSIS/Include/cmsis_gcc.h ****  * Licensed under the Apache License, Version 2.0 (the License); you may
  13:Drivers/CMSIS/Include/cmsis_gcc.h ****  * not use this file except in compliance with the License.
  14:Drivers/CMSIS/Include/cmsis_gcc.h ****  * You may obtain a copy of the License at
  15:Drivers/CMSIS/Include/cmsis_gcc.h ****  *
  16:Drivers/CMSIS/Include/cmsis_gcc.h ****  * www.apache.org/licenses/LICENSE-2.0
  17:Drivers/CMSIS/Include/cmsis_gcc.h ****  *
  18:Drivers/CMSIS/Include/cmsis_gcc.h ****  * Unless required by applicable law or agreed to in writing, software
  19:Drivers/CMSIS/Include/cmsis_gcc.h ****  * distributed under the License is distributed on an AS IS BASIS, WITHOUT
  20:Drivers/CMSIS/Include/cmsis_gcc.h ****  * WARRANTIES OR CONDITIONS OF ANY KIND, either express or implied.
  21:Drivers/CMSIS/Include/cmsis_gcc.h ****  * See the License for the specific language governing permissions and
  22:Drivers/CMSIS/Include/cmsis_gcc.h ****  * limitations under the License.
  23:Drivers/CMSIS/Include/cmsis_gcc.h ****  */
  24:Drivers/CMSIS/Include/cmsis_gcc.h **** 
  25:Drivers/CMSIS/Include/cmsis_gcc.h **** #ifndef __CMSIS_GCC_H
  26:Drivers/CMSIS/Include/cmsis_gcc.h **** #define __CMSIS_GCC_H
  27:Drivers/CMSIS/Include/cmsis_gcc.h **** 
  28:Drivers/CMSIS/Include/cmsis_gcc.h **** /* ignore some GCC warnings */
  29:Drivers/CMSIS/Include/cmsis_gcc.h **** #pragma GCC diagnostic push
  30:Drivers/CMSIS/Include/cmsis_gcc.h **** #pragma GCC diagnostic ignored "-Wsign-conversion"
  31:Drivers/CMSIS/Include/cmsis_gcc.h **** #pragma GCC diagnostic ignored "-Wconversion"
  32:Drivers/CMSIS/Include/cmsis_gcc.h **** #pragma GCC diagnostic ignored "-Wunused-parameter"
  33:Drivers/CMSIS/Include/cmsis_gcc.h **** 
  34:Drivers/CMSIS/Include/cmsis_gcc.h **** /* Fallback for __has_builtin */
  35:Drivers/CMSIS/Include/cmsis_gcc.h **** #ifndef __has_builtin
  36:Drivers/CMSIS/Include/cmsis_gcc.h ****   #define __has_builtin(x) (0)
  37:Drivers/CMSIS/Include/cmsis_gcc.h **** #endif
  38:Drivers/CMSIS/Include/cmsis_gcc.h **** 
  39:Drivers/CMSIS/Include/cmsis_gcc.h **** /* CMSIS compiler specific defines */
  40:Drivers/CMSIS/Include/cmsis_gcc.h **** #ifndef   __ASM
  41:Drivers/CMSIS/Include/cmsis_gcc.h ****   #define __ASM                                  __asm
  42:Drivers/CMSIS/Include/cmsis_gcc.h **** #endif
  43:Drivers/CMSIS/Include/cmsis_gcc.h **** #ifndef   __INLINE
  44:Drivers/CMSIS/Include/cmsis_gcc.h ****   #define __INLINE                               inline
  45:Drivers/CMSIS/Include/cmsis_gcc.h **** #endif
  46:Drivers/CMSIS/Include/cmsis_gcc.h **** #ifndef   __STATIC_INLINE
  47:Drivers/CMSIS/Include/cmsis_gcc.h ****   #define __STATIC_INLINE                        static inline
  48:Drivers/CMSIS/Include/cmsis_gcc.h **** #endif
  49:Drivers/CMSIS/Include/cmsis_gcc.h **** #ifndef   __STATIC_FORCEINLINE                 
  50:Drivers/CMSIS/Include/cmsis_gcc.h ****   #define __STATIC_FORCEINLINE                   __attribute__((always_inline)) static inline
  51:Drivers/CMSIS/Include/cmsis_gcc.h **** #endif                                           
  52:Drivers/CMSIS/Include/cmsis_gcc.h **** #ifndef   __NO_RETURN
  53:Drivers/CMSIS/Include/cmsis_gcc.h ****   #define __NO_RETURN                            __attribute__((__noreturn__))
  54:Drivers/CMSIS/Include/cmsis_gcc.h **** #endif
ARM GAS  C:\Users\Admin\AppData\Local\Temp\ccvLA4Tr.s 			page 43


  55:Drivers/CMSIS/Include/cmsis_gcc.h **** #ifndef   __USED
  56:Drivers/CMSIS/Include/cmsis_gcc.h ****   #define __USED                                 __attribute__((used))
  57:Drivers/CMSIS/Include/cmsis_gcc.h **** #endif
  58:Drivers/CMSIS/Include/cmsis_gcc.h **** #ifndef   __WEAK
  59:Drivers/CMSIS/Include/cmsis_gcc.h ****   #define __WEAK                                 __attribute__((weak))
  60:Drivers/CMSIS/Include/cmsis_gcc.h **** #endif
  61:Drivers/CMSIS/Include/cmsis_gcc.h **** #ifndef   __PACKED
  62:Drivers/CMSIS/Include/cmsis_gcc.h ****   #define __PACKED                               __attribute__((packed, aligned(1)))
  63:Drivers/CMSIS/Include/cmsis_gcc.h **** #endif
  64:Drivers/CMSIS/Include/cmsis_gcc.h **** #ifndef   __PACKED_STRUCT
  65:Drivers/CMSIS/Include/cmsis_gcc.h ****   #define __PACKED_STRUCT                        struct __attribute__((packed, aligned(1)))
  66:Drivers/CMSIS/Include/cmsis_gcc.h **** #endif
  67:Drivers/CMSIS/Include/cmsis_gcc.h **** #ifndef   __PACKED_UNION
  68:Drivers/CMSIS/Include/cmsis_gcc.h ****   #define __PACKED_UNION                         union __attribute__((packed, aligned(1)))
  69:Drivers/CMSIS/Include/cmsis_gcc.h **** #endif
  70:Drivers/CMSIS/Include/cmsis_gcc.h **** #ifndef   __UNALIGNED_UINT32        /* deprecated */
  71:Drivers/CMSIS/Include/cmsis_gcc.h ****   #pragma GCC diagnostic push
  72:Drivers/CMSIS/Include/cmsis_gcc.h ****   #pragma GCC diagnostic ignored "-Wpacked"
  73:Drivers/CMSIS/Include/cmsis_gcc.h ****   #pragma GCC diagnostic ignored "-Wattributes"
  74:Drivers/CMSIS/Include/cmsis_gcc.h ****   struct __attribute__((packed)) T_UINT32 { uint32_t v; };
  75:Drivers/CMSIS/Include/cmsis_gcc.h ****   #pragma GCC diagnostic pop
  76:Drivers/CMSIS/Include/cmsis_gcc.h ****   #define __UNALIGNED_UINT32(x)                  (((struct T_UINT32 *)(x))->v)
  77:Drivers/CMSIS/Include/cmsis_gcc.h **** #endif
  78:Drivers/CMSIS/Include/cmsis_gcc.h **** #ifndef   __UNALIGNED_UINT16_WRITE
  79:Drivers/CMSIS/Include/cmsis_gcc.h ****   #pragma GCC diagnostic push
  80:Drivers/CMSIS/Include/cmsis_gcc.h ****   #pragma GCC diagnostic ignored "-Wpacked"
  81:Drivers/CMSIS/Include/cmsis_gcc.h ****   #pragma GCC diagnostic ignored "-Wattributes"
  82:Drivers/CMSIS/Include/cmsis_gcc.h ****   __PACKED_STRUCT T_UINT16_WRITE { uint16_t v; };
  83:Drivers/CMSIS/Include/cmsis_gcc.h ****   #pragma GCC diagnostic pop
  84:Drivers/CMSIS/Include/cmsis_gcc.h ****   #define __UNALIGNED_UINT16_WRITE(addr, val)    (void)((((struct T_UINT16_WRITE *)(void *)(addr))-
  85:Drivers/CMSIS/Include/cmsis_gcc.h **** #endif
  86:Drivers/CMSIS/Include/cmsis_gcc.h **** #ifndef   __UNALIGNED_UINT16_READ
  87:Drivers/CMSIS/Include/cmsis_gcc.h ****   #pragma GCC diagnostic push
  88:Drivers/CMSIS/Include/cmsis_gcc.h ****   #pragma GCC diagnostic ignored "-Wpacked"
  89:Drivers/CMSIS/Include/cmsis_gcc.h ****   #pragma GCC diagnostic ignored "-Wattributes"
  90:Drivers/CMSIS/Include/cmsis_gcc.h ****   __PACKED_STRUCT T_UINT16_READ { uint16_t v; };
  91:Drivers/CMSIS/Include/cmsis_gcc.h ****   #pragma GCC diagnostic pop
  92:Drivers/CMSIS/Include/cmsis_gcc.h ****   #define __UNALIGNED_UINT16_READ(addr)          (((const struct T_UINT16_READ *)(const void *)(add
  93:Drivers/CMSIS/Include/cmsis_gcc.h **** #endif
  94:Drivers/CMSIS/Include/cmsis_gcc.h **** #ifndef   __UNALIGNED_UINT32_WRITE
  95:Drivers/CMSIS/Include/cmsis_gcc.h ****   #pragma GCC diagnostic push
  96:Drivers/CMSIS/Include/cmsis_gcc.h ****   #pragma GCC diagnostic ignored "-Wpacked"
  97:Drivers/CMSIS/Include/cmsis_gcc.h ****   #pragma GCC diagnostic ignored "-Wattributes"
  98:Drivers/CMSIS/Include/cmsis_gcc.h ****   __PACKED_STRUCT T_UINT32_WRITE { uint32_t v; };
  99:Drivers/CMSIS/Include/cmsis_gcc.h ****   #pragma GCC diagnostic pop
 100:Drivers/CMSIS/Include/cmsis_gcc.h ****   #define __UNALIGNED_UINT32_WRITE(addr, val)    (void)((((struct T_UINT32_WRITE *)(void *)(addr))-
 101:Drivers/CMSIS/Include/cmsis_gcc.h **** #endif
 102:Drivers/CMSIS/Include/cmsis_gcc.h **** #ifndef   __UNALIGNED_UINT32_READ
 103:Drivers/CMSIS/Include/cmsis_gcc.h ****   #pragma GCC diagnostic push
 104:Drivers/CMSIS/Include/cmsis_gcc.h ****   #pragma GCC diagnostic ignored "-Wpacked"
 105:Drivers/CMSIS/Include/cmsis_gcc.h ****   #pragma GCC diagnostic ignored "-Wattributes"
 106:Drivers/CMSIS/Include/cmsis_gcc.h ****   __PACKED_STRUCT T_UINT32_READ { uint32_t v; };
 107:Drivers/CMSIS/Include/cmsis_gcc.h ****   #pragma GCC diagnostic pop
 108:Drivers/CMSIS/Include/cmsis_gcc.h ****   #define __UNALIGNED_UINT32_READ(addr)          (((const struct T_UINT32_READ *)(const void *)(add
 109:Drivers/CMSIS/Include/cmsis_gcc.h **** #endif
 110:Drivers/CMSIS/Include/cmsis_gcc.h **** #ifndef   __ALIGNED
 111:Drivers/CMSIS/Include/cmsis_gcc.h ****   #define __ALIGNED(x)                           __attribute__((aligned(x)))
ARM GAS  C:\Users\Admin\AppData\Local\Temp\ccvLA4Tr.s 			page 44


 112:Drivers/CMSIS/Include/cmsis_gcc.h **** #endif
 113:Drivers/CMSIS/Include/cmsis_gcc.h **** #ifndef   __RESTRICT
 114:Drivers/CMSIS/Include/cmsis_gcc.h ****   #define __RESTRICT                             __restrict
 115:Drivers/CMSIS/Include/cmsis_gcc.h **** #endif
 116:Drivers/CMSIS/Include/cmsis_gcc.h **** 
 117:Drivers/CMSIS/Include/cmsis_gcc.h **** 
 118:Drivers/CMSIS/Include/cmsis_gcc.h **** /* ###########################  Core Function Access  ########################### */
 119:Drivers/CMSIS/Include/cmsis_gcc.h **** /** \ingroup  CMSIS_Core_FunctionInterface
 120:Drivers/CMSIS/Include/cmsis_gcc.h ****     \defgroup CMSIS_Core_RegAccFunctions CMSIS Core Register Access Functions
 121:Drivers/CMSIS/Include/cmsis_gcc.h ****   @{
 122:Drivers/CMSIS/Include/cmsis_gcc.h ****  */
 123:Drivers/CMSIS/Include/cmsis_gcc.h **** 
 124:Drivers/CMSIS/Include/cmsis_gcc.h **** /**
 125:Drivers/CMSIS/Include/cmsis_gcc.h ****   \brief   Enable IRQ Interrupts
 126:Drivers/CMSIS/Include/cmsis_gcc.h ****   \details Enables IRQ interrupts by clearing the I-bit in the CPSR.
 127:Drivers/CMSIS/Include/cmsis_gcc.h ****            Can only be executed in Privileged modes.
 128:Drivers/CMSIS/Include/cmsis_gcc.h ****  */
 129:Drivers/CMSIS/Include/cmsis_gcc.h **** __STATIC_FORCEINLINE void __enable_irq(void)
 130:Drivers/CMSIS/Include/cmsis_gcc.h **** {
 131:Drivers/CMSIS/Include/cmsis_gcc.h ****   __ASM volatile ("cpsie i" : : : "memory");
 132:Drivers/CMSIS/Include/cmsis_gcc.h **** }
 133:Drivers/CMSIS/Include/cmsis_gcc.h **** 
 134:Drivers/CMSIS/Include/cmsis_gcc.h **** 
 135:Drivers/CMSIS/Include/cmsis_gcc.h **** /**
 136:Drivers/CMSIS/Include/cmsis_gcc.h ****   \brief   Disable IRQ Interrupts
 137:Drivers/CMSIS/Include/cmsis_gcc.h ****   \details Disables IRQ interrupts by setting the I-bit in the CPSR.
 138:Drivers/CMSIS/Include/cmsis_gcc.h ****            Can only be executed in Privileged modes.
 139:Drivers/CMSIS/Include/cmsis_gcc.h ****  */
 140:Drivers/CMSIS/Include/cmsis_gcc.h **** __STATIC_FORCEINLINE void __disable_irq(void)
 1463              		.loc 2 140 27 view .LVU317
 1464              	.LBB10:
 141:Drivers/CMSIS/Include/cmsis_gcc.h **** {
 142:Drivers/CMSIS/Include/cmsis_gcc.h ****   __ASM volatile ("cpsid i" : : : "memory");
 1465              		.loc 2 142 3 view .LVU318
 1466              		.syntax unified
 1467              	@ 142 "Drivers/CMSIS/Include/cmsis_gcc.h" 1
 1468 0000 72B6     		cpsid i
 1469              	@ 0 "" 2
 1470              		.thumb
 1471              		.syntax unified
 1472              	.L124:
 1473              	.LBE10:
 1474              	.LBE9:
 708:Core/Src/main.c ****   while (1)
 1475              		.loc 1 708 3 discriminator 1 view .LVU319
 709:Core/Src/main.c ****   {
 710:Core/Src/main.c ****   }
 1476              		.loc 1 710 3 discriminator 1 view .LVU320
 708:Core/Src/main.c ****   while (1)
 1477              		.loc 1 708 9 discriminator 1 view .LVU321
 1478 0002 FEE7     		b	.L124
 1479              		.cfi_endproc
 1480              	.LFE95:
 1482              		.section	.text.MX_USART1_UART_Init,"ax",%progbits
 1483              		.align	1
 1484              		.syntax unified
 1485              		.thumb
ARM GAS  C:\Users\Admin\AppData\Local\Temp\ccvLA4Tr.s 			page 45


 1486              		.thumb_func
 1487              		.fpu softvfp
 1489              	MX_USART1_UART_Init:
 1490              	.LFB77:
 278:Core/Src/main.c **** 
 1491              		.loc 1 278 1 view -0
 1492              		.cfi_startproc
 1493              		@ args = 0, pretend = 0, frame = 0
 1494              		@ frame_needed = 0, uses_anonymous_args = 0
 1495 0000 08B5     		push	{r3, lr}
 1496              	.LCFI20:
 1497              		.cfi_def_cfa_offset 8
 1498              		.cfi_offset 3, -8
 1499              		.cfi_offset 14, -4
 287:Core/Src/main.c ****   huart1.Init.BaudRate = 115200;
 1500              		.loc 1 287 3 view .LVU323
 287:Core/Src/main.c ****   huart1.Init.BaudRate = 115200;
 1501              		.loc 1 287 19 is_stmt 0 view .LVU324
 1502 0002 0A48     		ldr	r0, .L129
 1503 0004 0A4B     		ldr	r3, .L129+4
 1504 0006 0360     		str	r3, [r0]
 288:Core/Src/main.c ****   huart1.Init.WordLength = UART_WORDLENGTH_8B;
 1505              		.loc 1 288 3 is_stmt 1 view .LVU325
 288:Core/Src/main.c ****   huart1.Init.WordLength = UART_WORDLENGTH_8B;
 1506              		.loc 1 288 24 is_stmt 0 view .LVU326
 1507 0008 4FF4E133 		mov	r3, #115200
 1508 000c 4360     		str	r3, [r0, #4]
 289:Core/Src/main.c ****   huart1.Init.StopBits = UART_STOPBITS_1;
 1509              		.loc 1 289 3 is_stmt 1 view .LVU327
 289:Core/Src/main.c ****   huart1.Init.StopBits = UART_STOPBITS_1;
 1510              		.loc 1 289 26 is_stmt 0 view .LVU328
 1511 000e 0023     		movs	r3, #0
 1512 0010 8360     		str	r3, [r0, #8]
 290:Core/Src/main.c ****   huart1.Init.Parity = UART_PARITY_NONE;
 1513              		.loc 1 290 3 is_stmt 1 view .LVU329
 290:Core/Src/main.c ****   huart1.Init.Parity = UART_PARITY_NONE;
 1514              		.loc 1 290 24 is_stmt 0 view .LVU330
 1515 0012 C360     		str	r3, [r0, #12]
 291:Core/Src/main.c ****   huart1.Init.Mode = UART_MODE_TX_RX;
 1516              		.loc 1 291 3 is_stmt 1 view .LVU331
 291:Core/Src/main.c ****   huart1.Init.Mode = UART_MODE_TX_RX;
 1517              		.loc 1 291 22 is_stmt 0 view .LVU332
 1518 0014 0361     		str	r3, [r0, #16]
 292:Core/Src/main.c ****   huart1.Init.HwFlowCtl = UART_HWCONTROL_NONE;
 1519              		.loc 1 292 3 is_stmt 1 view .LVU333
 292:Core/Src/main.c ****   huart1.Init.HwFlowCtl = UART_HWCONTROL_NONE;
 1520              		.loc 1 292 20 is_stmt 0 view .LVU334
 1521 0016 0C22     		movs	r2, #12
 1522 0018 4261     		str	r2, [r0, #20]
 293:Core/Src/main.c ****   huart1.Init.OverSampling = UART_OVERSAMPLING_16;
 1523              		.loc 1 293 3 is_stmt 1 view .LVU335
 293:Core/Src/main.c ****   huart1.Init.OverSampling = UART_OVERSAMPLING_16;
 1524              		.loc 1 293 25 is_stmt 0 view .LVU336
 1525 001a 8361     		str	r3, [r0, #24]
 294:Core/Src/main.c ****   if (HAL_UART_Init(&huart1) != HAL_OK)
 1526              		.loc 1 294 3 is_stmt 1 view .LVU337
 294:Core/Src/main.c ****   if (HAL_UART_Init(&huart1) != HAL_OK)
ARM GAS  C:\Users\Admin\AppData\Local\Temp\ccvLA4Tr.s 			page 46


 1527              		.loc 1 294 28 is_stmt 0 view .LVU338
 1528 001c C361     		str	r3, [r0, #28]
 295:Core/Src/main.c ****   {
 1529              		.loc 1 295 3 is_stmt 1 view .LVU339
 295:Core/Src/main.c ****   {
 1530              		.loc 1 295 7 is_stmt 0 view .LVU340
 1531 001e FFF7FEFF 		bl	HAL_UART_Init
 1532              	.LVL71:
 295:Core/Src/main.c ****   {
 1533              		.loc 1 295 6 view .LVU341
 1534 0022 00B9     		cbnz	r0, .L128
 303:Core/Src/main.c **** 
 1535              		.loc 1 303 1 view .LVU342
 1536 0024 08BD     		pop	{r3, pc}
 1537              	.L128:
 297:Core/Src/main.c ****   }
 1538              		.loc 1 297 5 is_stmt 1 view .LVU343
 1539 0026 FFF7FEFF 		bl	Error_Handler
 1540              	.LVL72:
 1541              	.L130:
 1542 002a 00BF     		.align	2
 1543              	.L129:
 1544 002c 00000000 		.word	.LANCHOR11
 1545 0030 00380140 		.word	1073821696
 1546              		.cfi_endproc
 1547              	.LFE77:
 1549              		.section	.text.SystemClock_Config,"ax",%progbits
 1550              		.align	1
 1551              		.global	SystemClock_Config
 1552              		.syntax unified
 1553              		.thumb
 1554              		.thumb_func
 1555              		.fpu softvfp
 1557              	SystemClock_Config:
 1558              	.LFB76:
 240:Core/Src/main.c ****   RCC_OscInitTypeDef RCC_OscInitStruct = {0};
 1559              		.loc 1 240 1 view -0
 1560              		.cfi_startproc
 1561              		@ args = 0, pretend = 0, frame = 64
 1562              		@ frame_needed = 0, uses_anonymous_args = 0
 1563 0000 00B5     		push	{lr}
 1564              	.LCFI21:
 1565              		.cfi_def_cfa_offset 4
 1566              		.cfi_offset 14, -4
 1567 0002 91B0     		sub	sp, sp, #68
 1568              	.LCFI22:
 1569              		.cfi_def_cfa_offset 72
 241:Core/Src/main.c ****   RCC_ClkInitTypeDef RCC_ClkInitStruct = {0};
 1570              		.loc 1 241 3 view .LVU345
 241:Core/Src/main.c ****   RCC_ClkInitTypeDef RCC_ClkInitStruct = {0};
 1571              		.loc 1 241 22 is_stmt 0 view .LVU346
 1572 0004 2822     		movs	r2, #40
 1573 0006 0021     		movs	r1, #0
 1574 0008 06A8     		add	r0, sp, #24
 1575 000a FFF7FEFF 		bl	memset
 1576              	.LVL73:
 242:Core/Src/main.c **** 
ARM GAS  C:\Users\Admin\AppData\Local\Temp\ccvLA4Tr.s 			page 47


 1577              		.loc 1 242 3 is_stmt 1 view .LVU347
 242:Core/Src/main.c **** 
 1578              		.loc 1 242 22 is_stmt 0 view .LVU348
 1579 000e 0023     		movs	r3, #0
 1580 0010 0193     		str	r3, [sp, #4]
 1581 0012 0293     		str	r3, [sp, #8]
 1582 0014 0393     		str	r3, [sp, #12]
 1583 0016 0493     		str	r3, [sp, #16]
 1584 0018 0593     		str	r3, [sp, #20]
 247:Core/Src/main.c ****   RCC_OscInitStruct.HSIState = RCC_HSI_ON;
 1585              		.loc 1 247 3 is_stmt 1 view .LVU349
 247:Core/Src/main.c ****   RCC_OscInitStruct.HSIState = RCC_HSI_ON;
 1586              		.loc 1 247 36 is_stmt 0 view .LVU350
 1587 001a 0223     		movs	r3, #2
 1588 001c 0693     		str	r3, [sp, #24]
 248:Core/Src/main.c ****   RCC_OscInitStruct.HSICalibrationValue = RCC_HSICALIBRATION_DEFAULT;
 1589              		.loc 1 248 3 is_stmt 1 view .LVU351
 248:Core/Src/main.c ****   RCC_OscInitStruct.HSICalibrationValue = RCC_HSICALIBRATION_DEFAULT;
 1590              		.loc 1 248 30 is_stmt 0 view .LVU352
 1591 001e 0122     		movs	r2, #1
 1592 0020 0A92     		str	r2, [sp, #40]
 249:Core/Src/main.c ****   RCC_OscInitStruct.PLL.PLLState = RCC_PLL_ON;
 1593              		.loc 1 249 3 is_stmt 1 view .LVU353
 249:Core/Src/main.c ****   RCC_OscInitStruct.PLL.PLLState = RCC_PLL_ON;
 1594              		.loc 1 249 41 is_stmt 0 view .LVU354
 1595 0022 1022     		movs	r2, #16
 1596 0024 0B92     		str	r2, [sp, #44]
 250:Core/Src/main.c ****   RCC_OscInitStruct.PLL.PLLSource = RCC_PLLSOURCE_HSI_DIV2;
 1597              		.loc 1 250 3 is_stmt 1 view .LVU355
 250:Core/Src/main.c ****   RCC_OscInitStruct.PLL.PLLSource = RCC_PLLSOURCE_HSI_DIV2;
 1598              		.loc 1 250 34 is_stmt 0 view .LVU356
 1599 0026 0D93     		str	r3, [sp, #52]
 251:Core/Src/main.c ****   RCC_OscInitStruct.PLL.PLLMUL = RCC_PLL_MUL9;
 1600              		.loc 1 251 3 is_stmt 1 view .LVU357
 252:Core/Src/main.c ****   if (HAL_RCC_OscConfig(&RCC_OscInitStruct) != HAL_OK)
 1601              		.loc 1 252 3 view .LVU358
 252:Core/Src/main.c ****   if (HAL_RCC_OscConfig(&RCC_OscInitStruct) != HAL_OK)
 1602              		.loc 1 252 32 is_stmt 0 view .LVU359
 1603 0028 4FF4E013 		mov	r3, #1835008
 1604 002c 0F93     		str	r3, [sp, #60]
 253:Core/Src/main.c ****   {
 1605              		.loc 1 253 3 is_stmt 1 view .LVU360
 253:Core/Src/main.c ****   {
 1606              		.loc 1 253 7 is_stmt 0 view .LVU361
 1607 002e 06A8     		add	r0, sp, #24
 1608 0030 FFF7FEFF 		bl	HAL_RCC_OscConfig
 1609              	.LVL74:
 253:Core/Src/main.c ****   {
 1610              		.loc 1 253 6 view .LVU362
 1611 0034 88B9     		cbnz	r0, .L135
 259:Core/Src/main.c ****                               |RCC_CLOCKTYPE_PCLK1|RCC_CLOCKTYPE_PCLK2;
 1612              		.loc 1 259 3 is_stmt 1 view .LVU363
 259:Core/Src/main.c ****                               |RCC_CLOCKTYPE_PCLK1|RCC_CLOCKTYPE_PCLK2;
 1613              		.loc 1 259 31 is_stmt 0 view .LVU364
 1614 0036 0F23     		movs	r3, #15
 1615 0038 0193     		str	r3, [sp, #4]
 261:Core/Src/main.c ****   RCC_ClkInitStruct.AHBCLKDivider = RCC_SYSCLK_DIV1;
ARM GAS  C:\Users\Admin\AppData\Local\Temp\ccvLA4Tr.s 			page 48


 1616              		.loc 1 261 3 is_stmt 1 view .LVU365
 261:Core/Src/main.c ****   RCC_ClkInitStruct.AHBCLKDivider = RCC_SYSCLK_DIV1;
 1617              		.loc 1 261 34 is_stmt 0 view .LVU366
 1618 003a 0223     		movs	r3, #2
 1619 003c 0293     		str	r3, [sp, #8]
 262:Core/Src/main.c ****   RCC_ClkInitStruct.APB1CLKDivider = RCC_HCLK_DIV2;
 1620              		.loc 1 262 3 is_stmt 1 view .LVU367
 262:Core/Src/main.c ****   RCC_ClkInitStruct.APB1CLKDivider = RCC_HCLK_DIV2;
 1621              		.loc 1 262 35 is_stmt 0 view .LVU368
 1622 003e 0023     		movs	r3, #0
 1623 0040 0393     		str	r3, [sp, #12]
 263:Core/Src/main.c ****   RCC_ClkInitStruct.APB2CLKDivider = RCC_HCLK_DIV1;
 1624              		.loc 1 263 3 is_stmt 1 view .LVU369
 263:Core/Src/main.c ****   RCC_ClkInitStruct.APB2CLKDivider = RCC_HCLK_DIV1;
 1625              		.loc 1 263 36 is_stmt 0 view .LVU370
 1626 0042 4FF48062 		mov	r2, #1024
 1627 0046 0492     		str	r2, [sp, #16]
 264:Core/Src/main.c **** 
 1628              		.loc 1 264 3 is_stmt 1 view .LVU371
 264:Core/Src/main.c **** 
 1629              		.loc 1 264 36 is_stmt 0 view .LVU372
 1630 0048 0593     		str	r3, [sp, #20]
 266:Core/Src/main.c ****   {
 1631              		.loc 1 266 3 is_stmt 1 view .LVU373
 266:Core/Src/main.c ****   {
 1632              		.loc 1 266 7 is_stmt 0 view .LVU374
 1633 004a 0121     		movs	r1, #1
 1634 004c 01A8     		add	r0, sp, #4
 1635 004e FFF7FEFF 		bl	HAL_RCC_ClockConfig
 1636              	.LVL75:
 266:Core/Src/main.c ****   {
 1637              		.loc 1 266 6 view .LVU375
 1638 0052 20B9     		cbnz	r0, .L136
 270:Core/Src/main.c **** 
 1639              		.loc 1 270 1 view .LVU376
 1640 0054 11B0     		add	sp, sp, #68
 1641              	.LCFI23:
 1642              		.cfi_remember_state
 1643              		.cfi_def_cfa_offset 4
 1644              		@ sp needed
 1645 0056 5DF804FB 		ldr	pc, [sp], #4
 1646              	.L135:
 1647              	.LCFI24:
 1648              		.cfi_restore_state
 255:Core/Src/main.c ****   }
 1649              		.loc 1 255 5 is_stmt 1 view .LVU377
 1650 005a FFF7FEFF 		bl	Error_Handler
 1651              	.LVL76:
 1652              	.L136:
 268:Core/Src/main.c ****   }
 1653              		.loc 1 268 5 view .LVU378
 1654 005e FFF7FEFF 		bl	Error_Handler
 1655              	.LVL77:
 1656              		.cfi_endproc
 1657              	.LFE76:
 1659              		.section	.text.main,"ax",%progbits
 1660              		.align	1
ARM GAS  C:\Users\Admin\AppData\Local\Temp\ccvLA4Tr.s 			page 49


 1661              		.global	main
 1662              		.syntax unified
 1663              		.thumb
 1664              		.thumb_func
 1665              		.fpu softvfp
 1667              	main:
 1668              	.LFB75:
 177:Core/Src/main.c ****   /* USER CODE BEGIN 1 */
 1669              		.loc 1 177 1 view -0
 1670              		.cfi_startproc
 1671              		@ Volatile: function does not return.
 1672              		@ args = 0, pretend = 0, frame = 0
 1673              		@ frame_needed = 0, uses_anonymous_args = 0
 1674 0000 08B5     		push	{r3, lr}
 1675              	.LCFI25:
 1676              		.cfi_def_cfa_offset 8
 1677              		.cfi_offset 3, -8
 1678              		.cfi_offset 14, -4
 185:Core/Src/main.c **** 
 1679              		.loc 1 185 3 view .LVU380
 1680 0002 FFF7FEFF 		bl	HAL_Init
 1681              	.LVL78:
 192:Core/Src/main.c **** 
 1682              		.loc 1 192 3 view .LVU381
 1683 0006 FFF7FEFF 		bl	SystemClock_Config
 1684              	.LVL79:
 199:Core/Src/main.c ****   MX_USART1_UART_Init();
 1685              		.loc 1 199 3 view .LVU382
 1686 000a FFF7FEFF 		bl	MX_GPIO_Init
 1687              	.LVL80:
 200:Core/Src/main.c ****   /* USER CODE BEGIN 2 */
 1688              		.loc 1 200 3 view .LVU383
 1689 000e FFF7FEFF 		bl	MX_USART1_UART_Init
 1690              	.LVL81:
 1691              	.L138:
 207:Core/Src/main.c ****   {
 1692              		.loc 1 207 3 discriminator 1 view .LVU384
 209:Core/Src/main.c **** 
 1693              		.loc 1 209 5 discriminator 1 view .LVU385
 1694 0012 FFF7FEFF 		bl	timeTrackEvent
 1695              	.LVL82:
 211:Core/Src/main.c **** 
 1696              		.loc 1 211 5 discriminator 1 view .LVU386
 1697 0016 FFF7FEFF 		bl	changeModeEvent
 1698              	.LVL83:
 213:Core/Src/main.c **** 
 1699              		.loc 1 213 5 discriminator 1 view .LVU387
 1700 001a FFF7FEFF 		bl	blinkEvent
 1701              	.LVL84:
 215:Core/Src/main.c **** 
 1702              		.loc 1 215 5 discriminator 1 view .LVU388
 1703 001e FFF7FEFF 		bl	intercomKeyEvent
 1704              	.LVL85:
 217:Core/Src/main.c **** 
 1705              		.loc 1 217 5 discriminator 1 view .LVU389
 1706 0022 FFF7FEFF 		bl	buttonPressedEvent
 1707              	.LVL86:
ARM GAS  C:\Users\Admin\AppData\Local\Temp\ccvLA4Tr.s 			page 50


 219:Core/Src/main.c **** 
 1708              		.loc 1 219 5 discriminator 1 view .LVU390
 1709 0026 FFF7FEFF 		bl	doorUnlockEvent
 1710              	.LVL87:
 221:Core/Src/main.c **** 
 1711              		.loc 1 221 5 discriminator 1 view .LVU391
 1712 002a FFF7FEFF 		bl	doorClosedEvent
 1713              	.LVL88:
 223:Core/Src/main.c **** 
 1714              		.loc 1 223 5 discriminator 1 view .LVU392
 1715 002e FFF7FEFF 		bl	greenLightEvent
 1716              	.LVL89:
 225:Core/Src/main.c **** 
 1717              		.loc 1 225 5 discriminator 1 view .LVU393
 227:Core/Src/main.c ****     /* USER CODE END WHILE */
 1718              		.loc 1 227 5 discriminator 1 view .LVU394
 207:Core/Src/main.c ****   {
 1719              		.loc 1 207 9 discriminator 1 view .LVU395
 1720 0032 EEE7     		b	.L138
 1721              		.cfi_endproc
 1722              	.LFE75:
 1724              		.global	blinkStart
 1725              		.global	blinkTime
 1726              		.global	timmeTrack
 1727              		.global	relayUnlockingTime
 1728              		.global	toBlink
 1729              		.global	alarmTrigger
 1730              		.global	doorRecentlyClosed
 1731              		.global	firstTime
 1732              		.global	outsideKeyRead
 1733              		.global	insideKeyRead
 1734              		.global	outsideButtonPressed
 1735              		.global	insideButtonPressed
 1736              		.global	timme
 1737              		.global	alarmCause
 1738              		.global	relayMode
 1739              		.global	relayState
 1740              		.global	doorState
 1741              		.global	previousWorkMode
 1742              		.global	workMode
 1743              		.global	wig_flag_inrt
 1744              		.global	huart1
 1745              		.section	.bss.alarmTrigger,"aw",%nobits
 1748              	alarmTrigger:
 1749 0000 00       		.space	1
 1750              		.section	.bss.blinkStart,"aw",%nobits
 1751              		.align	2
 1752              		.set	.LANCHOR1,. + 0
 1755              	blinkStart:
 1756 0000 00000000 		.space	4
 1757              		.section	.bss.blinkTime,"aw",%nobits
 1758              		.align	2
 1759              		.set	.LANCHOR2,. + 0
 1762              	blinkTime:
 1763 0000 00000000 		.space	4
 1764              		.section	.bss.doorRecentlyClosed,"aw",%nobits
 1765              		.set	.LANCHOR7,. + 0
ARM GAS  C:\Users\Admin\AppData\Local\Temp\ccvLA4Tr.s 			page 51


 1768              	doorRecentlyClosed:
 1769 0000 00       		.space	1
 1770              		.section	.bss.firstTime,"aw",%nobits
 1773              	firstTime:
 1774 0000 00       		.space	1
 1775              		.section	.bss.huart1,"aw",%nobits
 1776              		.align	2
 1777              		.set	.LANCHOR11,. + 0
 1780              	huart1:
 1781 0000 00000000 		.space	64
 1781      00000000 
 1781      00000000 
 1781      00000000 
 1781      00000000 
 1782              		.section	.bss.insideButtonPressed,"aw",%nobits
 1783              		.set	.LANCHOR5,. + 0
 1786              	insideButtonPressed:
 1787 0000 00       		.space	1
 1788              		.section	.bss.insideKeyRead,"aw",%nobits
 1789              		.set	.LANCHOR9,. + 0
 1792              	insideKeyRead:
 1793 0000 00       		.space	1
 1794              		.section	.bss.outsideButtonPressed,"aw",%nobits
 1795              		.set	.LANCHOR6,. + 0
 1798              	outsideButtonPressed:
 1799 0000 00       		.space	1
 1800              		.section	.bss.outsideKeyRead,"aw",%nobits
 1801              		.set	.LANCHOR10,. + 0
 1804              	outsideKeyRead:
 1805 0000 00       		.space	1
 1806              		.section	.bss.previousWorkMode,"aw",%nobits
 1807              		.set	.LANCHOR16,. + 0
 1810              	previousWorkMode:
 1811 0000 00       		.space	1
 1812              		.section	.bss.relayMode,"aw",%nobits
 1815              	relayMode:
 1816 0000 00       		.space	1
 1817              		.section	.bss.relayUnlockingTime,"aw",%nobits
 1818              		.align	2
 1819              		.set	.LANCHOR15,. + 0
 1822              	relayUnlockingTime:
 1823 0000 00000000 		.space	4
 1824              		.section	.bss.timme,"aw",%nobits
 1825              		.align	2
 1826              		.set	.LANCHOR13,. + 0
 1829              	timme:
 1830 0000 00000000 		.space	4
 1831              		.section	.bss.timmeTrack,"aw",%nobits
 1832              		.align	2
 1833              		.set	.LANCHOR12,. + 0
 1836              	timmeTrack:
 1837 0000 00000000 		.space	4
 1838              		.section	.bss.toBlink,"aw",%nobits
 1839              		.set	.LANCHOR0,. + 0
 1842              	toBlink:
 1843 0000 00       		.space	1
 1844              		.section	.bss.workMode,"aw",%nobits
ARM GAS  C:\Users\Admin\AppData\Local\Temp\ccvLA4Tr.s 			page 52


 1845              		.set	.LANCHOR14,. + 0
 1848              	workMode:
 1849 0000 00       		.space	1
 1850              		.section	.data.alarmCause,"aw"
 1851              		.set	.LANCHOR17,. + 0
 1854              	alarmCause:
 1855 0000 01       		.byte	1
 1856              		.section	.data.doorState,"aw"
 1857              		.set	.LANCHOR3,. + 0
 1860              	doorState:
 1861 0000 01       		.byte	1
 1862              		.section	.data.relayState,"aw"
 1863              		.set	.LANCHOR4,. + 0
 1866              	relayState:
 1867 0000 01       		.byte	1
 1868              		.section	.data.wig_flag_inrt,"aw"
 1869              		.set	.LANCHOR8,. + 0
 1872              	wig_flag_inrt:
 1873 0000 01       		.byte	1
 1874              		.text
 1875              	.Letext0:
 1876              		.file 3 "e:\\dev\\tools\\gcc-arm-none-eabi-10-2020-q4-major\\arm-none-eabi\\include\\machine\\_def
 1877              		.file 4 "e:\\dev\\tools\\gcc-arm-none-eabi-10-2020-q4-major\\arm-none-eabi\\include\\sys\\_stdint.
 1878              		.file 5 "Drivers/CMSIS/Device/ST/STM32F1xx/Include/stm32f103xg.h"
 1879              		.file 6 "Drivers/CMSIS/Device/ST/STM32F1xx/Include/stm32f1xx.h"
 1880              		.file 7 "Drivers/STM32F1xx_HAL_Driver/Inc/stm32f1xx_hal_def.h"
 1881              		.file 8 "Drivers/STM32F1xx_HAL_Driver/Inc/stm32f1xx_hal_rcc.h"
 1882              		.file 9 "Drivers/STM32F1xx_HAL_Driver/Inc/stm32f1xx_hal_rcc_ex.h"
 1883              		.file 10 "Drivers/STM32F1xx_HAL_Driver/Inc/stm32f1xx_hal_gpio.h"
 1884              		.file 11 "Drivers/STM32F1xx_HAL_Driver/Inc/stm32f1xx_hal_dma.h"
 1885              		.file 12 "Drivers/STM32F1xx_HAL_Driver/Inc/stm32f1xx_hal_uart.h"
 1886              		.file 13 "e:\\dev\\tools\\gcc-arm-none-eabi-10-2020-q4-major\\lib\\gcc\\arm-none-eabi\\10.2.1\\inc
 1887              		.file 14 "e:\\dev\\tools\\gcc-arm-none-eabi-10-2020-q4-major\\arm-none-eabi\\include\\stdio.h"
 1888              		.file 15 "Drivers/STM32F1xx_HAL_Driver/Inc/stm32f1xx_hal.h"
 1889              		.file 16 "e:\\dev\\tools\\gcc-arm-none-eabi-10-2020-q4-major\\arm-none-eabi\\include\\string.h"
 1890              		.file 17 "Core/Inc/wiegand.h"
 1891              		.file 18 "Drivers/STM32F1xx_HAL_Driver/Inc/stm32f1xx_hal_cortex.h"
 1892              		.file 19 "<built-in>"
ARM GAS  C:\Users\Admin\AppData\Local\Temp\ccvLA4Tr.s 			page 53


DEFINED SYMBOLS
                            *ABS*:00000000 main.c
C:\Users\Admin\AppData\Local\Temp\ccvLA4Tr.s:16     .text.MX_GPIO_Init:00000000 $t
C:\Users\Admin\AppData\Local\Temp\ccvLA4Tr.s:23     .text.MX_GPIO_Init:00000000 MX_GPIO_Init
C:\Users\Admin\AppData\Local\Temp\ccvLA4Tr.s:228    .text.MX_GPIO_Init:000000fc $d
C:\Users\Admin\AppData\Local\Temp\ccvLA4Tr.s:238    .text.blinkEvent:00000000 $t
C:\Users\Admin\AppData\Local\Temp\ccvLA4Tr.s:245    .text.blinkEvent:00000000 blinkEvent
C:\Users\Admin\AppData\Local\Temp\ccvLA4Tr.s:305    .text.blinkEvent:00000040 $d
C:\Users\Admin\AppData\Local\Temp\ccvLA4Tr.s:313    .text.doorClosedEvent:00000000 $t
C:\Users\Admin\AppData\Local\Temp\ccvLA4Tr.s:320    .text.doorClosedEvent:00000000 doorClosedEvent
C:\Users\Admin\AppData\Local\Temp\ccvLA4Tr.s:348    .text.doorClosedEvent:00000014 $d
C:\Users\Admin\AppData\Local\Temp\ccvLA4Tr.s:354    .text.bellEvent:00000000 $t
C:\Users\Admin\AppData\Local\Temp\ccvLA4Tr.s:361    .text.bellEvent:00000000 bellEvent
C:\Users\Admin\AppData\Local\Temp\ccvLA4Tr.s:374    .text.alarmEvent:00000000 $t
C:\Users\Admin\AppData\Local\Temp\ccvLA4Tr.s:381    .text.alarmEvent:00000000 alarmEvent
C:\Users\Admin\AppData\Local\Temp\ccvLA4Tr.s:394    .text.HAL_GPIO_EXTI_Callback:00000000 $t
C:\Users\Admin\AppData\Local\Temp\ccvLA4Tr.s:401    .text.HAL_GPIO_EXTI_Callback:00000000 HAL_GPIO_EXTI_Callback
C:\Users\Admin\AppData\Local\Temp\ccvLA4Tr.s:427    .text.HAL_GPIO_EXTI_Callback:00000014 $d
C:\Users\Admin\AppData\Local\Temp\ccvLA4Tr.s:435    .text.HAL_GPIO_EXTI_Callback:0000001c $t
C:\Users\Admin\AppData\Local\Temp\ccvLA4Tr.s:572    .text.HAL_GPIO_EXTI_Callback:000000b8 $d
C:\Users\Admin\AppData\Local\Temp\ccvLA4Tr.s:584    .text.verifyCode:00000000 $t
C:\Users\Admin\AppData\Local\Temp\ccvLA4Tr.s:591    .text.verifyCode:00000000 verifyCode
C:\Users\Admin\AppData\Local\Temp\ccvLA4Tr.s:641    .text.verifyCode:00000018 $d
C:\Users\Admin\AppData\Local\Temp\ccvLA4Tr.s:646    .text.UART_Printf:00000000 $t
C:\Users\Admin\AppData\Local\Temp\ccvLA4Tr.s:653    .text.UART_Printf:00000000 UART_Printf
C:\Users\Admin\AppData\Local\Temp\ccvLA4Tr.s:719    .text.UART_Printf:00000038 $d
C:\Users\Admin\AppData\Local\Temp\ccvLA4Tr.s:724    .rodata.timeTrackEvent.str1.4:00000000 $d
C:\Users\Admin\AppData\Local\Temp\ccvLA4Tr.s:728    .text.timeTrackEvent:00000000 $t
C:\Users\Admin\AppData\Local\Temp\ccvLA4Tr.s:735    .text.timeTrackEvent:00000000 timeTrackEvent
C:\Users\Admin\AppData\Local\Temp\ccvLA4Tr.s:784    .text.timeTrackEvent:00000030 $d
C:\Users\Admin\AppData\Local\Temp\ccvLA4Tr.s:791    .rodata.greenLightEvent.str1.4:00000000 $d
C:\Users\Admin\AppData\Local\Temp\ccvLA4Tr.s:795    .text.greenLightEvent:00000000 $t
C:\Users\Admin\AppData\Local\Temp\ccvLA4Tr.s:802    .text.greenLightEvent:00000000 greenLightEvent
C:\Users\Admin\AppData\Local\Temp\ccvLA4Tr.s:862    .text.greenLightEvent:0000004c $d
C:\Users\Admin\AppData\Local\Temp\ccvLA4Tr.s:869    .rodata.switchMode.str1.4:00000000 $d
C:\Users\Admin\AppData\Local\Temp\ccvLA4Tr.s:876    .text.switchMode:00000000 $t
C:\Users\Admin\AppData\Local\Temp\ccvLA4Tr.s:883    .text.switchMode:00000000 switchMode
C:\Users\Admin\AppData\Local\Temp\ccvLA4Tr.s:901    .text.switchMode:0000000e $d
C:\Users\Admin\AppData\Local\Temp\ccvLA4Tr.s:905    .text.switchMode:00000012 $t
C:\Users\Admin\AppData\Local\Temp\ccvLA4Tr.s:962    .text.switchMode:0000004c $d
C:\Users\Admin\AppData\Local\Temp\ccvLA4Tr.s:969    .text.changeModeEvent:00000000 $t
C:\Users\Admin\AppData\Local\Temp\ccvLA4Tr.s:976    .text.changeModeEvent:00000000 changeModeEvent
C:\Users\Admin\AppData\Local\Temp\ccvLA4Tr.s:1018   .text.changeModeEvent:00000024 $d
C:\Users\Admin\AppData\Local\Temp\ccvLA4Tr.s:1023   .rodata.unlockRelay.str1.4:00000000 $d
C:\Users\Admin\AppData\Local\Temp\ccvLA4Tr.s:1027   .text.unlockRelay:00000000 $t
C:\Users\Admin\AppData\Local\Temp\ccvLA4Tr.s:1034   .text.unlockRelay:00000000 unlockRelay
C:\Users\Admin\AppData\Local\Temp\ccvLA4Tr.s:1076   .text.unlockRelay:00000024 $d
C:\Users\Admin\AppData\Local\Temp\ccvLA4Tr.s:1085   .rodata.intercomKeyEvent.str1.4:00000000 $d
C:\Users\Admin\AppData\Local\Temp\ccvLA4Tr.s:1092   .text.intercomKeyEvent:00000000 $t
C:\Users\Admin\AppData\Local\Temp\ccvLA4Tr.s:1099   .text.intercomKeyEvent:00000000 intercomKeyEvent
C:\Users\Admin\AppData\Local\Temp\ccvLA4Tr.s:1180   .text.intercomKeyEvent:0000004c $d
C:\Users\Admin\AppData\Local\Temp\ccvLA4Tr.s:1189   .rodata.buttonPressedEvent.str1.4:00000000 $d
C:\Users\Admin\AppData\Local\Temp\ccvLA4Tr.s:1196   .text.buttonPressedEvent:00000000 $t
C:\Users\Admin\AppData\Local\Temp\ccvLA4Tr.s:1203   .text.buttonPressedEvent:00000000 buttonPressedEvent
C:\Users\Admin\AppData\Local\Temp\ccvLA4Tr.s:1286   .text.buttonPressedEvent:00000050 $d
C:\Users\Admin\AppData\Local\Temp\ccvLA4Tr.s:1295   .rodata.lockDoor.str1.4:00000000 $d
C:\Users\Admin\AppData\Local\Temp\ccvLA4Tr.s:1299   .text.lockDoor:00000000 $t
ARM GAS  C:\Users\Admin\AppData\Local\Temp\ccvLA4Tr.s 			page 54


C:\Users\Admin\AppData\Local\Temp\ccvLA4Tr.s:1306   .text.lockDoor:00000000 lockDoor
C:\Users\Admin\AppData\Local\Temp\ccvLA4Tr.s:1349   .text.lockDoor:00000030 $d
C:\Users\Admin\AppData\Local\Temp\ccvLA4Tr.s:1356   .text.doorUnlockEvent:00000000 $t
C:\Users\Admin\AppData\Local\Temp\ccvLA4Tr.s:1363   .text.doorUnlockEvent:00000000 doorUnlockEvent
C:\Users\Admin\AppData\Local\Temp\ccvLA4Tr.s:1436   .text.doorUnlockEvent:00000048 $d
C:\Users\Admin\AppData\Local\Temp\ccvLA4Tr.s:1444   .text.Error_Handler:00000000 $t
C:\Users\Admin\AppData\Local\Temp\ccvLA4Tr.s:1451   .text.Error_Handler:00000000 Error_Handler
C:\Users\Admin\AppData\Local\Temp\ccvLA4Tr.s:1483   .text.MX_USART1_UART_Init:00000000 $t
C:\Users\Admin\AppData\Local\Temp\ccvLA4Tr.s:1489   .text.MX_USART1_UART_Init:00000000 MX_USART1_UART_Init
C:\Users\Admin\AppData\Local\Temp\ccvLA4Tr.s:1544   .text.MX_USART1_UART_Init:0000002c $d
C:\Users\Admin\AppData\Local\Temp\ccvLA4Tr.s:1550   .text.SystemClock_Config:00000000 $t
C:\Users\Admin\AppData\Local\Temp\ccvLA4Tr.s:1557   .text.SystemClock_Config:00000000 SystemClock_Config
C:\Users\Admin\AppData\Local\Temp\ccvLA4Tr.s:1660   .text.main:00000000 $t
C:\Users\Admin\AppData\Local\Temp\ccvLA4Tr.s:1667   .text.main:00000000 main
C:\Users\Admin\AppData\Local\Temp\ccvLA4Tr.s:1755   .bss.blinkStart:00000000 blinkStart
C:\Users\Admin\AppData\Local\Temp\ccvLA4Tr.s:1762   .bss.blinkTime:00000000 blinkTime
C:\Users\Admin\AppData\Local\Temp\ccvLA4Tr.s:1836   .bss.timmeTrack:00000000 timmeTrack
C:\Users\Admin\AppData\Local\Temp\ccvLA4Tr.s:1822   .bss.relayUnlockingTime:00000000 relayUnlockingTime
C:\Users\Admin\AppData\Local\Temp\ccvLA4Tr.s:1842   .bss.toBlink:00000000 toBlink
C:\Users\Admin\AppData\Local\Temp\ccvLA4Tr.s:1748   .bss.alarmTrigger:00000000 alarmTrigger
C:\Users\Admin\AppData\Local\Temp\ccvLA4Tr.s:1768   .bss.doorRecentlyClosed:00000000 doorRecentlyClosed
C:\Users\Admin\AppData\Local\Temp\ccvLA4Tr.s:1773   .bss.firstTime:00000000 firstTime
C:\Users\Admin\AppData\Local\Temp\ccvLA4Tr.s:1804   .bss.outsideKeyRead:00000000 outsideKeyRead
C:\Users\Admin\AppData\Local\Temp\ccvLA4Tr.s:1792   .bss.insideKeyRead:00000000 insideKeyRead
C:\Users\Admin\AppData\Local\Temp\ccvLA4Tr.s:1798   .bss.outsideButtonPressed:00000000 outsideButtonPressed
C:\Users\Admin\AppData\Local\Temp\ccvLA4Tr.s:1786   .bss.insideButtonPressed:00000000 insideButtonPressed
C:\Users\Admin\AppData\Local\Temp\ccvLA4Tr.s:1829   .bss.timme:00000000 timme
C:\Users\Admin\AppData\Local\Temp\ccvLA4Tr.s:1854   .data.alarmCause:00000000 alarmCause
C:\Users\Admin\AppData\Local\Temp\ccvLA4Tr.s:1815   .bss.relayMode:00000000 relayMode
C:\Users\Admin\AppData\Local\Temp\ccvLA4Tr.s:1866   .data.relayState:00000000 relayState
C:\Users\Admin\AppData\Local\Temp\ccvLA4Tr.s:1860   .data.doorState:00000000 doorState
C:\Users\Admin\AppData\Local\Temp\ccvLA4Tr.s:1810   .bss.previousWorkMode:00000000 previousWorkMode
C:\Users\Admin\AppData\Local\Temp\ccvLA4Tr.s:1848   .bss.workMode:00000000 workMode
C:\Users\Admin\AppData\Local\Temp\ccvLA4Tr.s:1872   .data.wig_flag_inrt:00000000 wig_flag_inrt
C:\Users\Admin\AppData\Local\Temp\ccvLA4Tr.s:1780   .bss.huart1:00000000 huart1
C:\Users\Admin\AppData\Local\Temp\ccvLA4Tr.s:1749   .bss.alarmTrigger:00000000 $d
C:\Users\Admin\AppData\Local\Temp\ccvLA4Tr.s:1751   .bss.blinkStart:00000000 $d
C:\Users\Admin\AppData\Local\Temp\ccvLA4Tr.s:1758   .bss.blinkTime:00000000 $d
C:\Users\Admin\AppData\Local\Temp\ccvLA4Tr.s:1769   .bss.doorRecentlyClosed:00000000 $d
C:\Users\Admin\AppData\Local\Temp\ccvLA4Tr.s:1774   .bss.firstTime:00000000 $d
C:\Users\Admin\AppData\Local\Temp\ccvLA4Tr.s:1776   .bss.huart1:00000000 $d
C:\Users\Admin\AppData\Local\Temp\ccvLA4Tr.s:1787   .bss.insideButtonPressed:00000000 $d
C:\Users\Admin\AppData\Local\Temp\ccvLA4Tr.s:1793   .bss.insideKeyRead:00000000 $d
C:\Users\Admin\AppData\Local\Temp\ccvLA4Tr.s:1799   .bss.outsideButtonPressed:00000000 $d
C:\Users\Admin\AppData\Local\Temp\ccvLA4Tr.s:1805   .bss.outsideKeyRead:00000000 $d
C:\Users\Admin\AppData\Local\Temp\ccvLA4Tr.s:1811   .bss.previousWorkMode:00000000 $d
C:\Users\Admin\AppData\Local\Temp\ccvLA4Tr.s:1816   .bss.relayMode:00000000 $d
C:\Users\Admin\AppData\Local\Temp\ccvLA4Tr.s:1818   .bss.relayUnlockingTime:00000000 $d
C:\Users\Admin\AppData\Local\Temp\ccvLA4Tr.s:1825   .bss.timme:00000000 $d
C:\Users\Admin\AppData\Local\Temp\ccvLA4Tr.s:1832   .bss.timmeTrack:00000000 $d
C:\Users\Admin\AppData\Local\Temp\ccvLA4Tr.s:1843   .bss.toBlink:00000000 $d
C:\Users\Admin\AppData\Local\Temp\ccvLA4Tr.s:1849   .bss.workMode:00000000 $d

UNDEFINED SYMBOLS
HAL_GPIO_WritePin
HAL_GPIO_Init
HAL_NVIC_SetPriority
ARM GAS  C:\Users\Admin\AppData\Local\Temp\ccvLA4Tr.s 			page 55


HAL_NVIC_EnableIRQ
HAL_GetTick
HAL_GPIO_ReadPin
ReadD0
ReadD1
vsnprintf
strlen
HAL_UART_Transmit
wig_available
getCode
HAL_UART_Init
memset
HAL_RCC_OscConfig
HAL_RCC_ClockConfig
HAL_Init
