ARM GAS  C:\Users\Admin\AppData\Local\Temp\ccXKOSM3.s 			page 1


   1              		.cpu cortex-m3
   2              		.eabi_attribute 20, 1
   3              		.eabi_attribute 21, 1
   4              		.eabi_attribute 23, 3
   5              		.eabi_attribute 24, 1
   6              		.eabi_attribute 25, 1
   7              		.eabi_attribute 26, 1
   8              		.eabi_attribute 30, 1
   9              		.eabi_attribute 34, 1
  10              		.eabi_attribute 18, 4
  11              		.file	"main.cpp"
  12              		.text
  13              	.Ltext0:
  14              		.cfi_sections	.debug_frame
  15              		.section	.text._ZL12MX_GPIO_Initv,"ax",%progbits
  16              		.align	1
  17              		.arch armv7-m
  18              		.syntax unified
  19              		.thumb
  20              		.thumb_func
  21              		.fpu softvfp
  23              	_ZL12MX_GPIO_Initv:
  24              		.fnstart
  25              	.LFB75:
  26              		.file 1 "Core/Src/main.cpp"
   1:Core/Src/main.cpp **** /*----> Includes <----*/
   2:Core/Src/main.cpp **** #include "main.h"
   3:Core/Src/main.cpp **** #include "string.h"
   4:Core/Src/main.cpp **** #include <stdio.h>
   5:Core/Src/main.cpp **** #include "wiegand.h"
   6:Core/Src/main.cpp **** #include <stdarg.h>
   7:Core/Src/main.cpp **** #include "PinIn.h"
   8:Core/Src/main.cpp **** #include "PinOut.h"
   9:Core/Src/main.cpp **** #include "ConstantRelay.h"
  10:Core/Src/main.cpp **** #include "ImpulseRelay.h"
  11:Core/Src/main.cpp **** #include "InterruptPin.h"
  12:Core/Src/main.cpp **** #include "Timer.h"
  13:Core/Src/main.cpp **** #include "WorkMode.h"
  14:Core/Src/main.cpp **** #include "IntercomMode.h"
  15:Core/Src/main.cpp **** #include "InvertedPinOut.h"
  16:Core/Src/main.cpp **** #include "UART_Print.h"
  17:Core/Src/main.cpp **** #include "Intercom.h"
  18:Core/Src/main.cpp **** #include "Flags.h"
  19:Core/Src/main.cpp **** 
  20:Core/Src/main.cpp **** /*----> Variables <----*/
  21:Core/Src/main.cpp **** UART_HandleTypeDef huart1;
  22:Core/Src/main.cpp **** volatile uint8_t wig_flag_inrt = 1;
  23:Core/Src/main.cpp **** 
  24:Core/Src/main.cpp **** /*----> STM Init Fucntion Prototypes <----*/
  25:Core/Src/main.cpp **** void SystemClock_Config(void);
  26:Core/Src/main.cpp **** static void MX_GPIO_Init(void);
  27:Core/Src/main.cpp **** static void MX_USART1_UART_Init(void);
  28:Core/Src/main.cpp **** 
  29:Core/Src/main.cpp **** bool
  30:Core/Src/main.cpp ****     insideKeyRead = false,
  31:Core/Src/main.cpp ****     outsideKeyRead = false;
  32:Core/Src/main.cpp **** 
ARM GAS  C:\Users\Admin\AppData\Local\Temp\ccXKOSM3.s 			page 2


  33:Core/Src/main.cpp **** /*----> Functions Protoypes <----*/
  34:Core/Src/main.cpp **** 
  35:Core/Src/main.cpp **** /**
  36:Core/Src/main.cpp ****  * @brief Event to track time between modes
  37:Core/Src/main.cpp **** */
  38:Core/Src/main.cpp **** void TimeTrackEvent();
  39:Core/Src/main.cpp **** /**
  40:Core/Src/main.cpp ****  * @brief Event to change work mode every 15 seconds
  41:Core/Src/main.cpp **** */
  42:Core/Src/main.cpp **** void ChangeModeEvent();
  43:Core/Src/main.cpp **** /**
  44:Core/Src/main.cpp ****  * @brief Event to listen for door button to avoid rattling contacts
  45:Core/Src/main.cpp **** */
  46:Core/Src/main.cpp **** void DoorSensorEvent();
  47:Core/Src/main.cpp **** /**
  48:Core/Src/main.cpp ****  * @brief Event to listen for intercoms
  49:Core/Src/main.cpp **** */
  50:Core/Src/main.cpp **** //void KeyReadEvent();
  51:Core/Src/main.cpp **** /**
  52:Core/Src/main.cpp ****  * @brief Event to listen for pressed buttons
  53:Core/Src/main.cpp **** */
  54:Core/Src/main.cpp **** void ButtonPressedEvent();
  55:Core/Src/main.cpp **** /**
  56:Core/Src/main.cpp ****  * @brief Event to listen for switching to temporarily opened mode, giving access to enter
  57:Core/Src/main.cpp **** */
  58:Core/Src/main.cpp **** void TempOpenModeEvent();
  59:Core/Src/main.cpp **** /**
  60:Core/Src/main.cpp ****  * @brief Event to handle temporarily alarm, activated when exceeded time to enter
  61:Core/Src/main.cpp **** */
  62:Core/Src/main.cpp **** void TempAlarmEvent();
  63:Core/Src/main.cpp **** /**
  64:Core/Src/main.cpp ****  * @brief Event to handle deny work mode, activated when user is not permitted to enter
  65:Core/Src/main.cpp **** */
  66:Core/Src/main.cpp **** void DenyKeyEvent();
  67:Core/Src/main.cpp **** /**
  68:Core/Src/main.cpp ****  * @brief Event to handle alarm work mode, activated when something is wrong, like unauthorized doo
  69:Core/Src/main.cpp **** */
  70:Core/Src/main.cpp **** void AlarmEvent();
  71:Core/Src/main.cpp **** 
  72:Core/Src/main.cpp **** /**
  73:Core/Src/main.cpp ****  * @brief Check if given code is allowed to pass
  74:Core/Src/main.cpp ****  * @retval bool
  75:Core/Src/main.cpp **** */
  76:Core/Src/main.cpp **** bool verifyCode(uint32_t code);
  77:Core/Src/main.cpp **** /**
  78:Core/Src/main.cpp ****  * @brief Switch mode depending on the current one
  79:Core/Src/main.cpp ****  * @retval None
  80:Core/Src/main.cpp **** */
  81:Core/Src/main.cpp **** void switchMode();
  82:Core/Src/main.cpp **** 
  83:Core/Src/main.cpp **** /*----------> Objects <----------*/
  84:Core/Src/main.cpp **** 
  85:Core/Src/main.cpp **** /**
  86:Core/Src/main.cpp ****  * @brief Door sensor
  87:Core/Src/main.cpp **** */
  88:Core/Src/main.cpp **** InterruptPin door(Door_GPIO_Port, Door_Pin);
  89:Core/Src/main.cpp **** 
ARM GAS  C:\Users\Admin\AppData\Local\Temp\ccXKOSM3.s 			page 3


  90:Core/Src/main.cpp **** /**
  91:Core/Src/main.cpp ****  * @brief Door relay
  92:Core/Src/main.cpp **** */
  93:Core/Src/main.cpp **** PinOut lock(Lock_GPIO_Port, Lock_Pin);
  94:Core/Src/main.cpp **** /**
  95:Core/Src/main.cpp ****  * @brief Alarm relay
  96:Core/Src/main.cpp **** */
  97:Core/Src/main.cpp **** PinOut siren(Siren_GPIO_Port, Siren_Pin);
  98:Core/Src/main.cpp **** 
  99:Core/Src/main.cpp **** /**
 100:Core/Src/main.cpp ****  * @brief Inside intercom zumer (#1, right side)
 101:Core/Src/main.cpp **** */
 102:Core/Src/main.cpp **** InvertedPinOut insideZumer(Zumer1_GPIO_Port, Zumer1_Pin);
 103:Core/Src/main.cpp **** /**
 104:Core/Src/main.cpp ****  * @brief Outside intercom zumer (#2, left side)
 105:Core/Src/main.cpp **** */
 106:Core/Src/main.cpp **** InvertedPinOut outsideZumer(Zumer2_GPIO_Port, Zumer2_Pin);
 107:Core/Src/main.cpp **** /**
 108:Core/Src/main.cpp ****  * @brief Inside intercom green led (#1, right side)
 109:Core/Src/main.cpp **** */
 110:Core/Src/main.cpp **** InvertedPinOut insideGreenLed(GreenLed_1_GPIO_Port, GreenLed_1_Pin);
 111:Core/Src/main.cpp **** /**
 112:Core/Src/main.cpp ****  * @brief Outside intercom green led (#2, left side)
 113:Core/Src/main.cpp **** */
 114:Core/Src/main.cpp **** InvertedPinOut outsideGreenLed(GreenLed_2_GPIO_Port, GreenLed_2_Pin);
 115:Core/Src/main.cpp **** 
 116:Core/Src/main.cpp **** Timer doorSensorTimer(0, 0);
 117:Core/Src/main.cpp **** 
 118:Core/Src/main.cpp **** uint32_t
 119:Core/Src/main.cpp ****     timmeTrack = 0,
 120:Core/Src/main.cpp ****     timme = 0;
 121:Core/Src/main.cpp **** 
 122:Core/Src/main.cpp **** /*-------> STM Init Functions <-------*/
 123:Core/Src/main.cpp **** 
 124:Core/Src/main.cpp **** /**
 125:Core/Src/main.cpp ****   * @brief System Clock Configuration
 126:Core/Src/main.cpp ****   * @retval None
 127:Core/Src/main.cpp ****   */
 128:Core/Src/main.cpp **** void SystemClock_Config(void)
 129:Core/Src/main.cpp **** {
 130:Core/Src/main.cpp ****   RCC_OscInitTypeDef RCC_OscInitStruct = {0};
 131:Core/Src/main.cpp ****   RCC_ClkInitTypeDef RCC_ClkInitStruct = {0};
 132:Core/Src/main.cpp **** 
 133:Core/Src/main.cpp ****   /** Initializes the RCC Oscillators according to the specified parameters
 134:Core/Src/main.cpp ****   * in the RCC_OscInitTypeDef structure.
 135:Core/Src/main.cpp ****   */
 136:Core/Src/main.cpp ****   RCC_OscInitStruct.OscillatorType = RCC_OSCILLATORTYPE_HSI;
 137:Core/Src/main.cpp ****   RCC_OscInitStruct.HSIState = RCC_HSI_ON;
 138:Core/Src/main.cpp ****   RCC_OscInitStruct.HSICalibrationValue = RCC_HSICALIBRATION_DEFAULT;
 139:Core/Src/main.cpp ****   RCC_OscInitStruct.PLL.PLLState = RCC_PLL_ON;
 140:Core/Src/main.cpp ****   RCC_OscInitStruct.PLL.PLLSource = RCC_PLLSOURCE_HSI_DIV2;
 141:Core/Src/main.cpp ****   RCC_OscInitStruct.PLL.PLLMUL = RCC_PLL_MUL9;
 142:Core/Src/main.cpp ****   if (HAL_RCC_OscConfig(&RCC_OscInitStruct) != HAL_OK)
 143:Core/Src/main.cpp ****   {
 144:Core/Src/main.cpp ****     Error_Handler();
 145:Core/Src/main.cpp ****   }
 146:Core/Src/main.cpp ****   /** Initializes the CPU, AHB and APB buses clocks
ARM GAS  C:\Users\Admin\AppData\Local\Temp\ccXKOSM3.s 			page 4


 147:Core/Src/main.cpp ****   */
 148:Core/Src/main.cpp ****   RCC_ClkInitStruct.ClockType = RCC_CLOCKTYPE_HCLK | RCC_CLOCKTYPE_SYSCLK | RCC_CLOCKTYPE_PCLK1 | R
 149:Core/Src/main.cpp ****   RCC_ClkInitStruct.SYSCLKSource = RCC_SYSCLKSOURCE_PLLCLK;
 150:Core/Src/main.cpp ****   RCC_ClkInitStruct.AHBCLKDivider = RCC_SYSCLK_DIV1;
 151:Core/Src/main.cpp ****   RCC_ClkInitStruct.APB1CLKDivider = RCC_HCLK_DIV2;
 152:Core/Src/main.cpp ****   RCC_ClkInitStruct.APB2CLKDivider = RCC_HCLK_DIV1;
 153:Core/Src/main.cpp **** 
 154:Core/Src/main.cpp ****   if (HAL_RCC_ClockConfig(&RCC_ClkInitStruct, FLASH_LATENCY_1) != HAL_OK)
 155:Core/Src/main.cpp ****   {
 156:Core/Src/main.cpp ****     Error_Handler();
 157:Core/Src/main.cpp ****   }
 158:Core/Src/main.cpp **** }
 159:Core/Src/main.cpp **** 
 160:Core/Src/main.cpp **** /**
 161:Core/Src/main.cpp ****   * @brief USART1 Initialization Function
 162:Core/Src/main.cpp ****   * @param None
 163:Core/Src/main.cpp ****   * @retval None
 164:Core/Src/main.cpp ****   */
 165:Core/Src/main.cpp **** static void MX_USART1_UART_Init(void)
 166:Core/Src/main.cpp **** {
 167:Core/Src/main.cpp ****   huart1.Instance = USART1;
 168:Core/Src/main.cpp ****   huart1.Init.BaudRate = 115200;
 169:Core/Src/main.cpp ****   huart1.Init.WordLength = UART_WORDLENGTH_8B;
 170:Core/Src/main.cpp ****   huart1.Init.StopBits = UART_STOPBITS_1;
 171:Core/Src/main.cpp ****   huart1.Init.Parity = UART_PARITY_NONE;
 172:Core/Src/main.cpp ****   huart1.Init.Mode = UART_MODE_TX_RX;
 173:Core/Src/main.cpp ****   huart1.Init.HwFlowCtl = UART_HWCONTROL_NONE;
 174:Core/Src/main.cpp ****   huart1.Init.OverSampling = UART_OVERSAMPLING_16;
 175:Core/Src/main.cpp ****   if (HAL_UART_Init(&huart1) != HAL_OK)
 176:Core/Src/main.cpp ****   {
 177:Core/Src/main.cpp ****     Error_Handler();
 178:Core/Src/main.cpp ****   }
 179:Core/Src/main.cpp **** }
 180:Core/Src/main.cpp **** 
 181:Core/Src/main.cpp **** /**
 182:Core/Src/main.cpp ****   * @brief GPIO Initialization Function
 183:Core/Src/main.cpp ****   * @param None
 184:Core/Src/main.cpp ****   * @retval None
 185:Core/Src/main.cpp ****   */
 186:Core/Src/main.cpp **** static void MX_GPIO_Init(void)
 187:Core/Src/main.cpp **** {
  27              		.loc 1 187 1 view -0
  28              		.cfi_startproc
  29              		@ args = 0, pretend = 0, frame = 32
  30              		@ frame_needed = 0, uses_anonymous_args = 0
  31 0000 30B5     		push	{r4, r5, lr}
  32              		.save {r4, r5, lr}
  33              	.LCFI0:
  34              		.cfi_def_cfa_offset 12
  35              		.cfi_offset 4, -12
  36              		.cfi_offset 5, -8
  37              		.cfi_offset 14, -4
  38              		.pad #36
  39 0002 89B0     		sub	sp, sp, #36
  40              	.LCFI1:
  41              		.cfi_def_cfa_offset 48
 188:Core/Src/main.cpp ****   GPIO_InitTypeDef GPIO_InitStruct = {0};
ARM GAS  C:\Users\Admin\AppData\Local\Temp\ccXKOSM3.s 			page 5


  42              		.loc 1 188 3 view .LVU1
  43              		.loc 1 188 20 is_stmt 0 view .LVU2
  44 0004 0024     		movs	r4, #0
  45 0006 0494     		str	r4, [sp, #16]
  46 0008 0594     		str	r4, [sp, #20]
  47 000a 0694     		str	r4, [sp, #24]
  48 000c 0794     		str	r4, [sp, #28]
 189:Core/Src/main.cpp **** 
 190:Core/Src/main.cpp ****   /* GPIO Ports Clock Enable */
 191:Core/Src/main.cpp ****   __HAL_RCC_GPIOC_CLK_ENABLE();
  49              		.loc 1 191 3 is_stmt 1 view .LVU3
  50              	.LBB4:
  51              		.loc 1 191 3 view .LVU4
  52              		.loc 1 191 3 view .LVU5
  53 000e 314B     		ldr	r3, .L3
  54 0010 9A69     		ldr	r2, [r3, #24]
  55 0012 42F01002 		orr	r2, r2, #16
  56 0016 9A61     		str	r2, [r3, #24]
  57              		.loc 1 191 3 view .LVU6
  58 0018 9A69     		ldr	r2, [r3, #24]
  59 001a 02F01002 		and	r2, r2, #16
  60 001e 0192     		str	r2, [sp, #4]
  61              		.loc 1 191 3 view .LVU7
  62 0020 019A     		ldr	r2, [sp, #4]
  63              	.LBE4:
 192:Core/Src/main.cpp ****   __HAL_RCC_GPIOB_CLK_ENABLE();
  64              		.loc 1 192 3 view .LVU8
  65              	.LBB5:
  66              		.loc 1 192 3 view .LVU9
  67              		.loc 1 192 3 view .LVU10
  68 0022 9A69     		ldr	r2, [r3, #24]
  69 0024 42F00802 		orr	r2, r2, #8
  70 0028 9A61     		str	r2, [r3, #24]
  71              		.loc 1 192 3 view .LVU11
  72 002a 9A69     		ldr	r2, [r3, #24]
  73 002c 02F00802 		and	r2, r2, #8
  74 0030 0292     		str	r2, [sp, #8]
  75              		.loc 1 192 3 view .LVU12
  76 0032 029A     		ldr	r2, [sp, #8]
  77              	.LBE5:
 193:Core/Src/main.cpp ****   __HAL_RCC_GPIOA_CLK_ENABLE();
  78              		.loc 1 193 3 view .LVU13
  79              	.LBB6:
  80              		.loc 1 193 3 view .LVU14
  81              		.loc 1 193 3 view .LVU15
  82 0034 9A69     		ldr	r2, [r3, #24]
  83 0036 42F00402 		orr	r2, r2, #4
  84 003a 9A61     		str	r2, [r3, #24]
  85              		.loc 1 193 3 view .LVU16
  86 003c 9B69     		ldr	r3, [r3, #24]
  87 003e 03F00403 		and	r3, r3, #4
  88 0042 0393     		str	r3, [sp, #12]
  89              		.loc 1 193 3 view .LVU17
  90 0044 039B     		ldr	r3, [sp, #12]
  91              	.LBE6:
 194:Core/Src/main.cpp **** 
 195:Core/Src/main.cpp ****   /*Configure GPIO pins : D_01_Pin D_11_Pin D_02_Pin D_12_Pin */
ARM GAS  C:\Users\Admin\AppData\Local\Temp\ccXKOSM3.s 			page 6


 196:Core/Src/main.cpp ****   GPIO_InitStruct.Pin = D_01_Pin | D_11_Pin | D_02_Pin | D_12_Pin;
  92              		.loc 1 196 3 view .LVU18
  93              		.loc 1 196 23 is_stmt 0 view .LVU19
  94 0046 C323     		movs	r3, #195
  95 0048 0493     		str	r3, [sp, #16]
 197:Core/Src/main.cpp ****   GPIO_InitStruct.Mode = GPIO_MODE_IT_FALLING;
  96              		.loc 1 197 3 is_stmt 1 view .LVU20
  97              		.loc 1 197 24 is_stmt 0 view .LVU21
  98 004a 234B     		ldr	r3, .L3+4
  99 004c 0593     		str	r3, [sp, #20]
 198:Core/Src/main.cpp ****   GPIO_InitStruct.Pull = GPIO_NOPULL;
 100              		.loc 1 198 3 is_stmt 1 view .LVU22
 199:Core/Src/main.cpp ****   HAL_GPIO_Init(GPIOC, &GPIO_InitStruct);
 101              		.loc 1 199 3 view .LVU23
 102              		.loc 1 199 16 is_stmt 0 view .LVU24
 103 004e 234D     		ldr	r5, .L3+8
 104 0050 04A9     		add	r1, sp, #16
 105 0052 2846     		mov	r0, r5
 106 0054 FFF7FEFF 		bl	HAL_GPIO_Init
 107              	.LVL0:
 200:Core/Src/main.cpp **** 
 201:Core/Src/main.cpp ****   /*Configure GPIO pins : BT_0_Pin BT_1_Pin */
 202:Core/Src/main.cpp ****   GPIO_InitStruct.Pin = BT_0_Pin | BT_1_Pin;
 108              		.loc 1 202 3 is_stmt 1 view .LVU25
 109              		.loc 1 202 23 is_stmt 0 view .LVU26
 110 0058 0C23     		movs	r3, #12
 111 005a 0493     		str	r3, [sp, #16]
 203:Core/Src/main.cpp ****   GPIO_InitStruct.Mode = GPIO_MODE_IT_RISING;
 112              		.loc 1 203 3 is_stmt 1 view .LVU27
 113              		.loc 1 203 24 is_stmt 0 view .LVU28
 114 005c 204B     		ldr	r3, .L3+12
 115 005e 0593     		str	r3, [sp, #20]
 204:Core/Src/main.cpp ****   GPIO_InitStruct.Pull = GPIO_NOPULL;
 116              		.loc 1 204 3 is_stmt 1 view .LVU29
 117              		.loc 1 204 24 is_stmt 0 view .LVU30
 118 0060 0694     		str	r4, [sp, #24]
 205:Core/Src/main.cpp ****   HAL_GPIO_Init(GPIOC, &GPIO_InitStruct);
 119              		.loc 1 205 3 is_stmt 1 view .LVU31
 120              		.loc 1 205 16 is_stmt 0 view .LVU32
 121 0062 04A9     		add	r1, sp, #16
 122 0064 2846     		mov	r0, r5
 123 0066 FFF7FEFF 		bl	HAL_GPIO_Init
 124              	.LVL1:
 206:Core/Src/main.cpp **** 
 207:Core/Src/main.cpp ****   /*Configure GPIO pins : Zumer1_Pin Zumer2_Pin GreenLed_1_Pin GreenLed_2_Pin */
 208:Core/Src/main.cpp ****   /*  GPIO_InitStruct.Pin = Zumer1_Pin | Zumer2_Pin | GreenLed_1_Pin | GreenLed_2_Pin;
 209:Core/Src/main.cpp ****   GPIO_InitStruct.Mode = GPIO_MODE_OUTPUT_PP;
 210:Core/Src/main.cpp ****   GPIO_InitStruct.Pull = GPIO_NOPULL;
 211:Core/Src/main.cpp ****   GPIO_InitStruct.Speed = GPIO_SPEED_FREQ_LOW;
 212:Core/Src/main.cpp ****   HAL_GPIO_Init(GPIOB, &GPIO_InitStruct); */
 213:Core/Src/main.cpp **** 
 214:Core/Src/main.cpp ****   /*Configure GPIO pin : Door_Pin */
 215:Core/Src/main.cpp ****   GPIO_InitStruct.Pin = Door_Pin;
 125              		.loc 1 215 3 is_stmt 1 view .LVU33
 126              		.loc 1 215 23 is_stmt 0 view .LVU34
 127 006a 4FF48073 		mov	r3, #256
 128 006e 0493     		str	r3, [sp, #16]
ARM GAS  C:\Users\Admin\AppData\Local\Temp\ccXKOSM3.s 			page 7


 216:Core/Src/main.cpp ****   GPIO_InitStruct.Mode = GPIO_MODE_IT_RISING_FALLING;
 129              		.loc 1 216 3 is_stmt 1 view .LVU35
 130              		.loc 1 216 24 is_stmt 0 view .LVU36
 131 0070 1C4B     		ldr	r3, .L3+16
 132 0072 0593     		str	r3, [sp, #20]
 217:Core/Src/main.cpp ****   GPIO_InitStruct.Pull = GPIO_NOPULL;
 133              		.loc 1 217 3 is_stmt 1 view .LVU37
 134              		.loc 1 217 24 is_stmt 0 view .LVU38
 135 0074 0694     		str	r4, [sp, #24]
 218:Core/Src/main.cpp ****   HAL_GPIO_Init(Door_GPIO_Port, &GPIO_InitStruct);
 136              		.loc 1 218 3 is_stmt 1 view .LVU39
 137              		.loc 1 218 16 is_stmt 0 view .LVU40
 138 0076 04A9     		add	r1, sp, #16
 139 0078 2846     		mov	r0, r5
 140 007a FFF7FEFF 		bl	HAL_GPIO_Init
 141              	.LVL2:
 219:Core/Src/main.cpp **** 
 220:Core/Src/main.cpp ****   /* EXTI interrupt init*/
 221:Core/Src/main.cpp ****   HAL_NVIC_SetPriority(EXTI0_IRQn, 0, 0);
 142              		.loc 1 221 3 is_stmt 1 view .LVU41
 143              		.loc 1 221 23 is_stmt 0 view .LVU42
 144 007e 2246     		mov	r2, r4
 145 0080 2146     		mov	r1, r4
 146 0082 0620     		movs	r0, #6
 147 0084 FFF7FEFF 		bl	HAL_NVIC_SetPriority
 148              	.LVL3:
 222:Core/Src/main.cpp ****   HAL_NVIC_EnableIRQ(EXTI0_IRQn);
 149              		.loc 1 222 3 is_stmt 1 view .LVU43
 150              		.loc 1 222 21 is_stmt 0 view .LVU44
 151 0088 0620     		movs	r0, #6
 152 008a FFF7FEFF 		bl	HAL_NVIC_EnableIRQ
 153              	.LVL4:
 223:Core/Src/main.cpp **** 
 224:Core/Src/main.cpp ****   HAL_NVIC_SetPriority(EXTI1_IRQn, 0, 0);
 154              		.loc 1 224 3 is_stmt 1 view .LVU45
 155              		.loc 1 224 23 is_stmt 0 view .LVU46
 156 008e 2246     		mov	r2, r4
 157 0090 2146     		mov	r1, r4
 158 0092 0720     		movs	r0, #7
 159 0094 FFF7FEFF 		bl	HAL_NVIC_SetPriority
 160              	.LVL5:
 225:Core/Src/main.cpp ****   HAL_NVIC_EnableIRQ(EXTI1_IRQn);
 161              		.loc 1 225 3 is_stmt 1 view .LVU47
 162              		.loc 1 225 21 is_stmt 0 view .LVU48
 163 0098 0720     		movs	r0, #7
 164 009a FFF7FEFF 		bl	HAL_NVIC_EnableIRQ
 165              	.LVL6:
 226:Core/Src/main.cpp **** 
 227:Core/Src/main.cpp ****   HAL_NVIC_SetPriority(EXTI2_IRQn, 0, 0);
 166              		.loc 1 227 3 is_stmt 1 view .LVU49
 167              		.loc 1 227 23 is_stmt 0 view .LVU50
 168 009e 2246     		mov	r2, r4
 169 00a0 2146     		mov	r1, r4
 170 00a2 0820     		movs	r0, #8
 171 00a4 FFF7FEFF 		bl	HAL_NVIC_SetPriority
 172              	.LVL7:
 228:Core/Src/main.cpp ****   HAL_NVIC_EnableIRQ(EXTI2_IRQn);
ARM GAS  C:\Users\Admin\AppData\Local\Temp\ccXKOSM3.s 			page 8


 173              		.loc 1 228 3 is_stmt 1 view .LVU51
 174              		.loc 1 228 21 is_stmt 0 view .LVU52
 175 00a8 0820     		movs	r0, #8
 176 00aa FFF7FEFF 		bl	HAL_NVIC_EnableIRQ
 177              	.LVL8:
 229:Core/Src/main.cpp **** 
 230:Core/Src/main.cpp ****   HAL_NVIC_SetPriority(EXTI3_IRQn, 0, 0);
 178              		.loc 1 230 3 is_stmt 1 view .LVU53
 179              		.loc 1 230 23 is_stmt 0 view .LVU54
 180 00ae 2246     		mov	r2, r4
 181 00b0 2146     		mov	r1, r4
 182 00b2 0920     		movs	r0, #9
 183 00b4 FFF7FEFF 		bl	HAL_NVIC_SetPriority
 184              	.LVL9:
 231:Core/Src/main.cpp ****   HAL_NVIC_EnableIRQ(EXTI3_IRQn);
 185              		.loc 1 231 3 is_stmt 1 view .LVU55
 186              		.loc 1 231 21 is_stmt 0 view .LVU56
 187 00b8 0920     		movs	r0, #9
 188 00ba FFF7FEFF 		bl	HAL_NVIC_EnableIRQ
 189              	.LVL10:
 232:Core/Src/main.cpp **** 
 233:Core/Src/main.cpp ****   HAL_NVIC_SetPriority(EXTI9_5_IRQn, 0, 0);
 190              		.loc 1 233 3 is_stmt 1 view .LVU57
 191              		.loc 1 233 23 is_stmt 0 view .LVU58
 192 00be 2246     		mov	r2, r4
 193 00c0 2146     		mov	r1, r4
 194 00c2 1720     		movs	r0, #23
 195 00c4 FFF7FEFF 		bl	HAL_NVIC_SetPriority
 196              	.LVL11:
 234:Core/Src/main.cpp ****   HAL_NVIC_EnableIRQ(EXTI9_5_IRQn);
 197              		.loc 1 234 3 is_stmt 1 view .LVU59
 198              		.loc 1 234 21 is_stmt 0 view .LVU60
 199 00c8 1720     		movs	r0, #23
 200 00ca FFF7FEFF 		bl	HAL_NVIC_EnableIRQ
 201              	.LVL12:
 235:Core/Src/main.cpp **** }
 202              		.loc 1 235 1 view .LVU61
 203 00ce 09B0     		add	sp, sp, #36
 204              	.LCFI2:
 205              		.cfi_def_cfa_offset 12
 206              		@ sp needed
 207 00d0 30BD     		pop	{r4, r5, pc}
 208              	.L4:
 209 00d2 00BF     		.align	2
 210              	.L3:
 211 00d4 00100240 		.word	1073876992
 212 00d8 00002110 		.word	270598144
 213 00dc 00100140 		.word	1073811456
 214 00e0 00001110 		.word	269549568
 215 00e4 00003110 		.word	271646720
 216              		.cfi_endproc
 217              	.LFE75:
 218              		.fnend
 220              		.section	.text._Z41__static_initialization_and_destruction_0ii,"ax",%progbits
 221              		.align	1
 222              		.syntax unified
 223              		.thumb
ARM GAS  C:\Users\Admin\AppData\Local\Temp\ccXKOSM3.s 			page 9


 224              		.thumb_func
 225              		.fpu softvfp
 227              	_Z41__static_initialization_and_destruction_0ii:
 228              		.fnstart
 229              	.LVL13:
 230              	.LFB89:
 236:Core/Src/main.cpp **** 
 237:Core/Src/main.cpp **** int main(void)
 238:Core/Src/main.cpp **** {
 239:Core/Src/main.cpp ****   UART_Printf("\ntest.\r\n");
 240:Core/Src/main.cpp ****   HAL_Init();
 241:Core/Src/main.cpp **** 
 242:Core/Src/main.cpp ****   SystemClock_Config();
 243:Core/Src/main.cpp ****   MX_GPIO_Init();
 244:Core/Src/main.cpp ****   MX_USART1_UART_Init();
 245:Core/Src/main.cpp **** 
 246:Core/Src/main.cpp ****   UART_Printf("\nSwitched to Normal mode.\r\n");
 247:Core/Src/main.cpp ****   insideGreenLed.turnOff();
 248:Core/Src/main.cpp ****   outsideGreenLed.turnOff();
 249:Core/Src/main.cpp ****   insideZumer.turnOff();
 250:Core/Src/main.cpp ****   outsideZumer.turnOff();
 251:Core/Src/main.cpp **** 
 252:Core/Src/main.cpp ****   while (1)
 253:Core/Src/main.cpp ****   {
 254:Core/Src/main.cpp ****     TimeTrackEvent();
 255:Core/Src/main.cpp **** 
 256:Core/Src/main.cpp ****     ChangeModeEvent();
 257:Core/Src/main.cpp **** 
 258:Core/Src/main.cpp ****     DoorSensorEvent();
 259:Core/Src/main.cpp **** 
 260:Core/Src/main.cpp ****     intercom(insideKeyRead, outsideKeyRead);
 261:Core/Src/main.cpp **** 
 262:Core/Src/main.cpp ****     //KeyReadEvent();
 263:Core/Src/main.cpp **** 
 264:Core/Src/main.cpp ****     ButtonPressedEvent();
 265:Core/Src/main.cpp **** 
 266:Core/Src/main.cpp ****     TempOpenModeEvent();
 267:Core/Src/main.cpp **** 
 268:Core/Src/main.cpp ****     TempAlarmEvent();
 269:Core/Src/main.cpp **** 
 270:Core/Src/main.cpp ****     DenyKeyEvent();
 271:Core/Src/main.cpp **** 
 272:Core/Src/main.cpp ****     AlarmEvent();
 273:Core/Src/main.cpp ****   }
 274:Core/Src/main.cpp **** }
 275:Core/Src/main.cpp **** 
 276:Core/Src/main.cpp **** /* Events */
 277:Core/Src/main.cpp **** 
 278:Core/Src/main.cpp **** void TimeTrackEvent()
 279:Core/Src/main.cpp **** {
 280:Core/Src/main.cpp ****   if ((HAL_GetTick() - timmeTrack) > 5000)
 281:Core/Src/main.cpp ****   {
 282:Core/Src/main.cpp ****     UART_Printf("Time passed: %d%s\r\n", (HAL_GetTick() - timme) / 1000, " sec.");
 283:Core/Src/main.cpp ****     timmeTrack = HAL_GetTick();
 284:Core/Src/main.cpp ****   }
 285:Core/Src/main.cpp **** }
 286:Core/Src/main.cpp **** 
ARM GAS  C:\Users\Admin\AppData\Local\Temp\ccXKOSM3.s 			page 10


 287:Core/Src/main.cpp **** void ChangeModeEvent()
 288:Core/Src/main.cpp **** {
 289:Core/Src/main.cpp ****   if ((HAL_GetTick() - timme) > 15000)
 290:Core/Src/main.cpp ****   {
 291:Core/Src/main.cpp ****     timme = HAL_GetTick();
 292:Core/Src/main.cpp ****     switchMode();
 293:Core/Src/main.cpp ****   }
 294:Core/Src/main.cpp **** }
 295:Core/Src/main.cpp **** 
 296:Core/Src/main.cpp **** void DoorSensorEvent()
 297:Core/Src/main.cpp **** {
 298:Core/Src/main.cpp ****   if (HAL_GetTick() - doorSensorTimer.getStartTime() > 100 && doorSensorFirstTime == false)
 299:Core/Src/main.cpp ****   {
 300:Core/Src/main.cpp ****     door.setStateChanged();
 301:Core/Src/main.cpp **** 
 302:Core/Src/main.cpp ****     if (door.getState() == State::Off)
 303:Core/Src/main.cpp ****     {
 304:Core/Src/main.cpp ****       UART_Printf("Door was closed.\r\n");
 305:Core/Src/main.cpp ****     }
 306:Core/Src/main.cpp ****     else if (door.getState() == State::On)
 307:Core/Src/main.cpp ****     {
 308:Core/Src/main.cpp ****       UART_Printf("Door was opened.\r\n");
 309:Core/Src/main.cpp ****     }
 310:Core/Src/main.cpp **** 
 311:Core/Src/main.cpp ****     if (workMode != WorkMode::TempOpenMode && door.getState() == State::On)
 312:Core/Src/main.cpp ****     {
 313:Core/Src/main.cpp ****       workMode = WorkMode::AlarmMode;
 314:Core/Src/main.cpp ****     }
 315:Core/Src/main.cpp **** 
 316:Core/Src/main.cpp ****     doorSensorFirstTime = true;
 317:Core/Src/main.cpp ****   }
 318:Core/Src/main.cpp **** }
 319:Core/Src/main.cpp **** 
 320:Core/Src/main.cpp **** /* void KeyReadEvent()
 321:Core/Src/main.cpp **** {
 322:Core/Src/main.cpp ****   if (wig_available() && workMode == WorkMode::NoMode)
 323:Core/Src/main.cpp ****   {
 324:Core/Src/main.cpp ****     if (intercomMode != IntercomMode::ClosedMode && verifyCode(getCode()))
 325:Core/Src/main.cpp ****     {
 326:Core/Src/main.cpp ****       UART_Printf("%s intercom was used. Key id: %d.\r\n", insideKeyRead ? "Inside" : "Outside", ge
 327:Core/Src/main.cpp **** 
 328:Core/Src/main.cpp ****       workMode = WorkMode::TempOpenMode;
 329:Core/Src/main.cpp **** 
 330:Core/Src/main.cpp ****       if (intercomMode == IntercomMode::CondOpenMode)
 331:Core/Src/main.cpp ****       {
 332:Core/Src/main.cpp ****         UART_Printf("Current mode is Conditionally Open. Switching to Open.\r\n");
 333:Core/Src/main.cpp ****         intercomMode = IntercomMode::OpenMode;
 334:Core/Src/main.cpp ****       }
 335:Core/Src/main.cpp ****     }
 336:Core/Src/main.cpp ****     else
 337:Core/Src/main.cpp ****     {
 338:Core/Src/main.cpp ****       (intercomMode == IntercomMode::ClosedMode) ? UART_Printf("Acces denied, door is closed. Key i
 339:Core/Src/main.cpp ****                                                  : UART_Printf("Acces denied. Key is not authorized
 340:Core/Src/main.cpp **** 
 341:Core/Src/main.cpp ****       previousWorkMode = workMode;
 342:Core/Src/main.cpp ****       workMode = WorkMode::DenyMode;
 343:Core/Src/main.cpp ****     }
ARM GAS  C:\Users\Admin\AppData\Local\Temp\ccXKOSM3.s 			page 11


 344:Core/Src/main.cpp **** 
 345:Core/Src/main.cpp ****     insideKeyRead = false;
 346:Core/Src/main.cpp ****     outsideKeyRead = false;
 347:Core/Src/main.cpp ****   }
 348:Core/Src/main.cpp **** } */
 349:Core/Src/main.cpp **** 
 350:Core/Src/main.cpp **** void ButtonPressedEvent()
 351:Core/Src/main.cpp **** {
 352:Core/Src/main.cpp ****   if (insideButtonPressed || outsideButtonPressed)
 353:Core/Src/main.cpp ****   {
 354:Core/Src/main.cpp ****     UART_Printf("%s button was used.\r\n", insideButtonPressed ? "Inside" : "Outside");
 355:Core/Src/main.cpp **** 
 356:Core/Src/main.cpp ****     workMode = WorkMode::TempOpenMode;
 357:Core/Src/main.cpp **** 
 358:Core/Src/main.cpp ****     if (intercomMode == IntercomMode::CondOpenMode)
 359:Core/Src/main.cpp ****     {
 360:Core/Src/main.cpp ****       UART_Printf("Current mode is Conditionally Open. Switching to Open.\r\n");
 361:Core/Src/main.cpp ****       intercomMode = IntercomMode::OpenMode;
 362:Core/Src/main.cpp ****     }
 363:Core/Src/main.cpp **** 
 364:Core/Src/main.cpp ****     insideButtonPressed = false;
 365:Core/Src/main.cpp ****     outsideButtonPressed = false;
 366:Core/Src/main.cpp ****   }
 367:Core/Src/main.cpp **** }
 368:Core/Src/main.cpp **** 
 369:Core/Src/main.cpp **** void TempOpenModeEvent()
 370:Core/Src/main.cpp **** {
 371:Core/Src/main.cpp ****   static Timer lockTimer(0, 0);
 372:Core/Src/main.cpp ****   static Timer zumerTimer(0, 0);
 373:Core/Src/main.cpp **** 
 374:Core/Src/main.cpp ****   if (workMode == WorkMode::TempOpenMode)
 375:Core/Src/main.cpp ****   {
 376:Core/Src/main.cpp ****     static bool firstTime = true;
 377:Core/Src/main.cpp ****     if (firstTime)
 378:Core/Src/main.cpp ****     {
 379:Core/Src/main.cpp ****       firstTime = false;
 380:Core/Src/main.cpp ****       lock.turnOn();
 381:Core/Src/main.cpp ****       lockTimer.start();
 382:Core/Src/main.cpp ****     }
 383:Core/Src/main.cpp **** 
 384:Core/Src/main.cpp ****     if (HAL_GetTick() - lockTimer.getStartTime() < 5000 && !(door.isStateChanged() && door.getState
 385:Core/Src/main.cpp ****     {
 386:Core/Src/main.cpp ****       if (HAL_GetTick() - zumerTimer.getLastTick() > 250)
 387:Core/Src/main.cpp ****       {
 388:Core/Src/main.cpp ****         zumerTimer.setLastTick();
 389:Core/Src/main.cpp ****         insideZumer.turnOn();
 390:Core/Src/main.cpp ****         outsideZumer.turnOn();
 391:Core/Src/main.cpp ****         insideGreenLed.turnOn();
 392:Core/Src/main.cpp ****         outsideGreenLed.turnOn();
 393:Core/Src/main.cpp ****       }
 394:Core/Src/main.cpp **** 
 395:Core/Src/main.cpp ****       if (HAL_GetTick() - zumerTimer.getLastTick() > 75)
 396:Core/Src/main.cpp ****       {
 397:Core/Src/main.cpp ****         insideZumer.turnOff();
 398:Core/Src/main.cpp ****         outsideZumer.turnOff();
 399:Core/Src/main.cpp ****         insideGreenLed.turnOff();
 400:Core/Src/main.cpp ****         outsideGreenLed.turnOff();
ARM GAS  C:\Users\Admin\AppData\Local\Temp\ccXKOSM3.s 			page 12


 401:Core/Src/main.cpp ****       }
 402:Core/Src/main.cpp ****     }
 403:Core/Src/main.cpp ****     else if (door.getState() == State::On)
 404:Core/Src/main.cpp ****     {
 405:Core/Src/main.cpp ****       UART_Printf("Door is still opened. Turning on temporarily alarm.\r\n");
 406:Core/Src/main.cpp ****       workMode = WorkMode::TempAlarmMode;
 407:Core/Src/main.cpp ****     }
 408:Core/Src/main.cpp ****     else
 409:Core/Src/main.cpp ****     {
 410:Core/Src/main.cpp ****       if (HAL_GetTick() - lockTimer.getStartTime() >= 5000)
 411:Core/Src/main.cpp ****       {
 412:Core/Src/main.cpp ****         UART_Printf("Door was not opened. Closing the relay.\r\n");
 413:Core/Src/main.cpp ****       }
 414:Core/Src/main.cpp **** 
 415:Core/Src/main.cpp ****       workMode = WorkMode::NoMode;
 416:Core/Src/main.cpp ****       firstTime = true;
 417:Core/Src/main.cpp ****       lock.turnOff();
 418:Core/Src/main.cpp ****       insideZumer.turnOff();
 419:Core/Src/main.cpp ****       outsideZumer.turnOff();
 420:Core/Src/main.cpp ****       insideGreenLed.turnOff();
 421:Core/Src/main.cpp ****       outsideGreenLed.turnOff();
 422:Core/Src/main.cpp ****     }
 423:Core/Src/main.cpp ****   }
 424:Core/Src/main.cpp **** }
 425:Core/Src/main.cpp **** 
 426:Core/Src/main.cpp **** void TempAlarmEvent()
 427:Core/Src/main.cpp **** {
 428:Core/Src/main.cpp ****   static Timer sirenTimer(0, 0);
 429:Core/Src/main.cpp **** 
 430:Core/Src/main.cpp ****   if (workMode == WorkMode::TempAlarmMode)
 431:Core/Src/main.cpp ****   {
 432:Core/Src/main.cpp ****     if (HAL_GetTick() - sirenTimer.getLastTick() > 250)
 433:Core/Src/main.cpp ****     {
 434:Core/Src/main.cpp ****       sirenTimer.setLastTick();
 435:Core/Src/main.cpp ****       siren.turnOn();
 436:Core/Src/main.cpp ****     }
 437:Core/Src/main.cpp ****     else if (HAL_GetTick() - sirenTimer.getLastTick() < 250 && HAL_GetTick() - sirenTimer.getLastTi
 438:Core/Src/main.cpp ****     {
 439:Core/Src/main.cpp ****       siren.turnOff();
 440:Core/Src/main.cpp ****     }
 441:Core/Src/main.cpp **** 
 442:Core/Src/main.cpp ****     if (door.isStateChanged() && door.getState() == State::Off)
 443:Core/Src/main.cpp ****     {
 444:Core/Src/main.cpp ****       UART_Printf("Door was closed.\r\n");
 445:Core/Src/main.cpp ****       workMode = WorkMode::NoMode;
 446:Core/Src/main.cpp ****       siren.turnOff();
 447:Core/Src/main.cpp ****     }
 448:Core/Src/main.cpp ****   }
 449:Core/Src/main.cpp **** }
 450:Core/Src/main.cpp **** 
 451:Core/Src/main.cpp **** void DenyKeyEvent()
 452:Core/Src/main.cpp **** {
 453:Core/Src/main.cpp ****   static Timer denyTimer(0, 0);
 454:Core/Src/main.cpp ****   static bool firstTime = true;
 455:Core/Src/main.cpp **** 
 456:Core/Src/main.cpp ****   if (workMode == WorkMode::DenyMode)
 457:Core/Src/main.cpp ****   {
ARM GAS  C:\Users\Admin\AppData\Local\Temp\ccXKOSM3.s 			page 13


 458:Core/Src/main.cpp ****     if (firstTime)
 459:Core/Src/main.cpp ****     {
 460:Core/Src/main.cpp ****       denyTimer.start();
 461:Core/Src/main.cpp ****       firstTime = false;
 462:Core/Src/main.cpp ****     }
 463:Core/Src/main.cpp **** 
 464:Core/Src/main.cpp ****     if (HAL_GetTick() - denyTimer.getStartTime() < 300)
 465:Core/Src/main.cpp ****     {
 466:Core/Src/main.cpp ****       if (HAL_GetTick() - denyTimer.getLastTick() > 150)
 467:Core/Src/main.cpp ****       {
 468:Core/Src/main.cpp ****         denyTimer.setLastTick();
 469:Core/Src/main.cpp ****         insideZumer.turnOn();
 470:Core/Src/main.cpp ****         outsideZumer.turnOn();
 471:Core/Src/main.cpp ****       }
 472:Core/Src/main.cpp ****       else if (HAL_GetTick() - denyTimer.getLastTick() < 150 && HAL_GetTick() - denyTimer.getLastTi
 473:Core/Src/main.cpp ****       {
 474:Core/Src/main.cpp ****         insideZumer.turnOff();
 475:Core/Src/main.cpp ****         outsideZumer.turnOff();
 476:Core/Src/main.cpp ****       }
 477:Core/Src/main.cpp ****     }
 478:Core/Src/main.cpp ****     else
 479:Core/Src/main.cpp ****     {
 480:Core/Src/main.cpp ****       workMode = previousWorkMode;
 481:Core/Src/main.cpp ****       insideZumer.turnOff();
 482:Core/Src/main.cpp ****       outsideZumer.turnOff();
 483:Core/Src/main.cpp ****       firstTime = true;
 484:Core/Src/main.cpp ****     }
 485:Core/Src/main.cpp ****   }
 486:Core/Src/main.cpp **** }
 487:Core/Src/main.cpp **** 
 488:Core/Src/main.cpp **** void AlarmEvent()
 489:Core/Src/main.cpp **** {
 490:Core/Src/main.cpp ****   if (workMode == WorkMode::AlarmMode)
 491:Core/Src/main.cpp ****   {
 492:Core/Src/main.cpp ****     static Timer alarmTimer(0, 0);
 493:Core/Src/main.cpp ****     static bool firstTime = true;
 494:Core/Src/main.cpp **** 
 495:Core/Src/main.cpp ****     if (firstTime)
 496:Core/Src/main.cpp ****     {
 497:Core/Src/main.cpp ****       UART_Printf("Unauthorized access. Triggered alarm.\r\n");
 498:Core/Src/main.cpp ****       alarmTimer.start();
 499:Core/Src/main.cpp ****       firstTime = false;
 500:Core/Src/main.cpp ****     }
 501:Core/Src/main.cpp **** 
 502:Core/Src/main.cpp ****     if (HAL_GetTick() - alarmTimer.getLastTick() > 1000)
 503:Core/Src/main.cpp ****     {
 504:Core/Src/main.cpp ****       alarmTimer.setLastTick();
 505:Core/Src/main.cpp ****       siren.turnOn();
 506:Core/Src/main.cpp ****     }
 507:Core/Src/main.cpp ****     else if (HAL_GetTick() - alarmTimer.getLastTick() < 1000 && HAL_GetTick() - alarmTimer.getLastT
 508:Core/Src/main.cpp ****     {
 509:Core/Src/main.cpp ****       siren.turnOff();
 510:Core/Src/main.cpp ****     }
 511:Core/Src/main.cpp **** 
 512:Core/Src/main.cpp ****     if (HAL_GetTick() - alarmTimer.getStartTime() > 2000 && ((wig_available() && verifyCode(getCode
 513:Core/Src/main.cpp ****     {
 514:Core/Src/main.cpp ****       workMode = WorkMode::TempOpenMode;
ARM GAS  C:\Users\Admin\AppData\Local\Temp\ccXKOSM3.s 			page 14


 515:Core/Src/main.cpp ****       siren.turnOff();
 516:Core/Src/main.cpp ****       firstTime = true;
 517:Core/Src/main.cpp ****     }
 518:Core/Src/main.cpp ****   }
 519:Core/Src/main.cpp **** }
 520:Core/Src/main.cpp **** 
 521:Core/Src/main.cpp **** /* Aux functions */
 522:Core/Src/main.cpp **** 
 523:Core/Src/main.cpp **** void HAL_GPIO_EXTI_Callback(uint16_t GPIO_Pin)
 524:Core/Src/main.cpp **** {
 525:Core/Src/main.cpp ****   switch (GPIO_Pin)
 526:Core/Src/main.cpp ****   {
 527:Core/Src/main.cpp ****   case BT_0_Pin:
 528:Core/Src/main.cpp ****   {
 529:Core/Src/main.cpp ****     insideButtonPressed = true;
 530:Core/Src/main.cpp ****     break;
 531:Core/Src/main.cpp ****   }
 532:Core/Src/main.cpp ****   case BT_1_Pin:
 533:Core/Src/main.cpp ****   {
 534:Core/Src/main.cpp ****     outsideButtonPressed = true;
 535:Core/Src/main.cpp ****     break;
 536:Core/Src/main.cpp ****   }
 537:Core/Src/main.cpp ****   case Door_Pin:
 538:Core/Src/main.cpp ****   {
 539:Core/Src/main.cpp ****     if (doorSensorFirstTime)
 540:Core/Src/main.cpp ****     {
 541:Core/Src/main.cpp ****       doorSensorTimer.start();
 542:Core/Src/main.cpp ****       doorSensorFirstTime = false;
 543:Core/Src/main.cpp ****     }
 544:Core/Src/main.cpp ****     break;
 545:Core/Src/main.cpp ****   }
 546:Core/Src/main.cpp ****   case D_01_Pin:
 547:Core/Src/main.cpp ****   {
 548:Core/Src/main.cpp ****     if (wig_flag_inrt)
 549:Core/Src/main.cpp ****     {
 550:Core/Src/main.cpp ****       ReadD0();
 551:Core/Src/main.cpp ****       insideKeyRead = true;
 552:Core/Src/main.cpp ****     }
 553:Core/Src/main.cpp ****     break;
 554:Core/Src/main.cpp ****   }
 555:Core/Src/main.cpp ****   case D_11_Pin:
 556:Core/Src/main.cpp ****   {
 557:Core/Src/main.cpp ****     if (wig_flag_inrt)
 558:Core/Src/main.cpp ****     {
 559:Core/Src/main.cpp ****       ReadD1();
 560:Core/Src/main.cpp ****       insideKeyRead = true;
 561:Core/Src/main.cpp ****     }
 562:Core/Src/main.cpp ****     break;
 563:Core/Src/main.cpp ****   }
 564:Core/Src/main.cpp ****   case D_02_Pin:
 565:Core/Src/main.cpp ****   {
 566:Core/Src/main.cpp ****     if (wig_flag_inrt)
 567:Core/Src/main.cpp ****     {
 568:Core/Src/main.cpp ****       ReadD0();
 569:Core/Src/main.cpp ****       outsideKeyRead = true;
 570:Core/Src/main.cpp ****     }
 571:Core/Src/main.cpp ****     break;
ARM GAS  C:\Users\Admin\AppData\Local\Temp\ccXKOSM3.s 			page 15


 572:Core/Src/main.cpp ****   }
 573:Core/Src/main.cpp ****   case D_12_Pin:
 574:Core/Src/main.cpp ****   {
 575:Core/Src/main.cpp ****     if (wig_flag_inrt)
 576:Core/Src/main.cpp ****     {
 577:Core/Src/main.cpp ****       ReadD1();
 578:Core/Src/main.cpp ****       outsideKeyRead = true;
 579:Core/Src/main.cpp ****     }
 580:Core/Src/main.cpp ****     break;
 581:Core/Src/main.cpp ****   }
 582:Core/Src/main.cpp ****   default:
 583:Core/Src/main.cpp ****   {
 584:Core/Src/main.cpp ****     break;
 585:Core/Src/main.cpp ****   }
 586:Core/Src/main.cpp ****   }
 587:Core/Src/main.cpp **** }
 588:Core/Src/main.cpp **** 
 589:Core/Src/main.cpp **** void UART_Printf(const char *fmt, ...)
 590:Core/Src/main.cpp **** {
 591:Core/Src/main.cpp ****   char buff[256];
 592:Core/Src/main.cpp ****   va_list args;
 593:Core/Src/main.cpp ****   va_start(args, fmt);
 594:Core/Src/main.cpp ****   vsnprintf(buff, sizeof(buff), fmt, args);
 595:Core/Src/main.cpp ****   HAL_UART_Transmit(&huart1, (uint8_t *)buff, strlen(buff), HAL_MAX_DELAY);
 596:Core/Src/main.cpp ****   va_end(args);
 597:Core/Src/main.cpp **** }
 598:Core/Src/main.cpp **** 
 599:Core/Src/main.cpp **** /* bool verifyCode(uint32_t code)
 600:Core/Src/main.cpp **** {
 601:Core/Src/main.cpp ****   uint32_t codes[] =
 602:Core/Src/main.cpp ****       {12563593};
 603:Core/Src/main.cpp **** 
 604:Core/Src/main.cpp ****   for (unsigned int i = 0; i < sizeof(codes) / sizeof(codes[0]); i++)
 605:Core/Src/main.cpp ****   {
 606:Core/Src/main.cpp ****     if (code == codes[i])
 607:Core/Src/main.cpp ****       return true;
 608:Core/Src/main.cpp ****   }
 609:Core/Src/main.cpp **** 
 610:Core/Src/main.cpp ****   return false;
 611:Core/Src/main.cpp **** } */
 612:Core/Src/main.cpp **** 
 613:Core/Src/main.cpp **** void switchMode()
 614:Core/Src/main.cpp **** {
 615:Core/Src/main.cpp ****   switch (intercomMode)
 616:Core/Src/main.cpp ****   {
 617:Core/Src/main.cpp ****   case IntercomMode::NormalMode:
 618:Core/Src/main.cpp ****   {
 619:Core/Src/main.cpp ****     UART_Printf("\nSwitched to Closed mode.\r\n");
 620:Core/Src/main.cpp ****     intercomMode = IntercomMode::ClosedMode;
 621:Core/Src/main.cpp ****     lock.turnOff();
 622:Core/Src/main.cpp ****     break;
 623:Core/Src/main.cpp ****   }
 624:Core/Src/main.cpp ****   case IntercomMode::ClosedMode:
 625:Core/Src/main.cpp ****   {
 626:Core/Src/main.cpp ****     UART_Printf("\nSwitched to Open mode.\r\n");
 627:Core/Src/main.cpp ****     intercomMode = IntercomMode::OpenMode;
 628:Core/Src/main.cpp ****     lock.turnOn();
ARM GAS  C:\Users\Admin\AppData\Local\Temp\ccXKOSM3.s 			page 16


 629:Core/Src/main.cpp ****     break;
 630:Core/Src/main.cpp ****   }
 631:Core/Src/main.cpp ****   case IntercomMode::OpenMode:
 632:Core/Src/main.cpp ****   {
 633:Core/Src/main.cpp ****     UART_Printf("\nSwitched to CondOpen mode.\r\n");
 634:Core/Src/main.cpp ****     intercomMode = IntercomMode::CondOpenMode;
 635:Core/Src/main.cpp ****     lock.turnOff();
 636:Core/Src/main.cpp ****     break;
 637:Core/Src/main.cpp ****   }
 638:Core/Src/main.cpp ****   case IntercomMode::CondOpenMode:
 639:Core/Src/main.cpp ****   {
 640:Core/Src/main.cpp ****     UART_Printf("\nSwitched to Normal mode.\r\n");
 641:Core/Src/main.cpp ****     intercomMode = IntercomMode::NormalMode;
 642:Core/Src/main.cpp ****     lock.turnOff();
 643:Core/Src/main.cpp ****     break;
 644:Core/Src/main.cpp ****   }
 645:Core/Src/main.cpp ****   default:
 646:Core/Src/main.cpp ****   {
 647:Core/Src/main.cpp ****     UART_Printf("Unknown mode, switched to normal.\r\n");
 648:Core/Src/main.cpp ****     intercomMode = IntercomMode::NormalMode;
 649:Core/Src/main.cpp ****     lock.turnOff();
 650:Core/Src/main.cpp ****     break;
 651:Core/Src/main.cpp ****   }
 652:Core/Src/main.cpp ****   }
 653:Core/Src/main.cpp **** 
 654:Core/Src/main.cpp ****   return;
 655:Core/Src/main.cpp **** }
 656:Core/Src/main.cpp **** 
 657:Core/Src/main.cpp **** /**
 658:Core/Src/main.cpp ****   * @brief  This function is executed in case of error occurrence.
 659:Core/Src/main.cpp ****   * @retval None
 660:Core/Src/main.cpp ****   */
 661:Core/Src/main.cpp **** void Error_Handler(void)
 662:Core/Src/main.cpp **** {
 663:Core/Src/main.cpp ****   /* USER CODE BEGIN Error_Handler_Debug */
 664:Core/Src/main.cpp ****   /* User can add his own implementation to report the HAL error return state */
 665:Core/Src/main.cpp ****   __disable_irq();
 666:Core/Src/main.cpp ****   while (1)
 667:Core/Src/main.cpp ****   {
 668:Core/Src/main.cpp ****   }
 669:Core/Src/main.cpp ****   /* USER CODE END Error_Handler_Debug */
 670:Core/Src/main.cpp **** }
 231              		.loc 1 670 1 is_stmt 1 view -0
 232              		.cfi_startproc
 233              		@ args = 0, pretend = 0, frame = 0
 234              		@ frame_needed = 0, uses_anonymous_args = 0
 235              		.loc 1 670 1 is_stmt 0 view .LVU63
 236 0000 0128     		cmp	r0, #1
 237 0002 00D0     		beq	.L11
 238              	.L8:
 239 0004 7047     		bx	lr
 240              	.L11:
 241              		.loc 1 670 1 discriminator 1 view .LVU64
 242 0006 4FF6FF73 		movw	r3, #65535
 243 000a 9942     		cmp	r1, r3
 244 000c FAD1     		bne	.L8
 245              		.loc 1 670 1 view .LVU65
ARM GAS  C:\Users\Admin\AppData\Local\Temp\ccXKOSM3.s 			page 17


 246 000e 10B5     		push	{r4, lr}
 247              	.LCFI3:
 248              		.cfi_def_cfa_offset 8
 249              		.cfi_offset 4, -8
 250              		.cfi_offset 14, -4
  88:Core/Src/main.cpp **** 
 251              		.loc 1 88 43 view .LVU66
 252 0010 4FF48072 		mov	r2, #256
 253 0014 1749     		ldr	r1, .L12
 254              	.LVL14:
  88:Core/Src/main.cpp **** 
 255              		.loc 1 88 43 view .LVU67
 256 0016 1848     		ldr	r0, .L12+4
 257              	.LVL15:
  88:Core/Src/main.cpp **** 
 258              		.loc 1 88 43 view .LVU68
 259 0018 FFF7FEFF 		bl	_ZN12InterruptPinC1EP12GPIO_TypeDeft
 260              	.LVL16:
  93:Core/Src/main.cpp **** /**
 261              		.loc 1 93 37 view .LVU69
 262 001c 174C     		ldr	r4, .L12+8
 263 001e 4FF48072 		mov	r2, #256
 264 0022 2146     		mov	r1, r4
 265 0024 1648     		ldr	r0, .L12+12
 266 0026 FFF7FEFF 		bl	_ZN6PinOutC1EP12GPIO_TypeDeft
 267              	.LVL17:
  97:Core/Src/main.cpp **** 
 268              		.loc 1 97 40 view .LVU70
 269 002a 4FF40072 		mov	r2, #512
 270 002e 2146     		mov	r1, r4
 271 0030 1448     		ldr	r0, .L12+16
 272 0032 FFF7FEFF 		bl	_ZN6PinOutC1EP12GPIO_TypeDeft
 273              	.LVL18:
 102:Core/Src/main.cpp **** /**
 274              		.loc 1 102 56 view .LVU71
 275 0036 4FF48062 		mov	r2, #1024
 276 003a 2146     		mov	r1, r4
 277 003c 1248     		ldr	r0, .L12+20
 278 003e FFF7FEFF 		bl	_ZN14InvertedPinOutC1EP12GPIO_TypeDeft
 279              	.LVL19:
 106:Core/Src/main.cpp **** /**
 280              		.loc 1 106 57 view .LVU72
 281 0042 4FF40062 		mov	r2, #2048
 282 0046 2146     		mov	r1, r4
 283 0048 1048     		ldr	r0, .L12+24
 284 004a FFF7FEFF 		bl	_ZN14InvertedPinOutC1EP12GPIO_TypeDeft
 285              	.LVL20:
 110:Core/Src/main.cpp **** /**
 286              		.loc 1 110 67 view .LVU73
 287 004e 4FF48042 		mov	r2, #16384
 288 0052 2146     		mov	r1, r4
 289 0054 0E48     		ldr	r0, .L12+28
 290 0056 FFF7FEFF 		bl	_ZN14InvertedPinOutC1EP12GPIO_TypeDeft
 291              	.LVL21:
 114:Core/Src/main.cpp **** 
 292              		.loc 1 114 68 view .LVU74
 293 005a 4FF40042 		mov	r2, #32768
ARM GAS  C:\Users\Admin\AppData\Local\Temp\ccXKOSM3.s 			page 18


 294 005e 2146     		mov	r1, r4
 295 0060 0C48     		ldr	r0, .L12+32
 296 0062 FFF7FEFF 		bl	_ZN14InvertedPinOutC1EP12GPIO_TypeDeft
 297              	.LVL22:
 116:Core/Src/main.cpp **** 
 298              		.loc 1 116 27 view .LVU75
 299 0066 0022     		movs	r2, #0
 300 0068 1146     		mov	r1, r2
 301 006a 0B48     		ldr	r0, .L12+36
 302 006c FFF7FEFF 		bl	_ZN5TimerC1Emm
 303              	.LVL23:
 304              		.loc 1 670 1 view .LVU76
 305 0070 10BD     		pop	{r4, pc}
 306              	.L13:
 307 0072 00BF     		.align	2
 308              	.L12:
 309 0074 00100140 		.word	1073811456
 310 0078 00000000 		.word	.LANCHOR0
 311 007c 000C0140 		.word	1073810432
 312 0080 00000000 		.word	.LANCHOR1
 313 0084 00000000 		.word	.LANCHOR2
 314 0088 00000000 		.word	.LANCHOR3
 315 008c 00000000 		.word	.LANCHOR4
 316 0090 00000000 		.word	.LANCHOR5
 317 0094 00000000 		.word	.LANCHOR6
 318 0098 00000000 		.word	.LANCHOR7
 319              		.cfi_endproc
 320              	.LFE89:
 321              		.cantunwind
 322              		.fnend
 324              		.section	.text._Z12DenyKeyEventv,"ax",%progbits
 325              		.align	1
 326              		.global	_Z12DenyKeyEventv
 327              		.syntax unified
 328              		.thumb
 329              		.thumb_func
 330              		.fpu softvfp
 332              	_Z12DenyKeyEventv:
 333              		.fnstart
 334              	.LFB83:
 452:Core/Src/main.cpp ****   static Timer denyTimer(0, 0);
 335              		.loc 1 452 1 is_stmt 1 view -0
 336              		.cfi_startproc
 337              		@ args = 0, pretend = 0, frame = 0
 338              		@ frame_needed = 0, uses_anonymous_args = 0
 339 0000 10B5     		push	{r4, lr}
 340              		.save {r4, lr}
 341              	.LCFI4:
 342              		.cfi_def_cfa_offset 8
 343              		.cfi_offset 4, -8
 344              		.cfi_offset 14, -4
 453:Core/Src/main.cpp ****   static bool firstTime = true;
 345              		.loc 1 453 3 view .LVU78
 453:Core/Src/main.cpp ****   static bool firstTime = true;
 346              		.loc 1 453 30 is_stmt 0 view .LVU79
 347 0002 364B     		ldr	r3, .L26
 348 0004 1B78     		ldrb	r3, [r3]	@ zero_extendqisi2
ARM GAS  C:\Users\Admin\AppData\Local\Temp\ccXKOSM3.s 			page 19


 349 0006 BFF35B8F 		dmb	ish
 350 000a 13F0010F 		tst	r3, #1
 351 000e 04D0     		beq	.L23
 352              	.L15:
 454:Core/Src/main.cpp **** 
 353              		.loc 1 454 3 is_stmt 1 view .LVU80
 456:Core/Src/main.cpp ****   {
 354              		.loc 1 456 3 view .LVU81
 456:Core/Src/main.cpp ****   {
 355              		.loc 1 456 16 is_stmt 0 view .LVU82
 356 0010 334B     		ldr	r3, .L26+4
 357 0012 1B68     		ldr	r3, [r3]
 456:Core/Src/main.cpp ****   {
 358              		.loc 1 456 3 view .LVU83
 359 0014 012B     		cmp	r3, #1
 360 0016 0ED0     		beq	.L24
 361              	.L14:
 486:Core/Src/main.cpp **** 
 362              		.loc 1 486 1 view .LVU84
 363 0018 10BD     		pop	{r4, pc}
 364              	.L23:
 453:Core/Src/main.cpp ****   static bool firstTime = true;
 365              		.loc 1 453 30 discriminator 1 view .LVU85
 366 001a 3048     		ldr	r0, .L26
 367 001c FFF7FEFF 		bl	__cxa_guard_acquire
 368              	.LVL24:
 369 0020 0028     		cmp	r0, #0
 370 0022 F5D0     		beq	.L15
 453:Core/Src/main.cpp ****   static bool firstTime = true;
 371              		.loc 1 453 30 discriminator 2 view .LVU86
 372 0024 0022     		movs	r2, #0
 373 0026 1146     		mov	r1, r2
 374 0028 2E48     		ldr	r0, .L26+8
 375              	.LEHB0:
 376 002a FFF7FEFF 		bl	_ZN5TimerC1Emm
 377              	.LVL25:
 378              	.LEHE0:
 453:Core/Src/main.cpp ****   static bool firstTime = true;
 379              		.loc 1 453 30 discriminator 4 view .LVU87
 380 002e 2B48     		ldr	r0, .L26
 381 0030 FFF7FEFF 		bl	__cxa_guard_release
 382              	.LVL26:
 383 0034 ECE7     		b	.L15
 384              	.L24:
 458:Core/Src/main.cpp ****     {
 385              		.loc 1 458 5 is_stmt 1 view .LVU88
 386 0036 2C4B     		ldr	r3, .L26+12
 387 0038 1B78     		ldrb	r3, [r3]	@ zero_extendqisi2
 388 003a E3B9     		cbnz	r3, .L25
 389              	.L17:
 464:Core/Src/main.cpp ****     {
 390              		.loc 1 464 5 view .LVU89
 391              	.LEHB1:
 464:Core/Src/main.cpp ****     {
 392              		.loc 1 464 20 is_stmt 0 view .LVU90
 393 003c FFF7FEFF 		bl	HAL_GetTick
 394              	.LVL27:
ARM GAS  C:\Users\Admin\AppData\Local\Temp\ccXKOSM3.s 			page 20


 395 0040 0446     		mov	r4, r0
 464:Core/Src/main.cpp ****     {
 396              		.loc 1 464 47 view .LVU91
 397 0042 2848     		ldr	r0, .L26+8
 398 0044 FFF7FEFF 		bl	_ZN5Timer12getStartTimeEv
 399              	.LVL28:
 464:Core/Src/main.cpp ****     {
 400              		.loc 1 464 23 view .LVU92
 401 0048 241A     		subs	r4, r4, r0
 464:Core/Src/main.cpp ****     {
 402              		.loc 1 464 5 view .LVU93
 403 004a B4F5967F 		cmp	r4, #300
 404 004e 32D2     		bcs	.L18
 466:Core/Src/main.cpp ****       {
 405              		.loc 1 466 7 is_stmt 1 view .LVU94
 466:Core/Src/main.cpp ****       {
 406              		.loc 1 466 22 is_stmt 0 view .LVU95
 407 0050 FFF7FEFF 		bl	HAL_GetTick
 408              	.LVL29:
 409 0054 0446     		mov	r4, r0
 466:Core/Src/main.cpp ****       {
 410              		.loc 1 466 48 view .LVU96
 411 0056 2348     		ldr	r0, .L26+8
 412 0058 FFF7FEFF 		bl	_ZN5Timer11getLastTickEv
 413              	.LVL30:
 466:Core/Src/main.cpp ****       {
 414              		.loc 1 466 25 view .LVU97
 415 005c 241A     		subs	r4, r4, r0
 466:Core/Src/main.cpp ****       {
 416              		.loc 1 466 7 view .LVU98
 417 005e 962C     		cmp	r4, #150
 418 0060 10D9     		bls	.L19
 468:Core/Src/main.cpp ****         insideZumer.turnOn();
 419              		.loc 1 468 9 is_stmt 1 view .LVU99
 468:Core/Src/main.cpp ****         insideZumer.turnOn();
 420              		.loc 1 468 30 is_stmt 0 view .LVU100
 421 0062 2048     		ldr	r0, .L26+8
 422 0064 FFF7FEFF 		bl	_ZN5Timer11setLastTickEv
 423              	.LVL31:
 469:Core/Src/main.cpp ****         outsideZumer.turnOn();
 424              		.loc 1 469 9 is_stmt 1 view .LVU101
 469:Core/Src/main.cpp ****         outsideZumer.turnOn();
 425              		.loc 1 469 27 is_stmt 0 view .LVU102
 426 0068 2048     		ldr	r0, .L26+16
 427 006a FFF7FEFF 		bl	_ZN14InvertedPinOut6turnOnEv
 428              	.LVL32:
 470:Core/Src/main.cpp ****       }
 429              		.loc 1 470 9 is_stmt 1 view .LVU103
 470:Core/Src/main.cpp ****       }
 430              		.loc 1 470 28 is_stmt 0 view .LVU104
 431 006e 2048     		ldr	r0, .L26+20
 432 0070 FFF7FEFF 		bl	_ZN14InvertedPinOut6turnOnEv
 433              	.LVL33:
 434 0074 D0E7     		b	.L14
 435              	.L25:
 460:Core/Src/main.cpp ****       firstTime = false;
 436              		.loc 1 460 7 is_stmt 1 view .LVU105
ARM GAS  C:\Users\Admin\AppData\Local\Temp\ccXKOSM3.s 			page 21


 460:Core/Src/main.cpp ****       firstTime = false;
 437              		.loc 1 460 22 is_stmt 0 view .LVU106
 438 0076 1B48     		ldr	r0, .L26+8
 439 0078 FFF7FEFF 		bl	_ZN5Timer5startEv
 440              	.LVL34:
 461:Core/Src/main.cpp ****     }
 441              		.loc 1 461 7 is_stmt 1 view .LVU107
 461:Core/Src/main.cpp ****     }
 442              		.loc 1 461 17 is_stmt 0 view .LVU108
 443 007c 1A4B     		ldr	r3, .L26+12
 444 007e 0022     		movs	r2, #0
 445 0080 1A70     		strb	r2, [r3]
 446 0082 DBE7     		b	.L17
 447              	.L19:
 472:Core/Src/main.cpp ****       {
 448              		.loc 1 472 12 is_stmt 1 view .LVU109
 472:Core/Src/main.cpp ****       {
 449              		.loc 1 472 27 is_stmt 0 view .LVU110
 450 0084 FFF7FEFF 		bl	HAL_GetTick
 451              	.LVL35:
 452 0088 0446     		mov	r4, r0
 472:Core/Src/main.cpp ****       {
 453              		.loc 1 472 53 view .LVU111
 454 008a 1648     		ldr	r0, .L26+8
 455 008c FFF7FEFF 		bl	_ZN5Timer11getLastTickEv
 456              	.LVL36:
 472:Core/Src/main.cpp ****       {
 457              		.loc 1 472 30 view .LVU112
 458 0090 241A     		subs	r4, r4, r0
 472:Core/Src/main.cpp ****       {
 459              		.loc 1 472 62 view .LVU113
 460 0092 952C     		cmp	r4, #149
 461 0094 C0D8     		bhi	.L14
 472:Core/Src/main.cpp ****       {
 462              		.loc 1 472 76 discriminator 1 view .LVU114
 463 0096 FFF7FEFF 		bl	HAL_GetTick
 464              	.LVL37:
 465 009a 0446     		mov	r4, r0
 472:Core/Src/main.cpp ****       {
 466              		.loc 1 472 102 discriminator 1 view .LVU115
 467 009c 1148     		ldr	r0, .L26+8
 468 009e FFF7FEFF 		bl	_ZN5Timer11getLastTickEv
 469              	.LVL38:
 472:Core/Src/main.cpp ****       {
 470              		.loc 1 472 79 discriminator 1 view .LVU116
 471 00a2 241A     		subs	r4, r4, r0
 472:Core/Src/main.cpp ****       {
 472              		.loc 1 472 62 discriminator 1 view .LVU117
 473 00a4 4B2C     		cmp	r4, #75
 474 00a6 B7D9     		bls	.L14
 474:Core/Src/main.cpp ****         outsideZumer.turnOff();
 475              		.loc 1 474 9 is_stmt 1 view .LVU118
 474:Core/Src/main.cpp ****         outsideZumer.turnOff();
 476              		.loc 1 474 28 is_stmt 0 view .LVU119
 477 00a8 1048     		ldr	r0, .L26+16
 478 00aa FFF7FEFF 		bl	_ZN14InvertedPinOut7turnOffEv
 479              	.LVL39:
ARM GAS  C:\Users\Admin\AppData\Local\Temp\ccXKOSM3.s 			page 22


 475:Core/Src/main.cpp ****       }
 480              		.loc 1 475 9 is_stmt 1 view .LVU120
 475:Core/Src/main.cpp ****       }
 481              		.loc 1 475 29 is_stmt 0 view .LVU121
 482 00ae 1048     		ldr	r0, .L26+20
 483 00b0 FFF7FEFF 		bl	_ZN14InvertedPinOut7turnOffEv
 484              	.LVL40:
 485 00b4 B0E7     		b	.L14
 486              	.L18:
 480:Core/Src/main.cpp ****       insideZumer.turnOff();
 487              		.loc 1 480 7 is_stmt 1 view .LVU122
 480:Core/Src/main.cpp ****       insideZumer.turnOff();
 488              		.loc 1 480 16 is_stmt 0 view .LVU123
 489 00b6 0F4B     		ldr	r3, .L26+24
 490 00b8 1A68     		ldr	r2, [r3]
 491 00ba 094B     		ldr	r3, .L26+4
 492 00bc 1A60     		str	r2, [r3]
 481:Core/Src/main.cpp ****       outsideZumer.turnOff();
 493              		.loc 1 481 7 is_stmt 1 view .LVU124
 481:Core/Src/main.cpp ****       outsideZumer.turnOff();
 494              		.loc 1 481 26 is_stmt 0 view .LVU125
 495 00be 0B48     		ldr	r0, .L26+16
 496 00c0 FFF7FEFF 		bl	_ZN14InvertedPinOut7turnOffEv
 497              	.LVL41:
 482:Core/Src/main.cpp ****       firstTime = true;
 498              		.loc 1 482 7 is_stmt 1 view .LVU126
 482:Core/Src/main.cpp ****       firstTime = true;
 499              		.loc 1 482 27 is_stmt 0 view .LVU127
 500 00c4 0A48     		ldr	r0, .L26+20
 501 00c6 FFF7FEFF 		bl	_ZN14InvertedPinOut7turnOffEv
 502              	.LVL42:
 483:Core/Src/main.cpp ****     }
 503              		.loc 1 483 7 is_stmt 1 view .LVU128
 483:Core/Src/main.cpp ****     }
 504              		.loc 1 483 17 is_stmt 0 view .LVU129
 505 00ca 074B     		ldr	r3, .L26+12
 506 00cc 0122     		movs	r2, #1
 507 00ce 1A70     		strb	r2, [r3]
 486:Core/Src/main.cpp **** 
 508              		.loc 1 486 1 view .LVU130
 509 00d0 A2E7     		b	.L14
 510              	.L21:
 453:Core/Src/main.cpp ****   static bool firstTime = true;
 511              		.loc 1 453 30 view .LVU131
 512 00d2 0248     		ldr	r0, .L26
 513 00d4 FFF7FEFF 		bl	__cxa_guard_abort
 514              	.LVL43:
 515 00d8 FFF7FEFF 		bl	__cxa_end_cleanup
 516              	.LVL44:
 517              	.LEHE1:
 518              	.L27:
 519              		.align	2
 520              	.L26:
 521 00dc 00000000 		.word	.LANCHOR8
 522 00e0 00000000 		.word	workMode
 523 00e4 00000000 		.word	.LANCHOR9
 524 00e8 00000000 		.word	.LANCHOR10
ARM GAS  C:\Users\Admin\AppData\Local\Temp\ccXKOSM3.s 			page 23


 525 00ec 00000000 		.word	.LANCHOR3
 526 00f0 00000000 		.word	.LANCHOR4
 527 00f4 00000000 		.word	previousWorkMode
 528              		.cfi_endproc
 529              	.LFE83:
 530              		.global	__gxx_personality_v0
 531              		.personality	__gxx_personality_v0
 532              		.handlerdata
 533              	.LLSDA83:
 534 0008 FF       		.byte	0xff
 535 0009 FF       		.byte	0xff
 536 000a 01       		.byte	0x1
 537 000b 0A       		.uleb128 .LLSDACSE83-.LLSDACSB83
 538              	.LLSDACSB83:
 539 000c 2A       		.uleb128 .LEHB0-.LFB83
 540 000d 04       		.uleb128 .LEHE0-.LEHB0
 541 000e D201     		.uleb128 .L21-.LFB83
 542 0010 00       		.uleb128 0
 543 0011 3C       		.uleb128 .LEHB1-.LFB83
 544 0012 A001     		.uleb128 .LEHE1-.LEHB1
 545 0014 00       		.uleb128 0
 546 0015 00       		.uleb128 0
 547              	.LLSDACSE83:
 548              		.section	.text._Z12DenyKeyEventv
 549              		.fnend
 551              		.section	.text.HAL_GPIO_EXTI_Callback,"ax",%progbits
 552              		.align	1
 553              		.global	HAL_GPIO_EXTI_Callback
 554              		.syntax unified
 555              		.thumb
 556              		.thumb_func
 557              		.fpu softvfp
 559              	HAL_GPIO_EXTI_Callback:
 560              		.fnstart
 561              	.LVL45:
 562              	.LFB85:
 524:Core/Src/main.cpp ****   switch (GPIO_Pin)
 563              		.loc 1 524 1 is_stmt 1 view -0
 564              		.cfi_startproc
 565              		@ args = 0, pretend = 0, frame = 0
 566              		@ frame_needed = 0, uses_anonymous_args = 0
 524:Core/Src/main.cpp ****   switch (GPIO_Pin)
 567              		.loc 1 524 1 is_stmt 0 view .LVU133
 568 0000 08B5     		push	{r3, lr}
 569              		.save {r3, lr}
 570              	.LCFI5:
 571              		.cfi_def_cfa_offset 8
 572              		.cfi_offset 3, -8
 573              		.cfi_offset 14, -4
 525:Core/Src/main.cpp ****   {
 574              		.loc 1 525 3 is_stmt 1 view .LVU134
 575 0002 0828     		cmp	r0, #8
 576 0004 0AD8     		bhi	.L29
 577 0006 03B2     		sxth	r3, r0
 578 0008 2BB3     		cbz	r3, .L28
 579 000a 0138     		subs	r0, r0, #1
 580              	.LVL46:
ARM GAS  C:\Users\Admin\AppData\Local\Temp\ccXKOSM3.s 			page 24


 525:Core/Src/main.cpp ****   {
 581              		.loc 1 525 3 is_stmt 0 view .LVU135
 582 000c 0728     		cmp	r0, #7
 583 000e 22D8     		bhi	.L28
 584 0010 DFE800F0 		tbb	[pc, r0]
 585              	.LVL47:
 586              	.L32:
 587 0014 26       		.byte	(.L35-.L32)/2
 588 0015 30       		.byte	(.L34-.L32)/2
 589 0016 21       		.byte	(.L28-.L32)/2
 590 0017 1E       		.byte	(.L33-.L32)/2
 591 0018 21       		.byte	(.L28-.L32)/2
 592 0019 21       		.byte	(.L28-.L32)/2
 593 001a 21       		.byte	(.L28-.L32)/2
 594 001b 22       		.byte	(.L31-.L32)/2
 595              		.p2align 1
 596              	.L29:
 525:Core/Src/main.cpp ****   {
 597              		.loc 1 525 3 view .LVU136
 598 001c 8028     		cmp	r0, #128
 599 001e 33D0     		beq	.L36
 600 0020 B0F5807F 		cmp	r0, #256
 601 0024 09D1     		bne	.L40
 537:Core/Src/main.cpp ****   {
 602              		.loc 1 537 3 is_stmt 1 view .LVU137
 538:Core/Src/main.cpp ****     if (doorSensorFirstTime)
 603              		.loc 1 538 3 view .LVU138
 539:Core/Src/main.cpp ****     {
 604              		.loc 1 539 5 view .LVU139
 605 0026 1D4B     		ldr	r3, .L41
 606 0028 1B78     		ldrb	r3, [r3]	@ zero_extendqisi2
 607 002a A3B1     		cbz	r3, .L28
 541:Core/Src/main.cpp ****       doorSensorFirstTime = false;
 608              		.loc 1 541 7 view .LVU140
 541:Core/Src/main.cpp ****       doorSensorFirstTime = false;
 609              		.loc 1 541 28 is_stmt 0 view .LVU141
 610 002c 1C48     		ldr	r0, .L41+4
 611              	.LVL48:
 541:Core/Src/main.cpp ****       doorSensorFirstTime = false;
 612              		.loc 1 541 28 view .LVU142
 613 002e FFF7FEFF 		bl	_ZN5Timer5startEv
 614              	.LVL49:
 542:Core/Src/main.cpp ****     }
 615              		.loc 1 542 7 is_stmt 1 view .LVU143
 542:Core/Src/main.cpp ****     }
 616              		.loc 1 542 27 is_stmt 0 view .LVU144
 617 0032 1A4B     		ldr	r3, .L41
 618 0034 0022     		movs	r2, #0
 619 0036 1A70     		strb	r2, [r3]
 620 0038 0DE0     		b	.L28
 621              	.LVL50:
 622              	.L40:
 525:Core/Src/main.cpp ****   {
 623              		.loc 1 525 3 view .LVU145
 624 003a 4028     		cmp	r0, #64
 625 003c 0BD1     		bne	.L28
 564:Core/Src/main.cpp ****   {
ARM GAS  C:\Users\Admin\AppData\Local\Temp\ccXKOSM3.s 			page 25


 626              		.loc 1 564 3 is_stmt 1 view .LVU146
 565:Core/Src/main.cpp ****     if (wig_flag_inrt)
 627              		.loc 1 565 3 view .LVU147
 566:Core/Src/main.cpp ****     {
 628              		.loc 1 566 5 view .LVU148
 566:Core/Src/main.cpp ****     {
 629              		.loc 1 566 9 is_stmt 0 view .LVU149
 630 003e 194B     		ldr	r3, .L41+8
 631 0040 1B78     		ldrb	r3, [r3]	@ zero_extendqisi2
 566:Core/Src/main.cpp ****     {
 632              		.loc 1 566 5 view .LVU150
 633 0042 43B1     		cbz	r3, .L28
 568:Core/Src/main.cpp ****       outsideKeyRead = true;
 634              		.loc 1 568 7 is_stmt 1 view .LVU151
 568:Core/Src/main.cpp ****       outsideKeyRead = true;
 635              		.loc 1 568 13 is_stmt 0 view .LVU152
 636 0044 FFF7FEFF 		bl	ReadD0
 637              	.LVL51:
 569:Core/Src/main.cpp ****     }
 638              		.loc 1 569 7 is_stmt 1 view .LVU153
 569:Core/Src/main.cpp ****     }
 639              		.loc 1 569 22 is_stmt 0 view .LVU154
 640 0048 174B     		ldr	r3, .L41+12
 641 004a 0122     		movs	r2, #1
 642 004c 1A70     		strb	r2, [r3]
 643 004e 02E0     		b	.L28
 644              	.L33:
 527:Core/Src/main.cpp ****   {
 645              		.loc 1 527 3 is_stmt 1 view .LVU155
 528:Core/Src/main.cpp ****     insideButtonPressed = true;
 646              		.loc 1 528 3 view .LVU156
 529:Core/Src/main.cpp ****     break;
 647              		.loc 1 529 5 view .LVU157
 529:Core/Src/main.cpp ****     break;
 648              		.loc 1 529 25 is_stmt 0 view .LVU158
 649 0050 164B     		ldr	r3, .L41+16
 650 0052 0122     		movs	r2, #1
 651 0054 1A70     		strb	r2, [r3]
 530:Core/Src/main.cpp ****   }
 652              		.loc 1 530 5 is_stmt 1 view .LVU159
 653              	.L28:
 587:Core/Src/main.cpp **** 
 654              		.loc 1 587 1 is_stmt 0 view .LVU160
 655 0056 08BD     		pop	{r3, pc}
 656              	.L31:
 532:Core/Src/main.cpp ****   {
 657              		.loc 1 532 3 is_stmt 1 view .LVU161
 533:Core/Src/main.cpp ****     outsideButtonPressed = true;
 658              		.loc 1 533 3 view .LVU162
 534:Core/Src/main.cpp ****     break;
 659              		.loc 1 534 5 view .LVU163
 534:Core/Src/main.cpp ****     break;
 660              		.loc 1 534 26 is_stmt 0 view .LVU164
 661 0058 154B     		ldr	r3, .L41+20
 662 005a 0122     		movs	r2, #1
 663 005c 1A70     		strb	r2, [r3]
 535:Core/Src/main.cpp ****   }
ARM GAS  C:\Users\Admin\AppData\Local\Temp\ccXKOSM3.s 			page 26


 664              		.loc 1 535 5 is_stmt 1 view .LVU165
 665 005e FAE7     		b	.L28
 666              	.L35:
 546:Core/Src/main.cpp ****   {
 667              		.loc 1 546 3 view .LVU166
 547:Core/Src/main.cpp ****     if (wig_flag_inrt)
 668              		.loc 1 547 3 view .LVU167
 548:Core/Src/main.cpp ****     {
 669              		.loc 1 548 5 view .LVU168
 548:Core/Src/main.cpp ****     {
 670              		.loc 1 548 9 is_stmt 0 view .LVU169
 671 0060 104B     		ldr	r3, .L41+8
 672 0062 1B78     		ldrb	r3, [r3]	@ zero_extendqisi2
 548:Core/Src/main.cpp ****     {
 673              		.loc 1 548 5 view .LVU170
 674 0064 002B     		cmp	r3, #0
 675 0066 F6D0     		beq	.L28
 550:Core/Src/main.cpp ****       insideKeyRead = true;
 676              		.loc 1 550 7 is_stmt 1 view .LVU171
 550:Core/Src/main.cpp ****       insideKeyRead = true;
 677              		.loc 1 550 13 is_stmt 0 view .LVU172
 678 0068 FFF7FEFF 		bl	ReadD0
 679              	.LVL52:
 551:Core/Src/main.cpp ****     }
 680              		.loc 1 551 7 is_stmt 1 view .LVU173
 551:Core/Src/main.cpp ****     }
 681              		.loc 1 551 21 is_stmt 0 view .LVU174
 682 006c 114B     		ldr	r3, .L41+24
 683 006e 0122     		movs	r2, #1
 684 0070 1A70     		strb	r2, [r3]
 685 0072 F0E7     		b	.L28
 686              	.L34:
 555:Core/Src/main.cpp ****   {
 687              		.loc 1 555 3 is_stmt 1 view .LVU175
 556:Core/Src/main.cpp ****     if (wig_flag_inrt)
 688              		.loc 1 556 3 view .LVU176
 557:Core/Src/main.cpp ****     {
 689              		.loc 1 557 5 view .LVU177
 557:Core/Src/main.cpp ****     {
 690              		.loc 1 557 9 is_stmt 0 view .LVU178
 691 0074 0B4B     		ldr	r3, .L41+8
 692 0076 1B78     		ldrb	r3, [r3]	@ zero_extendqisi2
 557:Core/Src/main.cpp ****     {
 693              		.loc 1 557 5 view .LVU179
 694 0078 002B     		cmp	r3, #0
 695 007a ECD0     		beq	.L28
 559:Core/Src/main.cpp ****       insideKeyRead = true;
 696              		.loc 1 559 7 is_stmt 1 view .LVU180
 559:Core/Src/main.cpp ****       insideKeyRead = true;
 697              		.loc 1 559 13 is_stmt 0 view .LVU181
 698 007c FFF7FEFF 		bl	ReadD1
 699              	.LVL53:
 560:Core/Src/main.cpp ****     }
 700              		.loc 1 560 7 is_stmt 1 view .LVU182
 560:Core/Src/main.cpp ****     }
 701              		.loc 1 560 21 is_stmt 0 view .LVU183
 702 0080 0C4B     		ldr	r3, .L41+24
ARM GAS  C:\Users\Admin\AppData\Local\Temp\ccXKOSM3.s 			page 27


 703 0082 0122     		movs	r2, #1
 704 0084 1A70     		strb	r2, [r3]
 705 0086 E6E7     		b	.L28
 706              	.LVL54:
 707              	.L36:
 573:Core/Src/main.cpp ****   {
 708              		.loc 1 573 3 is_stmt 1 view .LVU184
 574:Core/Src/main.cpp ****     if (wig_flag_inrt)
 709              		.loc 1 574 3 view .LVU185
 575:Core/Src/main.cpp ****     {
 710              		.loc 1 575 5 view .LVU186
 575:Core/Src/main.cpp ****     {
 711              		.loc 1 575 9 is_stmt 0 view .LVU187
 712 0088 064B     		ldr	r3, .L41+8
 713 008a 1B78     		ldrb	r3, [r3]	@ zero_extendqisi2
 575:Core/Src/main.cpp ****     {
 714              		.loc 1 575 5 view .LVU188
 715 008c 002B     		cmp	r3, #0
 716 008e E2D0     		beq	.L28
 577:Core/Src/main.cpp ****       outsideKeyRead = true;
 717              		.loc 1 577 7 is_stmt 1 view .LVU189
 577:Core/Src/main.cpp ****       outsideKeyRead = true;
 718              		.loc 1 577 13 is_stmt 0 view .LVU190
 719 0090 FFF7FEFF 		bl	ReadD1
 720              	.LVL55:
 578:Core/Src/main.cpp ****     }
 721              		.loc 1 578 7 is_stmt 1 view .LVU191
 578:Core/Src/main.cpp ****     }
 722              		.loc 1 578 22 is_stmt 0 view .LVU192
 723 0094 044B     		ldr	r3, .L41+12
 724 0096 0122     		movs	r2, #1
 725 0098 1A70     		strb	r2, [r3]
 587:Core/Src/main.cpp **** 
 726              		.loc 1 587 1 view .LVU193
 727 009a DCE7     		b	.L28
 728              	.L42:
 729              		.align	2
 730              	.L41:
 731 009c 00000000 		.word	doorSensorFirstTime
 732 00a0 00000000 		.word	.LANCHOR7
 733 00a4 00000000 		.word	.LANCHOR11
 734 00a8 00000000 		.word	.LANCHOR13
 735 00ac 00000000 		.word	insideButtonPressed
 736 00b0 00000000 		.word	outsideButtonPressed
 737 00b4 00000000 		.word	.LANCHOR12
 738              		.cfi_endproc
 739              	.LFE85:
 740              		.fnend
 742              		.section	.text._Z11UART_PrintfPKcz,"ax",%progbits
 743              		.align	1
 744              		.global	_Z11UART_PrintfPKcz
 745              		.syntax unified
 746              		.thumb
 747              		.thumb_func
 748              		.fpu softvfp
 750              	_Z11UART_PrintfPKcz:
 751              		.fnstart
ARM GAS  C:\Users\Admin\AppData\Local\Temp\ccXKOSM3.s 			page 28


 752              	.LVL56:
 753              	.LFB86:
 590:Core/Src/main.cpp ****   char buff[256];
 754              		.loc 1 590 1 is_stmt 1 view -0
 755              		.cfi_startproc
 756              		@ args = 4, pretend = 16, frame = 264
 757              		@ frame_needed = 0, uses_anonymous_args = 1
 590:Core/Src/main.cpp ****   char buff[256];
 758              		.loc 1 590 1 is_stmt 0 view .LVU195
 759 0000 0FB4     		push	{r0, r1, r2, r3}
 760              		.save {r0, r1, r2, r3}
 761              	.LCFI6:
 762              		.cfi_def_cfa_offset 16
 763              		.cfi_offset 0, -16
 764              		.cfi_offset 1, -12
 765              		.cfi_offset 2, -8
 766              		.cfi_offset 3, -4
 767 0002 00B5     		push	{lr}
 768              		.save {lr}
 769              	.LCFI7:
 770              		.cfi_def_cfa_offset 20
 771              		.cfi_offset 14, -20
 772              		.pad #268
 773 0004 C3B0     		sub	sp, sp, #268
 774              	.LCFI8:
 775              		.cfi_def_cfa_offset 288
 776 0006 44AB     		add	r3, sp, #272
 777 0008 53F8042B 		ldr	r2, [r3], #4
 591:Core/Src/main.cpp ****   va_list args;
 778              		.loc 1 591 3 is_stmt 1 view .LVU196
 592:Core/Src/main.cpp ****   va_start(args, fmt);
 779              		.loc 1 592 3 view .LVU197
 593:Core/Src/main.cpp ****   vsnprintf(buff, sizeof(buff), fmt, args);
 780              		.loc 1 593 3 view .LVU198
 781 000c 0193     		str	r3, [sp, #4]
 594:Core/Src/main.cpp ****   HAL_UART_Transmit(&huart1, (uint8_t *)buff, strlen(buff), HAL_MAX_DELAY);
 782              		.loc 1 594 3 view .LVU199
 594:Core/Src/main.cpp ****   HAL_UART_Transmit(&huart1, (uint8_t *)buff, strlen(buff), HAL_MAX_DELAY);
 783              		.loc 1 594 12 is_stmt 0 view .LVU200
 784 000e 4FF48071 		mov	r1, #256
 785 0012 02A8     		add	r0, sp, #8
 786 0014 FFF7FEFF 		bl	vsnprintf
 787              	.LVL57:
 595:Core/Src/main.cpp ****   va_end(args);
 788              		.loc 1 595 3 is_stmt 1 view .LVU201
 595:Core/Src/main.cpp ****   va_end(args);
 789              		.loc 1 595 53 is_stmt 0 view .LVU202
 790 0018 02A8     		add	r0, sp, #8
 791 001a FFF7FEFF 		bl	strlen
 792              	.LVL58:
 595:Core/Src/main.cpp ****   va_end(args);
 793              		.loc 1 595 20 view .LVU203
 794 001e 4FF0FF33 		mov	r3, #-1
 795 0022 82B2     		uxth	r2, r0
 796 0024 02A9     		add	r1, sp, #8
 797 0026 0448     		ldr	r0, .L45
 798 0028 FFF7FEFF 		bl	HAL_UART_Transmit
ARM GAS  C:\Users\Admin\AppData\Local\Temp\ccXKOSM3.s 			page 29


 799              	.LVL59:
 596:Core/Src/main.cpp **** }
 800              		.loc 1 596 3 is_stmt 1 view .LVU204
 597:Core/Src/main.cpp **** 
 801              		.loc 1 597 1 is_stmt 0 view .LVU205
 802 002c 43B0     		add	sp, sp, #268
 803              	.LCFI9:
 804              		.cfi_def_cfa_offset 20
 805              		@ sp needed
 806 002e 5DF804EB 		ldr	lr, [sp], #4
 807              	.LCFI10:
 808              		.cfi_restore 14
 809              		.cfi_def_cfa_offset 16
 810 0032 04B0     		add	sp, sp, #16
 811              	.LCFI11:
 812              		.cfi_restore 3
 813              		.cfi_restore 2
 814              		.cfi_restore 1
 815              		.cfi_restore 0
 816              		.cfi_def_cfa_offset 0
 817 0034 7047     		bx	lr
 818              	.L46:
 819 0036 00BF     		.align	2
 820              	.L45:
 821 0038 00000000 		.word	.LANCHOR14
 822              		.cfi_endproc
 823              	.LFE86:
 824              		.fnend
 826              		.section	.rodata._Z14TimeTrackEventv.str1.4,"aMS",%progbits,1
 827              		.align	2
 828              	.LC0:
 829 0000 20736563 		.ascii	" sec.\000"
 829      2E00
 830 0006 0000     		.align	2
 831              	.LC1:
 832 0008 54696D65 		.ascii	"Time passed: %d%s\015\012\000"
 832      20706173 
 832      7365643A 
 832      20256425 
 832      730D0A00 
 833              		.section	.text._Z14TimeTrackEventv,"ax",%progbits
 834              		.align	1
 835              		.global	_Z14TimeTrackEventv
 836              		.syntax unified
 837              		.thumb
 838              		.thumb_func
 839              		.fpu softvfp
 841              	_Z14TimeTrackEventv:
 842              		.fnstart
 843              	.LFB77:
 279:Core/Src/main.cpp ****   if ((HAL_GetTick() - timmeTrack) > 5000)
 844              		.loc 1 279 1 is_stmt 1 view -0
 845              		.cfi_startproc
 846              		@ args = 0, pretend = 0, frame = 0
 847              		@ frame_needed = 0, uses_anonymous_args = 0
 848 0000 08B5     		push	{r3, lr}
 849              		.save {r3, lr}
ARM GAS  C:\Users\Admin\AppData\Local\Temp\ccXKOSM3.s 			page 30


 850              	.LCFI12:
 851              		.cfi_def_cfa_offset 8
 852              		.cfi_offset 3, -8
 853              		.cfi_offset 14, -4
 280:Core/Src/main.cpp ****   {
 854              		.loc 1 280 3 view .LVU207
 280:Core/Src/main.cpp ****   {
 855              		.loc 1 280 19 is_stmt 0 view .LVU208
 856 0002 FFF7FEFF 		bl	HAL_GetTick
 857              	.LVL60:
 280:Core/Src/main.cpp ****   {
 858              		.loc 1 280 22 view .LVU209
 859 0006 0D4B     		ldr	r3, .L51
 860 0008 1B68     		ldr	r3, [r3]
 861 000a C01A     		subs	r0, r0, r3
 280:Core/Src/main.cpp ****   {
 862              		.loc 1 280 3 view .LVU210
 863 000c 41F28833 		movw	r3, #5000
 864 0010 9842     		cmp	r0, r3
 865 0012 00D8     		bhi	.L50
 866              	.L47:
 285:Core/Src/main.cpp **** 
 867              		.loc 1 285 1 view .LVU211
 868 0014 08BD     		pop	{r3, pc}
 869              	.L50:
 282:Core/Src/main.cpp ****     timmeTrack = HAL_GetTick();
 870              		.loc 1 282 5 is_stmt 1 view .LVU212
 282:Core/Src/main.cpp ****     timmeTrack = HAL_GetTick();
 871              		.loc 1 282 54 is_stmt 0 view .LVU213
 872 0016 FFF7FEFF 		bl	HAL_GetTick
 873              	.LVL61:
 282:Core/Src/main.cpp ****     timmeTrack = HAL_GetTick();
 874              		.loc 1 282 57 view .LVU214
 875 001a 094B     		ldr	r3, .L51+4
 876 001c 1968     		ldr	r1, [r3]
 877 001e 411A     		subs	r1, r0, r1
 282:Core/Src/main.cpp ****     timmeTrack = HAL_GetTick();
 878              		.loc 1 282 16 view .LVU215
 879 0020 0848     		ldr	r0, .L51+8
 880 0022 A0FB0131 		umull	r3, r1, r0, r1
 881 0026 084A     		ldr	r2, .L51+12
 882 0028 8909     		lsrs	r1, r1, #6
 883 002a 0848     		ldr	r0, .L51+16
 884 002c FFF7FEFF 		bl	_Z11UART_PrintfPKcz
 885              	.LVL62:
 283:Core/Src/main.cpp ****   }
 886              		.loc 1 283 5 is_stmt 1 view .LVU216
 283:Core/Src/main.cpp ****   }
 887              		.loc 1 283 29 is_stmt 0 view .LVU217
 888 0030 FFF7FEFF 		bl	HAL_GetTick
 889              	.LVL63:
 283:Core/Src/main.cpp ****   }
 890              		.loc 1 283 16 view .LVU218
 891 0034 014B     		ldr	r3, .L51
 892 0036 1860     		str	r0, [r3]
 285:Core/Src/main.cpp **** 
 893              		.loc 1 285 1 view .LVU219
ARM GAS  C:\Users\Admin\AppData\Local\Temp\ccXKOSM3.s 			page 31


 894 0038 ECE7     		b	.L47
 895              	.L52:
 896 003a 00BF     		.align	2
 897              	.L51:
 898 003c 00000000 		.word	.LANCHOR15
 899 0040 00000000 		.word	.LANCHOR16
 900 0044 D34D6210 		.word	274877907
 901 0048 00000000 		.word	.LC0
 902 004c 08000000 		.word	.LC1
 903              		.cfi_endproc
 904              	.LFE77:
 905              		.fnend
 907              		.section	.rodata._Z15DoorSensorEventv.str1.4,"aMS",%progbits,1
 908              		.align	2
 909              	.LC2:
 910 0000 446F6F72 		.ascii	"Door was closed.\015\012\000"
 910      20776173 
 910      20636C6F 
 910      7365642E 
 910      0D0A00
 911 0013 00       		.align	2
 912              	.LC3:
 913 0014 446F6F72 		.ascii	"Door was opened.\015\012\000"
 913      20776173 
 913      206F7065 
 913      6E65642E 
 913      0D0A00
 914              		.section	.text._Z15DoorSensorEventv,"ax",%progbits
 915              		.align	1
 916              		.global	_Z15DoorSensorEventv
 917              		.syntax unified
 918              		.thumb
 919              		.thumb_func
 920              		.fpu softvfp
 922              	_Z15DoorSensorEventv:
 923              		.fnstart
 924              	.LFB79:
 297:Core/Src/main.cpp ****   if (HAL_GetTick() - doorSensorTimer.getStartTime() > 100 && doorSensorFirstTime == false)
 925              		.loc 1 297 1 is_stmt 1 view -0
 926              		.cfi_startproc
 927              		@ args = 0, pretend = 0, frame = 0
 928              		@ frame_needed = 0, uses_anonymous_args = 0
 929 0000 10B5     		push	{r4, lr}
 930              		.save {r4, lr}
 931              	.LCFI13:
 932              		.cfi_def_cfa_offset 8
 933              		.cfi_offset 4, -8
 934              		.cfi_offset 14, -4
 298:Core/Src/main.cpp ****   {
 935              		.loc 1 298 3 view .LVU221
 298:Core/Src/main.cpp ****   {
 936              		.loc 1 298 18 is_stmt 0 view .LVU222
 937 0002 FFF7FEFF 		bl	HAL_GetTick
 938              	.LVL64:
 939 0006 0446     		mov	r4, r0
 298:Core/Src/main.cpp ****   {
 940              		.loc 1 298 51 view .LVU223
ARM GAS  C:\Users\Admin\AppData\Local\Temp\ccXKOSM3.s 			page 32


 941 0008 1648     		ldr	r0, .L61
 942 000a FFF7FEFF 		bl	_ZN5Timer12getStartTimeEv
 943              	.LVL65:
 298:Core/Src/main.cpp ****   {
 944              		.loc 1 298 21 view .LVU224
 945 000e 241A     		subs	r4, r4, r0
 298:Core/Src/main.cpp ****   {
 946              		.loc 1 298 60 view .LVU225
 947 0010 642C     		cmp	r4, #100
 948 0012 02D9     		bls	.L53
 298:Core/Src/main.cpp ****   {
 949              		.loc 1 298 83 discriminator 1 view .LVU226
 950 0014 144B     		ldr	r3, .L61+4
 951 0016 1B78     		ldrb	r3, [r3]	@ zero_extendqisi2
 298:Core/Src/main.cpp ****   {
 952              		.loc 1 298 60 discriminator 1 view .LVU227
 953 0018 03B1     		cbz	r3, .L59
 954              	.L53:
 318:Core/Src/main.cpp **** 
 955              		.loc 1 318 1 view .LVU228
 956 001a 10BD     		pop	{r4, pc}
 957              	.L59:
 300:Core/Src/main.cpp **** 
 958              		.loc 1 300 5 is_stmt 1 view .LVU229
 300:Core/Src/main.cpp **** 
 959              		.loc 1 300 25 is_stmt 0 view .LVU230
 960 001c 134C     		ldr	r4, .L61+8
 961 001e 2046     		mov	r0, r4
 962 0020 FFF7FEFF 		bl	_ZN12InterruptPin15setStateChangedEv
 963              	.LVL66:
 302:Core/Src/main.cpp ****     {
 964              		.loc 1 302 5 is_stmt 1 view .LVU231
 302:Core/Src/main.cpp ****     {
 965              		.loc 1 302 22 is_stmt 0 view .LVU232
 966 0024 2046     		mov	r0, r4
 967 0026 FFF7FEFF 		bl	_ZN5PinIn8getStateEv
 968              	.LVL67:
 302:Core/Src/main.cpp ****     {
 969              		.loc 1 302 5 view .LVU233
 970 002a 48B9     		cbnz	r0, .L55
 304:Core/Src/main.cpp ****     }
 971              		.loc 1 304 7 is_stmt 1 view .LVU234
 304:Core/Src/main.cpp ****     }
 972              		.loc 1 304 18 is_stmt 0 view .LVU235
 973 002c 1048     		ldr	r0, .L61+12
 974 002e FFF7FEFF 		bl	_Z11UART_PrintfPKcz
 975              	.LVL68:
 976              	.L56:
 311:Core/Src/main.cpp ****     {
 977              		.loc 1 311 5 is_stmt 1 view .LVU236
 311:Core/Src/main.cpp ****     {
 978              		.loc 1 311 18 is_stmt 0 view .LVU237
 979 0032 104B     		ldr	r3, .L61+16
 980 0034 1B68     		ldr	r3, [r3]
 311:Core/Src/main.cpp ****     {
 981              		.loc 1 311 44 view .LVU238
 982 0036 63B9     		cbnz	r3, .L60
ARM GAS  C:\Users\Admin\AppData\Local\Temp\ccXKOSM3.s 			page 33


 983              	.L57:
 316:Core/Src/main.cpp ****   }
 984              		.loc 1 316 5 is_stmt 1 view .LVU239
 316:Core/Src/main.cpp ****   }
 985              		.loc 1 316 25 is_stmt 0 view .LVU240
 986 0038 0B4B     		ldr	r3, .L61+4
 987 003a 0122     		movs	r2, #1
 988 003c 1A70     		strb	r2, [r3]
 318:Core/Src/main.cpp **** 
 989              		.loc 1 318 1 view .LVU241
 990 003e ECE7     		b	.L53
 991              	.L55:
 306:Core/Src/main.cpp ****     {
 992              		.loc 1 306 10 is_stmt 1 view .LVU242
 306:Core/Src/main.cpp ****     {
 993              		.loc 1 306 27 is_stmt 0 view .LVU243
 994 0040 0A48     		ldr	r0, .L61+8
 995 0042 FFF7FEFF 		bl	_ZN5PinIn8getStateEv
 996              	.LVL69:
 306:Core/Src/main.cpp ****     {
 997              		.loc 1 306 10 view .LVU244
 998 0046 0128     		cmp	r0, #1
 999 0048 F3D1     		bne	.L56
 308:Core/Src/main.cpp ****     }
 1000              		.loc 1 308 7 is_stmt 1 view .LVU245
 308:Core/Src/main.cpp ****     }
 1001              		.loc 1 308 18 is_stmt 0 view .LVU246
 1002 004a 0B48     		ldr	r0, .L61+20
 1003 004c FFF7FEFF 		bl	_Z11UART_PrintfPKcz
 1004              	.LVL70:
 1005 0050 EFE7     		b	.L56
 1006              	.L60:
 311:Core/Src/main.cpp ****     {
 1007              		.loc 1 311 60 discriminator 1 view .LVU247
 1008 0052 0648     		ldr	r0, .L61+8
 1009 0054 FFF7FEFF 		bl	_ZN5PinIn8getStateEv
 1010              	.LVL71:
 311:Core/Src/main.cpp ****     {
 1011              		.loc 1 311 44 discriminator 1 view .LVU248
 1012 0058 0128     		cmp	r0, #1
 1013 005a EDD1     		bne	.L57
 313:Core/Src/main.cpp ****     }
 1014              		.loc 1 313 7 is_stmt 1 view .LVU249
 313:Core/Src/main.cpp ****     }
 1015              		.loc 1 313 16 is_stmt 0 view .LVU250
 1016 005c 054B     		ldr	r3, .L61+16
 1017 005e 0322     		movs	r2, #3
 1018 0060 1A60     		str	r2, [r3]
 1019 0062 E9E7     		b	.L57
 1020              	.L62:
 1021              		.align	2
 1022              	.L61:
 1023 0064 00000000 		.word	.LANCHOR7
 1024 0068 00000000 		.word	doorSensorFirstTime
 1025 006c 00000000 		.word	.LANCHOR0
 1026 0070 00000000 		.word	.LC2
 1027 0074 00000000 		.word	workMode
ARM GAS  C:\Users\Admin\AppData\Local\Temp\ccXKOSM3.s 			page 34


 1028 0078 14000000 		.word	.LC3
 1029              		.cfi_endproc
 1030              	.LFE79:
 1031              		.fnend
 1033              		.section	.rodata._Z18ButtonPressedEventv.str1.4,"aMS",%progbits,1
 1034              		.align	2
 1035              	.LC4:
 1036 0000 4F757473 		.ascii	"Outside\000"
 1036      69646500 
 1037              		.align	2
 1038              	.LC5:
 1039 0008 496E7369 		.ascii	"Inside\000"
 1039      646500
 1040 000f 00       		.align	2
 1041              	.LC6:
 1042 0010 25732062 		.ascii	"%s button was used.\015\012\000"
 1042      7574746F 
 1042      6E207761 
 1042      73207573 
 1042      65642E0D 
 1043 0026 0000     		.align	2
 1044              	.LC7:
 1045 0028 43757272 		.ascii	"Current mode is Conditionally Open. Switching to Op"
 1045      656E7420 
 1045      6D6F6465 
 1045      20697320 
 1045      436F6E64 
 1046 005b 656E2E0D 		.ascii	"en.\015\012\000"
 1046      0A00
 1047              		.section	.text._Z18ButtonPressedEventv,"ax",%progbits
 1048              		.align	1
 1049              		.global	_Z18ButtonPressedEventv
 1050              		.syntax unified
 1051              		.thumb
 1052              		.thumb_func
 1053              		.fpu softvfp
 1055              	_Z18ButtonPressedEventv:
 1056              		.fnstart
 1057              	.LFB80:
 351:Core/Src/main.cpp ****   if (insideButtonPressed || outsideButtonPressed)
 1058              		.loc 1 351 1 is_stmt 1 view -0
 1059              		.cfi_startproc
 1060              		@ args = 0, pretend = 0, frame = 0
 1061              		@ frame_needed = 0, uses_anonymous_args = 0
 1062 0000 08B5     		push	{r3, lr}
 1063              		.save {r3, lr}
 1064              	.LCFI14:
 1065              		.cfi_def_cfa_offset 8
 1066              		.cfi_offset 3, -8
 1067              		.cfi_offset 14, -4
 352:Core/Src/main.cpp ****   {
 1068              		.loc 1 352 3 view .LVU252
 1069 0002 104B     		ldr	r3, .L71
 1070 0004 1B78     		ldrb	r3, [r3]	@ zero_extendqisi2
 1071 0006 13B9     		cbnz	r3, .L64
 352:Core/Src/main.cpp ****   {
 1072              		.loc 1 352 27 is_stmt 0 discriminator 1 view .LVU253
ARM GAS  C:\Users\Admin\AppData\Local\Temp\ccXKOSM3.s 			page 35


 1073 0008 0F4A     		ldr	r2, .L71+4
 1074 000a 1278     		ldrb	r2, [r2]	@ zero_extendqisi2
 1075 000c 82B1     		cbz	r2, .L63
 1076              	.L64:
 354:Core/Src/main.cpp **** 
 1077              		.loc 1 354 5 is_stmt 1 view .LVU254
 354:Core/Src/main.cpp **** 
 1078              		.loc 1 354 16 is_stmt 0 view .LVU255
 1079 000e 83B1     		cbz	r3, .L68
 1080 0010 0E49     		ldr	r1, .L71+8
 1081              	.L66:
 354:Core/Src/main.cpp **** 
 1082              		.loc 1 354 16 discriminator 4 view .LVU256
 1083 0012 0F48     		ldr	r0, .L71+12
 1084 0014 FFF7FEFF 		bl	_Z11UART_PrintfPKcz
 1085              	.LVL72:
 356:Core/Src/main.cpp **** 
 1086              		.loc 1 356 5 is_stmt 1 discriminator 4 view .LVU257
 356:Core/Src/main.cpp **** 
 1087              		.loc 1 356 14 is_stmt 0 discriminator 4 view .LVU258
 1088 0018 0E4B     		ldr	r3, .L71+16
 1089 001a 0022     		movs	r2, #0
 1090 001c 1A60     		str	r2, [r3]
 358:Core/Src/main.cpp ****     {
 1091              		.loc 1 358 5 is_stmt 1 discriminator 4 view .LVU259
 358:Core/Src/main.cpp ****     {
 1092              		.loc 1 358 22 is_stmt 0 discriminator 4 view .LVU260
 1093 001e 0E4B     		ldr	r3, .L71+20
 1094 0020 1B68     		ldr	r3, [r3]
 358:Core/Src/main.cpp ****     {
 1095              		.loc 1 358 5 discriminator 4 view .LVU261
 1096 0022 032B     		cmp	r3, #3
 1097 0024 07D0     		beq	.L70
 1098              	.L67:
 364:Core/Src/main.cpp ****     outsideButtonPressed = false;
 1099              		.loc 1 364 5 is_stmt 1 view .LVU262
 364:Core/Src/main.cpp ****     outsideButtonPressed = false;
 1100              		.loc 1 364 25 is_stmt 0 view .LVU263
 1101 0026 0023     		movs	r3, #0
 1102 0028 064A     		ldr	r2, .L71
 1103 002a 1370     		strb	r3, [r2]
 365:Core/Src/main.cpp ****   }
 1104              		.loc 1 365 5 is_stmt 1 view .LVU264
 365:Core/Src/main.cpp ****   }
 1105              		.loc 1 365 26 is_stmt 0 view .LVU265
 1106 002c 064A     		ldr	r2, .L71+4
 1107 002e 1370     		strb	r3, [r2]
 1108              	.L63:
 367:Core/Src/main.cpp **** 
 1109              		.loc 1 367 1 view .LVU266
 1110 0030 08BD     		pop	{r3, pc}
 1111              	.L68:
 354:Core/Src/main.cpp **** 
 1112              		.loc 1 354 16 view .LVU267
 1113 0032 0A49     		ldr	r1, .L71+24
 1114 0034 EDE7     		b	.L66
 1115              	.L70:
ARM GAS  C:\Users\Admin\AppData\Local\Temp\ccXKOSM3.s 			page 36


 360:Core/Src/main.cpp ****       intercomMode = IntercomMode::OpenMode;
 1116              		.loc 1 360 7 is_stmt 1 view .LVU268
 360:Core/Src/main.cpp ****       intercomMode = IntercomMode::OpenMode;
 1117              		.loc 1 360 18 is_stmt 0 view .LVU269
 1118 0036 0A48     		ldr	r0, .L71+28
 1119 0038 FFF7FEFF 		bl	_Z11UART_PrintfPKcz
 1120              	.LVL73:
 361:Core/Src/main.cpp ****     }
 1121              		.loc 1 361 7 is_stmt 1 view .LVU270
 361:Core/Src/main.cpp ****     }
 1122              		.loc 1 361 20 is_stmt 0 view .LVU271
 1123 003c 064B     		ldr	r3, .L71+20
 1124 003e 0222     		movs	r2, #2
 1125 0040 1A60     		str	r2, [r3]
 1126 0042 F0E7     		b	.L67
 1127              	.L72:
 1128              		.align	2
 1129              	.L71:
 1130 0044 00000000 		.word	insideButtonPressed
 1131 0048 00000000 		.word	outsideButtonPressed
 1132 004c 08000000 		.word	.LC5
 1133 0050 10000000 		.word	.LC6
 1134 0054 00000000 		.word	workMode
 1135 0058 00000000 		.word	intercomMode
 1136 005c 00000000 		.word	.LC4
 1137 0060 28000000 		.word	.LC7
 1138              		.cfi_endproc
 1139              	.LFE80:
 1140              		.fnend
 1142              		.section	.rodata._Z17TempOpenModeEventv.str1.4,"aMS",%progbits,1
 1143              		.align	2
 1144              	.LC8:
 1145 0000 446F6F72 		.ascii	"Door is still opened. Turning on temporarily alarm."
 1145      20697320 
 1145      7374696C 
 1145      6C206F70 
 1145      656E6564 
 1146 0033 0D0A00   		.ascii	"\015\012\000"
 1147 0036 0000     		.align	2
 1148              	.LC9:
 1149 0038 446F6F72 		.ascii	"Door was not opened. Closing the relay.\015\012\000"
 1149      20776173 
 1149      206E6F74 
 1149      206F7065 
 1149      6E65642E 
 1150              		.section	.text._Z17TempOpenModeEventv,"ax",%progbits
 1151              		.align	1
 1152              		.global	_Z17TempOpenModeEventv
 1153              		.syntax unified
 1154              		.thumb
 1155              		.thumb_func
 1156              		.fpu softvfp
 1158              	_Z17TempOpenModeEventv:
 1159              		.fnstart
 1160              	.LFB81:
 370:Core/Src/main.cpp ****   static Timer lockTimer(0, 0);
 1161              		.loc 1 370 1 is_stmt 1 view -0
ARM GAS  C:\Users\Admin\AppData\Local\Temp\ccXKOSM3.s 			page 37


 1162              		.cfi_startproc
 1163              		@ args = 0, pretend = 0, frame = 0
 1164              		@ frame_needed = 0, uses_anonymous_args = 0
 1165 0000 10B5     		push	{r4, lr}
 1166              		.save {r4, lr}
 1167              	.LCFI15:
 1168              		.cfi_def_cfa_offset 8
 1169              		.cfi_offset 4, -8
 1170              		.cfi_offset 14, -4
 371:Core/Src/main.cpp ****   static Timer zumerTimer(0, 0);
 1171              		.loc 1 371 3 view .LVU273
 371:Core/Src/main.cpp ****   static Timer zumerTimer(0, 0);
 1172              		.loc 1 371 30 is_stmt 0 view .LVU274
 1173 0002 5D4B     		ldr	r3, .L97
 1174 0004 1B78     		ldrb	r3, [r3]	@ zero_extendqisi2
 1175 0006 BFF35B8F 		dmb	ish
 1176 000a 13F0010F 		tst	r3, #1
 1177 000e 04D1     		bne	.L74
 371:Core/Src/main.cpp ****   static Timer zumerTimer(0, 0);
 1178              		.loc 1 371 30 discriminator 1 view .LVU275
 1179 0010 5948     		ldr	r0, .L97
 1180 0012 FFF7FEFF 		bl	__cxa_guard_acquire
 1181              	.LVL74:
 1182 0016 0028     		cmp	r0, #0
 1183 0018 41D1     		bne	.L91
 1184              	.L74:
 372:Core/Src/main.cpp **** 
 1185              		.loc 1 372 3 is_stmt 1 view .LVU276
 372:Core/Src/main.cpp **** 
 1186              		.loc 1 372 31 is_stmt 0 view .LVU277
 1187 001a 584B     		ldr	r3, .L97+4
 1188 001c 1B78     		ldrb	r3, [r3]	@ zero_extendqisi2
 1189 001e BFF35B8F 		dmb	ish
 1190 0022 13F0010F 		tst	r3, #1
 1191 0026 43D0     		beq	.L92
 1192              	.L75:
 374:Core/Src/main.cpp ****   {
 1193              		.loc 1 374 3 is_stmt 1 view .LVU278
 1194              	.LBB7:
 374:Core/Src/main.cpp ****   {
 1195              		.loc 1 374 16 is_stmt 0 view .LVU279
 1196 0028 554B     		ldr	r3, .L97+8
 1197 002a 1B68     		ldr	r3, [r3]
 374:Core/Src/main.cpp ****   {
 1198              		.loc 1 374 3 view .LVU280
 1199 002c 002B     		cmp	r3, #0
 1200 002e 7CD1     		bne	.L73
 1201              	.LBB8:
 376:Core/Src/main.cpp ****     if (firstTime)
 1202              		.loc 1 376 5 is_stmt 1 view .LVU281
 377:Core/Src/main.cpp ****     {
 1203              		.loc 1 377 5 view .LVU282
 1204 0030 544B     		ldr	r3, .L97+12
 1205 0032 1B78     		ldrb	r3, [r3]	@ zero_extendqisi2
 1206 0034 002B     		cmp	r3, #0
 1207 0036 49D1     		bne	.L93
 1208              	.L77:
ARM GAS  C:\Users\Admin\AppData\Local\Temp\ccXKOSM3.s 			page 38


 384:Core/Src/main.cpp ****     {
 1209              		.loc 1 384 5 view .LVU283
 1210              	.LEHB2:
 384:Core/Src/main.cpp ****     {
 1211              		.loc 1 384 20 is_stmt 0 view .LVU284
 1212 0038 FFF7FEFF 		bl	HAL_GetTick
 1213              	.LVL75:
 1214 003c 0446     		mov	r4, r0
 384:Core/Src/main.cpp ****     {
 1215              		.loc 1 384 47 view .LVU285
 1216 003e 5248     		ldr	r0, .L97+16
 1217 0040 FFF7FEFF 		bl	_ZN5Timer12getStartTimeEv
 1218              	.LVL76:
 384:Core/Src/main.cpp ****     {
 1219              		.loc 1 384 23 view .LVU286
 1220 0044 241A     		subs	r4, r4, r0
 384:Core/Src/main.cpp ****     {
 1221              		.loc 1 384 57 view .LVU287
 1222 0046 41F28733 		movw	r3, #4999
 1223 004a 9C42     		cmp	r4, r3
 1224 004c 48D8     		bhi	.L78
 384:Core/Src/main.cpp ****     {
 1225              		.loc 1 384 81 discriminator 1 view .LVU288
 1226 004e 4F48     		ldr	r0, .L97+20
 1227 0050 FFF7FEFF 		bl	_ZN12InterruptPin14isStateChangedEv
 1228              	.LVL77:
 384:Core/Src/main.cpp ****     {
 1229              		.loc 1 384 57 discriminator 1 view .LVU289
 1230 0054 20B1     		cbz	r0, .L79
 384:Core/Src/main.cpp ****     {
 1231              		.loc 1 384 100 discriminator 4 view .LVU290
 1232 0056 4D48     		ldr	r0, .L97+20
 1233 0058 FFF7FEFF 		bl	_ZN5PinIn8getStateEv
 1234              	.LVL78:
 384:Core/Src/main.cpp ****     {
 1235              		.loc 1 384 60 discriminator 4 view .LVU291
 1236 005c 0028     		cmp	r0, #0
 1237 005e 3FD0     		beq	.L78
 1238              	.L79:
 386:Core/Src/main.cpp ****       {
 1239              		.loc 1 386 7 is_stmt 1 discriminator 5 view .LVU292
 386:Core/Src/main.cpp ****       {
 1240              		.loc 1 386 22 is_stmt 0 discriminator 5 view .LVU293
 1241 0060 FFF7FEFF 		bl	HAL_GetTick
 1242              	.LVL79:
 1243 0064 0446     		mov	r4, r0
 386:Core/Src/main.cpp ****       {
 1244              		.loc 1 386 49 discriminator 5 view .LVU294
 1245 0066 4A48     		ldr	r0, .L97+24
 1246 0068 FFF7FEFF 		bl	_ZN5Timer11getLastTickEv
 1247              	.LVL80:
 386:Core/Src/main.cpp ****       {
 1248              		.loc 1 386 25 discriminator 5 view .LVU295
 1249 006c 241A     		subs	r4, r4, r0
 386:Core/Src/main.cpp ****       {
 1250              		.loc 1 386 7 discriminator 5 view .LVU296
 1251 006e FA2C     		cmp	r4, #250
ARM GAS  C:\Users\Admin\AppData\Local\Temp\ccXKOSM3.s 			page 39


 1252 0070 5CD8     		bhi	.L94
 1253              	.L81:
 395:Core/Src/main.cpp ****       {
 1254              		.loc 1 395 7 is_stmt 1 view .LVU297
 395:Core/Src/main.cpp ****       {
 1255              		.loc 1 395 22 is_stmt 0 view .LVU298
 1256 0072 FFF7FEFF 		bl	HAL_GetTick
 1257              	.LVL81:
 1258 0076 0446     		mov	r4, r0
 395:Core/Src/main.cpp ****       {
 1259              		.loc 1 395 49 view .LVU299
 1260 0078 4548     		ldr	r0, .L97+24
 1261 007a FFF7FEFF 		bl	_ZN5Timer11getLastTickEv
 1262              	.LVL82:
 395:Core/Src/main.cpp ****       {
 1263              		.loc 1 395 25 view .LVU300
 1264 007e 241A     		subs	r4, r4, r0
 395:Core/Src/main.cpp ****       {
 1265              		.loc 1 395 7 view .LVU301
 1266 0080 4B2C     		cmp	r4, #75
 1267 0082 52D9     		bls	.L73
 397:Core/Src/main.cpp ****         outsideZumer.turnOff();
 1268              		.loc 1 397 9 is_stmt 1 view .LVU302
 397:Core/Src/main.cpp ****         outsideZumer.turnOff();
 1269              		.loc 1 397 28 is_stmt 0 view .LVU303
 1270 0084 4348     		ldr	r0, .L97+28
 1271 0086 FFF7FEFF 		bl	_ZN14InvertedPinOut7turnOffEv
 1272              	.LVL83:
 398:Core/Src/main.cpp ****         insideGreenLed.turnOff();
 1273              		.loc 1 398 9 is_stmt 1 view .LVU304
 398:Core/Src/main.cpp ****         insideGreenLed.turnOff();
 1274              		.loc 1 398 29 is_stmt 0 view .LVU305
 1275 008a 4348     		ldr	r0, .L97+32
 1276 008c FFF7FEFF 		bl	_ZN14InvertedPinOut7turnOffEv
 1277              	.LVL84:
 399:Core/Src/main.cpp ****         outsideGreenLed.turnOff();
 1278              		.loc 1 399 9 is_stmt 1 view .LVU306
 399:Core/Src/main.cpp ****         outsideGreenLed.turnOff();
 1279              		.loc 1 399 31 is_stmt 0 view .LVU307
 1280 0090 4248     		ldr	r0, .L97+36
 1281 0092 FFF7FEFF 		bl	_ZN14InvertedPinOut7turnOffEv
 1282              	.LVL85:
 400:Core/Src/main.cpp ****       }
 1283              		.loc 1 400 9 is_stmt 1 view .LVU308
 400:Core/Src/main.cpp ****       }
 1284              		.loc 1 400 32 is_stmt 0 view .LVU309
 1285 0096 4248     		ldr	r0, .L97+40
 1286 0098 FFF7FEFF 		bl	_ZN14InvertedPinOut7turnOffEv
 1287              	.LVL86:
 1288              	.LEHE2:
 1289 009c 45E0     		b	.L73
 1290              	.L91:
 1291              	.LBE8:
 1292              	.LBE7:
 371:Core/Src/main.cpp ****   static Timer zumerTimer(0, 0);
 1293              		.loc 1 371 30 discriminator 2 view .LVU310
 1294 009e 0022     		movs	r2, #0
ARM GAS  C:\Users\Admin\AppData\Local\Temp\ccXKOSM3.s 			page 40


 1295 00a0 1146     		mov	r1, r2
 1296 00a2 3948     		ldr	r0, .L97+16
 1297              	.LEHB3:
 1298 00a4 FFF7FEFF 		bl	_ZN5TimerC1Emm
 1299              	.LVL87:
 1300              	.LEHE3:
 371:Core/Src/main.cpp ****   static Timer zumerTimer(0, 0);
 1301              		.loc 1 371 30 discriminator 4 view .LVU311
 1302 00a8 3348     		ldr	r0, .L97
 1303 00aa FFF7FEFF 		bl	__cxa_guard_release
 1304              	.LVL88:
 1305 00ae B4E7     		b	.L74
 1306              	.L92:
 372:Core/Src/main.cpp **** 
 1307              		.loc 1 372 31 discriminator 1 view .LVU312
 1308 00b0 3248     		ldr	r0, .L97+4
 1309 00b2 FFF7FEFF 		bl	__cxa_guard_acquire
 1310              	.LVL89:
 1311 00b6 0028     		cmp	r0, #0
 1312 00b8 B6D0     		beq	.L75
 372:Core/Src/main.cpp **** 
 1313              		.loc 1 372 31 discriminator 2 view .LVU313
 1314 00ba 0022     		movs	r2, #0
 1315 00bc 1146     		mov	r1, r2
 1316 00be 3448     		ldr	r0, .L97+24
 1317              	.LEHB4:
 1318 00c0 FFF7FEFF 		bl	_ZN5TimerC1Emm
 1319              	.LVL90:
 1320              	.LEHE4:
 372:Core/Src/main.cpp **** 
 1321              		.loc 1 372 31 discriminator 4 view .LVU314
 1322 00c4 2D48     		ldr	r0, .L97+4
 1323 00c6 FFF7FEFF 		bl	__cxa_guard_release
 1324              	.LVL91:
 1325 00ca ADE7     		b	.L75
 1326              	.L93:
 1327              	.LBB11:
 1328              	.LBB9:
 379:Core/Src/main.cpp ****       lock.turnOn();
 1329              		.loc 1 379 7 is_stmt 1 view .LVU315
 379:Core/Src/main.cpp ****       lock.turnOn();
 1330              		.loc 1 379 17 is_stmt 0 view .LVU316
 1331 00cc 2D4B     		ldr	r3, .L97+12
 1332 00ce 0022     		movs	r2, #0
 1333 00d0 1A70     		strb	r2, [r3]
 380:Core/Src/main.cpp ****       lockTimer.start();
 1334              		.loc 1 380 7 is_stmt 1 view .LVU317
 380:Core/Src/main.cpp ****       lockTimer.start();
 1335              		.loc 1 380 18 is_stmt 0 view .LVU318
 1336 00d2 3448     		ldr	r0, .L97+44
 1337              	.LEHB5:
 1338 00d4 FFF7FEFF 		bl	_ZN6PinOut6turnOnEv
 1339              	.LVL92:
 381:Core/Src/main.cpp ****     }
 1340              		.loc 1 381 7 is_stmt 1 view .LVU319
 381:Core/Src/main.cpp ****     }
 1341              		.loc 1 381 22 is_stmt 0 view .LVU320
ARM GAS  C:\Users\Admin\AppData\Local\Temp\ccXKOSM3.s 			page 41


 1342 00d8 2B48     		ldr	r0, .L97+16
 1343 00da FFF7FEFF 		bl	_ZN5Timer5startEv
 1344              	.LVL93:
 1345 00de ABE7     		b	.L77
 1346              	.L78:
 403:Core/Src/main.cpp ****     {
 1347              		.loc 1 403 10 is_stmt 1 discriminator 6 view .LVU321
 403:Core/Src/main.cpp ****     {
 1348              		.loc 1 403 27 is_stmt 0 discriminator 6 view .LVU322
 1349 00e0 2A48     		ldr	r0, .L97+20
 1350 00e2 FFF7FEFF 		bl	_ZN5PinIn8getStateEv
 1351              	.LVL94:
 403:Core/Src/main.cpp ****     {
 1352              		.loc 1 403 10 discriminator 6 view .LVU323
 1353 00e6 0128     		cmp	r0, #1
 1354 00e8 30D0     		beq	.L95
 410:Core/Src/main.cpp ****       {
 1355              		.loc 1 410 7 is_stmt 1 view .LVU324
 410:Core/Src/main.cpp ****       {
 1356              		.loc 1 410 22 is_stmt 0 view .LVU325
 1357 00ea FFF7FEFF 		bl	HAL_GetTick
 1358              	.LVL95:
 1359 00ee 0446     		mov	r4, r0
 410:Core/Src/main.cpp ****       {
 1360              		.loc 1 410 49 view .LVU326
 1361 00f0 2548     		ldr	r0, .L97+16
 1362 00f2 FFF7FEFF 		bl	_ZN5Timer12getStartTimeEv
 1363              	.LVL96:
 410:Core/Src/main.cpp ****       {
 1364              		.loc 1 410 25 view .LVU327
 1365 00f6 241A     		subs	r4, r4, r0
 410:Core/Src/main.cpp ****       {
 1366              		.loc 1 410 7 view .LVU328
 1367 00f8 41F28733 		movw	r3, #4999
 1368 00fc 9C42     		cmp	r4, r3
 1369 00fe 2CD8     		bhi	.L96
 1370              	.L84:
 415:Core/Src/main.cpp ****       firstTime = true;
 1371              		.loc 1 415 7 is_stmt 1 view .LVU329
 415:Core/Src/main.cpp ****       firstTime = true;
 1372              		.loc 1 415 16 is_stmt 0 view .LVU330
 1373 0100 1F4B     		ldr	r3, .L97+8
 1374 0102 0422     		movs	r2, #4
 1375 0104 1A60     		str	r2, [r3]
 416:Core/Src/main.cpp ****       lock.turnOff();
 1376              		.loc 1 416 7 is_stmt 1 view .LVU331
 416:Core/Src/main.cpp ****       lock.turnOff();
 1377              		.loc 1 416 17 is_stmt 0 view .LVU332
 1378 0106 1F4B     		ldr	r3, .L97+12
 1379 0108 0122     		movs	r2, #1
 1380 010a 1A70     		strb	r2, [r3]
 417:Core/Src/main.cpp ****       insideZumer.turnOff();
 1381              		.loc 1 417 7 is_stmt 1 view .LVU333
 417:Core/Src/main.cpp ****       insideZumer.turnOff();
 1382              		.loc 1 417 19 is_stmt 0 view .LVU334
 1383 010c 2548     		ldr	r0, .L97+44
 1384 010e FFF7FEFF 		bl	_ZN6PinOut7turnOffEv
ARM GAS  C:\Users\Admin\AppData\Local\Temp\ccXKOSM3.s 			page 42


 1385              	.LVL97:
 418:Core/Src/main.cpp ****       outsideZumer.turnOff();
 1386              		.loc 1 418 7 is_stmt 1 view .LVU335
 418:Core/Src/main.cpp ****       outsideZumer.turnOff();
 1387              		.loc 1 418 26 is_stmt 0 view .LVU336
 1388 0112 2048     		ldr	r0, .L97+28
 1389 0114 FFF7FEFF 		bl	_ZN14InvertedPinOut7turnOffEv
 1390              	.LVL98:
 419:Core/Src/main.cpp ****       insideGreenLed.turnOff();
 1391              		.loc 1 419 7 is_stmt 1 view .LVU337
 419:Core/Src/main.cpp ****       insideGreenLed.turnOff();
 1392              		.loc 1 419 27 is_stmt 0 view .LVU338
 1393 0118 1F48     		ldr	r0, .L97+32
 1394 011a FFF7FEFF 		bl	_ZN14InvertedPinOut7turnOffEv
 1395              	.LVL99:
 420:Core/Src/main.cpp ****       outsideGreenLed.turnOff();
 1396              		.loc 1 420 7 is_stmt 1 view .LVU339
 420:Core/Src/main.cpp ****       outsideGreenLed.turnOff();
 1397              		.loc 1 420 29 is_stmt 0 view .LVU340
 1398 011e 1F48     		ldr	r0, .L97+36
 1399 0120 FFF7FEFF 		bl	_ZN14InvertedPinOut7turnOffEv
 1400              	.LVL100:
 421:Core/Src/main.cpp ****     }
 1401              		.loc 1 421 7 is_stmt 1 view .LVU341
 421:Core/Src/main.cpp ****     }
 1402              		.loc 1 421 30 is_stmt 0 view .LVU342
 1403 0124 1E48     		ldr	r0, .L97+40
 1404 0126 FFF7FEFF 		bl	_ZN14InvertedPinOut7turnOffEv
 1405              	.LVL101:
 1406              	.L73:
 1407              	.LBE9:
 1408              	.LBE11:
 424:Core/Src/main.cpp **** 
 1409              		.loc 1 424 1 view .LVU343
 1410 012a 10BD     		pop	{r4, pc}
 1411              	.L94:
 1412              	.LBB12:
 1413              	.LBB10:
 388:Core/Src/main.cpp ****         insideZumer.turnOn();
 1414              		.loc 1 388 9 is_stmt 1 view .LVU344
 388:Core/Src/main.cpp ****         insideZumer.turnOn();
 1415              		.loc 1 388 31 is_stmt 0 view .LVU345
 1416 012c 1848     		ldr	r0, .L97+24
 1417 012e FFF7FEFF 		bl	_ZN5Timer11setLastTickEv
 1418              	.LVL102:
 389:Core/Src/main.cpp ****         outsideZumer.turnOn();
 1419              		.loc 1 389 9 is_stmt 1 view .LVU346
 389:Core/Src/main.cpp ****         outsideZumer.turnOn();
 1420              		.loc 1 389 27 is_stmt 0 view .LVU347
 1421 0132 1848     		ldr	r0, .L97+28
 1422 0134 FFF7FEFF 		bl	_ZN14InvertedPinOut6turnOnEv
 1423              	.LVL103:
 390:Core/Src/main.cpp ****         insideGreenLed.turnOn();
 1424              		.loc 1 390 9 is_stmt 1 view .LVU348
 390:Core/Src/main.cpp ****         insideGreenLed.turnOn();
 1425              		.loc 1 390 28 is_stmt 0 view .LVU349
 1426 0138 1748     		ldr	r0, .L97+32
ARM GAS  C:\Users\Admin\AppData\Local\Temp\ccXKOSM3.s 			page 43


 1427 013a FFF7FEFF 		bl	_ZN14InvertedPinOut6turnOnEv
 1428              	.LVL104:
 391:Core/Src/main.cpp ****         outsideGreenLed.turnOn();
 1429              		.loc 1 391 9 is_stmt 1 view .LVU350
 391:Core/Src/main.cpp ****         outsideGreenLed.turnOn();
 1430              		.loc 1 391 30 is_stmt 0 view .LVU351
 1431 013e 1748     		ldr	r0, .L97+36
 1432 0140 FFF7FEFF 		bl	_ZN14InvertedPinOut6turnOnEv
 1433              	.LVL105:
 392:Core/Src/main.cpp ****       }
 1434              		.loc 1 392 9 is_stmt 1 view .LVU352
 392:Core/Src/main.cpp ****       }
 1435              		.loc 1 392 31 is_stmt 0 view .LVU353
 1436 0144 1648     		ldr	r0, .L97+40
 1437 0146 FFF7FEFF 		bl	_ZN14InvertedPinOut6turnOnEv
 1438              	.LVL106:
 1439 014a 92E7     		b	.L81
 1440              	.L95:
 405:Core/Src/main.cpp ****       workMode = WorkMode::TempAlarmMode;
 1441              		.loc 1 405 7 is_stmt 1 view .LVU354
 405:Core/Src/main.cpp ****       workMode = WorkMode::TempAlarmMode;
 1442              		.loc 1 405 18 is_stmt 0 view .LVU355
 1443 014c 1648     		ldr	r0, .L97+48
 1444 014e FFF7FEFF 		bl	_Z11UART_PrintfPKcz
 1445              	.LVL107:
 406:Core/Src/main.cpp ****     }
 1446              		.loc 1 406 7 is_stmt 1 view .LVU356
 406:Core/Src/main.cpp ****     }
 1447              		.loc 1 406 16 is_stmt 0 view .LVU357
 1448 0152 0B4B     		ldr	r3, .L97+8
 1449 0154 0222     		movs	r2, #2
 1450 0156 1A60     		str	r2, [r3]
 1451 0158 E7E7     		b	.L73
 1452              	.L96:
 412:Core/Src/main.cpp ****       }
 1453              		.loc 1 412 9 is_stmt 1 view .LVU358
 412:Core/Src/main.cpp ****       }
 1454              		.loc 1 412 20 is_stmt 0 view .LVU359
 1455 015a 1448     		ldr	r0, .L97+52
 1456 015c FFF7FEFF 		bl	_Z11UART_PrintfPKcz
 1457              	.LVL108:
 1458 0160 CEE7     		b	.L84
 1459              	.L87:
 1460              	.LBE10:
 1461              	.LBE12:
 371:Core/Src/main.cpp ****   static Timer zumerTimer(0, 0);
 1462              		.loc 1 371 30 view .LVU360
 1463 0162 0548     		ldr	r0, .L97
 1464 0164 FFF7FEFF 		bl	__cxa_guard_abort
 1465              	.LVL109:
 1466 0168 FFF7FEFF 		bl	__cxa_end_cleanup
 1467              	.LVL110:
 1468              	.L88:
 372:Core/Src/main.cpp **** 
 1469              		.loc 1 372 31 view .LVU361
 1470 016c 0348     		ldr	r0, .L97+4
 1471 016e FFF7FEFF 		bl	__cxa_guard_abort
ARM GAS  C:\Users\Admin\AppData\Local\Temp\ccXKOSM3.s 			page 44


 1472              	.LVL111:
 1473 0172 FFF7FEFF 		bl	__cxa_end_cleanup
 1474              	.LVL112:
 1475              	.LEHE5:
 1476              	.L98:
 1477 0176 00BF     		.align	2
 1478              	.L97:
 1479 0178 00000000 		.word	.LANCHOR17
 1480 017c 00000000 		.word	.LANCHOR19
 1481 0180 00000000 		.word	workMode
 1482 0184 00000000 		.word	.LANCHOR21
 1483 0188 00000000 		.word	.LANCHOR18
 1484 018c 00000000 		.word	.LANCHOR0
 1485 0190 00000000 		.word	.LANCHOR20
 1486 0194 00000000 		.word	.LANCHOR3
 1487 0198 00000000 		.word	.LANCHOR4
 1488 019c 00000000 		.word	.LANCHOR5
 1489 01a0 00000000 		.word	.LANCHOR6
 1490 01a4 00000000 		.word	.LANCHOR1
 1491 01a8 00000000 		.word	.LC8
 1492 01ac 38000000 		.word	.LC9
 1493              		.cfi_endproc
 1494              	.LFE81:
 1495              		.personality	__gxx_personality_v0
 1496              		.handlerdata
 1497              	.LLSDA81:
 1498 0008 FF       		.byte	0xff
 1499 0009 FF       		.byte	0xff
 1500 000a 01       		.byte	0x1
 1501 000b 16       		.uleb128 .LLSDACSE81-.LLSDACSB81
 1502              	.LLSDACSB81:
 1503 000c 38       		.uleb128 .LEHB2-.LFB81
 1504 000d 64       		.uleb128 .LEHE2-.LEHB2
 1505 000e 00       		.uleb128 0
 1506 000f 00       		.uleb128 0
 1507 0010 A401     		.uleb128 .LEHB3-.LFB81
 1508 0012 04       		.uleb128 .LEHE3-.LEHB3
 1509 0013 E202     		.uleb128 .L87-.LFB81
 1510 0015 00       		.uleb128 0
 1511 0016 C001     		.uleb128 .LEHB4-.LFB81
 1512 0018 04       		.uleb128 .LEHE4-.LEHB4
 1513 0019 EC02     		.uleb128 .L88-.LFB81
 1514 001b 00       		.uleb128 0
 1515 001c D401     		.uleb128 .LEHB5-.LFB81
 1516 001e A201     		.uleb128 .LEHE5-.LEHB5
 1517 0020 00       		.uleb128 0
 1518 0021 00       		.uleb128 0
 1519              	.LLSDACSE81:
 1520              		.section	.text._Z17TempOpenModeEventv
 1521              		.fnend
 1523              		.section	.text._Z14TempAlarmEventv,"ax",%progbits
 1524              		.align	1
 1525              		.global	_Z14TempAlarmEventv
 1526              		.syntax unified
 1527              		.thumb
 1528              		.thumb_func
 1529              		.fpu softvfp
ARM GAS  C:\Users\Admin\AppData\Local\Temp\ccXKOSM3.s 			page 45


 1531              	_Z14TempAlarmEventv:
 1532              		.fnstart
 1533              	.LFB82:
 427:Core/Src/main.cpp ****   static Timer sirenTimer(0, 0);
 1534              		.loc 1 427 1 is_stmt 1 view -0
 1535              		.cfi_startproc
 1536              		@ args = 0, pretend = 0, frame = 0
 1537              		@ frame_needed = 0, uses_anonymous_args = 0
 1538 0000 10B5     		push	{r4, lr}
 1539              		.save {r4, lr}
 1540              	.LCFI16:
 1541              		.cfi_def_cfa_offset 8
 1542              		.cfi_offset 4, -8
 1543              		.cfi_offset 14, -4
 428:Core/Src/main.cpp **** 
 1544              		.loc 1 428 3 view .LVU363
 428:Core/Src/main.cpp **** 
 1545              		.loc 1 428 31 is_stmt 0 view .LVU364
 1546 0002 2C4B     		ldr	r3, .L109
 1547 0004 1B78     		ldrb	r3, [r3]	@ zero_extendqisi2
 1548 0006 BFF35B8F 		dmb	ish
 1549 000a 13F0010F 		tst	r3, #1
 1550 000e 04D0     		beq	.L107
 1551              	.L100:
 430:Core/Src/main.cpp ****   {
 1552              		.loc 1 430 3 is_stmt 1 view .LVU365
 430:Core/Src/main.cpp ****   {
 1553              		.loc 1 430 16 is_stmt 0 view .LVU366
 1554 0010 294B     		ldr	r3, .L109+4
 1555 0012 1B68     		ldr	r3, [r3]
 430:Core/Src/main.cpp ****   {
 1556              		.loc 1 430 3 view .LVU367
 1557 0014 022B     		cmp	r3, #2
 1558 0016 0ED0     		beq	.L108
 1559              	.L99:
 449:Core/Src/main.cpp **** 
 1560              		.loc 1 449 1 view .LVU368
 1561 0018 10BD     		pop	{r4, pc}
 1562              	.L107:
 428:Core/Src/main.cpp **** 
 1563              		.loc 1 428 31 discriminator 1 view .LVU369
 1564 001a 2648     		ldr	r0, .L109
 1565 001c FFF7FEFF 		bl	__cxa_guard_acquire
 1566              	.LVL113:
 1567 0020 0028     		cmp	r0, #0
 1568 0022 F5D0     		beq	.L100
 428:Core/Src/main.cpp **** 
 1569              		.loc 1 428 31 discriminator 2 view .LVU370
 1570 0024 0022     		movs	r2, #0
 1571 0026 1146     		mov	r1, r2
 1572 0028 2448     		ldr	r0, .L109+8
 1573              	.LEHB6:
 1574 002a FFF7FEFF 		bl	_ZN5TimerC1Emm
 1575              	.LVL114:
 1576              	.LEHE6:
 428:Core/Src/main.cpp **** 
 1577              		.loc 1 428 31 discriminator 4 view .LVU371
ARM GAS  C:\Users\Admin\AppData\Local\Temp\ccXKOSM3.s 			page 46


 1578 002e 2148     		ldr	r0, .L109
 1579 0030 FFF7FEFF 		bl	__cxa_guard_release
 1580              	.LVL115:
 1581 0034 ECE7     		b	.L100
 1582              	.L108:
 432:Core/Src/main.cpp ****     {
 1583              		.loc 1 432 5 is_stmt 1 view .LVU372
 1584              	.LEHB7:
 432:Core/Src/main.cpp ****     {
 1585              		.loc 1 432 20 is_stmt 0 view .LVU373
 1586 0036 FFF7FEFF 		bl	HAL_GetTick
 1587              	.LVL116:
 1588 003a 0446     		mov	r4, r0
 432:Core/Src/main.cpp ****     {
 1589              		.loc 1 432 47 view .LVU374
 1590 003c 1F48     		ldr	r0, .L109+8
 1591 003e FFF7FEFF 		bl	_ZN5Timer11getLastTickEv
 1592              	.LVL117:
 432:Core/Src/main.cpp ****     {
 1593              		.loc 1 432 23 view .LVU375
 1594 0042 241A     		subs	r4, r4, r0
 432:Core/Src/main.cpp ****     {
 1595              		.loc 1 432 5 view .LVU376
 1596 0044 FA2C     		cmp	r4, #250
 1597 0046 19D9     		bls	.L102
 434:Core/Src/main.cpp ****       siren.turnOn();
 1598              		.loc 1 434 7 is_stmt 1 view .LVU377
 434:Core/Src/main.cpp ****       siren.turnOn();
 1599              		.loc 1 434 29 is_stmt 0 view .LVU378
 1600 0048 1C48     		ldr	r0, .L109+8
 1601 004a FFF7FEFF 		bl	_ZN5Timer11setLastTickEv
 1602              	.LVL118:
 435:Core/Src/main.cpp ****     }
 1603              		.loc 1 435 7 is_stmt 1 view .LVU379
 435:Core/Src/main.cpp ****     }
 1604              		.loc 1 435 19 is_stmt 0 view .LVU380
 1605 004e 1C48     		ldr	r0, .L109+12
 1606 0050 FFF7FEFF 		bl	_ZN6PinOut6turnOnEv
 1607              	.LVL119:
 1608              	.L103:
 442:Core/Src/main.cpp ****     {
 1609              		.loc 1 442 5 is_stmt 1 view .LVU381
 442:Core/Src/main.cpp ****     {
 1610              		.loc 1 442 28 is_stmt 0 view .LVU382
 1611 0054 1B48     		ldr	r0, .L109+16
 1612 0056 FFF7FEFF 		bl	_ZN12InterruptPin14isStateChangedEv
 1613              	.LVL120:
 442:Core/Src/main.cpp ****     {
 1614              		.loc 1 442 31 view .LVU383
 1615 005a 0028     		cmp	r0, #0
 1616 005c DCD0     		beq	.L99
 442:Core/Src/main.cpp ****     {
 1617              		.loc 1 442 47 discriminator 1 view .LVU384
 1618 005e 1948     		ldr	r0, .L109+16
 1619 0060 FFF7FEFF 		bl	_ZN5PinIn8getStateEv
 1620              	.LVL121:
 442:Core/Src/main.cpp ****     {
ARM GAS  C:\Users\Admin\AppData\Local\Temp\ccXKOSM3.s 			page 47


 1621              		.loc 1 442 31 discriminator 1 view .LVU385
 1622 0064 0028     		cmp	r0, #0
 1623 0066 D7D1     		bne	.L99
 444:Core/Src/main.cpp ****       workMode = WorkMode::NoMode;
 1624              		.loc 1 444 7 is_stmt 1 view .LVU386
 444:Core/Src/main.cpp ****       workMode = WorkMode::NoMode;
 1625              		.loc 1 444 18 is_stmt 0 view .LVU387
 1626 0068 1748     		ldr	r0, .L109+20
 1627 006a FFF7FEFF 		bl	_Z11UART_PrintfPKcz
 1628              	.LVL122:
 445:Core/Src/main.cpp ****       siren.turnOff();
 1629              		.loc 1 445 7 is_stmt 1 view .LVU388
 445:Core/Src/main.cpp ****       siren.turnOff();
 1630              		.loc 1 445 16 is_stmt 0 view .LVU389
 1631 006e 124B     		ldr	r3, .L109+4
 1632 0070 0422     		movs	r2, #4
 1633 0072 1A60     		str	r2, [r3]
 446:Core/Src/main.cpp ****     }
 1634              		.loc 1 446 7 is_stmt 1 view .LVU390
 446:Core/Src/main.cpp ****     }
 1635              		.loc 1 446 20 is_stmt 0 view .LVU391
 1636 0074 1248     		ldr	r0, .L109+12
 1637 0076 FFF7FEFF 		bl	_ZN6PinOut7turnOffEv
 1638              	.LVL123:
 449:Core/Src/main.cpp **** 
 1639              		.loc 1 449 1 view .LVU392
 1640 007a CDE7     		b	.L99
 1641              	.L102:
 437:Core/Src/main.cpp ****     {
 1642              		.loc 1 437 10 is_stmt 1 view .LVU393
 437:Core/Src/main.cpp ****     {
 1643              		.loc 1 437 25 is_stmt 0 view .LVU394
 1644 007c FFF7FEFF 		bl	HAL_GetTick
 1645              	.LVL124:
 1646 0080 0446     		mov	r4, r0
 437:Core/Src/main.cpp ****     {
 1647              		.loc 1 437 52 view .LVU395
 1648 0082 0E48     		ldr	r0, .L109+8
 1649 0084 FFF7FEFF 		bl	_ZN5Timer11getLastTickEv
 1650              	.LVL125:
 437:Core/Src/main.cpp ****     {
 1651              		.loc 1 437 28 view .LVU396
 1652 0088 241A     		subs	r4, r4, r0
 437:Core/Src/main.cpp ****     {
 1653              		.loc 1 437 61 view .LVU397
 1654 008a F92C     		cmp	r4, #249
 1655 008c E2D8     		bhi	.L103
 437:Core/Src/main.cpp ****     {
 1656              		.loc 1 437 75 discriminator 1 view .LVU398
 1657 008e FFF7FEFF 		bl	HAL_GetTick
 1658              	.LVL126:
 1659 0092 0446     		mov	r4, r0
 437:Core/Src/main.cpp ****     {
 1660              		.loc 1 437 102 discriminator 1 view .LVU399
 1661 0094 0948     		ldr	r0, .L109+8
 1662 0096 FFF7FEFF 		bl	_ZN5Timer11getLastTickEv
 1663              	.LVL127:
ARM GAS  C:\Users\Admin\AppData\Local\Temp\ccXKOSM3.s 			page 48


 437:Core/Src/main.cpp ****     {
 1664              		.loc 1 437 78 discriminator 1 view .LVU400
 1665 009a 241A     		subs	r4, r4, r0
 437:Core/Src/main.cpp ****     {
 1666              		.loc 1 437 61 discriminator 1 view .LVU401
 1667 009c 962C     		cmp	r4, #150
 1668 009e D9D9     		bls	.L103
 439:Core/Src/main.cpp ****     }
 1669              		.loc 1 439 7 is_stmt 1 view .LVU402
 439:Core/Src/main.cpp ****     }
 1670              		.loc 1 439 20 is_stmt 0 view .LVU403
 1671 00a0 0748     		ldr	r0, .L109+12
 1672 00a2 FFF7FEFF 		bl	_ZN6PinOut7turnOffEv
 1673              	.LVL128:
 1674 00a6 D5E7     		b	.L103
 1675              	.L105:
 428:Core/Src/main.cpp **** 
 1676              		.loc 1 428 31 view .LVU404
 1677 00a8 0248     		ldr	r0, .L109
 1678 00aa FFF7FEFF 		bl	__cxa_guard_abort
 1679              	.LVL129:
 1680 00ae FFF7FEFF 		bl	__cxa_end_cleanup
 1681              	.LVL130:
 1682              	.LEHE7:
 1683              	.L110:
 1684 00b2 00BF     		.align	2
 1685              	.L109:
 1686 00b4 00000000 		.word	.LANCHOR22
 1687 00b8 00000000 		.word	workMode
 1688 00bc 00000000 		.word	.LANCHOR23
 1689 00c0 00000000 		.word	.LANCHOR2
 1690 00c4 00000000 		.word	.LANCHOR0
 1691 00c8 00000000 		.word	.LC2
 1692              		.cfi_endproc
 1693              	.LFE82:
 1694              		.personality	__gxx_personality_v0
 1695              		.handlerdata
 1696              	.LLSDA82:
 1697 0008 FF       		.byte	0xff
 1698 0009 FF       		.byte	0xff
 1699 000a 01       		.byte	0x1
 1700 000b 09       		.uleb128 .LLSDACSE82-.LLSDACSB82
 1701              	.LLSDACSB82:
 1702 000c 2A       		.uleb128 .LEHB6-.LFB82
 1703 000d 04       		.uleb128 .LEHE6-.LEHB6
 1704 000e A801     		.uleb128 .L105-.LFB82
 1705 0010 00       		.uleb128 0
 1706 0011 36       		.uleb128 .LEHB7-.LFB82
 1707 0012 7C       		.uleb128 .LEHE7-.LEHB7
 1708 0013 00       		.uleb128 0
 1709 0014 00       		.uleb128 0
 1710              	.LLSDACSE82:
 1711              		.section	.text._Z14TempAlarmEventv
 1712              		.fnend
 1714              		.section	.rodata._Z10AlarmEventv.str1.4,"aMS",%progbits,1
 1715              		.align	2
 1716              	.LC10:
ARM GAS  C:\Users\Admin\AppData\Local\Temp\ccXKOSM3.s 			page 49


 1717 0000 556E6175 		.ascii	"Unauthorized access. Triggered alarm.\015\012\000"
 1717      74686F72 
 1717      697A6564 
 1717      20616363 
 1717      6573732E 
 1718              		.section	.text._Z10AlarmEventv,"ax",%progbits
 1719              		.align	1
 1720              		.global	_Z10AlarmEventv
 1721              		.syntax unified
 1722              		.thumb
 1723              		.thumb_func
 1724              		.fpu softvfp
 1726              	_Z10AlarmEventv:
 1727              		.fnstart
 1728              	.LFB84:
 489:Core/Src/main.cpp ****   if (workMode == WorkMode::AlarmMode)
 1729              		.loc 1 489 1 is_stmt 1 view -0
 1730              		.cfi_startproc
 1731              		@ args = 0, pretend = 0, frame = 0
 1732              		@ frame_needed = 0, uses_anonymous_args = 0
 490:Core/Src/main.cpp ****   {
 1733              		.loc 1 490 3 view .LVU406
 1734              	.LBB13:
 490:Core/Src/main.cpp ****   {
 1735              		.loc 1 490 16 is_stmt 0 view .LVU407
 1736 0000 3A4B     		ldr	r3, .L127
 1737 0002 1B68     		ldr	r3, [r3]
 490:Core/Src/main.cpp ****   {
 1738              		.loc 1 490 3 view .LVU408
 1739 0004 032B     		cmp	r3, #3
 1740 0006 00D0     		beq	.L123
 1741 0008 7047     		bx	lr
 1742              	.L123:
 1743              	.LBE13:
 489:Core/Src/main.cpp ****   if (workMode == WorkMode::AlarmMode)
 1744              		.loc 1 489 1 view .LVU409
 1745 000a 10B5     		push	{r4, lr}
 1746              		.save {r4, lr}
 1747              	.LCFI17:
 1748              		.cfi_def_cfa_offset 8
 1749              		.cfi_offset 4, -8
 1750              		.cfi_offset 14, -4
 1751              	.LBB17:
 1752              	.LBB14:
 492:Core/Src/main.cpp ****     static bool firstTime = true;
 1753              		.loc 1 492 5 is_stmt 1 view .LVU410
 492:Core/Src/main.cpp ****     static bool firstTime = true;
 1754              		.loc 1 492 33 is_stmt 0 view .LVU411
 1755 000c 384B     		ldr	r3, .L127+4
 1756 000e 1B78     		ldrb	r3, [r3]	@ zero_extendqisi2
 1757 0010 BFF35B8F 		dmb	ish
 1758 0014 13F0010F 		tst	r3, #1
 1759 0018 1DD0     		beq	.L124
 1760              	.L113:
 493:Core/Src/main.cpp **** 
 1761              		.loc 1 493 5 is_stmt 1 view .LVU412
 495:Core/Src/main.cpp ****     {
ARM GAS  C:\Users\Admin\AppData\Local\Temp\ccXKOSM3.s 			page 50


 1762              		.loc 1 495 5 view .LVU413
 1763 001a 364B     		ldr	r3, .L127+8
 1764 001c 1B78     		ldrb	r3, [r3]	@ zero_extendqisi2
 1765 001e 43BB     		cbnz	r3, .L125
 1766              	.L114:
 502:Core/Src/main.cpp ****     {
 1767              		.loc 1 502 5 view .LVU414
 1768              	.LEHB8:
 502:Core/Src/main.cpp ****     {
 1769              		.loc 1 502 20 is_stmt 0 view .LVU415
 1770 0020 FFF7FEFF 		bl	HAL_GetTick
 1771              	.LVL131:
 1772 0024 0446     		mov	r4, r0
 502:Core/Src/main.cpp ****     {
 1773              		.loc 1 502 47 view .LVU416
 1774 0026 3448     		ldr	r0, .L127+12
 1775 0028 FFF7FEFF 		bl	_ZN5Timer11getLastTickEv
 1776              	.LVL132:
 502:Core/Src/main.cpp ****     {
 1777              		.loc 1 502 23 view .LVU417
 1778 002c 241A     		subs	r4, r4, r0
 502:Core/Src/main.cpp ****     {
 1779              		.loc 1 502 5 view .LVU418
 1780 002e B4F57A7F 		cmp	r4, #1000
 1781 0032 28D9     		bls	.L115
 504:Core/Src/main.cpp ****       siren.turnOn();
 1782              		.loc 1 504 7 is_stmt 1 view .LVU419
 504:Core/Src/main.cpp ****       siren.turnOn();
 1783              		.loc 1 504 29 is_stmt 0 view .LVU420
 1784 0034 3048     		ldr	r0, .L127+12
 1785 0036 FFF7FEFF 		bl	_ZN5Timer11setLastTickEv
 1786              	.LVL133:
 505:Core/Src/main.cpp ****     }
 1787              		.loc 1 505 7 is_stmt 1 view .LVU421
 505:Core/Src/main.cpp ****     }
 1788              		.loc 1 505 19 is_stmt 0 view .LVU422
 1789 003a 3048     		ldr	r0, .L127+16
 1790 003c FFF7FEFF 		bl	_ZN6PinOut6turnOnEv
 1791              	.LVL134:
 1792              	.L116:
 512:Core/Src/main.cpp ****     {
 1793              		.loc 1 512 5 is_stmt 1 view .LVU423
 512:Core/Src/main.cpp ****     {
 1794              		.loc 1 512 20 is_stmt 0 view .LVU424
 1795 0040 FFF7FEFF 		bl	HAL_GetTick
 1796              	.LVL135:
 1797 0044 0446     		mov	r4, r0
 512:Core/Src/main.cpp ****     {
 1798              		.loc 1 512 48 view .LVU425
 1799 0046 2C48     		ldr	r0, .L127+12
 1800 0048 FFF7FEFF 		bl	_ZN5Timer12getStartTimeEv
 1801              	.LVL136:
 1802              	.LEHE8:
 512:Core/Src/main.cpp ****     {
 1803              		.loc 1 512 23 view .LVU426
 1804 004c 241A     		subs	r4, r4, r0
 512:Core/Src/main.cpp ****     {
ARM GAS  C:\Users\Admin\AppData\Local\Temp\ccXKOSM3.s 			page 51


 1805              		.loc 1 512 58 view .LVU427
 1806 004e B4F5FA6F 		cmp	r4, #2000
 1807 0052 31D8     		bhi	.L126
 1808              	.L111:
 1809              	.LBE14:
 1810              	.LBE17:
 519:Core/Src/main.cpp **** 
 1811              		.loc 1 519 1 view .LVU428
 1812 0054 10BD     		pop	{r4, pc}
 1813              	.L124:
 1814              	.LBB18:
 1815              	.LBB15:
 492:Core/Src/main.cpp ****     static bool firstTime = true;
 1816              		.loc 1 492 33 discriminator 1 view .LVU429
 1817 0056 2648     		ldr	r0, .L127+4
 1818 0058 FFF7FEFF 		bl	__cxa_guard_acquire
 1819              	.LVL137:
 1820 005c 0028     		cmp	r0, #0
 1821 005e DCD0     		beq	.L113
 492:Core/Src/main.cpp ****     static bool firstTime = true;
 1822              		.loc 1 492 33 discriminator 2 view .LVU430
 1823 0060 0022     		movs	r2, #0
 1824 0062 1146     		mov	r1, r2
 1825 0064 2448     		ldr	r0, .L127+12
 1826              	.LEHB9:
 1827 0066 FFF7FEFF 		bl	_ZN5TimerC1Emm
 1828              	.LVL138:
 1829              	.LEHE9:
 492:Core/Src/main.cpp ****     static bool firstTime = true;
 1830              		.loc 1 492 33 discriminator 4 view .LVU431
 1831 006a 2148     		ldr	r0, .L127+4
 1832 006c FFF7FEFF 		bl	__cxa_guard_release
 1833              	.LVL139:
 1834 0070 D3E7     		b	.L113
 1835              	.L125:
 497:Core/Src/main.cpp ****       alarmTimer.start();
 1836              		.loc 1 497 7 is_stmt 1 view .LVU432
 497:Core/Src/main.cpp ****       alarmTimer.start();
 1837              		.loc 1 497 18 is_stmt 0 view .LVU433
 1838 0072 2348     		ldr	r0, .L127+20
 1839              	.LEHB10:
 1840 0074 FFF7FEFF 		bl	_Z11UART_PrintfPKcz
 1841              	.LVL140:
 498:Core/Src/main.cpp ****       firstTime = false;
 1842              		.loc 1 498 7 is_stmt 1 view .LVU434
 498:Core/Src/main.cpp ****       firstTime = false;
 1843              		.loc 1 498 23 is_stmt 0 view .LVU435
 1844 0078 1F48     		ldr	r0, .L127+12
 1845 007a FFF7FEFF 		bl	_ZN5Timer5startEv
 1846              	.LVL141:
 499:Core/Src/main.cpp ****     }
 1847              		.loc 1 499 7 is_stmt 1 view .LVU436
 499:Core/Src/main.cpp ****     }
 1848              		.loc 1 499 17 is_stmt 0 view .LVU437
 1849 007e 1D4B     		ldr	r3, .L127+8
 1850 0080 0022     		movs	r2, #0
 1851 0082 1A70     		strb	r2, [r3]
ARM GAS  C:\Users\Admin\AppData\Local\Temp\ccXKOSM3.s 			page 52


 1852 0084 CCE7     		b	.L114
 1853              	.L115:
 507:Core/Src/main.cpp ****     {
 1854              		.loc 1 507 10 is_stmt 1 view .LVU438
 507:Core/Src/main.cpp ****     {
 1855              		.loc 1 507 25 is_stmt 0 view .LVU439
 1856 0086 FFF7FEFF 		bl	HAL_GetTick
 1857              	.LVL142:
 1858 008a 0446     		mov	r4, r0
 507:Core/Src/main.cpp ****     {
 1859              		.loc 1 507 52 view .LVU440
 1860 008c 1A48     		ldr	r0, .L127+12
 1861 008e FFF7FEFF 		bl	_ZN5Timer11getLastTickEv
 1862              	.LVL143:
 507:Core/Src/main.cpp ****     {
 1863              		.loc 1 507 28 view .LVU441
 1864 0092 241A     		subs	r4, r4, r0
 507:Core/Src/main.cpp ****     {
 1865              		.loc 1 507 62 view .LVU442
 1866 0094 B4F57A7F 		cmp	r4, #1000
 1867 0098 D2D2     		bcs	.L116
 507:Core/Src/main.cpp ****     {
 1868              		.loc 1 507 76 discriminator 1 view .LVU443
 1869 009a FFF7FEFF 		bl	HAL_GetTick
 1870              	.LVL144:
 1871 009e 0446     		mov	r4, r0
 507:Core/Src/main.cpp ****     {
 1872              		.loc 1 507 103 discriminator 1 view .LVU444
 1873 00a0 1548     		ldr	r0, .L127+12
 1874 00a2 FFF7FEFF 		bl	_ZN5Timer11getLastTickEv
 1875              	.LVL145:
 507:Core/Src/main.cpp ****     {
 1876              		.loc 1 507 79 discriminator 1 view .LVU445
 1877 00a6 241A     		subs	r4, r4, r0
 507:Core/Src/main.cpp ****     {
 1878              		.loc 1 507 62 discriminator 1 view .LVU446
 1879 00a8 40F2EE23 		movw	r3, #750
 1880 00ac 9C42     		cmp	r4, r3
 1881 00ae C7D9     		bls	.L116
 509:Core/Src/main.cpp ****     }
 1882              		.loc 1 509 7 is_stmt 1 view .LVU447
 509:Core/Src/main.cpp ****     }
 1883              		.loc 1 509 20 is_stmt 0 view .LVU448
 1884 00b0 1248     		ldr	r0, .L127+16
 1885 00b2 FFF7FEFF 		bl	_ZN6PinOut7turnOffEv
 1886              	.LVL146:
 1887 00b6 C3E7     		b	.L116
 1888              	.L126:
 512:Core/Src/main.cpp ****     {
 1889              		.loc 1 512 76 discriminator 1 view .LVU449
 1890 00b8 FFF7FEFF 		bl	wig_available
 1891              	.LVL147:
 512:Core/Src/main.cpp ****     {
 1892              		.loc 1 512 58 discriminator 1 view .LVU450
 1893 00bc 0028     		cmp	r0, #0
 1894 00be C9D0     		beq	.L111
 512:Core/Src/main.cpp ****     {
ARM GAS  C:\Users\Admin\AppData\Local\Temp\ccXKOSM3.s 			page 53


 1895              		.loc 1 512 92 discriminator 3 view .LVU451
 1896 00c0 FFF7FEFF 		bl	getCode
 1897              	.LVL148:
 1898 00c4 FFF7FEFF 		bl	_Z10verifyCodem
 1899              	.LVL149:
 512:Core/Src/main.cpp ****     {
 1900              		.loc 1 512 79 discriminator 3 view .LVU452
 1901 00c8 0028     		cmp	r0, #0
 1902 00ca C3D0     		beq	.L111
 514:Core/Src/main.cpp ****       siren.turnOff();
 1903              		.loc 1 514 7 is_stmt 1 view .LVU453
 514:Core/Src/main.cpp ****       siren.turnOff();
 1904              		.loc 1 514 16 is_stmt 0 view .LVU454
 1905 00cc 074B     		ldr	r3, .L127
 1906 00ce 0022     		movs	r2, #0
 1907 00d0 1A60     		str	r2, [r3]
 515:Core/Src/main.cpp ****       firstTime = true;
 1908              		.loc 1 515 7 is_stmt 1 view .LVU455
 515:Core/Src/main.cpp ****       firstTime = true;
 1909              		.loc 1 515 20 is_stmt 0 view .LVU456
 1910 00d2 0A48     		ldr	r0, .L127+16
 1911 00d4 FFF7FEFF 		bl	_ZN6PinOut7turnOffEv
 1912              	.LVL150:
 516:Core/Src/main.cpp ****     }
 1913              		.loc 1 516 7 is_stmt 1 view .LVU457
 516:Core/Src/main.cpp ****     }
 1914              		.loc 1 516 17 is_stmt 0 view .LVU458
 1915 00d8 064B     		ldr	r3, .L127+8
 1916 00da 0122     		movs	r2, #1
 1917 00dc 1A70     		strb	r2, [r3]
 1918              	.LBE15:
 1919              	.LBE18:
 519:Core/Src/main.cpp **** 
 1920              		.loc 1 519 1 view .LVU459
 1921 00de B9E7     		b	.L111
 1922              	.L118:
 1923              	.LBB19:
 1924              	.LBB16:
 492:Core/Src/main.cpp ****     static bool firstTime = true;
 1925              		.loc 1 492 33 view .LVU460
 1926 00e0 0348     		ldr	r0, .L127+4
 1927 00e2 FFF7FEFF 		bl	__cxa_guard_abort
 1928              	.LVL151:
 1929 00e6 FFF7FEFF 		bl	__cxa_end_cleanup
 1930              	.LVL152:
 1931              	.LEHE10:
 1932              	.L128:
 1933 00ea 00BF     		.align	2
 1934              	.L127:
 1935 00ec 00000000 		.word	workMode
 1936 00f0 00000000 		.word	.LANCHOR24
 1937 00f4 00000000 		.word	.LANCHOR26
 1938 00f8 00000000 		.word	.LANCHOR25
 1939 00fc 00000000 		.word	.LANCHOR2
 1940 0100 00000000 		.word	.LC10
 1941              	.LBE16:
 1942              	.LBE19:
ARM GAS  C:\Users\Admin\AppData\Local\Temp\ccXKOSM3.s 			page 54


 1943              		.cfi_endproc
 1944              	.LFE84:
 1945              		.personality	__gxx_personality_v0
 1946              		.handlerdata
 1947              	.LLSDA84:
 1948 0008 FF       		.byte	0xff
 1949 0009 FF       		.byte	0xff
 1950 000a 01       		.byte	0x1
 1951 000b 0D       		.uleb128 .LLSDACSE84-.LLSDACSB84
 1952              	.LLSDACSB84:
 1953 000c 20       		.uleb128 .LEHB8-.LFB84
 1954 000d 2C       		.uleb128 .LEHE8-.LEHB8
 1955 000e 00       		.uleb128 0
 1956 000f 00       		.uleb128 0
 1957 0010 66       		.uleb128 .LEHB9-.LFB84
 1958 0011 04       		.uleb128 .LEHE9-.LEHB9
 1959 0012 E001     		.uleb128 .L118-.LFB84
 1960 0014 00       		.uleb128 0
 1961 0015 74       		.uleb128 .LEHB10-.LFB84
 1962 0016 76       		.uleb128 .LEHE10-.LEHB10
 1963 0017 00       		.uleb128 0
 1964 0018 00       		.uleb128 0
 1965              	.LLSDACSE84:
 1966              		.section	.text._Z10AlarmEventv
 1967              		.fnend
 1969              		.section	.rodata._Z10switchModev.str1.4,"aMS",%progbits,1
 1970              		.align	2
 1971              	.LC11:
 1972 0000 0A537769 		.ascii	"\012Switched to Closed mode.\015\012\000"
 1972      74636865 
 1972      6420746F 
 1972      20436C6F 
 1972      73656420 
 1973              		.align	2
 1974              	.LC12:
 1975 001c 0A537769 		.ascii	"\012Switched to Open mode.\015\012\000"
 1975      74636865 
 1975      6420746F 
 1975      204F7065 
 1975      6E206D6F 
 1976 0036 0000     		.align	2
 1977              	.LC13:
 1978 0038 0A537769 		.ascii	"\012Switched to CondOpen mode.\015\012\000"
 1978      74636865 
 1978      6420746F 
 1978      20436F6E 
 1978      644F7065 
 1979 0056 0000     		.align	2
 1980              	.LC14:
 1981 0058 0A537769 		.ascii	"\012Switched to Normal mode.\015\012\000"
 1981      74636865 
 1981      6420746F 
 1981      204E6F72 
 1981      6D616C20 
 1982              		.align	2
 1983              	.LC15:
 1984 0074 556E6B6E 		.ascii	"Unknown mode, switched to normal.\015\012\000"
ARM GAS  C:\Users\Admin\AppData\Local\Temp\ccXKOSM3.s 			page 55


 1984      6F776E20 
 1984      6D6F6465 
 1984      2C207377 
 1984      69746368 
 1985              		.section	.text._Z10switchModev,"ax",%progbits
 1986              		.align	1
 1987              		.global	_Z10switchModev
 1988              		.syntax unified
 1989              		.thumb
 1990              		.thumb_func
 1991              		.fpu softvfp
 1993              	_Z10switchModev:
 1994              		.fnstart
 1995              	.LFB87:
 614:Core/Src/main.cpp ****   switch (intercomMode)
 1996              		.loc 1 614 1 is_stmt 1 view -0
 1997              		.cfi_startproc
 1998              		@ args = 0, pretend = 0, frame = 0
 1999              		@ frame_needed = 0, uses_anonymous_args = 0
 2000 0000 08B5     		push	{r3, lr}
 2001              		.save {r3, lr}
 2002              	.LCFI18:
 2003              		.cfi_def_cfa_offset 8
 2004              		.cfi_offset 3, -8
 2005              		.cfi_offset 14, -4
 615:Core/Src/main.cpp ****   {
 2006              		.loc 1 615 3 view .LVU462
 2007 0002 1D4B     		ldr	r3, .L138
 2008 0004 1B68     		ldr	r3, [r3]
 2009 0006 032B     		cmp	r3, #3
 2010 0008 2BD8     		bhi	.L130
 2011 000a DFE803F0 		tbb	[pc, r3]
 2012              	.L132:
 2013 000e 02       		.byte	(.L135-.L132)/2
 2014 000f 0C       		.byte	(.L134-.L132)/2
 2015 0010 16       		.byte	(.L133-.L132)/2
 2016 0011 20       		.byte	(.L131-.L132)/2
 2017              		.p2align 1
 2018              	.L135:
 617:Core/Src/main.cpp ****   {
 2019              		.loc 1 617 3 view .LVU463
 618:Core/Src/main.cpp ****     UART_Printf("\nSwitched to Closed mode.\r\n");
 2020              		.loc 1 618 3 view .LVU464
 619:Core/Src/main.cpp ****     intercomMode = IntercomMode::ClosedMode;
 2021              		.loc 1 619 5 view .LVU465
 619:Core/Src/main.cpp ****     intercomMode = IntercomMode::ClosedMode;
 2022              		.loc 1 619 16 is_stmt 0 view .LVU466
 2023 0012 1A48     		ldr	r0, .L138+4
 2024 0014 FFF7FEFF 		bl	_Z11UART_PrintfPKcz
 2025              	.LVL153:
 620:Core/Src/main.cpp ****     lock.turnOff();
 2026              		.loc 1 620 5 is_stmt 1 view .LVU467
 620:Core/Src/main.cpp ****     lock.turnOff();
 2027              		.loc 1 620 18 is_stmt 0 view .LVU468
 2028 0018 174B     		ldr	r3, .L138
 2029 001a 0122     		movs	r2, #1
 2030 001c 1A60     		str	r2, [r3]
ARM GAS  C:\Users\Admin\AppData\Local\Temp\ccXKOSM3.s 			page 56


 621:Core/Src/main.cpp ****     break;
 2031              		.loc 1 621 5 is_stmt 1 view .LVU469
 621:Core/Src/main.cpp ****     break;
 2032              		.loc 1 621 17 is_stmt 0 view .LVU470
 2033 001e 1848     		ldr	r0, .L138+8
 2034 0020 FFF7FEFF 		bl	_ZN6PinOut7turnOffEv
 2035              	.LVL154:
 622:Core/Src/main.cpp ****   }
 2036              		.loc 1 622 5 is_stmt 1 view .LVU471
 2037              	.L129:
 655:Core/Src/main.cpp **** 
 2038              		.loc 1 655 1 is_stmt 0 view .LVU472
 2039 0024 08BD     		pop	{r3, pc}
 2040              	.L134:
 624:Core/Src/main.cpp ****   {
 2041              		.loc 1 624 3 is_stmt 1 view .LVU473
 625:Core/Src/main.cpp ****     UART_Printf("\nSwitched to Open mode.\r\n");
 2042              		.loc 1 625 3 view .LVU474
 626:Core/Src/main.cpp ****     intercomMode = IntercomMode::OpenMode;
 2043              		.loc 1 626 5 view .LVU475
 626:Core/Src/main.cpp ****     intercomMode = IntercomMode::OpenMode;
 2044              		.loc 1 626 16 is_stmt 0 view .LVU476
 2045 0026 1748     		ldr	r0, .L138+12
 2046 0028 FFF7FEFF 		bl	_Z11UART_PrintfPKcz
 2047              	.LVL155:
 627:Core/Src/main.cpp ****     lock.turnOn();
 2048              		.loc 1 627 5 is_stmt 1 view .LVU477
 627:Core/Src/main.cpp ****     lock.turnOn();
 2049              		.loc 1 627 18 is_stmt 0 view .LVU478
 2050 002c 124B     		ldr	r3, .L138
 2051 002e 0222     		movs	r2, #2
 2052 0030 1A60     		str	r2, [r3]
 628:Core/Src/main.cpp ****     break;
 2053              		.loc 1 628 5 is_stmt 1 view .LVU479
 628:Core/Src/main.cpp ****     break;
 2054              		.loc 1 628 16 is_stmt 0 view .LVU480
 2055 0032 1348     		ldr	r0, .L138+8
 2056 0034 FFF7FEFF 		bl	_ZN6PinOut6turnOnEv
 2057              	.LVL156:
 629:Core/Src/main.cpp ****   }
 2058              		.loc 1 629 5 is_stmt 1 view .LVU481
 2059 0038 F4E7     		b	.L129
 2060              	.L133:
 631:Core/Src/main.cpp ****   {
 2061              		.loc 1 631 3 view .LVU482
 632:Core/Src/main.cpp ****     UART_Printf("\nSwitched to CondOpen mode.\r\n");
 2062              		.loc 1 632 3 view .LVU483
 633:Core/Src/main.cpp ****     intercomMode = IntercomMode::CondOpenMode;
 2063              		.loc 1 633 5 view .LVU484
 633:Core/Src/main.cpp ****     intercomMode = IntercomMode::CondOpenMode;
 2064              		.loc 1 633 16 is_stmt 0 view .LVU485
 2065 003a 1348     		ldr	r0, .L138+16
 2066 003c FFF7FEFF 		bl	_Z11UART_PrintfPKcz
 2067              	.LVL157:
 634:Core/Src/main.cpp ****     lock.turnOff();
 2068              		.loc 1 634 5 is_stmt 1 view .LVU486
 634:Core/Src/main.cpp ****     lock.turnOff();
ARM GAS  C:\Users\Admin\AppData\Local\Temp\ccXKOSM3.s 			page 57


 2069              		.loc 1 634 18 is_stmt 0 view .LVU487
 2070 0040 0D4B     		ldr	r3, .L138
 2071 0042 0322     		movs	r2, #3
 2072 0044 1A60     		str	r2, [r3]
 635:Core/Src/main.cpp ****     break;
 2073              		.loc 1 635 5 is_stmt 1 view .LVU488
 635:Core/Src/main.cpp ****     break;
 2074              		.loc 1 635 17 is_stmt 0 view .LVU489
 2075 0046 0E48     		ldr	r0, .L138+8
 2076 0048 FFF7FEFF 		bl	_ZN6PinOut7turnOffEv
 2077              	.LVL158:
 636:Core/Src/main.cpp ****   }
 2078              		.loc 1 636 5 is_stmt 1 view .LVU490
 2079 004c EAE7     		b	.L129
 2080              	.L131:
 638:Core/Src/main.cpp ****   {
 2081              		.loc 1 638 3 view .LVU491
 639:Core/Src/main.cpp ****     UART_Printf("\nSwitched to Normal mode.\r\n");
 2082              		.loc 1 639 3 view .LVU492
 640:Core/Src/main.cpp ****     intercomMode = IntercomMode::NormalMode;
 2083              		.loc 1 640 5 view .LVU493
 640:Core/Src/main.cpp ****     intercomMode = IntercomMode::NormalMode;
 2084              		.loc 1 640 16 is_stmt 0 view .LVU494
 2085 004e 0F48     		ldr	r0, .L138+20
 2086 0050 FFF7FEFF 		bl	_Z11UART_PrintfPKcz
 2087              	.LVL159:
 641:Core/Src/main.cpp ****     lock.turnOff();
 2088              		.loc 1 641 5 is_stmt 1 view .LVU495
 641:Core/Src/main.cpp ****     lock.turnOff();
 2089              		.loc 1 641 18 is_stmt 0 view .LVU496
 2090 0054 084B     		ldr	r3, .L138
 2091 0056 0022     		movs	r2, #0
 2092 0058 1A60     		str	r2, [r3]
 642:Core/Src/main.cpp ****     break;
 2093              		.loc 1 642 5 is_stmt 1 view .LVU497
 642:Core/Src/main.cpp ****     break;
 2094              		.loc 1 642 17 is_stmt 0 view .LVU498
 2095 005a 0948     		ldr	r0, .L138+8
 2096 005c FFF7FEFF 		bl	_ZN6PinOut7turnOffEv
 2097              	.LVL160:
 643:Core/Src/main.cpp ****   }
 2098              		.loc 1 643 5 is_stmt 1 view .LVU499
 2099 0060 E0E7     		b	.L129
 2100              	.L130:
 645:Core/Src/main.cpp ****   {
 2101              		.loc 1 645 3 view .LVU500
 646:Core/Src/main.cpp ****     UART_Printf("Unknown mode, switched to normal.\r\n");
 2102              		.loc 1 646 3 view .LVU501
 647:Core/Src/main.cpp ****     intercomMode = IntercomMode::NormalMode;
 2103              		.loc 1 647 5 view .LVU502
 647:Core/Src/main.cpp ****     intercomMode = IntercomMode::NormalMode;
 2104              		.loc 1 647 16 is_stmt 0 view .LVU503
 2105 0062 0B48     		ldr	r0, .L138+24
 2106 0064 FFF7FEFF 		bl	_Z11UART_PrintfPKcz
 2107              	.LVL161:
 648:Core/Src/main.cpp ****     lock.turnOff();
 2108              		.loc 1 648 5 is_stmt 1 view .LVU504
ARM GAS  C:\Users\Admin\AppData\Local\Temp\ccXKOSM3.s 			page 58


 648:Core/Src/main.cpp ****     lock.turnOff();
 2109              		.loc 1 648 18 is_stmt 0 view .LVU505
 2110 0068 034B     		ldr	r3, .L138
 2111 006a 0022     		movs	r2, #0
 2112 006c 1A60     		str	r2, [r3]
 649:Core/Src/main.cpp ****     break;
 2113              		.loc 1 649 5 is_stmt 1 view .LVU506
 649:Core/Src/main.cpp ****     break;
 2114              		.loc 1 649 17 is_stmt 0 view .LVU507
 2115 006e 0448     		ldr	r0, .L138+8
 2116 0070 FFF7FEFF 		bl	_ZN6PinOut7turnOffEv
 2117              	.LVL162:
 650:Core/Src/main.cpp ****   }
 2118              		.loc 1 650 5 is_stmt 1 view .LVU508
 654:Core/Src/main.cpp **** }
 2119              		.loc 1 654 3 view .LVU509
 2120 0074 D6E7     		b	.L129
 2121              	.L139:
 2122 0076 00BF     		.align	2
 2123              	.L138:
 2124 0078 00000000 		.word	intercomMode
 2125 007c 00000000 		.word	.LC11
 2126 0080 00000000 		.word	.LANCHOR1
 2127 0084 1C000000 		.word	.LC12
 2128 0088 38000000 		.word	.LC13
 2129 008c 58000000 		.word	.LC14
 2130 0090 74000000 		.word	.LC15
 2131              		.cfi_endproc
 2132              	.LFE87:
 2133              		.fnend
 2135              		.section	.text._Z15ChangeModeEventv,"ax",%progbits
 2136              		.align	1
 2137              		.global	_Z15ChangeModeEventv
 2138              		.syntax unified
 2139              		.thumb
 2140              		.thumb_func
 2141              		.fpu softvfp
 2143              	_Z15ChangeModeEventv:
 2144              		.fnstart
 2145              	.LFB78:
 288:Core/Src/main.cpp ****   if ((HAL_GetTick() - timme) > 15000)
 2146              		.loc 1 288 1 view -0
 2147              		.cfi_startproc
 2148              		@ args = 0, pretend = 0, frame = 0
 2149              		@ frame_needed = 0, uses_anonymous_args = 0
 2150 0000 08B5     		push	{r3, lr}
 2151              		.save {r3, lr}
 2152              	.LCFI19:
 2153              		.cfi_def_cfa_offset 8
 2154              		.cfi_offset 3, -8
 2155              		.cfi_offset 14, -4
 289:Core/Src/main.cpp ****   {
 2156              		.loc 1 289 3 view .LVU511
 289:Core/Src/main.cpp ****   {
 2157              		.loc 1 289 19 is_stmt 0 view .LVU512
 2158 0002 FFF7FEFF 		bl	HAL_GetTick
 2159              	.LVL163:
ARM GAS  C:\Users\Admin\AppData\Local\Temp\ccXKOSM3.s 			page 59


 289:Core/Src/main.cpp ****   {
 2160              		.loc 1 289 22 view .LVU513
 2161 0006 074B     		ldr	r3, .L144
 2162 0008 1B68     		ldr	r3, [r3]
 2163 000a C01A     		subs	r0, r0, r3
 289:Core/Src/main.cpp ****   {
 2164              		.loc 1 289 3 view .LVU514
 2165 000c 43F69823 		movw	r3, #15000
 2166 0010 9842     		cmp	r0, r3
 2167 0012 00D8     		bhi	.L143
 2168              	.L140:
 294:Core/Src/main.cpp **** 
 2169              		.loc 1 294 1 view .LVU515
 2170 0014 08BD     		pop	{r3, pc}
 2171              	.L143:
 291:Core/Src/main.cpp ****     switchMode();
 2172              		.loc 1 291 5 is_stmt 1 view .LVU516
 291:Core/Src/main.cpp ****     switchMode();
 2173              		.loc 1 291 24 is_stmt 0 view .LVU517
 2174 0016 FFF7FEFF 		bl	HAL_GetTick
 2175              	.LVL164:
 291:Core/Src/main.cpp ****     switchMode();
 2176              		.loc 1 291 11 view .LVU518
 2177 001a 024B     		ldr	r3, .L144
 2178 001c 1860     		str	r0, [r3]
 292:Core/Src/main.cpp ****   }
 2179              		.loc 1 292 5 is_stmt 1 view .LVU519
 292:Core/Src/main.cpp ****   }
 2180              		.loc 1 292 15 is_stmt 0 view .LVU520
 2181 001e FFF7FEFF 		bl	_Z10switchModev
 2182              	.LVL165:
 294:Core/Src/main.cpp **** 
 2183              		.loc 1 294 1 view .LVU521
 2184 0022 F7E7     		b	.L140
 2185              	.L145:
 2186              		.align	2
 2187              	.L144:
 2188 0024 00000000 		.word	.LANCHOR16
 2189              		.cfi_endproc
 2190              	.LFE78:
 2191              		.fnend
 2193              		.section	.text.Error_Handler,"ax",%progbits
 2194              		.align	1
 2195              		.global	Error_Handler
 2196              		.syntax unified
 2197              		.thumb
 2198              		.thumb_func
 2199              		.fpu softvfp
 2201              	Error_Handler:
 2202              		.fnstart
 2203              	.LFB88:
 662:Core/Src/main.cpp ****   /* USER CODE BEGIN Error_Handler_Debug */
 2204              		.loc 1 662 1 is_stmt 1 view -0
 2205              		.cfi_startproc
 2206              		@ Volatile: function does not return.
 2207              		@ args = 0, pretend = 0, frame = 0
 2208              		@ frame_needed = 0, uses_anonymous_args = 0
ARM GAS  C:\Users\Admin\AppData\Local\Temp\ccXKOSM3.s 			page 60


 2209              		@ link register save eliminated.
 665:Core/Src/main.cpp ****   while (1)
 2210              		.loc 1 665 3 view .LVU523
 2211              	.LBB20:
 2212              	.LBI20:
 2213              		.file 2 "Drivers/CMSIS/Include/cmsis_gcc.h"
   1:Drivers/CMSIS/Include/cmsis_gcc.h **** /**************************************************************************//**
   2:Drivers/CMSIS/Include/cmsis_gcc.h ****  * @file     cmsis_gcc.h
   3:Drivers/CMSIS/Include/cmsis_gcc.h ****  * @brief    CMSIS compiler GCC header file
   4:Drivers/CMSIS/Include/cmsis_gcc.h ****  * @version  V5.0.4
   5:Drivers/CMSIS/Include/cmsis_gcc.h ****  * @date     09. April 2018
   6:Drivers/CMSIS/Include/cmsis_gcc.h ****  ******************************************************************************/
   7:Drivers/CMSIS/Include/cmsis_gcc.h **** /*
   8:Drivers/CMSIS/Include/cmsis_gcc.h ****  * Copyright (c) 2009-2018 Arm Limited. All rights reserved.
   9:Drivers/CMSIS/Include/cmsis_gcc.h ****  *
  10:Drivers/CMSIS/Include/cmsis_gcc.h ****  * SPDX-License-Identifier: Apache-2.0
  11:Drivers/CMSIS/Include/cmsis_gcc.h ****  *
  12:Drivers/CMSIS/Include/cmsis_gcc.h ****  * Licensed under the Apache License, Version 2.0 (the License); you may
  13:Drivers/CMSIS/Include/cmsis_gcc.h ****  * not use this file except in compliance with the License.
  14:Drivers/CMSIS/Include/cmsis_gcc.h ****  * You may obtain a copy of the License at
  15:Drivers/CMSIS/Include/cmsis_gcc.h ****  *
  16:Drivers/CMSIS/Include/cmsis_gcc.h ****  * www.apache.org/licenses/LICENSE-2.0
  17:Drivers/CMSIS/Include/cmsis_gcc.h ****  *
  18:Drivers/CMSIS/Include/cmsis_gcc.h ****  * Unless required by applicable law or agreed to in writing, software
  19:Drivers/CMSIS/Include/cmsis_gcc.h ****  * distributed under the License is distributed on an AS IS BASIS, WITHOUT
  20:Drivers/CMSIS/Include/cmsis_gcc.h ****  * WARRANTIES OR CONDITIONS OF ANY KIND, either express or implied.
  21:Drivers/CMSIS/Include/cmsis_gcc.h ****  * See the License for the specific language governing permissions and
  22:Drivers/CMSIS/Include/cmsis_gcc.h ****  * limitations under the License.
  23:Drivers/CMSIS/Include/cmsis_gcc.h ****  */
  24:Drivers/CMSIS/Include/cmsis_gcc.h **** 
  25:Drivers/CMSIS/Include/cmsis_gcc.h **** #ifndef __CMSIS_GCC_H
  26:Drivers/CMSIS/Include/cmsis_gcc.h **** #define __CMSIS_GCC_H
  27:Drivers/CMSIS/Include/cmsis_gcc.h **** 
  28:Drivers/CMSIS/Include/cmsis_gcc.h **** /* ignore some GCC warnings */
  29:Drivers/CMSIS/Include/cmsis_gcc.h **** #pragma GCC diagnostic push
  30:Drivers/CMSIS/Include/cmsis_gcc.h **** #pragma GCC diagnostic ignored "-Wsign-conversion"
  31:Drivers/CMSIS/Include/cmsis_gcc.h **** #pragma GCC diagnostic ignored "-Wconversion"
  32:Drivers/CMSIS/Include/cmsis_gcc.h **** #pragma GCC diagnostic ignored "-Wunused-parameter"
  33:Drivers/CMSIS/Include/cmsis_gcc.h **** 
  34:Drivers/CMSIS/Include/cmsis_gcc.h **** /* Fallback for __has_builtin */
  35:Drivers/CMSIS/Include/cmsis_gcc.h **** #ifndef __has_builtin
  36:Drivers/CMSIS/Include/cmsis_gcc.h ****   #define __has_builtin(x) (0)
  37:Drivers/CMSIS/Include/cmsis_gcc.h **** #endif
  38:Drivers/CMSIS/Include/cmsis_gcc.h **** 
  39:Drivers/CMSIS/Include/cmsis_gcc.h **** /* CMSIS compiler specific defines */
  40:Drivers/CMSIS/Include/cmsis_gcc.h **** #ifndef   __ASM
  41:Drivers/CMSIS/Include/cmsis_gcc.h ****   #define __ASM                                  __asm
  42:Drivers/CMSIS/Include/cmsis_gcc.h **** #endif
  43:Drivers/CMSIS/Include/cmsis_gcc.h **** #ifndef   __INLINE
  44:Drivers/CMSIS/Include/cmsis_gcc.h ****   #define __INLINE                               inline
  45:Drivers/CMSIS/Include/cmsis_gcc.h **** #endif
  46:Drivers/CMSIS/Include/cmsis_gcc.h **** #ifndef   __STATIC_INLINE
  47:Drivers/CMSIS/Include/cmsis_gcc.h ****   #define __STATIC_INLINE                        static inline
  48:Drivers/CMSIS/Include/cmsis_gcc.h **** #endif
  49:Drivers/CMSIS/Include/cmsis_gcc.h **** #ifndef   __STATIC_FORCEINLINE                 
  50:Drivers/CMSIS/Include/cmsis_gcc.h ****   #define __STATIC_FORCEINLINE                   __attribute__((always_inline)) static inline
  51:Drivers/CMSIS/Include/cmsis_gcc.h **** #endif                                           
ARM GAS  C:\Users\Admin\AppData\Local\Temp\ccXKOSM3.s 			page 61


  52:Drivers/CMSIS/Include/cmsis_gcc.h **** #ifndef   __NO_RETURN
  53:Drivers/CMSIS/Include/cmsis_gcc.h ****   #define __NO_RETURN                            __attribute__((__noreturn__))
  54:Drivers/CMSIS/Include/cmsis_gcc.h **** #endif
  55:Drivers/CMSIS/Include/cmsis_gcc.h **** #ifndef   __USED
  56:Drivers/CMSIS/Include/cmsis_gcc.h ****   #define __USED                                 __attribute__((used))
  57:Drivers/CMSIS/Include/cmsis_gcc.h **** #endif
  58:Drivers/CMSIS/Include/cmsis_gcc.h **** #ifndef   __WEAK
  59:Drivers/CMSIS/Include/cmsis_gcc.h ****   #define __WEAK                                 __attribute__((weak))
  60:Drivers/CMSIS/Include/cmsis_gcc.h **** #endif
  61:Drivers/CMSIS/Include/cmsis_gcc.h **** #ifndef   __PACKED
  62:Drivers/CMSIS/Include/cmsis_gcc.h ****   #define __PACKED                               __attribute__((packed, aligned(1)))
  63:Drivers/CMSIS/Include/cmsis_gcc.h **** #endif
  64:Drivers/CMSIS/Include/cmsis_gcc.h **** #ifndef   __PACKED_STRUCT
  65:Drivers/CMSIS/Include/cmsis_gcc.h ****   #define __PACKED_STRUCT                        struct __attribute__((packed, aligned(1)))
  66:Drivers/CMSIS/Include/cmsis_gcc.h **** #endif
  67:Drivers/CMSIS/Include/cmsis_gcc.h **** #ifndef   __PACKED_UNION
  68:Drivers/CMSIS/Include/cmsis_gcc.h ****   #define __PACKED_UNION                         union __attribute__((packed, aligned(1)))
  69:Drivers/CMSIS/Include/cmsis_gcc.h **** #endif
  70:Drivers/CMSIS/Include/cmsis_gcc.h **** #ifndef   __UNALIGNED_UINT32        /* deprecated */
  71:Drivers/CMSIS/Include/cmsis_gcc.h ****   #pragma GCC diagnostic push
  72:Drivers/CMSIS/Include/cmsis_gcc.h ****   #pragma GCC diagnostic ignored "-Wpacked"
  73:Drivers/CMSIS/Include/cmsis_gcc.h ****   #pragma GCC diagnostic ignored "-Wattributes"
  74:Drivers/CMSIS/Include/cmsis_gcc.h ****   struct __attribute__((packed)) T_UINT32 { uint32_t v; };
  75:Drivers/CMSIS/Include/cmsis_gcc.h ****   #pragma GCC diagnostic pop
  76:Drivers/CMSIS/Include/cmsis_gcc.h ****   #define __UNALIGNED_UINT32(x)                  (((struct T_UINT32 *)(x))->v)
  77:Drivers/CMSIS/Include/cmsis_gcc.h **** #endif
  78:Drivers/CMSIS/Include/cmsis_gcc.h **** #ifndef   __UNALIGNED_UINT16_WRITE
  79:Drivers/CMSIS/Include/cmsis_gcc.h ****   #pragma GCC diagnostic push
  80:Drivers/CMSIS/Include/cmsis_gcc.h ****   #pragma GCC diagnostic ignored "-Wpacked"
  81:Drivers/CMSIS/Include/cmsis_gcc.h ****   #pragma GCC diagnostic ignored "-Wattributes"
  82:Drivers/CMSIS/Include/cmsis_gcc.h ****   __PACKED_STRUCT T_UINT16_WRITE { uint16_t v; };
  83:Drivers/CMSIS/Include/cmsis_gcc.h ****   #pragma GCC diagnostic pop
  84:Drivers/CMSIS/Include/cmsis_gcc.h ****   #define __UNALIGNED_UINT16_WRITE(addr, val)    (void)((((struct T_UINT16_WRITE *)(void *)(addr))-
  85:Drivers/CMSIS/Include/cmsis_gcc.h **** #endif
  86:Drivers/CMSIS/Include/cmsis_gcc.h **** #ifndef   __UNALIGNED_UINT16_READ
  87:Drivers/CMSIS/Include/cmsis_gcc.h ****   #pragma GCC diagnostic push
  88:Drivers/CMSIS/Include/cmsis_gcc.h ****   #pragma GCC diagnostic ignored "-Wpacked"
  89:Drivers/CMSIS/Include/cmsis_gcc.h ****   #pragma GCC diagnostic ignored "-Wattributes"
  90:Drivers/CMSIS/Include/cmsis_gcc.h ****   __PACKED_STRUCT T_UINT16_READ { uint16_t v; };
  91:Drivers/CMSIS/Include/cmsis_gcc.h ****   #pragma GCC diagnostic pop
  92:Drivers/CMSIS/Include/cmsis_gcc.h ****   #define __UNALIGNED_UINT16_READ(addr)          (((const struct T_UINT16_READ *)(const void *)(add
  93:Drivers/CMSIS/Include/cmsis_gcc.h **** #endif
  94:Drivers/CMSIS/Include/cmsis_gcc.h **** #ifndef   __UNALIGNED_UINT32_WRITE
  95:Drivers/CMSIS/Include/cmsis_gcc.h ****   #pragma GCC diagnostic push
  96:Drivers/CMSIS/Include/cmsis_gcc.h ****   #pragma GCC diagnostic ignored "-Wpacked"
  97:Drivers/CMSIS/Include/cmsis_gcc.h ****   #pragma GCC diagnostic ignored "-Wattributes"
  98:Drivers/CMSIS/Include/cmsis_gcc.h ****   __PACKED_STRUCT T_UINT32_WRITE { uint32_t v; };
  99:Drivers/CMSIS/Include/cmsis_gcc.h ****   #pragma GCC diagnostic pop
 100:Drivers/CMSIS/Include/cmsis_gcc.h ****   #define __UNALIGNED_UINT32_WRITE(addr, val)    (void)((((struct T_UINT32_WRITE *)(void *)(addr))-
 101:Drivers/CMSIS/Include/cmsis_gcc.h **** #endif
 102:Drivers/CMSIS/Include/cmsis_gcc.h **** #ifndef   __UNALIGNED_UINT32_READ
 103:Drivers/CMSIS/Include/cmsis_gcc.h ****   #pragma GCC diagnostic push
 104:Drivers/CMSIS/Include/cmsis_gcc.h ****   #pragma GCC diagnostic ignored "-Wpacked"
 105:Drivers/CMSIS/Include/cmsis_gcc.h ****   #pragma GCC diagnostic ignored "-Wattributes"
 106:Drivers/CMSIS/Include/cmsis_gcc.h ****   __PACKED_STRUCT T_UINT32_READ { uint32_t v; };
 107:Drivers/CMSIS/Include/cmsis_gcc.h ****   #pragma GCC diagnostic pop
 108:Drivers/CMSIS/Include/cmsis_gcc.h ****   #define __UNALIGNED_UINT32_READ(addr)          (((const struct T_UINT32_READ *)(const void *)(add
ARM GAS  C:\Users\Admin\AppData\Local\Temp\ccXKOSM3.s 			page 62


 109:Drivers/CMSIS/Include/cmsis_gcc.h **** #endif
 110:Drivers/CMSIS/Include/cmsis_gcc.h **** #ifndef   __ALIGNED
 111:Drivers/CMSIS/Include/cmsis_gcc.h ****   #define __ALIGNED(x)                           __attribute__((aligned(x)))
 112:Drivers/CMSIS/Include/cmsis_gcc.h **** #endif
 113:Drivers/CMSIS/Include/cmsis_gcc.h **** #ifndef   __RESTRICT
 114:Drivers/CMSIS/Include/cmsis_gcc.h ****   #define __RESTRICT                             __restrict
 115:Drivers/CMSIS/Include/cmsis_gcc.h **** #endif
 116:Drivers/CMSIS/Include/cmsis_gcc.h **** 
 117:Drivers/CMSIS/Include/cmsis_gcc.h **** 
 118:Drivers/CMSIS/Include/cmsis_gcc.h **** /* ###########################  Core Function Access  ########################### */
 119:Drivers/CMSIS/Include/cmsis_gcc.h **** /** \ingroup  CMSIS_Core_FunctionInterface
 120:Drivers/CMSIS/Include/cmsis_gcc.h ****     \defgroup CMSIS_Core_RegAccFunctions CMSIS Core Register Access Functions
 121:Drivers/CMSIS/Include/cmsis_gcc.h ****   @{
 122:Drivers/CMSIS/Include/cmsis_gcc.h ****  */
 123:Drivers/CMSIS/Include/cmsis_gcc.h **** 
 124:Drivers/CMSIS/Include/cmsis_gcc.h **** /**
 125:Drivers/CMSIS/Include/cmsis_gcc.h ****   \brief   Enable IRQ Interrupts
 126:Drivers/CMSIS/Include/cmsis_gcc.h ****   \details Enables IRQ interrupts by clearing the I-bit in the CPSR.
 127:Drivers/CMSIS/Include/cmsis_gcc.h ****            Can only be executed in Privileged modes.
 128:Drivers/CMSIS/Include/cmsis_gcc.h ****  */
 129:Drivers/CMSIS/Include/cmsis_gcc.h **** __STATIC_FORCEINLINE void __enable_irq(void)
 130:Drivers/CMSIS/Include/cmsis_gcc.h **** {
 131:Drivers/CMSIS/Include/cmsis_gcc.h ****   __ASM volatile ("cpsie i" : : : "memory");
 132:Drivers/CMSIS/Include/cmsis_gcc.h **** }
 133:Drivers/CMSIS/Include/cmsis_gcc.h **** 
 134:Drivers/CMSIS/Include/cmsis_gcc.h **** 
 135:Drivers/CMSIS/Include/cmsis_gcc.h **** /**
 136:Drivers/CMSIS/Include/cmsis_gcc.h ****   \brief   Disable IRQ Interrupts
 137:Drivers/CMSIS/Include/cmsis_gcc.h ****   \details Disables IRQ interrupts by setting the I-bit in the CPSR.
 138:Drivers/CMSIS/Include/cmsis_gcc.h ****            Can only be executed in Privileged modes.
 139:Drivers/CMSIS/Include/cmsis_gcc.h ****  */
 140:Drivers/CMSIS/Include/cmsis_gcc.h **** __STATIC_FORCEINLINE void __disable_irq(void)
 2214              		.loc 2 140 27 view .LVU524
 2215              	.LBB21:
 141:Drivers/CMSIS/Include/cmsis_gcc.h **** {
 142:Drivers/CMSIS/Include/cmsis_gcc.h ****   __ASM volatile ("cpsid i" : : : "memory");
 2216              		.loc 2 142 3 view .LVU525
 2217              		.syntax unified
 2218              	@ 142 "Drivers/CMSIS/Include/cmsis_gcc.h" 1
 2219 0000 72B6     		cpsid i
 2220              	@ 0 "" 2
 2221              		.thumb
 2222              		.syntax unified
 2223              	.L147:
 2224              	.LBE21:
 2225              	.LBE20:
 666:Core/Src/main.cpp ****   {
 2226              		.loc 1 666 3 discriminator 1 view .LVU526
 666:Core/Src/main.cpp ****   {
 2227              		.loc 1 666 3 discriminator 1 view .LVU527
 2228 0002 FEE7     		b	.L147
 2229              		.cfi_endproc
 2230              	.LFE88:
 2231              		.cantunwind
 2232              		.fnend
 2234              		.section	.text._Z18SystemClock_Configv,"ax",%progbits
 2235              		.align	1
ARM GAS  C:\Users\Admin\AppData\Local\Temp\ccXKOSM3.s 			page 63


 2236              		.global	_Z18SystemClock_Configv
 2237              		.syntax unified
 2238              		.thumb
 2239              		.thumb_func
 2240              		.fpu softvfp
 2242              	_Z18SystemClock_Configv:
 2243              		.fnstart
 2244              	.LFB73:
 129:Core/Src/main.cpp ****   RCC_OscInitTypeDef RCC_OscInitStruct = {0};
 2245              		.loc 1 129 1 view -0
 2246              		.cfi_startproc
 2247              		@ args = 0, pretend = 0, frame = 64
 2248              		@ frame_needed = 0, uses_anonymous_args = 0
 2249 0000 00B5     		push	{lr}
 2250              		.save {lr}
 2251              	.LCFI20:
 2252              		.cfi_def_cfa_offset 4
 2253              		.cfi_offset 14, -4
 2254              		.pad #68
 2255 0002 91B0     		sub	sp, sp, #68
 2256              	.LCFI21:
 2257              		.cfi_def_cfa_offset 72
 130:Core/Src/main.cpp ****   RCC_ClkInitTypeDef RCC_ClkInitStruct = {0};
 2258              		.loc 1 130 3 view .LVU529
 130:Core/Src/main.cpp ****   RCC_ClkInitTypeDef RCC_ClkInitStruct = {0};
 2259              		.loc 1 130 22 is_stmt 0 view .LVU530
 2260 0004 2822     		movs	r2, #40
 2261 0006 0021     		movs	r1, #0
 2262 0008 06A8     		add	r0, sp, #24
 2263 000a FFF7FEFF 		bl	memset
 2264              	.LVL166:
 131:Core/Src/main.cpp **** 
 2265              		.loc 1 131 3 is_stmt 1 view .LVU531
 131:Core/Src/main.cpp **** 
 2266              		.loc 1 131 22 is_stmt 0 view .LVU532
 2267 000e 0023     		movs	r3, #0
 2268 0010 0193     		str	r3, [sp, #4]
 2269 0012 0293     		str	r3, [sp, #8]
 2270 0014 0393     		str	r3, [sp, #12]
 2271 0016 0493     		str	r3, [sp, #16]
 2272 0018 0593     		str	r3, [sp, #20]
 136:Core/Src/main.cpp ****   RCC_OscInitStruct.HSIState = RCC_HSI_ON;
 2273              		.loc 1 136 3 is_stmt 1 view .LVU533
 136:Core/Src/main.cpp ****   RCC_OscInitStruct.HSIState = RCC_HSI_ON;
 2274              		.loc 1 136 36 is_stmt 0 view .LVU534
 2275 001a 0223     		movs	r3, #2
 2276 001c 0693     		str	r3, [sp, #24]
 137:Core/Src/main.cpp ****   RCC_OscInitStruct.HSICalibrationValue = RCC_HSICALIBRATION_DEFAULT;
 2277              		.loc 1 137 3 is_stmt 1 view .LVU535
 137:Core/Src/main.cpp ****   RCC_OscInitStruct.HSICalibrationValue = RCC_HSICALIBRATION_DEFAULT;
 2278              		.loc 1 137 30 is_stmt 0 view .LVU536
 2279 001e 0122     		movs	r2, #1
 2280 0020 0A92     		str	r2, [sp, #40]
 138:Core/Src/main.cpp ****   RCC_OscInitStruct.PLL.PLLState = RCC_PLL_ON;
 2281              		.loc 1 138 3 is_stmt 1 view .LVU537
 138:Core/Src/main.cpp ****   RCC_OscInitStruct.PLL.PLLState = RCC_PLL_ON;
 2282              		.loc 1 138 41 is_stmt 0 view .LVU538
ARM GAS  C:\Users\Admin\AppData\Local\Temp\ccXKOSM3.s 			page 64


 2283 0022 1022     		movs	r2, #16
 2284 0024 0B92     		str	r2, [sp, #44]
 139:Core/Src/main.cpp ****   RCC_OscInitStruct.PLL.PLLSource = RCC_PLLSOURCE_HSI_DIV2;
 2285              		.loc 1 139 3 is_stmt 1 view .LVU539
 139:Core/Src/main.cpp ****   RCC_OscInitStruct.PLL.PLLSource = RCC_PLLSOURCE_HSI_DIV2;
 2286              		.loc 1 139 34 is_stmt 0 view .LVU540
 2287 0026 0D93     		str	r3, [sp, #52]
 140:Core/Src/main.cpp ****   RCC_OscInitStruct.PLL.PLLMUL = RCC_PLL_MUL9;
 2288              		.loc 1 140 3 is_stmt 1 view .LVU541
 141:Core/Src/main.cpp ****   if (HAL_RCC_OscConfig(&RCC_OscInitStruct) != HAL_OK)
 2289              		.loc 1 141 3 view .LVU542
 141:Core/Src/main.cpp ****   if (HAL_RCC_OscConfig(&RCC_OscInitStruct) != HAL_OK)
 2290              		.loc 1 141 32 is_stmt 0 view .LVU543
 2291 0028 4FF4E013 		mov	r3, #1835008
 2292 002c 0F93     		str	r3, [sp, #60]
 142:Core/Src/main.cpp ****   {
 2293              		.loc 1 142 3 is_stmt 1 view .LVU544
 142:Core/Src/main.cpp ****   {
 2294              		.loc 1 142 24 is_stmt 0 view .LVU545
 2295 002e 06A8     		add	r0, sp, #24
 2296 0030 FFF7FEFF 		bl	HAL_RCC_OscConfig
 2297              	.LVL167:
 142:Core/Src/main.cpp ****   {
 2298              		.loc 1 142 3 view .LVU546
 2299 0034 88B9     		cbnz	r0, .L152
 148:Core/Src/main.cpp ****   RCC_ClkInitStruct.SYSCLKSource = RCC_SYSCLKSOURCE_PLLCLK;
 2300              		.loc 1 148 3 is_stmt 1 view .LVU547
 148:Core/Src/main.cpp ****   RCC_ClkInitStruct.SYSCLKSource = RCC_SYSCLKSOURCE_PLLCLK;
 2301              		.loc 1 148 31 is_stmt 0 view .LVU548
 2302 0036 0F23     		movs	r3, #15
 2303 0038 0193     		str	r3, [sp, #4]
 149:Core/Src/main.cpp ****   RCC_ClkInitStruct.AHBCLKDivider = RCC_SYSCLK_DIV1;
 2304              		.loc 1 149 3 is_stmt 1 view .LVU549
 149:Core/Src/main.cpp ****   RCC_ClkInitStruct.AHBCLKDivider = RCC_SYSCLK_DIV1;
 2305              		.loc 1 149 34 is_stmt 0 view .LVU550
 2306 003a 0223     		movs	r3, #2
 2307 003c 0293     		str	r3, [sp, #8]
 150:Core/Src/main.cpp ****   RCC_ClkInitStruct.APB1CLKDivider = RCC_HCLK_DIV2;
 2308              		.loc 1 150 3 is_stmt 1 view .LVU551
 150:Core/Src/main.cpp ****   RCC_ClkInitStruct.APB1CLKDivider = RCC_HCLK_DIV2;
 2309              		.loc 1 150 35 is_stmt 0 view .LVU552
 2310 003e 0023     		movs	r3, #0
 2311 0040 0393     		str	r3, [sp, #12]
 151:Core/Src/main.cpp ****   RCC_ClkInitStruct.APB2CLKDivider = RCC_HCLK_DIV1;
 2312              		.loc 1 151 3 is_stmt 1 view .LVU553
 151:Core/Src/main.cpp ****   RCC_ClkInitStruct.APB2CLKDivider = RCC_HCLK_DIV1;
 2313              		.loc 1 151 36 is_stmt 0 view .LVU554
 2314 0042 4FF48062 		mov	r2, #1024
 2315 0046 0492     		str	r2, [sp, #16]
 152:Core/Src/main.cpp **** 
 2316              		.loc 1 152 3 is_stmt 1 view .LVU555
 152:Core/Src/main.cpp **** 
 2317              		.loc 1 152 36 is_stmt 0 view .LVU556
 2318 0048 0593     		str	r3, [sp, #20]
 154:Core/Src/main.cpp ****   {
 2319              		.loc 1 154 3 is_stmt 1 view .LVU557
 154:Core/Src/main.cpp ****   {
ARM GAS  C:\Users\Admin\AppData\Local\Temp\ccXKOSM3.s 			page 65


 2320              		.loc 1 154 26 is_stmt 0 view .LVU558
 2321 004a 0121     		movs	r1, #1
 2322 004c 01A8     		add	r0, sp, #4
 2323 004e FFF7FEFF 		bl	HAL_RCC_ClockConfig
 2324              	.LVL168:
 154:Core/Src/main.cpp ****   {
 2325              		.loc 1 154 3 view .LVU559
 2326 0052 20B9     		cbnz	r0, .L153
 158:Core/Src/main.cpp **** 
 2327              		.loc 1 158 1 view .LVU560
 2328 0054 11B0     		add	sp, sp, #68
 2329              	.LCFI22:
 2330              		.cfi_remember_state
 2331              		.cfi_def_cfa_offset 4
 2332              		@ sp needed
 2333 0056 5DF804FB 		ldr	pc, [sp], #4
 2334              	.L152:
 2335              	.LCFI23:
 2336              		.cfi_restore_state
 144:Core/Src/main.cpp ****   }
 2337              		.loc 1 144 5 is_stmt 1 view .LVU561
 144:Core/Src/main.cpp ****   }
 2338              		.loc 1 144 18 is_stmt 0 view .LVU562
 2339 005a FFF7FEFF 		bl	Error_Handler
 2340              	.LVL169:
 2341              	.L153:
 156:Core/Src/main.cpp ****   }
 2342              		.loc 1 156 5 is_stmt 1 view .LVU563
 156:Core/Src/main.cpp ****   }
 2343              		.loc 1 156 18 is_stmt 0 view .LVU564
 2344 005e FFF7FEFF 		bl	Error_Handler
 2345              	.LVL170:
 2346              		.cfi_endproc
 2347              	.LFE73:
 2348              		.fnend
 2350              		.section	.text._ZL19MX_USART1_UART_Initv,"ax",%progbits
 2351              		.align	1
 2352              		.syntax unified
 2353              		.thumb
 2354              		.thumb_func
 2355              		.fpu softvfp
 2357              	_ZL19MX_USART1_UART_Initv:
 2358              		.fnstart
 2359              	.LFB74:
 166:Core/Src/main.cpp ****   huart1.Instance = USART1;
 2360              		.loc 1 166 1 is_stmt 1 view -0
 2361              		.cfi_startproc
 2362              		@ args = 0, pretend = 0, frame = 0
 2363              		@ frame_needed = 0, uses_anonymous_args = 0
 2364 0000 08B5     		push	{r3, lr}
 2365              		.save {r3, lr}
 2366              	.LCFI24:
 2367              		.cfi_def_cfa_offset 8
 2368              		.cfi_offset 3, -8
 2369              		.cfi_offset 14, -4
 167:Core/Src/main.cpp ****   huart1.Init.BaudRate = 115200;
 2370              		.loc 1 167 3 view .LVU566
ARM GAS  C:\Users\Admin\AppData\Local\Temp\ccXKOSM3.s 			page 66


 167:Core/Src/main.cpp ****   huart1.Init.BaudRate = 115200;
 2371              		.loc 1 167 19 is_stmt 0 view .LVU567
 2372 0002 0A48     		ldr	r0, .L158
 2373 0004 0A4B     		ldr	r3, .L158+4
 2374 0006 0360     		str	r3, [r0]
 168:Core/Src/main.cpp ****   huart1.Init.WordLength = UART_WORDLENGTH_8B;
 2375              		.loc 1 168 3 is_stmt 1 view .LVU568
 168:Core/Src/main.cpp ****   huart1.Init.WordLength = UART_WORDLENGTH_8B;
 2376              		.loc 1 168 24 is_stmt 0 view .LVU569
 2377 0008 4FF4E133 		mov	r3, #115200
 2378 000c 4360     		str	r3, [r0, #4]
 169:Core/Src/main.cpp ****   huart1.Init.StopBits = UART_STOPBITS_1;
 2379              		.loc 1 169 3 is_stmt 1 view .LVU570
 169:Core/Src/main.cpp ****   huart1.Init.StopBits = UART_STOPBITS_1;
 2380              		.loc 1 169 26 is_stmt 0 view .LVU571
 2381 000e 0023     		movs	r3, #0
 2382 0010 8360     		str	r3, [r0, #8]
 170:Core/Src/main.cpp ****   huart1.Init.Parity = UART_PARITY_NONE;
 2383              		.loc 1 170 3 is_stmt 1 view .LVU572
 170:Core/Src/main.cpp ****   huart1.Init.Parity = UART_PARITY_NONE;
 2384              		.loc 1 170 24 is_stmt 0 view .LVU573
 2385 0012 C360     		str	r3, [r0, #12]
 171:Core/Src/main.cpp ****   huart1.Init.Mode = UART_MODE_TX_RX;
 2386              		.loc 1 171 3 is_stmt 1 view .LVU574
 171:Core/Src/main.cpp ****   huart1.Init.Mode = UART_MODE_TX_RX;
 2387              		.loc 1 171 22 is_stmt 0 view .LVU575
 2388 0014 0361     		str	r3, [r0, #16]
 172:Core/Src/main.cpp ****   huart1.Init.HwFlowCtl = UART_HWCONTROL_NONE;
 2389              		.loc 1 172 3 is_stmt 1 view .LVU576
 172:Core/Src/main.cpp ****   huart1.Init.HwFlowCtl = UART_HWCONTROL_NONE;
 2390              		.loc 1 172 20 is_stmt 0 view .LVU577
 2391 0016 0C22     		movs	r2, #12
 2392 0018 4261     		str	r2, [r0, #20]
 173:Core/Src/main.cpp ****   huart1.Init.OverSampling = UART_OVERSAMPLING_16;
 2393              		.loc 1 173 3 is_stmt 1 view .LVU578
 173:Core/Src/main.cpp ****   huart1.Init.OverSampling = UART_OVERSAMPLING_16;
 2394              		.loc 1 173 25 is_stmt 0 view .LVU579
 2395 001a 8361     		str	r3, [r0, #24]
 174:Core/Src/main.cpp ****   if (HAL_UART_Init(&huart1) != HAL_OK)
 2396              		.loc 1 174 3 is_stmt 1 view .LVU580
 174:Core/Src/main.cpp ****   if (HAL_UART_Init(&huart1) != HAL_OK)
 2397              		.loc 1 174 28 is_stmt 0 view .LVU581
 2398 001c C361     		str	r3, [r0, #28]
 175:Core/Src/main.cpp ****   {
 2399              		.loc 1 175 3 is_stmt 1 view .LVU582
 175:Core/Src/main.cpp ****   {
 2400              		.loc 1 175 20 is_stmt 0 view .LVU583
 2401 001e FFF7FEFF 		bl	HAL_UART_Init
 2402              	.LVL171:
 175:Core/Src/main.cpp ****   {
 2403              		.loc 1 175 3 view .LVU584
 2404 0022 00B9     		cbnz	r0, .L157
 179:Core/Src/main.cpp **** 
 2405              		.loc 1 179 1 view .LVU585
 2406 0024 08BD     		pop	{r3, pc}
 2407              	.L157:
 177:Core/Src/main.cpp ****   }
ARM GAS  C:\Users\Admin\AppData\Local\Temp\ccXKOSM3.s 			page 67


 2408              		.loc 1 177 5 is_stmt 1 view .LVU586
 177:Core/Src/main.cpp ****   }
 2409              		.loc 1 177 18 is_stmt 0 view .LVU587
 2410 0026 FFF7FEFF 		bl	Error_Handler
 2411              	.LVL172:
 2412              	.L159:
 2413 002a 00BF     		.align	2
 2414              	.L158:
 2415 002c 00000000 		.word	.LANCHOR14
 2416 0030 00380140 		.word	1073821696
 2417              		.cfi_endproc
 2418              	.LFE74:
 2419              		.fnend
 2421              		.section	.rodata.main.str1.4,"aMS",%progbits,1
 2422              		.align	2
 2423              	.LC16:
 2424 0000 0A746573 		.ascii	"\012test.\015\012\000"
 2424      742E0D0A 
 2424      00
 2425              		.section	.text.main,"ax",%progbits
 2426              		.align	1
 2427              		.global	main
 2428              		.syntax unified
 2429              		.thumb
 2430              		.thumb_func
 2431              		.fpu softvfp
 2433              	main:
 2434              		.fnstart
 2435              	.LFB76:
 238:Core/Src/main.cpp ****   UART_Printf("\ntest.\r\n");
 2436              		.loc 1 238 1 is_stmt 1 view -0
 2437              		.cfi_startproc
 2438              		@ args = 0, pretend = 0, frame = 0
 2439              		@ frame_needed = 0, uses_anonymous_args = 0
 2440 0000 08B5     		push	{r3, lr}
 2441              		.save {r3, lr}
 2442              	.LCFI25:
 2443              		.cfi_def_cfa_offset 8
 2444              		.cfi_offset 3, -8
 2445              		.cfi_offset 14, -4
 239:Core/Src/main.cpp ****   HAL_Init();
 2446              		.loc 1 239 3 view .LVU589
 239:Core/Src/main.cpp ****   HAL_Init();
 2447              		.loc 1 239 14 is_stmt 0 view .LVU590
 2448 0002 1848     		ldr	r0, .L163
 2449 0004 FFF7FEFF 		bl	_Z11UART_PrintfPKcz
 2450              	.LVL173:
 240:Core/Src/main.cpp **** 
 2451              		.loc 1 240 3 is_stmt 1 view .LVU591
 240:Core/Src/main.cpp **** 
 2452              		.loc 1 240 11 is_stmt 0 view .LVU592
 2453 0008 FFF7FEFF 		bl	HAL_Init
 2454              	.LVL174:
 242:Core/Src/main.cpp ****   MX_GPIO_Init();
 2455              		.loc 1 242 3 is_stmt 1 view .LVU593
 242:Core/Src/main.cpp ****   MX_GPIO_Init();
 2456              		.loc 1 242 21 is_stmt 0 view .LVU594
ARM GAS  C:\Users\Admin\AppData\Local\Temp\ccXKOSM3.s 			page 68


 2457 000c FFF7FEFF 		bl	_Z18SystemClock_Configv
 2458              	.LVL175:
 243:Core/Src/main.cpp ****   MX_USART1_UART_Init();
 2459              		.loc 1 243 3 is_stmt 1 view .LVU595
 243:Core/Src/main.cpp ****   MX_USART1_UART_Init();
 2460              		.loc 1 243 15 is_stmt 0 view .LVU596
 2461 0010 FFF7FEFF 		bl	_ZL12MX_GPIO_Initv
 2462              	.LVL176:
 244:Core/Src/main.cpp **** 
 2463              		.loc 1 244 3 is_stmt 1 view .LVU597
 244:Core/Src/main.cpp **** 
 2464              		.loc 1 244 22 is_stmt 0 view .LVU598
 2465 0014 FFF7FEFF 		bl	_ZL19MX_USART1_UART_Initv
 2466              	.LVL177:
 246:Core/Src/main.cpp ****   insideGreenLed.turnOff();
 2467              		.loc 1 246 3 is_stmt 1 view .LVU599
 246:Core/Src/main.cpp ****   insideGreenLed.turnOff();
 2468              		.loc 1 246 14 is_stmt 0 view .LVU600
 2469 0018 1348     		ldr	r0, .L163+4
 2470 001a FFF7FEFF 		bl	_Z11UART_PrintfPKcz
 2471              	.LVL178:
 247:Core/Src/main.cpp ****   outsideGreenLed.turnOff();
 2472              		.loc 1 247 3 is_stmt 1 view .LVU601
 247:Core/Src/main.cpp ****   outsideGreenLed.turnOff();
 2473              		.loc 1 247 25 is_stmt 0 view .LVU602
 2474 001e 1348     		ldr	r0, .L163+8
 2475 0020 FFF7FEFF 		bl	_ZN14InvertedPinOut7turnOffEv
 2476              	.LVL179:
 248:Core/Src/main.cpp ****   insideZumer.turnOff();
 2477              		.loc 1 248 3 is_stmt 1 view .LVU603
 248:Core/Src/main.cpp ****   insideZumer.turnOff();
 2478              		.loc 1 248 26 is_stmt 0 view .LVU604
 2479 0024 1248     		ldr	r0, .L163+12
 2480 0026 FFF7FEFF 		bl	_ZN14InvertedPinOut7turnOffEv
 2481              	.LVL180:
 249:Core/Src/main.cpp ****   outsideZumer.turnOff();
 2482              		.loc 1 249 3 is_stmt 1 view .LVU605
 249:Core/Src/main.cpp ****   outsideZumer.turnOff();
 2483              		.loc 1 249 22 is_stmt 0 view .LVU606
 2484 002a 1248     		ldr	r0, .L163+16
 2485 002c FFF7FEFF 		bl	_ZN14InvertedPinOut7turnOffEv
 2486              	.LVL181:
 250:Core/Src/main.cpp **** 
 2487              		.loc 1 250 3 is_stmt 1 view .LVU607
 250:Core/Src/main.cpp **** 
 2488              		.loc 1 250 23 is_stmt 0 view .LVU608
 2489 0030 1148     		ldr	r0, .L163+20
 2490 0032 FFF7FEFF 		bl	_ZN14InvertedPinOut7turnOffEv
 2491              	.LVL182:
 2492              	.L161:
 252:Core/Src/main.cpp ****   {
 2493              		.loc 1 252 3 is_stmt 1 discriminator 1 view .LVU609
 254:Core/Src/main.cpp **** 
 2494              		.loc 1 254 5 discriminator 1 view .LVU610
 254:Core/Src/main.cpp **** 
 2495              		.loc 1 254 19 is_stmt 0 discriminator 1 view .LVU611
 2496 0036 FFF7FEFF 		bl	_Z14TimeTrackEventv
ARM GAS  C:\Users\Admin\AppData\Local\Temp\ccXKOSM3.s 			page 69


 2497              	.LVL183:
 256:Core/Src/main.cpp **** 
 2498              		.loc 1 256 5 is_stmt 1 discriminator 1 view .LVU612
 256:Core/Src/main.cpp **** 
 2499              		.loc 1 256 20 is_stmt 0 discriminator 1 view .LVU613
 2500 003a FFF7FEFF 		bl	_Z15ChangeModeEventv
 2501              	.LVL184:
 258:Core/Src/main.cpp **** 
 2502              		.loc 1 258 5 is_stmt 1 discriminator 1 view .LVU614
 258:Core/Src/main.cpp **** 
 2503              		.loc 1 258 20 is_stmt 0 discriminator 1 view .LVU615
 2504 003e FFF7FEFF 		bl	_Z15DoorSensorEventv
 2505              	.LVL185:
 260:Core/Src/main.cpp **** 
 2506              		.loc 1 260 5 is_stmt 1 discriminator 1 view .LVU616
 260:Core/Src/main.cpp **** 
 2507              		.loc 1 260 13 is_stmt 0 discriminator 1 view .LVU617
 2508 0042 0E4B     		ldr	r3, .L163+24
 2509 0044 1978     		ldrb	r1, [r3]	@ zero_extendqisi2
 2510 0046 0E4B     		ldr	r3, .L163+28
 2511 0048 1878     		ldrb	r0, [r3]	@ zero_extendqisi2
 2512 004a FFF7FEFF 		bl	_Z8intercombb
 2513              	.LVL186:
 264:Core/Src/main.cpp **** 
 2514              		.loc 1 264 5 is_stmt 1 discriminator 1 view .LVU618
 264:Core/Src/main.cpp **** 
 2515              		.loc 1 264 23 is_stmt 0 discriminator 1 view .LVU619
 2516 004e FFF7FEFF 		bl	_Z18ButtonPressedEventv
 2517              	.LVL187:
 266:Core/Src/main.cpp **** 
 2518              		.loc 1 266 5 is_stmt 1 discriminator 1 view .LVU620
 266:Core/Src/main.cpp **** 
 2519              		.loc 1 266 22 is_stmt 0 discriminator 1 view .LVU621
 2520 0052 FFF7FEFF 		bl	_Z17TempOpenModeEventv
 2521              	.LVL188:
 268:Core/Src/main.cpp **** 
 2522              		.loc 1 268 5 is_stmt 1 discriminator 1 view .LVU622
 268:Core/Src/main.cpp **** 
 2523              		.loc 1 268 19 is_stmt 0 discriminator 1 view .LVU623
 2524 0056 FFF7FEFF 		bl	_Z14TempAlarmEventv
 2525              	.LVL189:
 270:Core/Src/main.cpp **** 
 2526              		.loc 1 270 5 is_stmt 1 discriminator 1 view .LVU624
 270:Core/Src/main.cpp **** 
 2527              		.loc 1 270 17 is_stmt 0 discriminator 1 view .LVU625
 2528 005a FFF7FEFF 		bl	_Z12DenyKeyEventv
 2529              	.LVL190:
 272:Core/Src/main.cpp ****   }
 2530              		.loc 1 272 5 is_stmt 1 discriminator 1 view .LVU626
 272:Core/Src/main.cpp ****   }
 2531              		.loc 1 272 15 is_stmt 0 discriminator 1 view .LVU627
 2532 005e FFF7FEFF 		bl	_Z10AlarmEventv
 2533              	.LVL191:
 252:Core/Src/main.cpp ****   {
 2534              		.loc 1 252 3 is_stmt 1 discriminator 1 view .LVU628
 2535 0062 E8E7     		b	.L161
 2536              	.L164:
ARM GAS  C:\Users\Admin\AppData\Local\Temp\ccXKOSM3.s 			page 70


 2537              		.align	2
 2538              	.L163:
 2539 0064 00000000 		.word	.LC16
 2540 0068 58000000 		.word	.LC14
 2541 006c 00000000 		.word	.LANCHOR5
 2542 0070 00000000 		.word	.LANCHOR6
 2543 0074 00000000 		.word	.LANCHOR3
 2544 0078 00000000 		.word	.LANCHOR4
 2545 007c 00000000 		.word	.LANCHOR13
 2546 0080 00000000 		.word	.LANCHOR12
 2547              		.cfi_endproc
 2548              	.LFE76:
 2549              		.fnend
 2551              		.section	.text._GLOBAL__sub_I_huart1,"ax",%progbits
 2552              		.align	1
 2553              		.syntax unified
 2554              		.thumb
 2555              		.thumb_func
 2556              		.fpu softvfp
 2558              	_GLOBAL__sub_I_huart1:
 2559              		.fnstart
 2560              	.LFB90:
 2561              		.loc 1 670 1 view -0
 2562              		.cfi_startproc
 2563              		@ args = 0, pretend = 0, frame = 0
 2564              		@ frame_needed = 0, uses_anonymous_args = 0
 2565 0000 08B5     		push	{r3, lr}
 2566              	.LCFI26:
 2567              		.cfi_def_cfa_offset 8
 2568              		.cfi_offset 3, -8
 2569              		.cfi_offset 14, -4
 2570              		.loc 1 670 1 is_stmt 0 view .LVU630
 2571 0002 4FF6FF71 		movw	r1, #65535
 2572 0006 0120     		movs	r0, #1
 2573 0008 FFF7FEFF 		bl	_Z41__static_initialization_and_destruction_0ii
 2574              	.LVL192:
 2575 000c 08BD     		pop	{r3, pc}
 2576              		.cfi_endproc
 2577              	.LFE90:
 2578              		.cantunwind
 2579              		.fnend
 2581              		.section	.init_array,"aw",%init_array
 2582              		.align	2
 2583 0000 00000000 		.word	_GLOBAL__sub_I_huart1(target1)
 2584              		.global	timme
 2585              		.global	timmeTrack
 2586              		.global	doorSensorTimer
 2587              		.global	outsideGreenLed
 2588              		.global	insideGreenLed
 2589              		.global	outsideZumer
 2590              		.global	insideZumer
 2591              		.global	siren
 2592              		.global	lock
 2593              		.global	door
 2594              		.global	outsideKeyRead
 2595              		.global	insideKeyRead
 2596              		.global	wig_flag_inrt
ARM GAS  C:\Users\Admin\AppData\Local\Temp\ccXKOSM3.s 			page 71


 2597              		.global	huart1
 2598              		.section	.bss._ZGVZ10AlarmEventvE10alarmTimer,"aw",%nobits
 2599              		.align	2
 2600              		.set	.LANCHOR24,. + 0
 2603              	_ZGVZ10AlarmEventvE10alarmTimer:
 2604 0000 00000000 		.space	4
 2605              		.section	.bss._ZGVZ12DenyKeyEventvE9denyTimer,"aw",%nobits
 2606              		.align	2
 2607              		.set	.LANCHOR8,. + 0
 2610              	_ZGVZ12DenyKeyEventvE9denyTimer:
 2611 0000 00000000 		.space	4
 2612              		.section	.bss._ZGVZ14TempAlarmEventvE10sirenTimer,"aw",%nobits
 2613              		.align	2
 2614              		.set	.LANCHOR22,. + 0
 2617              	_ZGVZ14TempAlarmEventvE10sirenTimer:
 2618 0000 00000000 		.space	4
 2619              		.section	.bss._ZGVZ17TempOpenModeEventvE10zumerTimer,"aw",%nobits
 2620              		.align	2
 2621              		.set	.LANCHOR19,. + 0
 2624              	_ZGVZ17TempOpenModeEventvE10zumerTimer:
 2625 0000 00000000 		.space	4
 2626              		.section	.bss._ZGVZ17TempOpenModeEventvE9lockTimer,"aw",%nobits
 2627              		.align	2
 2628              		.set	.LANCHOR17,. + 0
 2631              	_ZGVZ17TempOpenModeEventvE9lockTimer:
 2632 0000 00000000 		.space	4
 2633              		.section	.bss._ZZ10AlarmEventvE10alarmTimer,"aw",%nobits
 2634              		.align	2
 2635              		.set	.LANCHOR25,. + 0
 2638              	_ZZ10AlarmEventvE10alarmTimer:
 2639 0000 00000000 		.space	8
 2639      00000000 
 2640              		.section	.bss._ZZ12DenyKeyEventvE9denyTimer,"aw",%nobits
 2641              		.align	2
 2642              		.set	.LANCHOR9,. + 0
 2645              	_ZZ12DenyKeyEventvE9denyTimer:
 2646 0000 00000000 		.space	8
 2646      00000000 
 2647              		.section	.bss._ZZ14TempAlarmEventvE10sirenTimer,"aw",%nobits
 2648              		.align	2
 2649              		.set	.LANCHOR23,. + 0
 2652              	_ZZ14TempAlarmEventvE10sirenTimer:
 2653 0000 00000000 		.space	8
 2653      00000000 
 2654              		.section	.bss._ZZ17TempOpenModeEventvE10zumerTimer,"aw",%nobits
 2655              		.align	2
 2656              		.set	.LANCHOR20,. + 0
 2659              	_ZZ17TempOpenModeEventvE10zumerTimer:
 2660 0000 00000000 		.space	8
 2660      00000000 
 2661              		.section	.bss._ZZ17TempOpenModeEventvE9lockTimer,"aw",%nobits
 2662              		.align	2
 2663              		.set	.LANCHOR18,. + 0
 2666              	_ZZ17TempOpenModeEventvE9lockTimer:
 2667 0000 00000000 		.space	8
 2667      00000000 
 2668              		.section	.bss.door,"aw",%nobits
ARM GAS  C:\Users\Admin\AppData\Local\Temp\ccXKOSM3.s 			page 72


 2669              		.align	2
 2670              		.set	.LANCHOR0,. + 0
 2673              	door:
 2674 0000 00000000 		.space	8
 2674      00000000 
 2675              		.section	.bss.doorSensorTimer,"aw",%nobits
 2676              		.align	2
 2677              		.set	.LANCHOR7,. + 0
 2680              	doorSensorTimer:
 2681 0000 00000000 		.space	8
 2681      00000000 
 2682              		.section	.bss.huart1,"aw",%nobits
 2683              		.align	2
 2684              		.set	.LANCHOR14,. + 0
 2687              	huart1:
 2688 0000 00000000 		.space	64
 2688      00000000 
 2688      00000000 
 2688      00000000 
 2688      00000000 
 2689              		.section	.bss.insideGreenLed,"aw",%nobits
 2690              		.align	2
 2691              		.set	.LANCHOR5,. + 0
 2694              	insideGreenLed:
 2695 0000 00000000 		.space	8
 2695      00000000 
 2696              		.section	.bss.insideKeyRead,"aw",%nobits
 2697              		.set	.LANCHOR12,. + 0
 2700              	insideKeyRead:
 2701 0000 00       		.space	1
 2702              		.section	.bss.insideZumer,"aw",%nobits
 2703              		.align	2
 2704              		.set	.LANCHOR3,. + 0
 2707              	insideZumer:
 2708 0000 00000000 		.space	8
 2708      00000000 
 2709              		.section	.bss.lock,"aw",%nobits
 2710              		.align	2
 2711              		.set	.LANCHOR1,. + 0
 2714              	lock:
 2715 0000 00000000 		.space	8
 2715      00000000 
 2716              		.section	.bss.outsideGreenLed,"aw",%nobits
 2717              		.align	2
 2718              		.set	.LANCHOR6,. + 0
 2721              	outsideGreenLed:
 2722 0000 00000000 		.space	8
 2722      00000000 
 2723              		.section	.bss.outsideKeyRead,"aw",%nobits
 2724              		.set	.LANCHOR13,. + 0
 2727              	outsideKeyRead:
 2728 0000 00       		.space	1
 2729              		.section	.bss.outsideZumer,"aw",%nobits
 2730              		.align	2
 2731              		.set	.LANCHOR4,. + 0
 2734              	outsideZumer:
 2735 0000 00000000 		.space	8
ARM GAS  C:\Users\Admin\AppData\Local\Temp\ccXKOSM3.s 			page 73


 2735      00000000 
 2736              		.section	.bss.siren,"aw",%nobits
 2737              		.align	2
 2738              		.set	.LANCHOR2,. + 0
 2741              	siren:
 2742 0000 00000000 		.space	8
 2742      00000000 
 2743              		.section	.bss.timme,"aw",%nobits
 2744              		.align	2
 2745              		.set	.LANCHOR16,. + 0
 2748              	timme:
 2749 0000 00000000 		.space	4
 2750              		.section	.bss.timmeTrack,"aw",%nobits
 2751              		.align	2
 2752              		.set	.LANCHOR15,. + 0
 2755              	timmeTrack:
 2756 0000 00000000 		.space	4
 2757              		.section	.data._ZZ10AlarmEventvE9firstTime,"aw"
 2758              		.set	.LANCHOR26,. + 0
 2761              	_ZZ10AlarmEventvE9firstTime:
 2762 0000 01       		.byte	1
 2763              		.section	.data._ZZ12DenyKeyEventvE9firstTime,"aw"
 2764              		.set	.LANCHOR10,. + 0
 2767              	_ZZ12DenyKeyEventvE9firstTime:
 2768 0000 01       		.byte	1
 2769              		.section	.data._ZZ17TempOpenModeEventvE9firstTime,"aw"
 2770              		.set	.LANCHOR21,. + 0
 2773              	_ZZ17TempOpenModeEventvE9firstTime:
 2774 0000 01       		.byte	1
 2775              		.section	.data.wig_flag_inrt,"aw"
 2776              		.set	.LANCHOR11,. + 0
 2779              	wig_flag_inrt:
 2780 0000 01       		.byte	1
 2781              		.text
 2782              	.Letext0:
 2783              		.file 3 "Drivers/CMSIS/Device/ST/STM32F1xx/Include/stm32f103xg.h"
 2784              		.file 4 "e:\\dev\\tools\\gcc-arm-none-eabi-10-2020-q4-major\\arm-none-eabi\\include\\machine\\_def
 2785              		.file 5 "e:\\dev\\tools\\gcc-arm-none-eabi-10-2020-q4-major\\arm-none-eabi\\include\\sys\\_stdint.
 2786              		.file 6 "Drivers/STM32F1xx_HAL_Driver/Inc/stm32f1xx_hal_def.h"
 2787              		.file 7 "Drivers/STM32F1xx_HAL_Driver/Inc/stm32f1xx_hal_rcc.h"
 2788              		.file 8 "Drivers/STM32F1xx_HAL_Driver/Inc/stm32f1xx_hal_rcc_ex.h"
 2789              		.file 9 "Drivers/STM32F1xx_HAL_Driver/Inc/stm32f1xx_hal_gpio.h"
 2790              		.file 10 "Drivers/STM32F1xx_HAL_Driver/Inc/stm32f1xx_hal_dma.h"
 2791              		.file 11 "Drivers/STM32F1xx_HAL_Driver/Inc/stm32f1xx_hal_uart.h"
 2792              		.file 12 "e:\\dev\\tools\\gcc-arm-none-eabi-10-2020-q4-major\\lib\\gcc\\arm-none-eabi\\10.2.1\\inc
 2793              		.file 13 "e:\\dev\\tools\\gcc-arm-none-eabi-10-2020-q4-major\\arm-none-eabi\\include\\stdio.h"
 2794              		.file 14 "Core/Inc/PinIn.h"
 2795              		.file 15 "Core/Inc/PinOut.h"
 2796              		.file 16 "Core/Inc/InterruptPin.h"
 2797              		.file 17 "Core/Inc/Timer.h"
 2798              		.file 18 "Core/Inc/State.h"
 2799              		.file 19 "Core/Inc/WorkMode.h"
 2800              		.file 20 "Core/Inc/IntercomMode.h"
 2801              		.file 21 "Core/Inc/InvertedPinOut.h"
 2802              		.file 22 "Core/Inc/Flags.h"
 2803              		.file 23 "e:\\dev\\tools\\gcc-arm-none-eabi-10-2020-q4-major\\arm-none-eabi\\include\\string.h"
 2804              		.file 24 "Core/Inc/wiegand.h"
ARM GAS  C:\Users\Admin\AppData\Local\Temp\ccXKOSM3.s 			page 74


 2805              		.file 25 "Drivers/STM32F1xx_HAL_Driver/Inc/stm32f1xx_hal.h"
 2806              		.file 26 "Core/Inc/Intercom.h"
 2807              		.file 27 "Drivers/STM32F1xx_HAL_Driver/Inc/stm32f1xx_hal_cortex.h"
 2808              		.file 28 "<built-in>"
ARM GAS  C:\Users\Admin\AppData\Local\Temp\ccXKOSM3.s 			page 75


DEFINED SYMBOLS
                            *ABS*:00000000 main.cpp
C:\Users\Admin\AppData\Local\Temp\ccXKOSM3.s:16     .text._ZL12MX_GPIO_Initv:00000000 $t
C:\Users\Admin\AppData\Local\Temp\ccXKOSM3.s:23     .text._ZL12MX_GPIO_Initv:00000000 _ZL12MX_GPIO_Initv
C:\Users\Admin\AppData\Local\Temp\ccXKOSM3.s:211    .text._ZL12MX_GPIO_Initv:000000d4 $d
.ARM.exidx.text._ZL12MX_GPIO_Initv:00000000 $d
C:\Users\Admin\AppData\Local\Temp\ccXKOSM3.s:221    .text._Z41__static_initialization_and_destruction_0ii:00000000 $t
C:\Users\Admin\AppData\Local\Temp\ccXKOSM3.s:227    .text._Z41__static_initialization_and_destruction_0ii:00000000 _Z41__static_initialization_and_destruction_0ii
C:\Users\Admin\AppData\Local\Temp\ccXKOSM3.s:309    .text._Z41__static_initialization_and_destruction_0ii:00000074 $d
.ARM.exidx.text._Z41__static_initialization_and_destruction_0ii:00000000 $d
C:\Users\Admin\AppData\Local\Temp\ccXKOSM3.s:325    .text._Z12DenyKeyEventv:00000000 $t
C:\Users\Admin\AppData\Local\Temp\ccXKOSM3.s:332    .text._Z12DenyKeyEventv:00000000 _Z12DenyKeyEventv
C:\Users\Admin\AppData\Local\Temp\ccXKOSM3.s:521    .text._Z12DenyKeyEventv:000000dc $d
.ARM.extab.text._Z12DenyKeyEventv:00000000 $d
.ARM.exidx.text._Z12DenyKeyEventv:00000000 $d
C:\Users\Admin\AppData\Local\Temp\ccXKOSM3.s:552    .text.HAL_GPIO_EXTI_Callback:00000000 $t
C:\Users\Admin\AppData\Local\Temp\ccXKOSM3.s:559    .text.HAL_GPIO_EXTI_Callback:00000000 HAL_GPIO_EXTI_Callback
C:\Users\Admin\AppData\Local\Temp\ccXKOSM3.s:587    .text.HAL_GPIO_EXTI_Callback:00000014 $d
C:\Users\Admin\AppData\Local\Temp\ccXKOSM3.s:595    .text.HAL_GPIO_EXTI_Callback:0000001c $t
C:\Users\Admin\AppData\Local\Temp\ccXKOSM3.s:731    .text.HAL_GPIO_EXTI_Callback:0000009c $d
.ARM.extab.text.HAL_GPIO_EXTI_Callback:00000000 $d
.ARM.exidx.text.HAL_GPIO_EXTI_Callback:00000000 $d
C:\Users\Admin\AppData\Local\Temp\ccXKOSM3.s:743    .text._Z11UART_PrintfPKcz:00000000 $t
C:\Users\Admin\AppData\Local\Temp\ccXKOSM3.s:750    .text._Z11UART_PrintfPKcz:00000000 _Z11UART_PrintfPKcz
C:\Users\Admin\AppData\Local\Temp\ccXKOSM3.s:821    .text._Z11UART_PrintfPKcz:00000038 $d
.ARM.extab.text._Z11UART_PrintfPKcz:00000000 $d
.ARM.exidx.text._Z11UART_PrintfPKcz:00000000 $d
C:\Users\Admin\AppData\Local\Temp\ccXKOSM3.s:827    .rodata._Z14TimeTrackEventv.str1.4:00000000 $d
C:\Users\Admin\AppData\Local\Temp\ccXKOSM3.s:834    .text._Z14TimeTrackEventv:00000000 $t
C:\Users\Admin\AppData\Local\Temp\ccXKOSM3.s:841    .text._Z14TimeTrackEventv:00000000 _Z14TimeTrackEventv
C:\Users\Admin\AppData\Local\Temp\ccXKOSM3.s:898    .text._Z14TimeTrackEventv:0000003c $d
.ARM.extab.text._Z14TimeTrackEventv:00000000 $d
.ARM.exidx.text._Z14TimeTrackEventv:00000000 $d
C:\Users\Admin\AppData\Local\Temp\ccXKOSM3.s:908    .rodata._Z15DoorSensorEventv.str1.4:00000000 $d
C:\Users\Admin\AppData\Local\Temp\ccXKOSM3.s:915    .text._Z15DoorSensorEventv:00000000 $t
C:\Users\Admin\AppData\Local\Temp\ccXKOSM3.s:922    .text._Z15DoorSensorEventv:00000000 _Z15DoorSensorEventv
C:\Users\Admin\AppData\Local\Temp\ccXKOSM3.s:1023   .text._Z15DoorSensorEventv:00000064 $d
.ARM.exidx.text._Z15DoorSensorEventv:00000000 $d
C:\Users\Admin\AppData\Local\Temp\ccXKOSM3.s:1034   .rodata._Z18ButtonPressedEventv.str1.4:00000000 $d
C:\Users\Admin\AppData\Local\Temp\ccXKOSM3.s:1048   .text._Z18ButtonPressedEventv:00000000 $t
C:\Users\Admin\AppData\Local\Temp\ccXKOSM3.s:1055   .text._Z18ButtonPressedEventv:00000000 _Z18ButtonPressedEventv
C:\Users\Admin\AppData\Local\Temp\ccXKOSM3.s:1130   .text._Z18ButtonPressedEventv:00000044 $d
.ARM.extab.text._Z18ButtonPressedEventv:00000000 $d
.ARM.exidx.text._Z18ButtonPressedEventv:00000000 $d
C:\Users\Admin\AppData\Local\Temp\ccXKOSM3.s:1143   .rodata._Z17TempOpenModeEventv.str1.4:00000000 $d
C:\Users\Admin\AppData\Local\Temp\ccXKOSM3.s:1151   .text._Z17TempOpenModeEventv:00000000 $t
C:\Users\Admin\AppData\Local\Temp\ccXKOSM3.s:1158   .text._Z17TempOpenModeEventv:00000000 _Z17TempOpenModeEventv
C:\Users\Admin\AppData\Local\Temp\ccXKOSM3.s:1479   .text._Z17TempOpenModeEventv:00000178 $d
.ARM.extab.text._Z17TempOpenModeEventv:00000000 $d
.ARM.exidx.text._Z17TempOpenModeEventv:00000000 $d
C:\Users\Admin\AppData\Local\Temp\ccXKOSM3.s:1524   .text._Z14TempAlarmEventv:00000000 $t
C:\Users\Admin\AppData\Local\Temp\ccXKOSM3.s:1531   .text._Z14TempAlarmEventv:00000000 _Z14TempAlarmEventv
C:\Users\Admin\AppData\Local\Temp\ccXKOSM3.s:1686   .text._Z14TempAlarmEventv:000000b4 $d
.ARM.extab.text._Z14TempAlarmEventv:00000000 $d
.ARM.exidx.text._Z14TempAlarmEventv:00000000 $d
C:\Users\Admin\AppData\Local\Temp\ccXKOSM3.s:1715   .rodata._Z10AlarmEventv.str1.4:00000000 $d
C:\Users\Admin\AppData\Local\Temp\ccXKOSM3.s:1719   .text._Z10AlarmEventv:00000000 $t
ARM GAS  C:\Users\Admin\AppData\Local\Temp\ccXKOSM3.s 			page 76


C:\Users\Admin\AppData\Local\Temp\ccXKOSM3.s:1726   .text._Z10AlarmEventv:00000000 _Z10AlarmEventv
C:\Users\Admin\AppData\Local\Temp\ccXKOSM3.s:1935   .text._Z10AlarmEventv:000000ec $d
  .ARM.extab.text._Z10AlarmEventv:00000000 $d
  .ARM.exidx.text._Z10AlarmEventv:00000000 $d
C:\Users\Admin\AppData\Local\Temp\ccXKOSM3.s:1970   .rodata._Z10switchModev.str1.4:00000000 $d
C:\Users\Admin\AppData\Local\Temp\ccXKOSM3.s:1986   .text._Z10switchModev:00000000 $t
C:\Users\Admin\AppData\Local\Temp\ccXKOSM3.s:1993   .text._Z10switchModev:00000000 _Z10switchModev
C:\Users\Admin\AppData\Local\Temp\ccXKOSM3.s:2013   .text._Z10switchModev:0000000e $d
C:\Users\Admin\AppData\Local\Temp\ccXKOSM3.s:2017   .text._Z10switchModev:00000012 $t
C:\Users\Admin\AppData\Local\Temp\ccXKOSM3.s:2124   .text._Z10switchModev:00000078 $d
  .ARM.extab.text._Z10switchModev:00000000 $d
  .ARM.exidx.text._Z10switchModev:00000000 $d
C:\Users\Admin\AppData\Local\Temp\ccXKOSM3.s:2136   .text._Z15ChangeModeEventv:00000000 $t
C:\Users\Admin\AppData\Local\Temp\ccXKOSM3.s:2143   .text._Z15ChangeModeEventv:00000000 _Z15ChangeModeEventv
C:\Users\Admin\AppData\Local\Temp\ccXKOSM3.s:2188   .text._Z15ChangeModeEventv:00000024 $d
.ARM.extab.text._Z15ChangeModeEventv:00000000 $d
.ARM.exidx.text._Z15ChangeModeEventv:00000000 $d
C:\Users\Admin\AppData\Local\Temp\ccXKOSM3.s:2194   .text.Error_Handler:00000000 $t
C:\Users\Admin\AppData\Local\Temp\ccXKOSM3.s:2201   .text.Error_Handler:00000000 Error_Handler
    .ARM.exidx.text.Error_Handler:00000000 $d
C:\Users\Admin\AppData\Local\Temp\ccXKOSM3.s:2235   .text._Z18SystemClock_Configv:00000000 $t
C:\Users\Admin\AppData\Local\Temp\ccXKOSM3.s:2242   .text._Z18SystemClock_Configv:00000000 _Z18SystemClock_Configv
.ARM.exidx.text._Z18SystemClock_Configv:00000000 $d
C:\Users\Admin\AppData\Local\Temp\ccXKOSM3.s:2351   .text._ZL19MX_USART1_UART_Initv:00000000 $t
C:\Users\Admin\AppData\Local\Temp\ccXKOSM3.s:2357   .text._ZL19MX_USART1_UART_Initv:00000000 _ZL19MX_USART1_UART_Initv
C:\Users\Admin\AppData\Local\Temp\ccXKOSM3.s:2415   .text._ZL19MX_USART1_UART_Initv:0000002c $d
.ARM.extab.text._ZL19MX_USART1_UART_Initv:00000000 $d
.ARM.exidx.text._ZL19MX_USART1_UART_Initv:00000000 $d
C:\Users\Admin\AppData\Local\Temp\ccXKOSM3.s:2422   .rodata.main.str1.4:00000000 $d
C:\Users\Admin\AppData\Local\Temp\ccXKOSM3.s:2426   .text.main:00000000 $t
C:\Users\Admin\AppData\Local\Temp\ccXKOSM3.s:2433   .text.main:00000000 main
C:\Users\Admin\AppData\Local\Temp\ccXKOSM3.s:2539   .text.main:00000064 $d
             .ARM.extab.text.main:00000000 $d
             .ARM.exidx.text.main:00000000 $d
C:\Users\Admin\AppData\Local\Temp\ccXKOSM3.s:2552   .text._GLOBAL__sub_I_huart1:00000000 $t
C:\Users\Admin\AppData\Local\Temp\ccXKOSM3.s:2558   .text._GLOBAL__sub_I_huart1:00000000 _GLOBAL__sub_I_huart1
.ARM.exidx.text._GLOBAL__sub_I_huart1:00000000 $d
C:\Users\Admin\AppData\Local\Temp\ccXKOSM3.s:2582   .init_array:00000000 $d
C:\Users\Admin\AppData\Local\Temp\ccXKOSM3.s:2748   .bss.timme:00000000 timme
C:\Users\Admin\AppData\Local\Temp\ccXKOSM3.s:2755   .bss.timmeTrack:00000000 timmeTrack
C:\Users\Admin\AppData\Local\Temp\ccXKOSM3.s:2680   .bss.doorSensorTimer:00000000 doorSensorTimer
C:\Users\Admin\AppData\Local\Temp\ccXKOSM3.s:2721   .bss.outsideGreenLed:00000000 outsideGreenLed
C:\Users\Admin\AppData\Local\Temp\ccXKOSM3.s:2694   .bss.insideGreenLed:00000000 insideGreenLed
C:\Users\Admin\AppData\Local\Temp\ccXKOSM3.s:2734   .bss.outsideZumer:00000000 outsideZumer
C:\Users\Admin\AppData\Local\Temp\ccXKOSM3.s:2707   .bss.insideZumer:00000000 insideZumer
C:\Users\Admin\AppData\Local\Temp\ccXKOSM3.s:2741   .bss.siren:00000000 siren
C:\Users\Admin\AppData\Local\Temp\ccXKOSM3.s:2714   .bss.lock:00000000 lock
C:\Users\Admin\AppData\Local\Temp\ccXKOSM3.s:2673   .bss.door:00000000 door
C:\Users\Admin\AppData\Local\Temp\ccXKOSM3.s:2727   .bss.outsideKeyRead:00000000 outsideKeyRead
C:\Users\Admin\AppData\Local\Temp\ccXKOSM3.s:2700   .bss.insideKeyRead:00000000 insideKeyRead
C:\Users\Admin\AppData\Local\Temp\ccXKOSM3.s:2779   .data.wig_flag_inrt:00000000 wig_flag_inrt
C:\Users\Admin\AppData\Local\Temp\ccXKOSM3.s:2687   .bss.huart1:00000000 huart1
C:\Users\Admin\AppData\Local\Temp\ccXKOSM3.s:2599   .bss._ZGVZ10AlarmEventvE10alarmTimer:00000000 $d
C:\Users\Admin\AppData\Local\Temp\ccXKOSM3.s:2603   .bss._ZGVZ10AlarmEventvE10alarmTimer:00000000 _ZGVZ10AlarmEventvE10alarmTimer
C:\Users\Admin\AppData\Local\Temp\ccXKOSM3.s:2606   .bss._ZGVZ12DenyKeyEventvE9denyTimer:00000000 $d
C:\Users\Admin\AppData\Local\Temp\ccXKOSM3.s:2610   .bss._ZGVZ12DenyKeyEventvE9denyTimer:00000000 _ZGVZ12DenyKeyEventvE9denyTimer
C:\Users\Admin\AppData\Local\Temp\ccXKOSM3.s:2613   .bss._ZGVZ14TempAlarmEventvE10sirenTimer:00000000 $d
ARM GAS  C:\Users\Admin\AppData\Local\Temp\ccXKOSM3.s 			page 77


C:\Users\Admin\AppData\Local\Temp\ccXKOSM3.s:2617   .bss._ZGVZ14TempAlarmEventvE10sirenTimer:00000000 _ZGVZ14TempAlarmEventvE10sirenTimer
C:\Users\Admin\AppData\Local\Temp\ccXKOSM3.s:2620   .bss._ZGVZ17TempOpenModeEventvE10zumerTimer:00000000 $d
C:\Users\Admin\AppData\Local\Temp\ccXKOSM3.s:2624   .bss._ZGVZ17TempOpenModeEventvE10zumerTimer:00000000 _ZGVZ17TempOpenModeEventvE10zumerTimer
C:\Users\Admin\AppData\Local\Temp\ccXKOSM3.s:2627   .bss._ZGVZ17TempOpenModeEventvE9lockTimer:00000000 $d
C:\Users\Admin\AppData\Local\Temp\ccXKOSM3.s:2631   .bss._ZGVZ17TempOpenModeEventvE9lockTimer:00000000 _ZGVZ17TempOpenModeEventvE9lockTimer
C:\Users\Admin\AppData\Local\Temp\ccXKOSM3.s:2634   .bss._ZZ10AlarmEventvE10alarmTimer:00000000 $d
C:\Users\Admin\AppData\Local\Temp\ccXKOSM3.s:2638   .bss._ZZ10AlarmEventvE10alarmTimer:00000000 _ZZ10AlarmEventvE10alarmTimer
C:\Users\Admin\AppData\Local\Temp\ccXKOSM3.s:2641   .bss._ZZ12DenyKeyEventvE9denyTimer:00000000 $d
C:\Users\Admin\AppData\Local\Temp\ccXKOSM3.s:2645   .bss._ZZ12DenyKeyEventvE9denyTimer:00000000 _ZZ12DenyKeyEventvE9denyTimer
C:\Users\Admin\AppData\Local\Temp\ccXKOSM3.s:2648   .bss._ZZ14TempAlarmEventvE10sirenTimer:00000000 $d
C:\Users\Admin\AppData\Local\Temp\ccXKOSM3.s:2652   .bss._ZZ14TempAlarmEventvE10sirenTimer:00000000 _ZZ14TempAlarmEventvE10sirenTimer
C:\Users\Admin\AppData\Local\Temp\ccXKOSM3.s:2655   .bss._ZZ17TempOpenModeEventvE10zumerTimer:00000000 $d
C:\Users\Admin\AppData\Local\Temp\ccXKOSM3.s:2659   .bss._ZZ17TempOpenModeEventvE10zumerTimer:00000000 _ZZ17TempOpenModeEventvE10zumerTimer
C:\Users\Admin\AppData\Local\Temp\ccXKOSM3.s:2662   .bss._ZZ17TempOpenModeEventvE9lockTimer:00000000 $d
C:\Users\Admin\AppData\Local\Temp\ccXKOSM3.s:2666   .bss._ZZ17TempOpenModeEventvE9lockTimer:00000000 _ZZ17TempOpenModeEventvE9lockTimer
C:\Users\Admin\AppData\Local\Temp\ccXKOSM3.s:2669   .bss.door:00000000 $d
C:\Users\Admin\AppData\Local\Temp\ccXKOSM3.s:2676   .bss.doorSensorTimer:00000000 $d
C:\Users\Admin\AppData\Local\Temp\ccXKOSM3.s:2683   .bss.huart1:00000000 $d
C:\Users\Admin\AppData\Local\Temp\ccXKOSM3.s:2690   .bss.insideGreenLed:00000000 $d
C:\Users\Admin\AppData\Local\Temp\ccXKOSM3.s:2701   .bss.insideKeyRead:00000000 $d
C:\Users\Admin\AppData\Local\Temp\ccXKOSM3.s:2703   .bss.insideZumer:00000000 $d
C:\Users\Admin\AppData\Local\Temp\ccXKOSM3.s:2710   .bss.lock:00000000 $d
C:\Users\Admin\AppData\Local\Temp\ccXKOSM3.s:2717   .bss.outsideGreenLed:00000000 $d
C:\Users\Admin\AppData\Local\Temp\ccXKOSM3.s:2728   .bss.outsideKeyRead:00000000 $d
C:\Users\Admin\AppData\Local\Temp\ccXKOSM3.s:2730   .bss.outsideZumer:00000000 $d
C:\Users\Admin\AppData\Local\Temp\ccXKOSM3.s:2737   .bss.siren:00000000 $d
C:\Users\Admin\AppData\Local\Temp\ccXKOSM3.s:2744   .bss.timme:00000000 $d
C:\Users\Admin\AppData\Local\Temp\ccXKOSM3.s:2751   .bss.timmeTrack:00000000 $d
C:\Users\Admin\AppData\Local\Temp\ccXKOSM3.s:2761   .data._ZZ10AlarmEventvE9firstTime:00000000 _ZZ10AlarmEventvE9firstTime
C:\Users\Admin\AppData\Local\Temp\ccXKOSM3.s:2767   .data._ZZ12DenyKeyEventvE9firstTime:00000000 _ZZ12DenyKeyEventvE9firstTime
C:\Users\Admin\AppData\Local\Temp\ccXKOSM3.s:2773   .data._ZZ17TempOpenModeEventvE9firstTime:00000000 _ZZ17TempOpenModeEventvE9firstTime

UNDEFINED SYMBOLS
HAL_GPIO_Init
HAL_NVIC_SetPriority
HAL_NVIC_EnableIRQ
__aeabi_unwind_cpp_pr0
_ZN12InterruptPinC1EP12GPIO_TypeDeft
_ZN6PinOutC1EP12GPIO_TypeDeft
_ZN14InvertedPinOutC1EP12GPIO_TypeDeft
_ZN5TimerC1Emm
__cxa_guard_acquire
__cxa_guard_release
HAL_GetTick
_ZN5Timer12getStartTimeEv
_ZN5Timer11getLastTickEv
_ZN5Timer11setLastTickEv
_ZN14InvertedPinOut6turnOnEv
_ZN5Timer5startEv
_ZN14InvertedPinOut7turnOffEv
__cxa_guard_abort
__cxa_end_cleanup
workMode
previousWorkMode
__gxx_personality_v0
ReadD0
ReadD1
ARM GAS  C:\Users\Admin\AppData\Local\Temp\ccXKOSM3.s 			page 78


doorSensorFirstTime
insideButtonPressed
outsideButtonPressed
__aeabi_unwind_cpp_pr1
vsnprintf
strlen
HAL_UART_Transmit
_ZN12InterruptPin15setStateChangedEv
_ZN5PinIn8getStateEv
intercomMode
_ZN12InterruptPin14isStateChangedEv
_ZN6PinOut6turnOnEv
_ZN6PinOut7turnOffEv
wig_available
getCode
_Z10verifyCodem
memset
HAL_RCC_OscConfig
HAL_RCC_ClockConfig
HAL_UART_Init
HAL_Init
_Z8intercombb
