ARM GAS  C:\Users\Admin\AppData\Local\Temp\ccC9bEpd.s 			page 1


   1              		.cpu cortex-m3
   2              		.eabi_attribute 20, 1
   3              		.eabi_attribute 21, 1
   4              		.eabi_attribute 23, 3
   5              		.eabi_attribute 24, 1
   6              		.eabi_attribute 25, 1
   7              		.eabi_attribute 26, 1
   8              		.eabi_attribute 30, 1
   9              		.eabi_attribute 34, 1
  10              		.eabi_attribute 18, 4
  11              		.file	"main.cpp"
  12              		.text
  13              	.Ltext0:
  14              		.cfi_sections	.debug_frame
  15              		.section	.text._ZL12MX_GPIO_Initv,"ax",%progbits
  16              		.align	1
  17              		.arch armv7-m
  18              		.syntax unified
  19              		.thumb
  20              		.thumb_func
  21              		.fpu softvfp
  23              	_ZL12MX_GPIO_Initv:
  24              		.fnstart
  25              	.LFB86:
  26              		.file 1 "Core/Src/main.cpp"
   1:Core/Src/main.cpp **** /*----> Includes <----*/
   2:Core/Src/main.cpp **** #include <cstdarg>
   3:Core/Src/main.cpp **** #include <cstring>
   4:Core/Src/main.cpp **** #include <cstdio>
   5:Core/Src/main.cpp **** 
   6:Core/Src/main.cpp **** #include "main.h"
   7:Core/Src/main.cpp **** #include "wiegand.h"
   8:Core/Src/main.cpp **** #include "PinIn.h"
   9:Core/Src/main.cpp **** #include "PinOut.h"
  10:Core/Src/main.cpp **** #include "ConstantRelay.h"
  11:Core/Src/main.cpp **** #include "ImpulseRelay.h"
  12:Core/Src/main.cpp **** #include "InterruptPin.h"
  13:Core/Src/main.cpp **** #include "Timer.h"
  14:Core/Src/main.cpp **** #include "WorkMode.h"
  15:Core/Src/main.cpp **** #include "IntercomMode.h"
  16:Core/Src/main.cpp **** #include "InvertedPinOut.h"
  17:Core/Src/main.cpp **** #include "UART_Print.h"
  18:Core/Src/main.cpp **** #include "Intercom.h"
  19:Core/Src/main.cpp **** #include "Flags.h"
  20:Core/Src/main.cpp **** 
  21:Core/Src/main.cpp **** /**
  22:Core/Src/main.cpp ****  * TODO
  23:Core/Src/main.cpp ****  * распределить в разные файлы
  24:Core/Src/main.cpp ****  * 
  25:Core/Src/main.cpp **** */
  26:Core/Src/main.cpp **** 
  27:Core/Src/main.cpp **** /*----> Variables <----*/
  28:Core/Src/main.cpp **** UART_HandleTypeDef huart1;
  29:Core/Src/main.cpp **** volatile uint8_t wig_flag_inrt = 1;
  30:Core/Src/main.cpp **** 
  31:Core/Src/main.cpp **** /*----> STM Init Fucntion Prototypes <----*/
  32:Core/Src/main.cpp **** void SystemClock_Config(void);
ARM GAS  C:\Users\Admin\AppData\Local\Temp\ccC9bEpd.s 			page 2


  33:Core/Src/main.cpp **** static void MX_GPIO_Init(void);
  34:Core/Src/main.cpp **** static void MX_USART1_UART_Init(void);
  35:Core/Src/main.cpp **** 
  36:Core/Src/main.cpp **** bool
  37:Core/Src/main.cpp ****     insideKeyRead = false,
  38:Core/Src/main.cpp ****     outsideKeyRead = false;
  39:Core/Src/main.cpp **** 
  40:Core/Src/main.cpp **** /*----> Functions Protoypes <----*/
  41:Core/Src/main.cpp **** 
  42:Core/Src/main.cpp **** /**
  43:Core/Src/main.cpp ****  * @brief Event to track time between modes
  44:Core/Src/main.cpp **** */
  45:Core/Src/main.cpp **** void TimeTrackEvent();
  46:Core/Src/main.cpp **** /**
  47:Core/Src/main.cpp ****  * @brief Event to change work mode every 15 seconds
  48:Core/Src/main.cpp **** */
  49:Core/Src/main.cpp **** void ChangeModeEvent();
  50:Core/Src/main.cpp **** /**
  51:Core/Src/main.cpp ****  * @brief Event to listen for door button to avoid rattling contacts
  52:Core/Src/main.cpp **** */
  53:Core/Src/main.cpp **** void DoorSensorEvent();
  54:Core/Src/main.cpp **** /**
  55:Core/Src/main.cpp ****  * @brief Event to listen for intercoms
  56:Core/Src/main.cpp **** */
  57:Core/Src/main.cpp **** void KeyReadEvent();
  58:Core/Src/main.cpp **** /**
  59:Core/Src/main.cpp ****  * @brief Event to listen for pressed buttons
  60:Core/Src/main.cpp **** */
  61:Core/Src/main.cpp **** void ButtonPressedEvent();
  62:Core/Src/main.cpp **** /**
  63:Core/Src/main.cpp ****  * @brief Event to listen for switching to temporarily opened mode, giving access to enter
  64:Core/Src/main.cpp **** */
  65:Core/Src/main.cpp **** void TempOpenModeEvent();
  66:Core/Src/main.cpp **** /**
  67:Core/Src/main.cpp ****  * @brief Event to handle temporarily alarm, activated when exceeded time to enter
  68:Core/Src/main.cpp **** */
  69:Core/Src/main.cpp **** void TempAlarmEvent();
  70:Core/Src/main.cpp **** /**
  71:Core/Src/main.cpp ****  * @brief Event to handle deny work mode, activated when user is not permitted to enter
  72:Core/Src/main.cpp **** */
  73:Core/Src/main.cpp **** void DenyKeyEvent();
  74:Core/Src/main.cpp **** /**
  75:Core/Src/main.cpp ****  * @brief Event to handle alarm work mode, activated when something is wrong, like unauthorized doo
  76:Core/Src/main.cpp **** */
  77:Core/Src/main.cpp **** void AlarmEvent();
  78:Core/Src/main.cpp **** 
  79:Core/Src/main.cpp **** /**
  80:Core/Src/main.cpp ****  * @brief Check if given code is allowed to pass
  81:Core/Src/main.cpp ****  * @retval bool
  82:Core/Src/main.cpp **** */
  83:Core/Src/main.cpp **** bool verifyCode(uint32_t code);
  84:Core/Src/main.cpp **** /**
  85:Core/Src/main.cpp ****  * @brief Switch mode depending on the current one
  86:Core/Src/main.cpp ****  * @retval None
  87:Core/Src/main.cpp **** */
  88:Core/Src/main.cpp **** void switchMode();
  89:Core/Src/main.cpp **** 
ARM GAS  C:\Users\Admin\AppData\Local\Temp\ccC9bEpd.s 			page 3


  90:Core/Src/main.cpp **** /*----------> Objects <----------*/
  91:Core/Src/main.cpp **** 
  92:Core/Src/main.cpp **** /**
  93:Core/Src/main.cpp ****  * @brief Door sensor
  94:Core/Src/main.cpp **** */
  95:Core/Src/main.cpp **** InterruptPin door(Door_GPIO_Port, Door_Pin);
  96:Core/Src/main.cpp **** 
  97:Core/Src/main.cpp **** /**
  98:Core/Src/main.cpp ****  * @brief Door relay
  99:Core/Src/main.cpp **** */
 100:Core/Src/main.cpp **** PinOut lock(Lock_GPIO_Port, Lock_Pin);
 101:Core/Src/main.cpp **** /**
 102:Core/Src/main.cpp ****  * @brief Alarm relay
 103:Core/Src/main.cpp **** */
 104:Core/Src/main.cpp **** PinOut siren(Siren_GPIO_Port, Siren_Pin);
 105:Core/Src/main.cpp **** 
 106:Core/Src/main.cpp **** /**
 107:Core/Src/main.cpp ****  * @brief Inside intercom zumer (#1, right side)
 108:Core/Src/main.cpp **** */
 109:Core/Src/main.cpp **** InvertedPinOut insideZumer(Zumer1_GPIO_Port, Zumer1_Pin);
 110:Core/Src/main.cpp **** /**
 111:Core/Src/main.cpp ****  * @brief Outside intercom zumer (#2, left side)
 112:Core/Src/main.cpp **** */
 113:Core/Src/main.cpp **** InvertedPinOut outsideZumer(Zumer2_GPIO_Port, Zumer2_Pin);
 114:Core/Src/main.cpp **** /**
 115:Core/Src/main.cpp ****  * @brief Inside intercom green led (#1, right side)
 116:Core/Src/main.cpp **** */
 117:Core/Src/main.cpp **** InvertedPinOut insideGreenLed(GreenLed_1_GPIO_Port, GreenLed_1_Pin);
 118:Core/Src/main.cpp **** /**
 119:Core/Src/main.cpp ****  * @brief Outside intercom green led (#2, left side)
 120:Core/Src/main.cpp **** */
 121:Core/Src/main.cpp **** InvertedPinOut outsideGreenLed(GreenLed_2_GPIO_Port, GreenLed_2_Pin);
 122:Core/Src/main.cpp **** 
 123:Core/Src/main.cpp **** Timer doorSensorTimer(0, 0);
 124:Core/Src/main.cpp **** 
 125:Core/Src/main.cpp **** Context *insideIntercom = new Context(new NormalMode);
 126:Core/Src/main.cpp **** Context *outsideIntercom = new Context(new NormalMode);
 127:Core/Src/main.cpp **** 
 128:Core/Src/main.cpp **** /* UART_Print print; */
 129:Core/Src/main.cpp **** 
 130:Core/Src/main.cpp **** uint32_t
 131:Core/Src/main.cpp ****     timmeTrack = 0,
 132:Core/Src/main.cpp ****     timme = 0;
 133:Core/Src/main.cpp **** 
 134:Core/Src/main.cpp **** /*-------> STM Init Functions <-------*/
 135:Core/Src/main.cpp **** 
 136:Core/Src/main.cpp **** /**
 137:Core/Src/main.cpp ****   * @brief System Clock Configuration
 138:Core/Src/main.cpp ****   * @retval None
 139:Core/Src/main.cpp ****   */
 140:Core/Src/main.cpp **** void SystemClock_Config(void)
 141:Core/Src/main.cpp **** {
 142:Core/Src/main.cpp ****   RCC_OscInitTypeDef RCC_OscInitStruct = {0};
 143:Core/Src/main.cpp ****   RCC_ClkInitTypeDef RCC_ClkInitStruct = {0};
 144:Core/Src/main.cpp **** 
 145:Core/Src/main.cpp ****   /** Initializes the RCC Oscillators according to the specified parameters
 146:Core/Src/main.cpp ****   * in the RCC_OscInitTypeDef structure.
ARM GAS  C:\Users\Admin\AppData\Local\Temp\ccC9bEpd.s 			page 4


 147:Core/Src/main.cpp ****   */
 148:Core/Src/main.cpp ****   RCC_OscInitStruct.OscillatorType = RCC_OSCILLATORTYPE_HSI;
 149:Core/Src/main.cpp ****   RCC_OscInitStruct.HSIState = RCC_HSI_ON;
 150:Core/Src/main.cpp ****   RCC_OscInitStruct.HSICalibrationValue = RCC_HSICALIBRATION_DEFAULT;
 151:Core/Src/main.cpp ****   RCC_OscInitStruct.PLL.PLLState = RCC_PLL_ON;
 152:Core/Src/main.cpp ****   RCC_OscInitStruct.PLL.PLLSource = RCC_PLLSOURCE_HSI_DIV2;
 153:Core/Src/main.cpp ****   RCC_OscInitStruct.PLL.PLLMUL = RCC_PLL_MUL9;
 154:Core/Src/main.cpp ****   if (HAL_RCC_OscConfig(&RCC_OscInitStruct) != HAL_OK)
 155:Core/Src/main.cpp ****   {
 156:Core/Src/main.cpp ****     Error_Handler();
 157:Core/Src/main.cpp ****   }
 158:Core/Src/main.cpp ****   /** Initializes the CPU, AHB and APB buses clocks
 159:Core/Src/main.cpp ****   */
 160:Core/Src/main.cpp ****   RCC_ClkInitStruct.ClockType = RCC_CLOCKTYPE_HCLK | RCC_CLOCKTYPE_SYSCLK | RCC_CLOCKTYPE_PCLK1 | R
 161:Core/Src/main.cpp ****   RCC_ClkInitStruct.SYSCLKSource = RCC_SYSCLKSOURCE_PLLCLK;
 162:Core/Src/main.cpp ****   RCC_ClkInitStruct.AHBCLKDivider = RCC_SYSCLK_DIV1;
 163:Core/Src/main.cpp ****   RCC_ClkInitStruct.APB1CLKDivider = RCC_HCLK_DIV2;
 164:Core/Src/main.cpp ****   RCC_ClkInitStruct.APB2CLKDivider = RCC_HCLK_DIV1;
 165:Core/Src/main.cpp **** 
 166:Core/Src/main.cpp ****   if (HAL_RCC_ClockConfig(&RCC_ClkInitStruct, FLASH_LATENCY_1) != HAL_OK)
 167:Core/Src/main.cpp ****   {
 168:Core/Src/main.cpp ****     Error_Handler();
 169:Core/Src/main.cpp ****   }
 170:Core/Src/main.cpp **** }
 171:Core/Src/main.cpp **** 
 172:Core/Src/main.cpp **** /**
 173:Core/Src/main.cpp ****   * @brief USART1 Initialization Function
 174:Core/Src/main.cpp ****   * @param None
 175:Core/Src/main.cpp ****   * @retval None
 176:Core/Src/main.cpp ****   */
 177:Core/Src/main.cpp **** static void MX_USART1_UART_Init(void)
 178:Core/Src/main.cpp **** {
 179:Core/Src/main.cpp ****   huart1.Instance = USART1;
 180:Core/Src/main.cpp ****   huart1.Init.BaudRate = 115200;
 181:Core/Src/main.cpp ****   huart1.Init.WordLength = UART_WORDLENGTH_8B;
 182:Core/Src/main.cpp ****   huart1.Init.StopBits = UART_STOPBITS_1;
 183:Core/Src/main.cpp ****   huart1.Init.Parity = UART_PARITY_NONE;
 184:Core/Src/main.cpp ****   huart1.Init.Mode = UART_MODE_TX_RX;
 185:Core/Src/main.cpp ****   huart1.Init.HwFlowCtl = UART_HWCONTROL_NONE;
 186:Core/Src/main.cpp ****   huart1.Init.OverSampling = UART_OVERSAMPLING_16;
 187:Core/Src/main.cpp ****   if (HAL_UART_Init(&huart1) != HAL_OK)
 188:Core/Src/main.cpp ****   {
 189:Core/Src/main.cpp ****     Error_Handler();
 190:Core/Src/main.cpp ****   }
 191:Core/Src/main.cpp **** }
 192:Core/Src/main.cpp **** 
 193:Core/Src/main.cpp **** /**
 194:Core/Src/main.cpp ****   * @brief GPIO Initialization Function
 195:Core/Src/main.cpp ****   * @param None
 196:Core/Src/main.cpp ****   * @retval None
 197:Core/Src/main.cpp ****   */
 198:Core/Src/main.cpp **** static void MX_GPIO_Init(void)
 199:Core/Src/main.cpp **** {
  27              		.loc 1 199 1 view -0
  28              		.cfi_startproc
  29              		@ args = 0, pretend = 0, frame = 32
  30              		@ frame_needed = 0, uses_anonymous_args = 0
ARM GAS  C:\Users\Admin\AppData\Local\Temp\ccC9bEpd.s 			page 5


  31 0000 30B5     		push	{r4, r5, lr}
  32              		.save {r4, r5, lr}
  33              	.LCFI0:
  34              		.cfi_def_cfa_offset 12
  35              		.cfi_offset 4, -12
  36              		.cfi_offset 5, -8
  37              		.cfi_offset 14, -4
  38              		.pad #36
  39 0002 89B0     		sub	sp, sp, #36
  40              	.LCFI1:
  41              		.cfi_def_cfa_offset 48
 200:Core/Src/main.cpp ****   GPIO_InitTypeDef GPIO_InitStruct = {0};
  42              		.loc 1 200 3 view .LVU1
  43              		.loc 1 200 20 is_stmt 0 view .LVU2
  44 0004 0024     		movs	r4, #0
  45 0006 0494     		str	r4, [sp, #16]
  46 0008 0594     		str	r4, [sp, #20]
  47 000a 0694     		str	r4, [sp, #24]
  48 000c 0794     		str	r4, [sp, #28]
 201:Core/Src/main.cpp **** 
 202:Core/Src/main.cpp ****   /* GPIO Ports Clock Enable */
 203:Core/Src/main.cpp ****   __HAL_RCC_GPIOC_CLK_ENABLE();
  49              		.loc 1 203 3 is_stmt 1 view .LVU3
  50              	.LBB80:
  51              		.loc 1 203 3 view .LVU4
  52              		.loc 1 203 3 view .LVU5
  53 000e 314B     		ldr	r3, .L3
  54 0010 9A69     		ldr	r2, [r3, #24]
  55 0012 42F01002 		orr	r2, r2, #16
  56 0016 9A61     		str	r2, [r3, #24]
  57              		.loc 1 203 3 view .LVU6
  58 0018 9A69     		ldr	r2, [r3, #24]
  59 001a 02F01002 		and	r2, r2, #16
  60 001e 0192     		str	r2, [sp, #4]
  61              		.loc 1 203 3 view .LVU7
  62 0020 019A     		ldr	r2, [sp, #4]
  63              	.LBE80:
 204:Core/Src/main.cpp ****   __HAL_RCC_GPIOB_CLK_ENABLE();
  64              		.loc 1 204 3 view .LVU8
  65              	.LBB81:
  66              		.loc 1 204 3 view .LVU9
  67              		.loc 1 204 3 view .LVU10
  68 0022 9A69     		ldr	r2, [r3, #24]
  69 0024 42F00802 		orr	r2, r2, #8
  70 0028 9A61     		str	r2, [r3, #24]
  71              		.loc 1 204 3 view .LVU11
  72 002a 9A69     		ldr	r2, [r3, #24]
  73 002c 02F00802 		and	r2, r2, #8
  74 0030 0292     		str	r2, [sp, #8]
  75              		.loc 1 204 3 view .LVU12
  76 0032 029A     		ldr	r2, [sp, #8]
  77              	.LBE81:
 205:Core/Src/main.cpp ****   __HAL_RCC_GPIOA_CLK_ENABLE();
  78              		.loc 1 205 3 view .LVU13
  79              	.LBB82:
  80              		.loc 1 205 3 view .LVU14
  81              		.loc 1 205 3 view .LVU15
ARM GAS  C:\Users\Admin\AppData\Local\Temp\ccC9bEpd.s 			page 6


  82 0034 9A69     		ldr	r2, [r3, #24]
  83 0036 42F00402 		orr	r2, r2, #4
  84 003a 9A61     		str	r2, [r3, #24]
  85              		.loc 1 205 3 view .LVU16
  86 003c 9B69     		ldr	r3, [r3, #24]
  87 003e 03F00403 		and	r3, r3, #4
  88 0042 0393     		str	r3, [sp, #12]
  89              		.loc 1 205 3 view .LVU17
  90 0044 039B     		ldr	r3, [sp, #12]
  91              	.LBE82:
 206:Core/Src/main.cpp **** 
 207:Core/Src/main.cpp ****   /*Configure GPIO pins : D_01_Pin D_11_Pin D_02_Pin D_12_Pin */
 208:Core/Src/main.cpp ****   GPIO_InitStruct.Pin = D_01_Pin | D_11_Pin | D_02_Pin | D_12_Pin;
  92              		.loc 1 208 3 view .LVU18
  93              		.loc 1 208 23 is_stmt 0 view .LVU19
  94 0046 C323     		movs	r3, #195
  95 0048 0493     		str	r3, [sp, #16]
 209:Core/Src/main.cpp ****   GPIO_InitStruct.Mode = GPIO_MODE_IT_FALLING;
  96              		.loc 1 209 3 is_stmt 1 view .LVU20
  97              		.loc 1 209 24 is_stmt 0 view .LVU21
  98 004a 234B     		ldr	r3, .L3+4
  99 004c 0593     		str	r3, [sp, #20]
 210:Core/Src/main.cpp ****   GPIO_InitStruct.Pull = GPIO_NOPULL;
 100              		.loc 1 210 3 is_stmt 1 view .LVU22
 211:Core/Src/main.cpp ****   HAL_GPIO_Init(GPIOC, &GPIO_InitStruct);
 101              		.loc 1 211 3 view .LVU23
 102              		.loc 1 211 16 is_stmt 0 view .LVU24
 103 004e 234D     		ldr	r5, .L3+8
 104 0050 04A9     		add	r1, sp, #16
 105 0052 2846     		mov	r0, r5
 106 0054 FFF7FEFF 		bl	HAL_GPIO_Init
 107              	.LVL0:
 212:Core/Src/main.cpp **** 
 213:Core/Src/main.cpp ****   /*Configure GPIO pins : BT_0_Pin BT_1_Pin */
 214:Core/Src/main.cpp ****   GPIO_InitStruct.Pin = BT_0_Pin | BT_1_Pin;
 108              		.loc 1 214 3 is_stmt 1 view .LVU25
 109              		.loc 1 214 23 is_stmt 0 view .LVU26
 110 0058 0C23     		movs	r3, #12
 111 005a 0493     		str	r3, [sp, #16]
 215:Core/Src/main.cpp ****   GPIO_InitStruct.Mode = GPIO_MODE_IT_RISING;
 112              		.loc 1 215 3 is_stmt 1 view .LVU27
 113              		.loc 1 215 24 is_stmt 0 view .LVU28
 114 005c 204B     		ldr	r3, .L3+12
 115 005e 0593     		str	r3, [sp, #20]
 216:Core/Src/main.cpp ****   GPIO_InitStruct.Pull = GPIO_NOPULL;
 116              		.loc 1 216 3 is_stmt 1 view .LVU29
 117              		.loc 1 216 24 is_stmt 0 view .LVU30
 118 0060 0694     		str	r4, [sp, #24]
 217:Core/Src/main.cpp ****   HAL_GPIO_Init(GPIOC, &GPIO_InitStruct);
 119              		.loc 1 217 3 is_stmt 1 view .LVU31
 120              		.loc 1 217 16 is_stmt 0 view .LVU32
 121 0062 04A9     		add	r1, sp, #16
 122 0064 2846     		mov	r0, r5
 123 0066 FFF7FEFF 		bl	HAL_GPIO_Init
 124              	.LVL1:
 218:Core/Src/main.cpp **** 
 219:Core/Src/main.cpp ****   /*Configure GPIO pins : Zumer1_Pin Zumer2_Pin GreenLed_1_Pin GreenLed_2_Pin */
ARM GAS  C:\Users\Admin\AppData\Local\Temp\ccC9bEpd.s 			page 7


 220:Core/Src/main.cpp ****   /*  GPIO_InitStruct.Pin = Zumer1_Pin | Zumer2_Pin | GreenLed_1_Pin | GreenLed_2_Pin;
 221:Core/Src/main.cpp ****   GPIO_InitStruct.Mode = GPIO_MODE_OUTPUT_PP;
 222:Core/Src/main.cpp ****   GPIO_InitStruct.Pull = GPIO_NOPULL;
 223:Core/Src/main.cpp ****   GPIO_InitStruct.Speed = GPIO_SPEED_FREQ_LOW;
 224:Core/Src/main.cpp ****   HAL_GPIO_Init(GPIOB, &GPIO_InitStruct); */
 225:Core/Src/main.cpp **** 
 226:Core/Src/main.cpp ****   /*Configure GPIO pin : Door_Pin */
 227:Core/Src/main.cpp ****   GPIO_InitStruct.Pin = Door_Pin;
 125              		.loc 1 227 3 is_stmt 1 view .LVU33
 126              		.loc 1 227 23 is_stmt 0 view .LVU34
 127 006a 4FF48073 		mov	r3, #256
 128 006e 0493     		str	r3, [sp, #16]
 228:Core/Src/main.cpp ****   GPIO_InitStruct.Mode = GPIO_MODE_IT_RISING_FALLING;
 129              		.loc 1 228 3 is_stmt 1 view .LVU35
 130              		.loc 1 228 24 is_stmt 0 view .LVU36
 131 0070 1C4B     		ldr	r3, .L3+16
 132 0072 0593     		str	r3, [sp, #20]
 229:Core/Src/main.cpp ****   GPIO_InitStruct.Pull = GPIO_NOPULL;
 133              		.loc 1 229 3 is_stmt 1 view .LVU37
 134              		.loc 1 229 24 is_stmt 0 view .LVU38
 135 0074 0694     		str	r4, [sp, #24]
 230:Core/Src/main.cpp ****   HAL_GPIO_Init(Door_GPIO_Port, &GPIO_InitStruct);
 136              		.loc 1 230 3 is_stmt 1 view .LVU39
 137              		.loc 1 230 16 is_stmt 0 view .LVU40
 138 0076 04A9     		add	r1, sp, #16
 139 0078 2846     		mov	r0, r5
 140 007a FFF7FEFF 		bl	HAL_GPIO_Init
 141              	.LVL2:
 231:Core/Src/main.cpp **** 
 232:Core/Src/main.cpp ****   /* EXTI interrupt init*/
 233:Core/Src/main.cpp ****   HAL_NVIC_SetPriority(EXTI0_IRQn, 0, 0);
 142              		.loc 1 233 3 is_stmt 1 view .LVU41
 143              		.loc 1 233 23 is_stmt 0 view .LVU42
 144 007e 2246     		mov	r2, r4
 145 0080 2146     		mov	r1, r4
 146 0082 0620     		movs	r0, #6
 147 0084 FFF7FEFF 		bl	HAL_NVIC_SetPriority
 148              	.LVL3:
 234:Core/Src/main.cpp ****   HAL_NVIC_EnableIRQ(EXTI0_IRQn);
 149              		.loc 1 234 3 is_stmt 1 view .LVU43
 150              		.loc 1 234 21 is_stmt 0 view .LVU44
 151 0088 0620     		movs	r0, #6
 152 008a FFF7FEFF 		bl	HAL_NVIC_EnableIRQ
 153              	.LVL4:
 235:Core/Src/main.cpp **** 
 236:Core/Src/main.cpp ****   HAL_NVIC_SetPriority(EXTI1_IRQn, 0, 0);
 154              		.loc 1 236 3 is_stmt 1 view .LVU45
 155              		.loc 1 236 23 is_stmt 0 view .LVU46
 156 008e 2246     		mov	r2, r4
 157 0090 2146     		mov	r1, r4
 158 0092 0720     		movs	r0, #7
 159 0094 FFF7FEFF 		bl	HAL_NVIC_SetPriority
 160              	.LVL5:
 237:Core/Src/main.cpp ****   HAL_NVIC_EnableIRQ(EXTI1_IRQn);
 161              		.loc 1 237 3 is_stmt 1 view .LVU47
 162              		.loc 1 237 21 is_stmt 0 view .LVU48
 163 0098 0720     		movs	r0, #7
ARM GAS  C:\Users\Admin\AppData\Local\Temp\ccC9bEpd.s 			page 8


 164 009a FFF7FEFF 		bl	HAL_NVIC_EnableIRQ
 165              	.LVL6:
 238:Core/Src/main.cpp **** 
 239:Core/Src/main.cpp ****   HAL_NVIC_SetPriority(EXTI2_IRQn, 0, 0);
 166              		.loc 1 239 3 is_stmt 1 view .LVU49
 167              		.loc 1 239 23 is_stmt 0 view .LVU50
 168 009e 2246     		mov	r2, r4
 169 00a0 2146     		mov	r1, r4
 170 00a2 0820     		movs	r0, #8
 171 00a4 FFF7FEFF 		bl	HAL_NVIC_SetPriority
 172              	.LVL7:
 240:Core/Src/main.cpp ****   HAL_NVIC_EnableIRQ(EXTI2_IRQn);
 173              		.loc 1 240 3 is_stmt 1 view .LVU51
 174              		.loc 1 240 21 is_stmt 0 view .LVU52
 175 00a8 0820     		movs	r0, #8
 176 00aa FFF7FEFF 		bl	HAL_NVIC_EnableIRQ
 177              	.LVL8:
 241:Core/Src/main.cpp **** 
 242:Core/Src/main.cpp ****   HAL_NVIC_SetPriority(EXTI3_IRQn, 0, 0);
 178              		.loc 1 242 3 is_stmt 1 view .LVU53
 179              		.loc 1 242 23 is_stmt 0 view .LVU54
 180 00ae 2246     		mov	r2, r4
 181 00b0 2146     		mov	r1, r4
 182 00b2 0920     		movs	r0, #9
 183 00b4 FFF7FEFF 		bl	HAL_NVIC_SetPriority
 184              	.LVL9:
 243:Core/Src/main.cpp ****   HAL_NVIC_EnableIRQ(EXTI3_IRQn);
 185              		.loc 1 243 3 is_stmt 1 view .LVU55
 186              		.loc 1 243 21 is_stmt 0 view .LVU56
 187 00b8 0920     		movs	r0, #9
 188 00ba FFF7FEFF 		bl	HAL_NVIC_EnableIRQ
 189              	.LVL10:
 244:Core/Src/main.cpp **** 
 245:Core/Src/main.cpp ****   HAL_NVIC_SetPriority(EXTI9_5_IRQn, 0, 0);
 190              		.loc 1 245 3 is_stmt 1 view .LVU57
 191              		.loc 1 245 23 is_stmt 0 view .LVU58
 192 00be 2246     		mov	r2, r4
 193 00c0 2146     		mov	r1, r4
 194 00c2 1720     		movs	r0, #23
 195 00c4 FFF7FEFF 		bl	HAL_NVIC_SetPriority
 196              	.LVL11:
 246:Core/Src/main.cpp ****   HAL_NVIC_EnableIRQ(EXTI9_5_IRQn);
 197              		.loc 1 246 3 is_stmt 1 view .LVU59
 198              		.loc 1 246 21 is_stmt 0 view .LVU60
 199 00c8 1720     		movs	r0, #23
 200 00ca FFF7FEFF 		bl	HAL_NVIC_EnableIRQ
 201              	.LVL12:
 247:Core/Src/main.cpp **** }
 202              		.loc 1 247 1 view .LVU61
 203 00ce 09B0     		add	sp, sp, #36
 204              	.LCFI2:
 205              		.cfi_def_cfa_offset 12
 206              		@ sp needed
 207 00d0 30BD     		pop	{r4, r5, pc}
 208              	.L4:
 209 00d2 00BF     		.align	2
 210              	.L3:
ARM GAS  C:\Users\Admin\AppData\Local\Temp\ccC9bEpd.s 			page 9


 211 00d4 00100240 		.word	1073876992
 212 00d8 00002110 		.word	270598144
 213 00dc 00100140 		.word	1073811456
 214 00e0 00001110 		.word	269549568
 215 00e4 00003110 		.word	271646720
 216              		.cfi_endproc
 217              	.LFE86:
 218              		.fnend
 220              		.section	.text._Z41__static_initialization_and_destruction_0ii,"ax",%progbits
 221              		.align	1
 222              		.syntax unified
 223              		.thumb
 224              		.thumb_func
 225              		.fpu softvfp
 227              	_Z41__static_initialization_and_destruction_0ii:
 228              		.fnstart
 229              	.LVL13:
 230              	.LFB110:
 248:Core/Src/main.cpp **** 
 249:Core/Src/main.cpp **** int main(void)
 250:Core/Src/main.cpp **** {
 251:Core/Src/main.cpp ****   HAL_Init();
 252:Core/Src/main.cpp **** 
 253:Core/Src/main.cpp ****   SystemClock_Config();
 254:Core/Src/main.cpp ****   MX_GPIO_Init();
 255:Core/Src/main.cpp ****   MX_USART1_UART_Init();
 256:Core/Src/main.cpp **** 
 257:Core/Src/main.cpp ****   UART_Printf("test\r\n");
 258:Core/Src/main.cpp ****   
 259:Core/Src/main.cpp ****   UART_Printf("\nSwitched to Normal mode.\r\n");
 260:Core/Src/main.cpp ****   insideGreenLed.turnOff();
 261:Core/Src/main.cpp ****   outsideGreenLed.turnOff();
 262:Core/Src/main.cpp ****   insideZumer.turnOff();
 263:Core/Src/main.cpp ****   outsideZumer.turnOff();
 264:Core/Src/main.cpp **** 
 265:Core/Src/main.cpp ****   while (1)
 266:Core/Src/main.cpp ****   {
 267:Core/Src/main.cpp ****     TimeTrackEvent();
 268:Core/Src/main.cpp **** 
 269:Core/Src/main.cpp ****     ChangeModeEvent();
 270:Core/Src/main.cpp **** 
 271:Core/Src/main.cpp ****     DoorSensorEvent();
 272:Core/Src/main.cpp **** 
 273:Core/Src/main.cpp ****     KeyReadEvent();
 274:Core/Src/main.cpp **** 
 275:Core/Src/main.cpp ****     ButtonPressedEvent();
 276:Core/Src/main.cpp **** 
 277:Core/Src/main.cpp ****     TempOpenModeEvent();
 278:Core/Src/main.cpp **** 
 279:Core/Src/main.cpp ****     TempAlarmEvent();
 280:Core/Src/main.cpp **** 
 281:Core/Src/main.cpp ****     DenyKeyEvent();
 282:Core/Src/main.cpp **** 
 283:Core/Src/main.cpp ****     AlarmEvent();
 284:Core/Src/main.cpp ****   }
 285:Core/Src/main.cpp **** }
 286:Core/Src/main.cpp **** 
ARM GAS  C:\Users\Admin\AppData\Local\Temp\ccC9bEpd.s 			page 10


 287:Core/Src/main.cpp **** /* Events */
 288:Core/Src/main.cpp **** 
 289:Core/Src/main.cpp **** void TimeTrackEvent()
 290:Core/Src/main.cpp **** {
 291:Core/Src/main.cpp ****   if ((HAL_GetTick() - timmeTrack) > 5000)
 292:Core/Src/main.cpp ****   {
 293:Core/Src/main.cpp ****     UART_Printf("Time passed: %d%s\r\n", (HAL_GetTick() - timme) / 1000, " sec.");
 294:Core/Src/main.cpp ****     timmeTrack = HAL_GetTick();
 295:Core/Src/main.cpp ****   }
 296:Core/Src/main.cpp **** }
 297:Core/Src/main.cpp **** 
 298:Core/Src/main.cpp **** void ChangeModeEvent()
 299:Core/Src/main.cpp **** {
 300:Core/Src/main.cpp ****   if ((HAL_GetTick() - timme) > 15000)
 301:Core/Src/main.cpp ****   {
 302:Core/Src/main.cpp ****     timme = HAL_GetTick();
 303:Core/Src/main.cpp ****     switchMode();
 304:Core/Src/main.cpp ****   }
 305:Core/Src/main.cpp **** }
 306:Core/Src/main.cpp **** 
 307:Core/Src/main.cpp **** void DoorSensorEvent()
 308:Core/Src/main.cpp **** {
 309:Core/Src/main.cpp ****   if (HAL_GetTick() - doorSensorTimer.getStartTime() > 100 && doorSensorFirstTime == false)
 310:Core/Src/main.cpp ****   {
 311:Core/Src/main.cpp ****     door.setStateChanged();
 312:Core/Src/main.cpp **** 
 313:Core/Src/main.cpp ****     if (door.getState() == State::Off)
 314:Core/Src/main.cpp ****     {
 315:Core/Src/main.cpp ****       UART_Printf("Door was closed.\r\n");
 316:Core/Src/main.cpp ****     }
 317:Core/Src/main.cpp ****     else if (door.getState() == State::On)
 318:Core/Src/main.cpp ****     {
 319:Core/Src/main.cpp ****       UART_Printf("Door was opened.\r\n");
 320:Core/Src/main.cpp ****     }
 321:Core/Src/main.cpp **** 
 322:Core/Src/main.cpp ****     if (workMode != WorkMode::TempOpenMode && door.getState() == State::On)
 323:Core/Src/main.cpp ****     {
 324:Core/Src/main.cpp ****       workMode = WorkMode::AlarmMode;
 325:Core/Src/main.cpp ****     }
 326:Core/Src/main.cpp **** 
 327:Core/Src/main.cpp ****     doorSensorFirstTime = true;
 328:Core/Src/main.cpp ****   }
 329:Core/Src/main.cpp **** }
 330:Core/Src/main.cpp **** 
 331:Core/Src/main.cpp **** void KeyReadEvent()
 332:Core/Src/main.cpp **** {
 333:Core/Src/main.cpp ****   if (wig_available())
 334:Core/Src/main.cpp ****   {
 335:Core/Src/main.cpp ****     bool permissionGave = false;
 336:Core/Src/main.cpp **** 
 337:Core/Src/main.cpp ****     if (insideKeyRead)
 338:Core/Src/main.cpp ****     {
 339:Core/Src/main.cpp ****       permissionGave = insideIntercom->CheckKey(getCode());
 340:Core/Src/main.cpp ****     }
 341:Core/Src/main.cpp ****     else
 342:Core/Src/main.cpp ****     {
 343:Core/Src/main.cpp ****       permissionGave = outsideIntercom->CheckKey(getCode());
ARM GAS  C:\Users\Admin\AppData\Local\Temp\ccC9bEpd.s 			page 11


 344:Core/Src/main.cpp ****     }
 345:Core/Src/main.cpp **** 
 346:Core/Src/main.cpp ****     if (permissionGave)
 347:Core/Src/main.cpp ****     {
 348:Core/Src/main.cpp ****       (insideKeyRead) ? UART_Printf("Inside intercom gave permission. Key id: %d\r\n", getCode())
 349:Core/Src/main.cpp ****                       : UART_Printf("Outside intercom gave permission. Key id: %d\r\n", getCode());
 350:Core/Src/main.cpp **** 
 351:Core/Src/main.cpp ****       workMode = WorkMode::TempOpenMode;
 352:Core/Src/main.cpp ****     }
 353:Core/Src/main.cpp ****     else
 354:Core/Src/main.cpp ****     {
 355:Core/Src/main.cpp ****       UART_Printf("Acces denied. Key id: %d\r\n", getCode());
 356:Core/Src/main.cpp **** 
 357:Core/Src/main.cpp ****       workMode = WorkMode::DenyMode;
 358:Core/Src/main.cpp ****     }
 359:Core/Src/main.cpp **** 
 360:Core/Src/main.cpp ****     insideKeyRead = false;
 361:Core/Src/main.cpp ****     outsideKeyRead = false;
 362:Core/Src/main.cpp ****   }
 363:Core/Src/main.cpp **** 
 364:Core/Src/main.cpp ****   /* if (wig_available() && workMode == WorkMode::NoMode)
 365:Core/Src/main.cpp ****   {
 366:Core/Src/main.cpp ****     if (intercomMode != IntercomMode::ClosedMode && verifyCode(getCode()))
 367:Core/Src/main.cpp ****     {
 368:Core/Src/main.cpp ****       UART_Printf("%s intercom was used. Key id: %d.\r\n", insideKeyRead ? "Inside" : "Outside", ge
 369:Core/Src/main.cpp **** 
 370:Core/Src/main.cpp ****       workMode = WorkMode::TempOpenMode;
 371:Core/Src/main.cpp **** 
 372:Core/Src/main.cpp ****       if (intercomMode == IntercomMode::CondOpenMode)
 373:Core/Src/main.cpp ****       {
 374:Core/Src/main.cpp ****         UART_Printf("Current mode is Conditionally Open. Switching to Open.\r\n");
 375:Core/Src/main.cpp ****         intercomMode = IntercomMode::OpenMode;
 376:Core/Src/main.cpp ****       }
 377:Core/Src/main.cpp ****     }
 378:Core/Src/main.cpp ****     else
 379:Core/Src/main.cpp ****     {
 380:Core/Src/main.cpp ****       (intercomMode == IntercomMode::ClosedMode) ? UART_Printf("Acces denied, door is closed. Key i
 381:Core/Src/main.cpp ****                                                  : UART_Printf("Acces denied. Key is not authorized
 382:Core/Src/main.cpp **** 
 383:Core/Src/main.cpp ****       previousWorkMode = workMode;
 384:Core/Src/main.cpp ****       workMode = WorkMode::DenyMode;
 385:Core/Src/main.cpp ****     }
 386:Core/Src/main.cpp **** 
 387:Core/Src/main.cpp ****     insideKeyRead = false;
 388:Core/Src/main.cpp ****     outsideKeyRead = false;
 389:Core/Src/main.cpp ****   } */
 390:Core/Src/main.cpp **** }
 391:Core/Src/main.cpp **** 
 392:Core/Src/main.cpp **** void ButtonPressedEvent()
 393:Core/Src/main.cpp **** {
 394:Core/Src/main.cpp ****   if (insideButtonPressed || outsideButtonPressed)
 395:Core/Src/main.cpp ****   {
 396:Core/Src/main.cpp ****     UART_Printf("%s button was used.\r\n", insideButtonPressed ? "Inside" : "Outside");
 397:Core/Src/main.cpp **** 
 398:Core/Src/main.cpp ****     workMode = WorkMode::TempOpenMode;
 399:Core/Src/main.cpp **** 
 400:Core/Src/main.cpp ****     if (intercomMode == IntercomMode::CondOpenMode)
ARM GAS  C:\Users\Admin\AppData\Local\Temp\ccC9bEpd.s 			page 12


 401:Core/Src/main.cpp ****     {
 402:Core/Src/main.cpp ****       UART_Printf("Current mode is Conditionally Open. Switching to Open.\r\n");
 403:Core/Src/main.cpp ****       intercomMode = IntercomMode::OpenMode;
 404:Core/Src/main.cpp ****     }
 405:Core/Src/main.cpp **** 
 406:Core/Src/main.cpp ****     insideButtonPressed = false;
 407:Core/Src/main.cpp ****     outsideButtonPressed = false;
 408:Core/Src/main.cpp ****   }
 409:Core/Src/main.cpp **** }
 410:Core/Src/main.cpp **** 
 411:Core/Src/main.cpp **** void TempOpenModeEvent()
 412:Core/Src/main.cpp **** {
 413:Core/Src/main.cpp ****   static Timer lockTimer(0, 0);
 414:Core/Src/main.cpp ****   static Timer zumerTimer(0, 0);
 415:Core/Src/main.cpp **** 
 416:Core/Src/main.cpp ****   if (workMode == WorkMode::TempOpenMode)
 417:Core/Src/main.cpp ****   {
 418:Core/Src/main.cpp ****     static bool firstTime = true;
 419:Core/Src/main.cpp ****     if (firstTime)
 420:Core/Src/main.cpp ****     {
 421:Core/Src/main.cpp ****       firstTime = false;
 422:Core/Src/main.cpp ****       lock.turnOn();
 423:Core/Src/main.cpp ****       lockTimer.start();
 424:Core/Src/main.cpp ****     }
 425:Core/Src/main.cpp **** 
 426:Core/Src/main.cpp ****     if (HAL_GetTick() - lockTimer.getStartTime() < 5000 && !(door.isStateChanged() && door.getState
 427:Core/Src/main.cpp ****     {
 428:Core/Src/main.cpp ****       if (HAL_GetTick() - zumerTimer.getLastTick() > 250)
 429:Core/Src/main.cpp ****       {
 430:Core/Src/main.cpp ****         zumerTimer.setLastTick();
 431:Core/Src/main.cpp ****         insideZumer.turnOn();
 432:Core/Src/main.cpp ****         outsideZumer.turnOn();
 433:Core/Src/main.cpp ****         insideGreenLed.turnOn();
 434:Core/Src/main.cpp ****         outsideGreenLed.turnOn();
 435:Core/Src/main.cpp ****       }
 436:Core/Src/main.cpp **** 
 437:Core/Src/main.cpp ****       if (HAL_GetTick() - zumerTimer.getLastTick() > 75)
 438:Core/Src/main.cpp ****       {
 439:Core/Src/main.cpp ****         insideZumer.turnOff();
 440:Core/Src/main.cpp ****         outsideZumer.turnOff();
 441:Core/Src/main.cpp ****         insideGreenLed.turnOff();
 442:Core/Src/main.cpp ****         outsideGreenLed.turnOff();
 443:Core/Src/main.cpp ****       }
 444:Core/Src/main.cpp ****     }
 445:Core/Src/main.cpp ****     else if (door.getState() == State::On)
 446:Core/Src/main.cpp ****     {
 447:Core/Src/main.cpp ****       UART_Printf("Door is still opened. Turning on temporarily alarm.\r\n");
 448:Core/Src/main.cpp ****       workMode = WorkMode::TempAlarmMode;
 449:Core/Src/main.cpp ****     }
 450:Core/Src/main.cpp ****     else
 451:Core/Src/main.cpp ****     {
 452:Core/Src/main.cpp ****       if (HAL_GetTick() - lockTimer.getStartTime() >= 5000)
 453:Core/Src/main.cpp ****       {
 454:Core/Src/main.cpp ****         UART_Printf("Door was not opened. Closing the relay.\r\n");
 455:Core/Src/main.cpp ****       }
 456:Core/Src/main.cpp **** 
 457:Core/Src/main.cpp ****       workMode = WorkMode::NoMode;
ARM GAS  C:\Users\Admin\AppData\Local\Temp\ccC9bEpd.s 			page 13


 458:Core/Src/main.cpp ****       firstTime = true;
 459:Core/Src/main.cpp ****       lock.turnOff();
 460:Core/Src/main.cpp ****       insideZumer.turnOff();
 461:Core/Src/main.cpp ****       outsideZumer.turnOff();
 462:Core/Src/main.cpp ****       insideGreenLed.turnOff();
 463:Core/Src/main.cpp ****       outsideGreenLed.turnOff();
 464:Core/Src/main.cpp ****     }
 465:Core/Src/main.cpp ****   }
 466:Core/Src/main.cpp **** }
 467:Core/Src/main.cpp **** 
 468:Core/Src/main.cpp **** void TempAlarmEvent()
 469:Core/Src/main.cpp **** {
 470:Core/Src/main.cpp ****   static Timer sirenTimer(0, 0);
 471:Core/Src/main.cpp **** 
 472:Core/Src/main.cpp ****   if (workMode == WorkMode::TempAlarmMode)
 473:Core/Src/main.cpp ****   {
 474:Core/Src/main.cpp ****     if (HAL_GetTick() - sirenTimer.getLastTick() > 250)
 475:Core/Src/main.cpp ****     {
 476:Core/Src/main.cpp ****       sirenTimer.setLastTick();
 477:Core/Src/main.cpp ****       siren.turnOn();
 478:Core/Src/main.cpp ****     }
 479:Core/Src/main.cpp ****     else if (HAL_GetTick() - sirenTimer.getLastTick() < 250 && HAL_GetTick() - sirenTimer.getLastTi
 480:Core/Src/main.cpp ****     {
 481:Core/Src/main.cpp ****       siren.turnOff();
 482:Core/Src/main.cpp ****     }
 483:Core/Src/main.cpp **** 
 484:Core/Src/main.cpp ****     if (door.isStateChanged() && door.getState() == State::Off)
 485:Core/Src/main.cpp ****     {
 486:Core/Src/main.cpp ****       UART_Printf("Door was closed.\r\n");
 487:Core/Src/main.cpp ****       workMode = WorkMode::NoMode;
 488:Core/Src/main.cpp ****       siren.turnOff();
 489:Core/Src/main.cpp ****     }
 490:Core/Src/main.cpp ****   }
 491:Core/Src/main.cpp **** }
 492:Core/Src/main.cpp **** 
 493:Core/Src/main.cpp **** void DenyKeyEvent()
 494:Core/Src/main.cpp **** {
 495:Core/Src/main.cpp ****   static Timer denyTimer(0, 0);
 496:Core/Src/main.cpp ****   static bool firstTime = true;
 497:Core/Src/main.cpp **** 
 498:Core/Src/main.cpp ****   if (workMode == WorkMode::DenyMode)
 499:Core/Src/main.cpp ****   {
 500:Core/Src/main.cpp ****     if (firstTime)
 501:Core/Src/main.cpp ****     {
 502:Core/Src/main.cpp ****       denyTimer.start();
 503:Core/Src/main.cpp ****       firstTime = false;
 504:Core/Src/main.cpp ****     }
 505:Core/Src/main.cpp **** 
 506:Core/Src/main.cpp ****     if (HAL_GetTick() - denyTimer.getStartTime() < 300)
 507:Core/Src/main.cpp ****     {
 508:Core/Src/main.cpp ****       if (HAL_GetTick() - denyTimer.getLastTick() > 150)
 509:Core/Src/main.cpp ****       {
 510:Core/Src/main.cpp ****         denyTimer.setLastTick();
 511:Core/Src/main.cpp ****         insideZumer.turnOn();
 512:Core/Src/main.cpp ****         outsideZumer.turnOn();
 513:Core/Src/main.cpp ****       }
 514:Core/Src/main.cpp ****       else if (HAL_GetTick() - denyTimer.getLastTick() < 150 && HAL_GetTick() - denyTimer.getLastTi
ARM GAS  C:\Users\Admin\AppData\Local\Temp\ccC9bEpd.s 			page 14


 515:Core/Src/main.cpp ****       {
 516:Core/Src/main.cpp ****         insideZumer.turnOff();
 517:Core/Src/main.cpp ****         outsideZumer.turnOff();
 518:Core/Src/main.cpp ****       }
 519:Core/Src/main.cpp ****     }
 520:Core/Src/main.cpp ****     else
 521:Core/Src/main.cpp ****     {
 522:Core/Src/main.cpp ****       workMode = previousWorkMode;
 523:Core/Src/main.cpp ****       insideZumer.turnOff();
 524:Core/Src/main.cpp ****       outsideZumer.turnOff();
 525:Core/Src/main.cpp ****       firstTime = true;
 526:Core/Src/main.cpp ****     }
 527:Core/Src/main.cpp ****   }
 528:Core/Src/main.cpp **** }
 529:Core/Src/main.cpp **** 
 530:Core/Src/main.cpp **** void AlarmEvent()
 531:Core/Src/main.cpp **** {
 532:Core/Src/main.cpp ****   if (workMode == WorkMode::AlarmMode)
 533:Core/Src/main.cpp ****   {
 534:Core/Src/main.cpp ****     static Timer alarmTimer(0, 0);
 535:Core/Src/main.cpp ****     static bool firstTime = true;
 536:Core/Src/main.cpp **** 
 537:Core/Src/main.cpp ****     if (firstTime)
 538:Core/Src/main.cpp ****     {
 539:Core/Src/main.cpp ****       UART_Printf("Unauthorized access. Triggered alarm.\r\n");
 540:Core/Src/main.cpp ****       alarmTimer.start();
 541:Core/Src/main.cpp ****       firstTime = false;
 542:Core/Src/main.cpp ****     }
 543:Core/Src/main.cpp **** 
 544:Core/Src/main.cpp ****     if (HAL_GetTick() - alarmTimer.getLastTick() > 1000)
 545:Core/Src/main.cpp ****     {
 546:Core/Src/main.cpp ****       alarmTimer.setLastTick();
 547:Core/Src/main.cpp ****       siren.turnOn();
 548:Core/Src/main.cpp ****     }
 549:Core/Src/main.cpp ****     else if (HAL_GetTick() - alarmTimer.getLastTick() < 1000 && HAL_GetTick() - alarmTimer.getLastT
 550:Core/Src/main.cpp ****     {
 551:Core/Src/main.cpp ****       siren.turnOff();
 552:Core/Src/main.cpp ****     }
 553:Core/Src/main.cpp **** 
 554:Core/Src/main.cpp ****     if (HAL_GetTick() - alarmTimer.getStartTime() > 2000 /* ((wig_available() && verifyCode(getCode
 555:Core/Src/main.cpp ****     {
 556:Core/Src/main.cpp ****       workMode = WorkMode::TempOpenMode;
 557:Core/Src/main.cpp ****       siren.turnOff();
 558:Core/Src/main.cpp ****       firstTime = true;
 559:Core/Src/main.cpp ****     }
 560:Core/Src/main.cpp ****   }
 561:Core/Src/main.cpp **** }
 562:Core/Src/main.cpp **** 
 563:Core/Src/main.cpp **** /* Aux functions */
 564:Core/Src/main.cpp **** 
 565:Core/Src/main.cpp **** void HAL_GPIO_EXTI_Callback(uint16_t GPIO_Pin)
 566:Core/Src/main.cpp **** {
 567:Core/Src/main.cpp ****   switch (GPIO_Pin)
 568:Core/Src/main.cpp ****   {
 569:Core/Src/main.cpp ****   case BT_0_Pin:
 570:Core/Src/main.cpp ****   {
 571:Core/Src/main.cpp ****     insideButtonPressed = true;
ARM GAS  C:\Users\Admin\AppData\Local\Temp\ccC9bEpd.s 			page 15


 572:Core/Src/main.cpp ****     break;
 573:Core/Src/main.cpp ****   }
 574:Core/Src/main.cpp ****   case BT_1_Pin:
 575:Core/Src/main.cpp ****   {
 576:Core/Src/main.cpp ****     outsideButtonPressed = true;
 577:Core/Src/main.cpp ****     break;
 578:Core/Src/main.cpp ****   }
 579:Core/Src/main.cpp ****   case Door_Pin:
 580:Core/Src/main.cpp ****   {
 581:Core/Src/main.cpp ****     if (doorSensorFirstTime)
 582:Core/Src/main.cpp ****     {
 583:Core/Src/main.cpp ****       doorSensorTimer.start();
 584:Core/Src/main.cpp ****       doorSensorFirstTime = false;
 585:Core/Src/main.cpp ****     }
 586:Core/Src/main.cpp ****     break;
 587:Core/Src/main.cpp ****   }
 588:Core/Src/main.cpp ****   case D_01_Pin:
 589:Core/Src/main.cpp ****   {
 590:Core/Src/main.cpp ****     if (wig_flag_inrt)
 591:Core/Src/main.cpp ****     {
 592:Core/Src/main.cpp ****       ReadD0();
 593:Core/Src/main.cpp ****       insideKeyRead = true;
 594:Core/Src/main.cpp ****     }
 595:Core/Src/main.cpp ****     break;
 596:Core/Src/main.cpp ****   }
 597:Core/Src/main.cpp ****   case D_11_Pin:
 598:Core/Src/main.cpp ****   {
 599:Core/Src/main.cpp ****     if (wig_flag_inrt)
 600:Core/Src/main.cpp ****     {
 601:Core/Src/main.cpp ****       ReadD1();
 602:Core/Src/main.cpp ****       insideKeyRead = true;
 603:Core/Src/main.cpp ****     }
 604:Core/Src/main.cpp ****     break;
 605:Core/Src/main.cpp ****   }
 606:Core/Src/main.cpp ****   case D_02_Pin:
 607:Core/Src/main.cpp ****   {
 608:Core/Src/main.cpp ****     if (wig_flag_inrt)
 609:Core/Src/main.cpp ****     {
 610:Core/Src/main.cpp ****       ReadD0();
 611:Core/Src/main.cpp ****       outsideKeyRead = true;
 612:Core/Src/main.cpp ****     }
 613:Core/Src/main.cpp ****     break;
 614:Core/Src/main.cpp ****   }
 615:Core/Src/main.cpp ****   case D_12_Pin:
 616:Core/Src/main.cpp ****   {
 617:Core/Src/main.cpp ****     if (wig_flag_inrt)
 618:Core/Src/main.cpp ****     {
 619:Core/Src/main.cpp ****       ReadD1();
 620:Core/Src/main.cpp ****       outsideKeyRead = true;
 621:Core/Src/main.cpp ****     }
 622:Core/Src/main.cpp ****     break;
 623:Core/Src/main.cpp ****   }
 624:Core/Src/main.cpp ****   default:
 625:Core/Src/main.cpp ****   {
 626:Core/Src/main.cpp ****     break;
 627:Core/Src/main.cpp ****   }
 628:Core/Src/main.cpp ****   }
ARM GAS  C:\Users\Admin\AppData\Local\Temp\ccC9bEpd.s 			page 16


 629:Core/Src/main.cpp **** }
 630:Core/Src/main.cpp **** 
 631:Core/Src/main.cpp **** void UART_Printf(const char *fmt, ...)
 632:Core/Src/main.cpp **** {
 633:Core/Src/main.cpp ****   char buff[256];
 634:Core/Src/main.cpp ****   va_list args;
 635:Core/Src/main.cpp ****   va_start(args, fmt);
 636:Core/Src/main.cpp ****   vsnprintf(buff, sizeof(buff), fmt, args);
 637:Core/Src/main.cpp ****   HAL_UART_Transmit(&huart1, (uint8_t *)buff, strlen(buff), HAL_MAX_DELAY);
 638:Core/Src/main.cpp ****   va_end(args);
 639:Core/Src/main.cpp **** }
 640:Core/Src/main.cpp **** 
 641:Core/Src/main.cpp **** /* bool verifyCode(uint32_t code)
 642:Core/Src/main.cpp **** {
 643:Core/Src/main.cpp ****   uint32_t codes[] =
 644:Core/Src/main.cpp ****       {12563593};
 645:Core/Src/main.cpp **** 
 646:Core/Src/main.cpp ****   for (unsigned int i = 0; i < sizeof(codes) / sizeof(codes[0]); i++)
 647:Core/Src/main.cpp ****   {
 648:Core/Src/main.cpp ****     if (code == codes[i])
 649:Core/Src/main.cpp ****       return true;
 650:Core/Src/main.cpp ****   }
 651:Core/Src/main.cpp **** 
 652:Core/Src/main.cpp ****   return false;
 653:Core/Src/main.cpp **** } */
 654:Core/Src/main.cpp **** 
 655:Core/Src/main.cpp **** void switchMode()
 656:Core/Src/main.cpp **** {
 657:Core/Src/main.cpp ****   switch (intercomMode)
 658:Core/Src/main.cpp ****   {
 659:Core/Src/main.cpp ****   case IntercomMode::NormalMode:
 660:Core/Src/main.cpp ****   {
 661:Core/Src/main.cpp ****     UART_Printf("\nSwitched to Closed mode.\r\n");
 662:Core/Src/main.cpp ****     insideIntercom->TransitionTo(new ClosedMode);
 663:Core/Src/main.cpp ****     outsideIntercom->TransitionTo(new ClosedMode);
 664:Core/Src/main.cpp ****     lock.turnOff();
 665:Core/Src/main.cpp ****     break;
 666:Core/Src/main.cpp ****   }
 667:Core/Src/main.cpp ****   case IntercomMode::ClosedMode:
 668:Core/Src/main.cpp ****   {
 669:Core/Src/main.cpp ****     UART_Printf("\nSwitched to Open mode.\r\n");
 670:Core/Src/main.cpp ****     insideIntercom->TransitionTo(new OpenMode);
 671:Core/Src/main.cpp ****     outsideIntercom->TransitionTo(new OpenMode);
 672:Core/Src/main.cpp ****     lock.turnOn();
 673:Core/Src/main.cpp ****     break;
 674:Core/Src/main.cpp ****   }
 675:Core/Src/main.cpp ****   case IntercomMode::OpenMode:
 676:Core/Src/main.cpp ****   {
 677:Core/Src/main.cpp ****     UART_Printf("\nSwitched to CondOpen mode.\r\n");
 678:Core/Src/main.cpp ****     insideIntercom->TransitionTo(new CondOpenMode);
 679:Core/Src/main.cpp ****     outsideIntercom->TransitionTo(new CondOpenMode);
 680:Core/Src/main.cpp ****     lock.turnOff();
 681:Core/Src/main.cpp ****     break;
 682:Core/Src/main.cpp ****   }
 683:Core/Src/main.cpp ****   case IntercomMode::CondOpenMode:
 684:Core/Src/main.cpp ****   {
 685:Core/Src/main.cpp ****     UART_Printf("\nSwitched to Normal mode.\r\n");
ARM GAS  C:\Users\Admin\AppData\Local\Temp\ccC9bEpd.s 			page 17


 686:Core/Src/main.cpp ****     insideIntercom->TransitionTo(new NormalMode);
 687:Core/Src/main.cpp ****     outsideIntercom->TransitionTo(new NormalMode);
 688:Core/Src/main.cpp ****     lock.turnOff();
 689:Core/Src/main.cpp ****     break;
 690:Core/Src/main.cpp ****   }
 691:Core/Src/main.cpp ****   default:
 692:Core/Src/main.cpp ****   {
 693:Core/Src/main.cpp ****     UART_Printf("Unknown mode, switched to normal.\r\n");
 694:Core/Src/main.cpp ****     insideIntercom->TransitionTo(new NormalMode);
 695:Core/Src/main.cpp ****     outsideIntercom->TransitionTo(new NormalMode);
 696:Core/Src/main.cpp ****     lock.turnOff();
 697:Core/Src/main.cpp ****     break;
 698:Core/Src/main.cpp ****   }
 699:Core/Src/main.cpp ****   }
 700:Core/Src/main.cpp **** 
 701:Core/Src/main.cpp ****   return;
 702:Core/Src/main.cpp **** }
 703:Core/Src/main.cpp **** 
 704:Core/Src/main.cpp **** /**
 705:Core/Src/main.cpp ****   * @brief  This function is executed in case of error occurrence.
 706:Core/Src/main.cpp ****   * @retval None
 707:Core/Src/main.cpp ****   */
 708:Core/Src/main.cpp **** void Error_Handler(void)
 709:Core/Src/main.cpp **** {
 710:Core/Src/main.cpp ****   /* USER CODE BEGIN Error_Handler_Debug */
 711:Core/Src/main.cpp ****   /* User can add his own implementation to report the HAL error return state */
 712:Core/Src/main.cpp ****   __disable_irq();
 713:Core/Src/main.cpp ****   while (1)
 714:Core/Src/main.cpp ****   {
 715:Core/Src/main.cpp ****   }
 716:Core/Src/main.cpp ****   /* USER CODE END Error_Handler_Debug */
 717:Core/Src/main.cpp **** }
 231              		.loc 1 717 1 is_stmt 1 view -0
 232              		.cfi_startproc
 233              		@ args = 0, pretend = 0, frame = 0
 234              		@ frame_needed = 0, uses_anonymous_args = 0
 235              		.loc 1 717 1 is_stmt 0 view .LVU63
 236 0000 0128     		cmp	r0, #1
 237 0002 00D0     		beq	.L15
 238 0004 7047     		bx	lr
 239              	.L15:
 240              		.loc 1 717 1 discriminator 1 view .LVU64
 241 0006 38B5     		push	{r3, r4, r5, lr}
 242              		.save {r3, r4, r5, lr}
 243              	.LCFI3:
 244              		.cfi_def_cfa_offset 16
 245              		.cfi_offset 3, -16
 246              		.cfi_offset 4, -12
 247              		.cfi_offset 5, -8
 248              		.cfi_offset 14, -4
 249              		.loc 1 717 1 discriminator 1 view .LVU65
 250 0008 4FF6FF73 		movw	r3, #65535
 251 000c 9942     		cmp	r1, r3
 252 000e 00D0     		beq	.L16
 253              	.LVL14:
 254              	.L5:
 255              		.loc 1 717 1 view .LVU66
ARM GAS  C:\Users\Admin\AppData\Local\Temp\ccC9bEpd.s 			page 18


 256 0010 38BD     		pop	{r3, r4, r5, pc}
 257              	.LVL15:
 258              	.L16:
  95:Core/Src/main.cpp **** 
 259              		.loc 1 95 43 view .LVU67
 260 0012 4FF48072 		mov	r2, #256
 261 0016 2E49     		ldr	r1, .L17
 262              	.LVL16:
  95:Core/Src/main.cpp **** 
 263              		.loc 1 95 43 view .LVU68
 264 0018 2E48     		ldr	r0, .L17+4
 265              	.LVL17:
 266              	.LEHB0:
  95:Core/Src/main.cpp **** 
 267              		.loc 1 95 43 view .LVU69
 268 001a FFF7FEFF 		bl	_ZN12InterruptPinC1EP12GPIO_TypeDeft
 269              	.LVL18:
 100:Core/Src/main.cpp **** /**
 270              		.loc 1 100 37 view .LVU70
 271 001e 2E4C     		ldr	r4, .L17+8
 272 0020 4FF48072 		mov	r2, #256
 273 0024 2146     		mov	r1, r4
 274 0026 2D48     		ldr	r0, .L17+12
 275 0028 FFF7FEFF 		bl	_ZN6PinOutC1EP12GPIO_TypeDeft
 276              	.LVL19:
 104:Core/Src/main.cpp **** 
 277              		.loc 1 104 40 view .LVU71
 278 002c 4FF40072 		mov	r2, #512
 279 0030 2146     		mov	r1, r4
 280 0032 2B48     		ldr	r0, .L17+16
 281 0034 FFF7FEFF 		bl	_ZN6PinOutC1EP12GPIO_TypeDeft
 282              	.LVL20:
 109:Core/Src/main.cpp **** /**
 283              		.loc 1 109 56 view .LVU72
 284 0038 4FF48062 		mov	r2, #1024
 285 003c 2146     		mov	r1, r4
 286 003e 2948     		ldr	r0, .L17+20
 287 0040 FFF7FEFF 		bl	_ZN14InvertedPinOutC1EP12GPIO_TypeDeft
 288              	.LVL21:
 113:Core/Src/main.cpp **** /**
 289              		.loc 1 113 57 view .LVU73
 290 0044 4FF40062 		mov	r2, #2048
 291 0048 2146     		mov	r1, r4
 292 004a 2748     		ldr	r0, .L17+24
 293 004c FFF7FEFF 		bl	_ZN14InvertedPinOutC1EP12GPIO_TypeDeft
 294              	.LVL22:
 117:Core/Src/main.cpp **** /**
 295              		.loc 1 117 67 view .LVU74
 296 0050 4FF48042 		mov	r2, #16384
 297 0054 2146     		mov	r1, r4
 298 0056 2548     		ldr	r0, .L17+28
 299 0058 FFF7FEFF 		bl	_ZN14InvertedPinOutC1EP12GPIO_TypeDeft
 300              	.LVL23:
 121:Core/Src/main.cpp **** 
 301              		.loc 1 121 68 view .LVU75
 302 005c 4FF40042 		mov	r2, #32768
 303 0060 2146     		mov	r1, r4
ARM GAS  C:\Users\Admin\AppData\Local\Temp\ccC9bEpd.s 			page 19


 304 0062 2348     		ldr	r0, .L17+32
 305 0064 FFF7FEFF 		bl	_ZN14InvertedPinOutC1EP12GPIO_TypeDeft
 306              	.LVL24:
 123:Core/Src/main.cpp **** 
 307              		.loc 1 123 27 view .LVU76
 308 0068 0022     		movs	r2, #0
 309 006a 1146     		mov	r1, r2
 310 006c 2148     		ldr	r0, .L17+36
 311 006e FFF7FEFF 		bl	_ZN5TimerC1Emm
 312              	.LVL25:
 125:Core/Src/main.cpp **** Context *outsideIntercom = new Context(new NormalMode);
 313              		.loc 1 125 43 view .LVU77
 314 0072 0820     		movs	r0, #8
 315 0074 FFF7FEFF 		bl	_Znwj
 316              	.LVL26:
 317 0078 0446     		mov	r4, r0
 318              	.LVL27:
 319              	.LBB83:
 320              	.LBI83:
 321              		.file 2 "Core/Inc/Intercom.h"
   1:Core/Inc/Intercom.h **** #pragma once
   2:Core/Inc/Intercom.h **** #include <cstdint>
   3:Core/Inc/Intercom.h **** #include "UART_Print.h"
   4:Core/Inc/Intercom.h **** 
   5:Core/Inc/Intercom.h **** class Context;
   6:Core/Inc/Intercom.h **** 
   7:Core/Inc/Intercom.h **** class Mode
   8:Core/Inc/Intercom.h **** {
   9:Core/Inc/Intercom.h **** protected:
  10:Core/Inc/Intercom.h ****     Context *context;
  11:Core/Inc/Intercom.h **** 
  12:Core/Inc/Intercom.h **** public:
  13:Core/Inc/Intercom.h ****     virtual ~Mode();
  14:Core/Inc/Intercom.h **** 
  15:Core/Inc/Intercom.h ****     void SetMode(Context *context);
  16:Core/Inc/Intercom.h **** 
  17:Core/Inc/Intercom.h ****     virtual bool CheckKey(uint32_t key) = 0;
  18:Core/Inc/Intercom.h **** };
  19:Core/Inc/Intercom.h **** 
  20:Core/Inc/Intercom.h **** class Context
  21:Core/Inc/Intercom.h **** {
  22:Core/Inc/Intercom.h **** private:
  23:Core/Inc/Intercom.h ****     Mode *mode;
  24:Core/Inc/Intercom.h **** 
  25:Core/Inc/Intercom.h **** public:
  26:Core/Inc/Intercom.h ****     Context(Mode *mode);
  27:Core/Inc/Intercom.h **** 
  28:Core/Inc/Intercom.h ****     ~Context();
  29:Core/Inc/Intercom.h **** 
  30:Core/Inc/Intercom.h ****     void TransitionTo(Mode *mode);
  31:Core/Inc/Intercom.h **** 
  32:Core/Inc/Intercom.h ****     bool CheckKey(uint32_t key);
  33:Core/Inc/Intercom.h **** 
  34:Core/Inc/Intercom.h **** };
  35:Core/Inc/Intercom.h **** 
  36:Core/Inc/Intercom.h **** class NormalMode : public Mode
 322              		.loc 2 36 7 is_stmt 1 view .LVU78
ARM GAS  C:\Users\Admin\AppData\Local\Temp\ccC9bEpd.s 			page 20


 323              	.LBB84:
 324              	.LBB85:
 325              	.LBI85:
   7:Core/Inc/Intercom.h **** {
 326              		.loc 2 7 7 view .LVU79
 327              	.LBB86:
 328 007a 1F4B     		ldr	r3, .L17+40
 329 007c 0360     		str	r3, [r0]
 330              	.LVL28:
   7:Core/Inc/Intercom.h **** {
 331              		.loc 2 7 7 is_stmt 0 view .LVU80
 332              	.LBE86:
 333              	.LBE85:
 334              		.loc 2 36 7 view .LVU81
 335 007e 1F4B     		ldr	r3, .L17+44
 336 0080 0360     		str	r3, [r0]
 337              	.LVL29:
 338              		.loc 2 36 7 view .LVU82
 339              	.LBE84:
 340              	.LBE83:
 125:Core/Src/main.cpp **** Context *outsideIntercom = new Context(new NormalMode);
 341              		.loc 1 125 53 view .LVU83
 342 0082 0420     		movs	r0, #4
 343 0084 FFF7FEFF 		bl	_Znwj
 344              	.LVL30:
 345              	.LEHE0:
 346 0088 0546     		mov	r5, r0
 347 008a 2146     		mov	r1, r4
 348              	.LEHB1:
 349 008c FFF7FEFF 		bl	_ZN7ContextC1EP4Mode
 350              	.LVL31:
 351              	.LEHE1:
 125:Core/Src/main.cpp **** Context *outsideIntercom = new Context(new NormalMode);
 352              		.loc 1 125 10 discriminator 2 view .LVU84
 353 0090 1B4B     		ldr	r3, .L17+48
 354 0092 1D60     		str	r5, [r3]
 126:Core/Src/main.cpp **** 
 355              		.loc 1 126 44 discriminator 2 view .LVU85
 356 0094 0820     		movs	r0, #8
 357              	.LEHB2:
 358 0096 FFF7FEFF 		bl	_Znwj
 359              	.LVL32:
 360 009a 0446     		mov	r4, r0
 361              	.LVL33:
 362              	.LBB87:
 363              	.LBI87:
 364              		.loc 2 36 7 is_stmt 1 discriminator 2 view .LVU86
 365              	.LBB88:
 366              	.LBB89:
 367              	.LBI89:
   7:Core/Inc/Intercom.h **** {
 368              		.loc 2 7 7 discriminator 2 view .LVU87
 369              	.LBB90:
 370 009c 164B     		ldr	r3, .L17+40
 371 009e 0360     		str	r3, [r0]
 372              	.LVL34:
   7:Core/Inc/Intercom.h **** {
ARM GAS  C:\Users\Admin\AppData\Local\Temp\ccC9bEpd.s 			page 21


 373              		.loc 2 7 7 is_stmt 0 discriminator 2 view .LVU88
 374              	.LBE90:
 375              	.LBE89:
 376              		.loc 2 36 7 discriminator 2 view .LVU89
 377 00a0 164B     		ldr	r3, .L17+44
 378 00a2 0360     		str	r3, [r0]
 379              	.LVL35:
 380              		.loc 2 36 7 discriminator 2 view .LVU90
 381              	.LBE88:
 382              	.LBE87:
 126:Core/Src/main.cpp **** 
 383              		.loc 1 126 54 discriminator 2 view .LVU91
 384 00a4 0420     		movs	r0, #4
 385 00a6 FFF7FEFF 		bl	_Znwj
 386              	.LVL36:
 387              	.LEHE2:
 388 00aa 0546     		mov	r5, r0
 389 00ac 2146     		mov	r1, r4
 390              	.LEHB3:
 391 00ae FFF7FEFF 		bl	_ZN7ContextC1EP4Mode
 392              	.LVL37:
 393              	.LEHE3:
 126:Core/Src/main.cpp **** 
 394              		.loc 1 126 10 discriminator 2 view .LVU92
 395 00b2 144B     		ldr	r3, .L17+52
 396 00b4 1D60     		str	r5, [r3]
 397              		.loc 1 717 1 discriminator 2 view .LVU93
 398 00b6 ABE7     		b	.L5
 399              	.L9:
 125:Core/Src/main.cpp **** Context *outsideIntercom = new Context(new NormalMode);
 400              		.loc 1 125 53 view .LVU94
 401 00b8 0421     		movs	r1, #4
 402 00ba 2846     		mov	r0, r5
 403 00bc FFF7FEFF 		bl	_ZdlPvj
 404              	.LVL38:
 405              	.LEHB4:
 406 00c0 FFF7FEFF 		bl	__cxa_end_cleanup
 407              	.LVL39:
 408              	.L10:
 126:Core/Src/main.cpp **** 
 409              		.loc 1 126 54 view .LVU95
 410 00c4 0421     		movs	r1, #4
 411 00c6 2846     		mov	r0, r5
 412 00c8 FFF7FEFF 		bl	_ZdlPvj
 413              	.LVL40:
 414 00cc FFF7FEFF 		bl	__cxa_end_cleanup
 415              	.LVL41:
 416              	.LEHE4:
 417              	.L18:
 418              		.align	2
 419              	.L17:
 420 00d0 00100140 		.word	1073811456
 421 00d4 00000000 		.word	.LANCHOR0
 422 00d8 000C0140 		.word	1073810432
 423 00dc 00000000 		.word	.LANCHOR1
 424 00e0 00000000 		.word	.LANCHOR2
 425 00e4 00000000 		.word	.LANCHOR3
ARM GAS  C:\Users\Admin\AppData\Local\Temp\ccC9bEpd.s 			page 22


 426 00e8 00000000 		.word	.LANCHOR4
 427 00ec 00000000 		.word	.LANCHOR5
 428 00f0 00000000 		.word	.LANCHOR6
 429 00f4 00000000 		.word	.LANCHOR7
 430 00f8 08000000 		.word	_ZTV4Mode+8
 431 00fc 08000000 		.word	_ZTV10NormalMode+8
 432 0100 00000000 		.word	.LANCHOR8
 433 0104 00000000 		.word	.LANCHOR9
 434              		.cfi_endproc
 435              	.LFE110:
 436              		.global	__gxx_personality_v0
 437              		.personality	__gxx_personality_v0
 438              		.handlerdata
 439              	.LLSDA110:
 440 0008 FF       		.byte	0xff
 441 0009 FF       		.byte	0xff
 442 000a 01       		.byte	0x1
 443 000b 1A       		.uleb128 .LLSDACSE110-.LLSDACSB110
 444              	.LLSDACSB110:
 445 000c 1A       		.uleb128 .LEHB0-.LFB110
 446 000d 6E       		.uleb128 .LEHE0-.LEHB0
 447 000e 00       		.uleb128 0
 448 000f 00       		.uleb128 0
 449 0010 8C01     		.uleb128 .LEHB1-.LFB110
 450 0012 04       		.uleb128 .LEHE1-.LEHB1
 451 0013 B801     		.uleb128 .L9-.LFB110
 452 0015 00       		.uleb128 0
 453 0016 9601     		.uleb128 .LEHB2-.LFB110
 454 0018 14       		.uleb128 .LEHE2-.LEHB2
 455 0019 00       		.uleb128 0
 456 001a 00       		.uleb128 0
 457 001b AE01     		.uleb128 .LEHB3-.LFB110
 458 001d 04       		.uleb128 .LEHE3-.LEHB3
 459 001e C401     		.uleb128 .L10-.LFB110
 460 0020 00       		.uleb128 0
 461 0021 C001     		.uleb128 .LEHB4-.LFB110
 462 0023 10       		.uleb128 .LEHE4-.LEHB4
 463 0024 00       		.uleb128 0
 464 0025 00       		.uleb128 0
 465              	.LLSDACSE110:
 466              		.section	.text._Z41__static_initialization_and_destruction_0ii
 467              		.fnend
 469              		.section	.text._Z12DenyKeyEventv,"ax",%progbits
 470              		.align	1
 471              		.global	_Z12DenyKeyEventv
 472              		.syntax unified
 473              		.thumb
 474              		.thumb_func
 475              		.fpu softvfp
 477              	_Z12DenyKeyEventv:
 478              		.fnstart
 479              	.LFB95:
 494:Core/Src/main.cpp ****   static Timer denyTimer(0, 0);
 480              		.loc 1 494 1 is_stmt 1 view -0
 481              		.cfi_startproc
 482              		@ args = 0, pretend = 0, frame = 0
 483              		@ frame_needed = 0, uses_anonymous_args = 0
ARM GAS  C:\Users\Admin\AppData\Local\Temp\ccC9bEpd.s 			page 23


 484 0000 10B5     		push	{r4, lr}
 485              		.save {r4, lr}
 486              	.LCFI4:
 487              		.cfi_def_cfa_offset 8
 488              		.cfi_offset 4, -8
 489              		.cfi_offset 14, -4
 495:Core/Src/main.cpp ****   static bool firstTime = true;
 490              		.loc 1 495 3 view .LVU97
 495:Core/Src/main.cpp ****   static bool firstTime = true;
 491              		.loc 1 495 30 is_stmt 0 view .LVU98
 492 0002 364B     		ldr	r3, .L31
 493 0004 1B78     		ldrb	r3, [r3]	@ zero_extendqisi2
 494 0006 BFF35B8F 		dmb	ish
 495 000a 13F0010F 		tst	r3, #1
 496 000e 04D0     		beq	.L28
 497              	.L20:
 496:Core/Src/main.cpp **** 
 498              		.loc 1 496 3 is_stmt 1 view .LVU99
 498:Core/Src/main.cpp ****   {
 499              		.loc 1 498 3 view .LVU100
 498:Core/Src/main.cpp ****   {
 500              		.loc 1 498 16 is_stmt 0 view .LVU101
 501 0010 334B     		ldr	r3, .L31+4
 502 0012 1B68     		ldr	r3, [r3]
 498:Core/Src/main.cpp ****   {
 503              		.loc 1 498 3 view .LVU102
 504 0014 012B     		cmp	r3, #1
 505 0016 0ED0     		beq	.L29
 506              	.L19:
 528:Core/Src/main.cpp **** 
 507              		.loc 1 528 1 view .LVU103
 508 0018 10BD     		pop	{r4, pc}
 509              	.L28:
 495:Core/Src/main.cpp ****   static bool firstTime = true;
 510              		.loc 1 495 30 discriminator 1 view .LVU104
 511 001a 3048     		ldr	r0, .L31
 512 001c FFF7FEFF 		bl	__cxa_guard_acquire
 513              	.LVL42:
 514 0020 0028     		cmp	r0, #0
 515 0022 F5D0     		beq	.L20
 495:Core/Src/main.cpp ****   static bool firstTime = true;
 516              		.loc 1 495 30 discriminator 2 view .LVU105
 517 0024 0022     		movs	r2, #0
 518 0026 1146     		mov	r1, r2
 519 0028 2E48     		ldr	r0, .L31+8
 520              	.LEHB5:
 521 002a FFF7FEFF 		bl	_ZN5TimerC1Emm
 522              	.LVL43:
 523              	.LEHE5:
 495:Core/Src/main.cpp ****   static bool firstTime = true;
 524              		.loc 1 495 30 discriminator 4 view .LVU106
 525 002e 2B48     		ldr	r0, .L31
 526 0030 FFF7FEFF 		bl	__cxa_guard_release
 527              	.LVL44:
 528 0034 ECE7     		b	.L20
 529              	.L29:
 500:Core/Src/main.cpp ****     {
ARM GAS  C:\Users\Admin\AppData\Local\Temp\ccC9bEpd.s 			page 24


 530              		.loc 1 500 5 is_stmt 1 view .LVU107
 531 0036 2C4B     		ldr	r3, .L31+12
 532 0038 1B78     		ldrb	r3, [r3]	@ zero_extendqisi2
 533 003a E3B9     		cbnz	r3, .L30
 534              	.L22:
 506:Core/Src/main.cpp ****     {
 535              		.loc 1 506 5 view .LVU108
 536              	.LEHB6:
 506:Core/Src/main.cpp ****     {
 537              		.loc 1 506 20 is_stmt 0 view .LVU109
 538 003c FFF7FEFF 		bl	HAL_GetTick
 539              	.LVL45:
 540 0040 0446     		mov	r4, r0
 506:Core/Src/main.cpp ****     {
 541              		.loc 1 506 47 view .LVU110
 542 0042 2848     		ldr	r0, .L31+8
 543 0044 FFF7FEFF 		bl	_ZN5Timer12getStartTimeEv
 544              	.LVL46:
 506:Core/Src/main.cpp ****     {
 545              		.loc 1 506 23 view .LVU111
 546 0048 241A     		subs	r4, r4, r0
 506:Core/Src/main.cpp ****     {
 547              		.loc 1 506 5 view .LVU112
 548 004a B4F5967F 		cmp	r4, #300
 549 004e 32D2     		bcs	.L23
 508:Core/Src/main.cpp ****       {
 550              		.loc 1 508 7 is_stmt 1 view .LVU113
 508:Core/Src/main.cpp ****       {
 551              		.loc 1 508 22 is_stmt 0 view .LVU114
 552 0050 FFF7FEFF 		bl	HAL_GetTick
 553              	.LVL47:
 554 0054 0446     		mov	r4, r0
 508:Core/Src/main.cpp ****       {
 555              		.loc 1 508 48 view .LVU115
 556 0056 2348     		ldr	r0, .L31+8
 557 0058 FFF7FEFF 		bl	_ZN5Timer11getLastTickEv
 558              	.LVL48:
 508:Core/Src/main.cpp ****       {
 559              		.loc 1 508 25 view .LVU116
 560 005c 241A     		subs	r4, r4, r0
 508:Core/Src/main.cpp ****       {
 561              		.loc 1 508 7 view .LVU117
 562 005e 962C     		cmp	r4, #150
 563 0060 10D9     		bls	.L24
 510:Core/Src/main.cpp ****         insideZumer.turnOn();
 564              		.loc 1 510 9 is_stmt 1 view .LVU118
 510:Core/Src/main.cpp ****         insideZumer.turnOn();
 565              		.loc 1 510 30 is_stmt 0 view .LVU119
 566 0062 2048     		ldr	r0, .L31+8
 567 0064 FFF7FEFF 		bl	_ZN5Timer11setLastTickEv
 568              	.LVL49:
 511:Core/Src/main.cpp ****         outsideZumer.turnOn();
 569              		.loc 1 511 9 is_stmt 1 view .LVU120
 511:Core/Src/main.cpp ****         outsideZumer.turnOn();
 570              		.loc 1 511 27 is_stmt 0 view .LVU121
 571 0068 2048     		ldr	r0, .L31+16
 572 006a FFF7FEFF 		bl	_ZN14InvertedPinOut6turnOnEv
ARM GAS  C:\Users\Admin\AppData\Local\Temp\ccC9bEpd.s 			page 25


 573              	.LVL50:
 512:Core/Src/main.cpp ****       }
 574              		.loc 1 512 9 is_stmt 1 view .LVU122
 512:Core/Src/main.cpp ****       }
 575              		.loc 1 512 28 is_stmt 0 view .LVU123
 576 006e 2048     		ldr	r0, .L31+20
 577 0070 FFF7FEFF 		bl	_ZN14InvertedPinOut6turnOnEv
 578              	.LVL51:
 579 0074 D0E7     		b	.L19
 580              	.L30:
 502:Core/Src/main.cpp ****       firstTime = false;
 581              		.loc 1 502 7 is_stmt 1 view .LVU124
 502:Core/Src/main.cpp ****       firstTime = false;
 582              		.loc 1 502 22 is_stmt 0 view .LVU125
 583 0076 1B48     		ldr	r0, .L31+8
 584 0078 FFF7FEFF 		bl	_ZN5Timer5startEv
 585              	.LVL52:
 503:Core/Src/main.cpp ****     }
 586              		.loc 1 503 7 is_stmt 1 view .LVU126
 503:Core/Src/main.cpp ****     }
 587              		.loc 1 503 17 is_stmt 0 view .LVU127
 588 007c 1A4B     		ldr	r3, .L31+12
 589 007e 0022     		movs	r2, #0
 590 0080 1A70     		strb	r2, [r3]
 591 0082 DBE7     		b	.L22
 592              	.L24:
 514:Core/Src/main.cpp ****       {
 593              		.loc 1 514 12 is_stmt 1 view .LVU128
 514:Core/Src/main.cpp ****       {
 594              		.loc 1 514 27 is_stmt 0 view .LVU129
 595 0084 FFF7FEFF 		bl	HAL_GetTick
 596              	.LVL53:
 597 0088 0446     		mov	r4, r0
 514:Core/Src/main.cpp ****       {
 598              		.loc 1 514 53 view .LVU130
 599 008a 1648     		ldr	r0, .L31+8
 600 008c FFF7FEFF 		bl	_ZN5Timer11getLastTickEv
 601              	.LVL54:
 514:Core/Src/main.cpp ****       {
 602              		.loc 1 514 30 view .LVU131
 603 0090 241A     		subs	r4, r4, r0
 514:Core/Src/main.cpp ****       {
 604              		.loc 1 514 62 view .LVU132
 605 0092 952C     		cmp	r4, #149
 606 0094 C0D8     		bhi	.L19
 514:Core/Src/main.cpp ****       {
 607              		.loc 1 514 76 discriminator 1 view .LVU133
 608 0096 FFF7FEFF 		bl	HAL_GetTick
 609              	.LVL55:
 610 009a 0446     		mov	r4, r0
 514:Core/Src/main.cpp ****       {
 611              		.loc 1 514 102 discriminator 1 view .LVU134
 612 009c 1148     		ldr	r0, .L31+8
 613 009e FFF7FEFF 		bl	_ZN5Timer11getLastTickEv
 614              	.LVL56:
 514:Core/Src/main.cpp ****       {
 615              		.loc 1 514 79 discriminator 1 view .LVU135
ARM GAS  C:\Users\Admin\AppData\Local\Temp\ccC9bEpd.s 			page 26


 616 00a2 241A     		subs	r4, r4, r0
 514:Core/Src/main.cpp ****       {
 617              		.loc 1 514 62 discriminator 1 view .LVU136
 618 00a4 4B2C     		cmp	r4, #75
 619 00a6 B7D9     		bls	.L19
 516:Core/Src/main.cpp ****         outsideZumer.turnOff();
 620              		.loc 1 516 9 is_stmt 1 view .LVU137
 516:Core/Src/main.cpp ****         outsideZumer.turnOff();
 621              		.loc 1 516 28 is_stmt 0 view .LVU138
 622 00a8 1048     		ldr	r0, .L31+16
 623 00aa FFF7FEFF 		bl	_ZN14InvertedPinOut7turnOffEv
 624              	.LVL57:
 517:Core/Src/main.cpp ****       }
 625              		.loc 1 517 9 is_stmt 1 view .LVU139
 517:Core/Src/main.cpp ****       }
 626              		.loc 1 517 29 is_stmt 0 view .LVU140
 627 00ae 1048     		ldr	r0, .L31+20
 628 00b0 FFF7FEFF 		bl	_ZN14InvertedPinOut7turnOffEv
 629              	.LVL58:
 630 00b4 B0E7     		b	.L19
 631              	.L23:
 522:Core/Src/main.cpp ****       insideZumer.turnOff();
 632              		.loc 1 522 7 is_stmt 1 view .LVU141
 522:Core/Src/main.cpp ****       insideZumer.turnOff();
 633              		.loc 1 522 16 is_stmt 0 view .LVU142
 634 00b6 0F4B     		ldr	r3, .L31+24
 635 00b8 1A68     		ldr	r2, [r3]
 636 00ba 094B     		ldr	r3, .L31+4
 637 00bc 1A60     		str	r2, [r3]
 523:Core/Src/main.cpp ****       outsideZumer.turnOff();
 638              		.loc 1 523 7 is_stmt 1 view .LVU143
 523:Core/Src/main.cpp ****       outsideZumer.turnOff();
 639              		.loc 1 523 26 is_stmt 0 view .LVU144
 640 00be 0B48     		ldr	r0, .L31+16
 641 00c0 FFF7FEFF 		bl	_ZN14InvertedPinOut7turnOffEv
 642              	.LVL59:
 524:Core/Src/main.cpp ****       firstTime = true;
 643              		.loc 1 524 7 is_stmt 1 view .LVU145
 524:Core/Src/main.cpp ****       firstTime = true;
 644              		.loc 1 524 27 is_stmt 0 view .LVU146
 645 00c4 0A48     		ldr	r0, .L31+20
 646 00c6 FFF7FEFF 		bl	_ZN14InvertedPinOut7turnOffEv
 647              	.LVL60:
 525:Core/Src/main.cpp ****     }
 648              		.loc 1 525 7 is_stmt 1 view .LVU147
 525:Core/Src/main.cpp ****     }
 649              		.loc 1 525 17 is_stmt 0 view .LVU148
 650 00ca 074B     		ldr	r3, .L31+12
 651 00cc 0122     		movs	r2, #1
 652 00ce 1A70     		strb	r2, [r3]
 528:Core/Src/main.cpp **** 
 653              		.loc 1 528 1 view .LVU149
 654 00d0 A2E7     		b	.L19
 655              	.L26:
 495:Core/Src/main.cpp ****   static bool firstTime = true;
 656              		.loc 1 495 30 view .LVU150
 657 00d2 0248     		ldr	r0, .L31
ARM GAS  C:\Users\Admin\AppData\Local\Temp\ccC9bEpd.s 			page 27


 658 00d4 FFF7FEFF 		bl	__cxa_guard_abort
 659              	.LVL61:
 660 00d8 FFF7FEFF 		bl	__cxa_end_cleanup
 661              	.LVL62:
 662              	.LEHE6:
 663              	.L32:
 664              		.align	2
 665              	.L31:
 666 00dc 00000000 		.word	.LANCHOR10
 667 00e0 00000000 		.word	workMode
 668 00e4 00000000 		.word	.LANCHOR11
 669 00e8 00000000 		.word	.LANCHOR12
 670 00ec 00000000 		.word	.LANCHOR3
 671 00f0 00000000 		.word	.LANCHOR4
 672 00f4 00000000 		.word	previousWorkMode
 673              		.cfi_endproc
 674              	.LFE95:
 675              		.personality	__gxx_personality_v0
 676              		.handlerdata
 677              	.LLSDA95:
 678 0008 FF       		.byte	0xff
 679 0009 FF       		.byte	0xff
 680 000a 01       		.byte	0x1
 681 000b 0A       		.uleb128 .LLSDACSE95-.LLSDACSB95
 682              	.LLSDACSB95:
 683 000c 2A       		.uleb128 .LEHB5-.LFB95
 684 000d 04       		.uleb128 .LEHE5-.LEHB5
 685 000e D201     		.uleb128 .L26-.LFB95
 686 0010 00       		.uleb128 0
 687 0011 3C       		.uleb128 .LEHB6-.LFB95
 688 0012 A001     		.uleb128 .LEHE6-.LEHB6
 689 0014 00       		.uleb128 0
 690 0015 00       		.uleb128 0
 691              	.LLSDACSE95:
 692              		.section	.text._Z12DenyKeyEventv
 693              		.fnend
 695              		.section	.text.HAL_GPIO_EXTI_Callback,"ax",%progbits
 696              		.align	1
 697              		.global	HAL_GPIO_EXTI_Callback
 698              		.syntax unified
 699              		.thumb
 700              		.thumb_func
 701              		.fpu softvfp
 703              	HAL_GPIO_EXTI_Callback:
 704              		.fnstart
 705              	.LVL63:
 706              	.LFB97:
 566:Core/Src/main.cpp ****   switch (GPIO_Pin)
 707              		.loc 1 566 1 is_stmt 1 view -0
 708              		.cfi_startproc
 709              		@ args = 0, pretend = 0, frame = 0
 710              		@ frame_needed = 0, uses_anonymous_args = 0
 566:Core/Src/main.cpp ****   switch (GPIO_Pin)
 711              		.loc 1 566 1 is_stmt 0 view .LVU152
 712 0000 08B5     		push	{r3, lr}
 713              		.save {r3, lr}
 714              	.LCFI5:
ARM GAS  C:\Users\Admin\AppData\Local\Temp\ccC9bEpd.s 			page 28


 715              		.cfi_def_cfa_offset 8
 716              		.cfi_offset 3, -8
 717              		.cfi_offset 14, -4
 567:Core/Src/main.cpp ****   {
 718              		.loc 1 567 3 is_stmt 1 view .LVU153
 719 0002 0828     		cmp	r0, #8
 720 0004 0AD8     		bhi	.L34
 721 0006 03B2     		sxth	r3, r0
 722 0008 2BB3     		cbz	r3, .L33
 723 000a 0138     		subs	r0, r0, #1
 724              	.LVL64:
 567:Core/Src/main.cpp ****   {
 725              		.loc 1 567 3 is_stmt 0 view .LVU154
 726 000c 0728     		cmp	r0, #7
 727 000e 22D8     		bhi	.L33
 728 0010 DFE800F0 		tbb	[pc, r0]
 729              	.LVL65:
 730              	.L37:
 731 0014 26       		.byte	(.L40-.L37)/2
 732 0015 30       		.byte	(.L39-.L37)/2
 733 0016 21       		.byte	(.L33-.L37)/2
 734 0017 1E       		.byte	(.L38-.L37)/2
 735 0018 21       		.byte	(.L33-.L37)/2
 736 0019 21       		.byte	(.L33-.L37)/2
 737 001a 21       		.byte	(.L33-.L37)/2
 738 001b 22       		.byte	(.L36-.L37)/2
 739              		.p2align 1
 740              	.L34:
 567:Core/Src/main.cpp ****   {
 741              		.loc 1 567 3 view .LVU155
 742 001c 8028     		cmp	r0, #128
 743 001e 33D0     		beq	.L41
 744 0020 B0F5807F 		cmp	r0, #256
 745 0024 09D1     		bne	.L45
 579:Core/Src/main.cpp ****   {
 746              		.loc 1 579 3 is_stmt 1 view .LVU156
 580:Core/Src/main.cpp ****     if (doorSensorFirstTime)
 747              		.loc 1 580 3 view .LVU157
 581:Core/Src/main.cpp ****     {
 748              		.loc 1 581 5 view .LVU158
 749 0026 1D4B     		ldr	r3, .L46
 750 0028 1B78     		ldrb	r3, [r3]	@ zero_extendqisi2
 751 002a A3B1     		cbz	r3, .L33
 583:Core/Src/main.cpp ****       doorSensorFirstTime = false;
 752              		.loc 1 583 7 view .LVU159
 583:Core/Src/main.cpp ****       doorSensorFirstTime = false;
 753              		.loc 1 583 28 is_stmt 0 view .LVU160
 754 002c 1C48     		ldr	r0, .L46+4
 755              	.LVL66:
 583:Core/Src/main.cpp ****       doorSensorFirstTime = false;
 756              		.loc 1 583 28 view .LVU161
 757 002e FFF7FEFF 		bl	_ZN5Timer5startEv
 758              	.LVL67:
 584:Core/Src/main.cpp ****     }
 759              		.loc 1 584 7 is_stmt 1 view .LVU162
 584:Core/Src/main.cpp ****     }
 760              		.loc 1 584 27 is_stmt 0 view .LVU163
ARM GAS  C:\Users\Admin\AppData\Local\Temp\ccC9bEpd.s 			page 29


 761 0032 1A4B     		ldr	r3, .L46
 762 0034 0022     		movs	r2, #0
 763 0036 1A70     		strb	r2, [r3]
 764 0038 0DE0     		b	.L33
 765              	.LVL68:
 766              	.L45:
 567:Core/Src/main.cpp ****   {
 767              		.loc 1 567 3 view .LVU164
 768 003a 4028     		cmp	r0, #64
 769 003c 0BD1     		bne	.L33
 606:Core/Src/main.cpp ****   {
 770              		.loc 1 606 3 is_stmt 1 view .LVU165
 607:Core/Src/main.cpp ****     if (wig_flag_inrt)
 771              		.loc 1 607 3 view .LVU166
 608:Core/Src/main.cpp ****     {
 772              		.loc 1 608 5 view .LVU167
 608:Core/Src/main.cpp ****     {
 773              		.loc 1 608 9 is_stmt 0 view .LVU168
 774 003e 194B     		ldr	r3, .L46+8
 775 0040 1B78     		ldrb	r3, [r3]	@ zero_extendqisi2
 608:Core/Src/main.cpp ****     {
 776              		.loc 1 608 5 view .LVU169
 777 0042 43B1     		cbz	r3, .L33
 610:Core/Src/main.cpp ****       outsideKeyRead = true;
 778              		.loc 1 610 7 is_stmt 1 view .LVU170
 610:Core/Src/main.cpp ****       outsideKeyRead = true;
 779              		.loc 1 610 13 is_stmt 0 view .LVU171
 780 0044 FFF7FEFF 		bl	ReadD0
 781              	.LVL69:
 611:Core/Src/main.cpp ****     }
 782              		.loc 1 611 7 is_stmt 1 view .LVU172
 611:Core/Src/main.cpp ****     }
 783              		.loc 1 611 22 is_stmt 0 view .LVU173
 784 0048 174B     		ldr	r3, .L46+12
 785 004a 0122     		movs	r2, #1
 786 004c 1A70     		strb	r2, [r3]
 787 004e 02E0     		b	.L33
 788              	.L38:
 569:Core/Src/main.cpp ****   {
 789              		.loc 1 569 3 is_stmt 1 view .LVU174
 570:Core/Src/main.cpp ****     insideButtonPressed = true;
 790              		.loc 1 570 3 view .LVU175
 571:Core/Src/main.cpp ****     break;
 791              		.loc 1 571 5 view .LVU176
 571:Core/Src/main.cpp ****     break;
 792              		.loc 1 571 25 is_stmt 0 view .LVU177
 793 0050 164B     		ldr	r3, .L46+16
 794 0052 0122     		movs	r2, #1
 795 0054 1A70     		strb	r2, [r3]
 572:Core/Src/main.cpp ****   }
 796              		.loc 1 572 5 is_stmt 1 view .LVU178
 797              	.L33:
 629:Core/Src/main.cpp **** 
 798              		.loc 1 629 1 is_stmt 0 view .LVU179
 799 0056 08BD     		pop	{r3, pc}
 800              	.L36:
 574:Core/Src/main.cpp ****   {
ARM GAS  C:\Users\Admin\AppData\Local\Temp\ccC9bEpd.s 			page 30


 801              		.loc 1 574 3 is_stmt 1 view .LVU180
 575:Core/Src/main.cpp ****     outsideButtonPressed = true;
 802              		.loc 1 575 3 view .LVU181
 576:Core/Src/main.cpp ****     break;
 803              		.loc 1 576 5 view .LVU182
 576:Core/Src/main.cpp ****     break;
 804              		.loc 1 576 26 is_stmt 0 view .LVU183
 805 0058 154B     		ldr	r3, .L46+20
 806 005a 0122     		movs	r2, #1
 807 005c 1A70     		strb	r2, [r3]
 577:Core/Src/main.cpp ****   }
 808              		.loc 1 577 5 is_stmt 1 view .LVU184
 809 005e FAE7     		b	.L33
 810              	.L40:
 588:Core/Src/main.cpp ****   {
 811              		.loc 1 588 3 view .LVU185
 589:Core/Src/main.cpp ****     if (wig_flag_inrt)
 812              		.loc 1 589 3 view .LVU186
 590:Core/Src/main.cpp ****     {
 813              		.loc 1 590 5 view .LVU187
 590:Core/Src/main.cpp ****     {
 814              		.loc 1 590 9 is_stmt 0 view .LVU188
 815 0060 104B     		ldr	r3, .L46+8
 816 0062 1B78     		ldrb	r3, [r3]	@ zero_extendqisi2
 590:Core/Src/main.cpp ****     {
 817              		.loc 1 590 5 view .LVU189
 818 0064 002B     		cmp	r3, #0
 819 0066 F6D0     		beq	.L33
 592:Core/Src/main.cpp ****       insideKeyRead = true;
 820              		.loc 1 592 7 is_stmt 1 view .LVU190
 592:Core/Src/main.cpp ****       insideKeyRead = true;
 821              		.loc 1 592 13 is_stmt 0 view .LVU191
 822 0068 FFF7FEFF 		bl	ReadD0
 823              	.LVL70:
 593:Core/Src/main.cpp ****     }
 824              		.loc 1 593 7 is_stmt 1 view .LVU192
 593:Core/Src/main.cpp ****     }
 825              		.loc 1 593 21 is_stmt 0 view .LVU193
 826 006c 114B     		ldr	r3, .L46+24
 827 006e 0122     		movs	r2, #1
 828 0070 1A70     		strb	r2, [r3]
 829 0072 F0E7     		b	.L33
 830              	.L39:
 597:Core/Src/main.cpp ****   {
 831              		.loc 1 597 3 is_stmt 1 view .LVU194
 598:Core/Src/main.cpp ****     if (wig_flag_inrt)
 832              		.loc 1 598 3 view .LVU195
 599:Core/Src/main.cpp ****     {
 833              		.loc 1 599 5 view .LVU196
 599:Core/Src/main.cpp ****     {
 834              		.loc 1 599 9 is_stmt 0 view .LVU197
 835 0074 0B4B     		ldr	r3, .L46+8
 836 0076 1B78     		ldrb	r3, [r3]	@ zero_extendqisi2
 599:Core/Src/main.cpp ****     {
 837              		.loc 1 599 5 view .LVU198
 838 0078 002B     		cmp	r3, #0
 839 007a ECD0     		beq	.L33
ARM GAS  C:\Users\Admin\AppData\Local\Temp\ccC9bEpd.s 			page 31


 601:Core/Src/main.cpp ****       insideKeyRead = true;
 840              		.loc 1 601 7 is_stmt 1 view .LVU199
 601:Core/Src/main.cpp ****       insideKeyRead = true;
 841              		.loc 1 601 13 is_stmt 0 view .LVU200
 842 007c FFF7FEFF 		bl	ReadD1
 843              	.LVL71:
 602:Core/Src/main.cpp ****     }
 844              		.loc 1 602 7 is_stmt 1 view .LVU201
 602:Core/Src/main.cpp ****     }
 845              		.loc 1 602 21 is_stmt 0 view .LVU202
 846 0080 0C4B     		ldr	r3, .L46+24
 847 0082 0122     		movs	r2, #1
 848 0084 1A70     		strb	r2, [r3]
 849 0086 E6E7     		b	.L33
 850              	.LVL72:
 851              	.L41:
 615:Core/Src/main.cpp ****   {
 852              		.loc 1 615 3 is_stmt 1 view .LVU203
 616:Core/Src/main.cpp ****     if (wig_flag_inrt)
 853              		.loc 1 616 3 view .LVU204
 617:Core/Src/main.cpp ****     {
 854              		.loc 1 617 5 view .LVU205
 617:Core/Src/main.cpp ****     {
 855              		.loc 1 617 9 is_stmt 0 view .LVU206
 856 0088 064B     		ldr	r3, .L46+8
 857 008a 1B78     		ldrb	r3, [r3]	@ zero_extendqisi2
 617:Core/Src/main.cpp ****     {
 858              		.loc 1 617 5 view .LVU207
 859 008c 002B     		cmp	r3, #0
 860 008e E2D0     		beq	.L33
 619:Core/Src/main.cpp ****       outsideKeyRead = true;
 861              		.loc 1 619 7 is_stmt 1 view .LVU208
 619:Core/Src/main.cpp ****       outsideKeyRead = true;
 862              		.loc 1 619 13 is_stmt 0 view .LVU209
 863 0090 FFF7FEFF 		bl	ReadD1
 864              	.LVL73:
 620:Core/Src/main.cpp ****     }
 865              		.loc 1 620 7 is_stmt 1 view .LVU210
 620:Core/Src/main.cpp ****     }
 866              		.loc 1 620 22 is_stmt 0 view .LVU211
 867 0094 044B     		ldr	r3, .L46+12
 868 0096 0122     		movs	r2, #1
 869 0098 1A70     		strb	r2, [r3]
 629:Core/Src/main.cpp **** 
 870              		.loc 1 629 1 view .LVU212
 871 009a DCE7     		b	.L33
 872              	.L47:
 873              		.align	2
 874              	.L46:
 875 009c 00000000 		.word	doorSensorFirstTime
 876 00a0 00000000 		.word	.LANCHOR7
 877 00a4 00000000 		.word	.LANCHOR13
 878 00a8 00000000 		.word	.LANCHOR15
 879 00ac 00000000 		.word	insideButtonPressed
 880 00b0 00000000 		.word	outsideButtonPressed
 881 00b4 00000000 		.word	.LANCHOR14
 882              		.cfi_endproc
ARM GAS  C:\Users\Admin\AppData\Local\Temp\ccC9bEpd.s 			page 32


 883              	.LFE97:
 884              		.fnend
 886              		.section	.text._Z11UART_PrintfPKcz,"ax",%progbits
 887              		.align	1
 888              		.global	_Z11UART_PrintfPKcz
 889              		.syntax unified
 890              		.thumb
 891              		.thumb_func
 892              		.fpu softvfp
 894              	_Z11UART_PrintfPKcz:
 895              		.fnstart
 896              	.LVL74:
 897              	.LFB98:
 632:Core/Src/main.cpp ****   char buff[256];
 898              		.loc 1 632 1 is_stmt 1 view -0
 899              		.cfi_startproc
 900              		@ args = 4, pretend = 16, frame = 264
 901              		@ frame_needed = 0, uses_anonymous_args = 1
 632:Core/Src/main.cpp ****   char buff[256];
 902              		.loc 1 632 1 is_stmt 0 view .LVU214
 903 0000 0FB4     		push	{r0, r1, r2, r3}
 904              		.save {r0, r1, r2, r3}
 905              	.LCFI6:
 906              		.cfi_def_cfa_offset 16
 907              		.cfi_offset 0, -16
 908              		.cfi_offset 1, -12
 909              		.cfi_offset 2, -8
 910              		.cfi_offset 3, -4
 911 0002 00B5     		push	{lr}
 912              		.save {lr}
 913              	.LCFI7:
 914              		.cfi_def_cfa_offset 20
 915              		.cfi_offset 14, -20
 916              		.pad #268
 917 0004 C3B0     		sub	sp, sp, #268
 918              	.LCFI8:
 919              		.cfi_def_cfa_offset 288
 920 0006 44AB     		add	r3, sp, #272
 921 0008 53F8042B 		ldr	r2, [r3], #4
 633:Core/Src/main.cpp ****   va_list args;
 922              		.loc 1 633 3 is_stmt 1 view .LVU215
 634:Core/Src/main.cpp ****   va_start(args, fmt);
 923              		.loc 1 634 3 view .LVU216
 635:Core/Src/main.cpp ****   vsnprintf(buff, sizeof(buff), fmt, args);
 924              		.loc 1 635 3 view .LVU217
 925 000c 0193     		str	r3, [sp, #4]
 636:Core/Src/main.cpp ****   HAL_UART_Transmit(&huart1, (uint8_t *)buff, strlen(buff), HAL_MAX_DELAY);
 926              		.loc 1 636 3 view .LVU218
 636:Core/Src/main.cpp ****   HAL_UART_Transmit(&huart1, (uint8_t *)buff, strlen(buff), HAL_MAX_DELAY);
 927              		.loc 1 636 12 is_stmt 0 view .LVU219
 928 000e 4FF48071 		mov	r1, #256
 929 0012 02A8     		add	r0, sp, #8
 930 0014 FFF7FEFF 		bl	vsnprintf
 931              	.LVL75:
 637:Core/Src/main.cpp ****   va_end(args);
 932              		.loc 1 637 3 is_stmt 1 view .LVU220
 637:Core/Src/main.cpp ****   va_end(args);
ARM GAS  C:\Users\Admin\AppData\Local\Temp\ccC9bEpd.s 			page 33


 933              		.loc 1 637 53 is_stmt 0 view .LVU221
 934 0018 02A8     		add	r0, sp, #8
 935 001a FFF7FEFF 		bl	strlen
 936              	.LVL76:
 637:Core/Src/main.cpp ****   va_end(args);
 937              		.loc 1 637 20 view .LVU222
 938 001e 4FF0FF33 		mov	r3, #-1
 939 0022 82B2     		uxth	r2, r0
 940 0024 02A9     		add	r1, sp, #8
 941 0026 0448     		ldr	r0, .L50
 942 0028 FFF7FEFF 		bl	HAL_UART_Transmit
 943              	.LVL77:
 638:Core/Src/main.cpp **** }
 944              		.loc 1 638 3 is_stmt 1 view .LVU223
 639:Core/Src/main.cpp **** 
 945              		.loc 1 639 1 is_stmt 0 view .LVU224
 946 002c 43B0     		add	sp, sp, #268
 947              	.LCFI9:
 948              		.cfi_def_cfa_offset 20
 949              		@ sp needed
 950 002e 5DF804EB 		ldr	lr, [sp], #4
 951              	.LCFI10:
 952              		.cfi_restore 14
 953              		.cfi_def_cfa_offset 16
 954 0032 04B0     		add	sp, sp, #16
 955              	.LCFI11:
 956              		.cfi_restore 3
 957              		.cfi_restore 2
 958              		.cfi_restore 1
 959              		.cfi_restore 0
 960              		.cfi_def_cfa_offset 0
 961 0034 7047     		bx	lr
 962              	.L51:
 963 0036 00BF     		.align	2
 964              	.L50:
 965 0038 00000000 		.word	.LANCHOR16
 966              		.cfi_endproc
 967              	.LFE98:
 968              		.fnend
 970              		.section	.rodata._Z14TimeTrackEventv.str1.4,"aMS",%progbits,1
 971              		.align	2
 972              	.LC0:
 973 0000 20736563 		.ascii	" sec.\000"
 973      2E00
 974 0006 0000     		.align	2
 975              	.LC1:
 976 0008 54696D65 		.ascii	"Time passed: %d%s\015\012\000"
 976      20706173 
 976      7365643A 
 976      20256425 
 976      730D0A00 
 977              		.section	.text._Z14TimeTrackEventv,"ax",%progbits
 978              		.align	1
 979              		.global	_Z14TimeTrackEventv
 980              		.syntax unified
 981              		.thumb
 982              		.thumb_func
ARM GAS  C:\Users\Admin\AppData\Local\Temp\ccC9bEpd.s 			page 34


 983              		.fpu softvfp
 985              	_Z14TimeTrackEventv:
 986              		.fnstart
 987              	.LFB88:
 290:Core/Src/main.cpp ****   if ((HAL_GetTick() - timmeTrack) > 5000)
 988              		.loc 1 290 1 is_stmt 1 view -0
 989              		.cfi_startproc
 990              		@ args = 0, pretend = 0, frame = 0
 991              		@ frame_needed = 0, uses_anonymous_args = 0
 992 0000 08B5     		push	{r3, lr}
 993              		.save {r3, lr}
 994              	.LCFI12:
 995              		.cfi_def_cfa_offset 8
 996              		.cfi_offset 3, -8
 997              		.cfi_offset 14, -4
 291:Core/Src/main.cpp ****   {
 998              		.loc 1 291 3 view .LVU226
 291:Core/Src/main.cpp ****   {
 999              		.loc 1 291 19 is_stmt 0 view .LVU227
 1000 0002 FFF7FEFF 		bl	HAL_GetTick
 1001              	.LVL78:
 291:Core/Src/main.cpp ****   {
 1002              		.loc 1 291 22 view .LVU228
 1003 0006 0D4B     		ldr	r3, .L56
 1004 0008 1B68     		ldr	r3, [r3]
 1005 000a C01A     		subs	r0, r0, r3
 291:Core/Src/main.cpp ****   {
 1006              		.loc 1 291 3 view .LVU229
 1007 000c 41F28833 		movw	r3, #5000
 1008 0010 9842     		cmp	r0, r3
 1009 0012 00D8     		bhi	.L55
 1010              	.L52:
 296:Core/Src/main.cpp **** 
 1011              		.loc 1 296 1 view .LVU230
 1012 0014 08BD     		pop	{r3, pc}
 1013              	.L55:
 293:Core/Src/main.cpp ****     timmeTrack = HAL_GetTick();
 1014              		.loc 1 293 5 is_stmt 1 view .LVU231
 293:Core/Src/main.cpp ****     timmeTrack = HAL_GetTick();
 1015              		.loc 1 293 54 is_stmt 0 view .LVU232
 1016 0016 FFF7FEFF 		bl	HAL_GetTick
 1017              	.LVL79:
 293:Core/Src/main.cpp ****     timmeTrack = HAL_GetTick();
 1018              		.loc 1 293 57 view .LVU233
 1019 001a 094B     		ldr	r3, .L56+4
 1020 001c 1968     		ldr	r1, [r3]
 1021 001e 411A     		subs	r1, r0, r1
 293:Core/Src/main.cpp ****     timmeTrack = HAL_GetTick();
 1022              		.loc 1 293 16 view .LVU234
 1023 0020 0848     		ldr	r0, .L56+8
 1024 0022 A0FB0131 		umull	r3, r1, r0, r1
 1025 0026 084A     		ldr	r2, .L56+12
 1026 0028 8909     		lsrs	r1, r1, #6
 1027 002a 0848     		ldr	r0, .L56+16
 1028 002c FFF7FEFF 		bl	_Z11UART_PrintfPKcz
 1029              	.LVL80:
 294:Core/Src/main.cpp ****   }
ARM GAS  C:\Users\Admin\AppData\Local\Temp\ccC9bEpd.s 			page 35


 1030              		.loc 1 294 5 is_stmt 1 view .LVU235
 294:Core/Src/main.cpp ****   }
 1031              		.loc 1 294 29 is_stmt 0 view .LVU236
 1032 0030 FFF7FEFF 		bl	HAL_GetTick
 1033              	.LVL81:
 294:Core/Src/main.cpp ****   }
 1034              		.loc 1 294 16 view .LVU237
 1035 0034 014B     		ldr	r3, .L56
 1036 0036 1860     		str	r0, [r3]
 296:Core/Src/main.cpp **** 
 1037              		.loc 1 296 1 view .LVU238
 1038 0038 ECE7     		b	.L52
 1039              	.L57:
 1040 003a 00BF     		.align	2
 1041              	.L56:
 1042 003c 00000000 		.word	.LANCHOR17
 1043 0040 00000000 		.word	.LANCHOR18
 1044 0044 D34D6210 		.word	274877907
 1045 0048 00000000 		.word	.LC0
 1046 004c 08000000 		.word	.LC1
 1047              		.cfi_endproc
 1048              	.LFE88:
 1049              		.fnend
 1051              		.section	.rodata._Z15DoorSensorEventv.str1.4,"aMS",%progbits,1
 1052              		.align	2
 1053              	.LC2:
 1054 0000 446F6F72 		.ascii	"Door was closed.\015\012\000"
 1054      20776173 
 1054      20636C6F 
 1054      7365642E 
 1054      0D0A00
 1055 0013 00       		.align	2
 1056              	.LC3:
 1057 0014 446F6F72 		.ascii	"Door was opened.\015\012\000"
 1057      20776173 
 1057      206F7065 
 1057      6E65642E 
 1057      0D0A00
 1058              		.section	.text._Z15DoorSensorEventv,"ax",%progbits
 1059              		.align	1
 1060              		.global	_Z15DoorSensorEventv
 1061              		.syntax unified
 1062              		.thumb
 1063              		.thumb_func
 1064              		.fpu softvfp
 1066              	_Z15DoorSensorEventv:
 1067              		.fnstart
 1068              	.LFB90:
 308:Core/Src/main.cpp ****   if (HAL_GetTick() - doorSensorTimer.getStartTime() > 100 && doorSensorFirstTime == false)
 1069              		.loc 1 308 1 is_stmt 1 view -0
 1070              		.cfi_startproc
 1071              		@ args = 0, pretend = 0, frame = 0
 1072              		@ frame_needed = 0, uses_anonymous_args = 0
 1073 0000 10B5     		push	{r4, lr}
 1074              		.save {r4, lr}
 1075              	.LCFI13:
 1076              		.cfi_def_cfa_offset 8
ARM GAS  C:\Users\Admin\AppData\Local\Temp\ccC9bEpd.s 			page 36


 1077              		.cfi_offset 4, -8
 1078              		.cfi_offset 14, -4
 309:Core/Src/main.cpp ****   {
 1079              		.loc 1 309 3 view .LVU240
 309:Core/Src/main.cpp ****   {
 1080              		.loc 1 309 18 is_stmt 0 view .LVU241
 1081 0002 FFF7FEFF 		bl	HAL_GetTick
 1082              	.LVL82:
 1083 0006 0446     		mov	r4, r0
 309:Core/Src/main.cpp ****   {
 1084              		.loc 1 309 51 view .LVU242
 1085 0008 1648     		ldr	r0, .L66
 1086 000a FFF7FEFF 		bl	_ZN5Timer12getStartTimeEv
 1087              	.LVL83:
 309:Core/Src/main.cpp ****   {
 1088              		.loc 1 309 21 view .LVU243
 1089 000e 241A     		subs	r4, r4, r0
 309:Core/Src/main.cpp ****   {
 1090              		.loc 1 309 60 view .LVU244
 1091 0010 642C     		cmp	r4, #100
 1092 0012 02D9     		bls	.L58
 309:Core/Src/main.cpp ****   {
 1093              		.loc 1 309 83 discriminator 1 view .LVU245
 1094 0014 144B     		ldr	r3, .L66+4
 1095 0016 1B78     		ldrb	r3, [r3]	@ zero_extendqisi2
 309:Core/Src/main.cpp ****   {
 1096              		.loc 1 309 60 discriminator 1 view .LVU246
 1097 0018 03B1     		cbz	r3, .L64
 1098              	.L58:
 329:Core/Src/main.cpp **** 
 1099              		.loc 1 329 1 view .LVU247
 1100 001a 10BD     		pop	{r4, pc}
 1101              	.L64:
 311:Core/Src/main.cpp **** 
 1102              		.loc 1 311 5 is_stmt 1 view .LVU248
 311:Core/Src/main.cpp **** 
 1103              		.loc 1 311 25 is_stmt 0 view .LVU249
 1104 001c 134C     		ldr	r4, .L66+8
 1105 001e 2046     		mov	r0, r4
 1106 0020 FFF7FEFF 		bl	_ZN12InterruptPin15setStateChangedEv
 1107              	.LVL84:
 313:Core/Src/main.cpp ****     {
 1108              		.loc 1 313 5 is_stmt 1 view .LVU250
 313:Core/Src/main.cpp ****     {
 1109              		.loc 1 313 22 is_stmt 0 view .LVU251
 1110 0024 2046     		mov	r0, r4
 1111 0026 FFF7FEFF 		bl	_ZN5PinIn8getStateEv
 1112              	.LVL85:
 313:Core/Src/main.cpp ****     {
 1113              		.loc 1 313 5 view .LVU252
 1114 002a 48B9     		cbnz	r0, .L60
 315:Core/Src/main.cpp ****     }
 1115              		.loc 1 315 7 is_stmt 1 view .LVU253
 315:Core/Src/main.cpp ****     }
 1116              		.loc 1 315 18 is_stmt 0 view .LVU254
 1117 002c 1048     		ldr	r0, .L66+12
 1118 002e FFF7FEFF 		bl	_Z11UART_PrintfPKcz
ARM GAS  C:\Users\Admin\AppData\Local\Temp\ccC9bEpd.s 			page 37


 1119              	.LVL86:
 1120              	.L61:
 322:Core/Src/main.cpp ****     {
 1121              		.loc 1 322 5 is_stmt 1 view .LVU255
 322:Core/Src/main.cpp ****     {
 1122              		.loc 1 322 18 is_stmt 0 view .LVU256
 1123 0032 104B     		ldr	r3, .L66+16
 1124 0034 1B68     		ldr	r3, [r3]
 322:Core/Src/main.cpp ****     {
 1125              		.loc 1 322 44 view .LVU257
 1126 0036 63B9     		cbnz	r3, .L65
 1127              	.L62:
 327:Core/Src/main.cpp ****   }
 1128              		.loc 1 327 5 is_stmt 1 view .LVU258
 327:Core/Src/main.cpp ****   }
 1129              		.loc 1 327 25 is_stmt 0 view .LVU259
 1130 0038 0B4B     		ldr	r3, .L66+4
 1131 003a 0122     		movs	r2, #1
 1132 003c 1A70     		strb	r2, [r3]
 329:Core/Src/main.cpp **** 
 1133              		.loc 1 329 1 view .LVU260
 1134 003e ECE7     		b	.L58
 1135              	.L60:
 317:Core/Src/main.cpp ****     {
 1136              		.loc 1 317 10 is_stmt 1 view .LVU261
 317:Core/Src/main.cpp ****     {
 1137              		.loc 1 317 27 is_stmt 0 view .LVU262
 1138 0040 0A48     		ldr	r0, .L66+8
 1139 0042 FFF7FEFF 		bl	_ZN5PinIn8getStateEv
 1140              	.LVL87:
 317:Core/Src/main.cpp ****     {
 1141              		.loc 1 317 10 view .LVU263
 1142 0046 0128     		cmp	r0, #1
 1143 0048 F3D1     		bne	.L61
 319:Core/Src/main.cpp ****     }
 1144              		.loc 1 319 7 is_stmt 1 view .LVU264
 319:Core/Src/main.cpp ****     }
 1145              		.loc 1 319 18 is_stmt 0 view .LVU265
 1146 004a 0B48     		ldr	r0, .L66+20
 1147 004c FFF7FEFF 		bl	_Z11UART_PrintfPKcz
 1148              	.LVL88:
 1149 0050 EFE7     		b	.L61
 1150              	.L65:
 322:Core/Src/main.cpp ****     {
 1151              		.loc 1 322 60 discriminator 1 view .LVU266
 1152 0052 0648     		ldr	r0, .L66+8
 1153 0054 FFF7FEFF 		bl	_ZN5PinIn8getStateEv
 1154              	.LVL89:
 322:Core/Src/main.cpp ****     {
 1155              		.loc 1 322 44 discriminator 1 view .LVU267
 1156 0058 0128     		cmp	r0, #1
 1157 005a EDD1     		bne	.L62
 324:Core/Src/main.cpp ****     }
 1158              		.loc 1 324 7 is_stmt 1 view .LVU268
 324:Core/Src/main.cpp ****     }
 1159              		.loc 1 324 16 is_stmt 0 view .LVU269
 1160 005c 054B     		ldr	r3, .L66+16
ARM GAS  C:\Users\Admin\AppData\Local\Temp\ccC9bEpd.s 			page 38


 1161 005e 0322     		movs	r2, #3
 1162 0060 1A60     		str	r2, [r3]
 1163 0062 E9E7     		b	.L62
 1164              	.L67:
 1165              		.align	2
 1166              	.L66:
 1167 0064 00000000 		.word	.LANCHOR7
 1168 0068 00000000 		.word	doorSensorFirstTime
 1169 006c 00000000 		.word	.LANCHOR0
 1170 0070 00000000 		.word	.LC2
 1171 0074 00000000 		.word	workMode
 1172 0078 14000000 		.word	.LC3
 1173              		.cfi_endproc
 1174              	.LFE90:
 1175              		.fnend
 1177              		.section	.rodata._Z12KeyReadEventv.str1.4,"aMS",%progbits,1
 1178              		.align	2
 1179              	.LC4:
 1180 0000 496E7369 		.ascii	"Inside intercom gave permission. Key id: %d\015\012"
 1180      64652069 
 1180      6E746572 
 1180      636F6D20 
 1180      67617665 
 1181 002d 00       		.ascii	"\000"
 1182 002e 0000     		.align	2
 1183              	.LC5:
 1184 0030 4F757473 		.ascii	"Outside intercom gave permission. Key id: %d\015\012"
 1184      69646520 
 1184      696E7465 
 1184      72636F6D 
 1184      20676176 
 1185 005e 00       		.ascii	"\000"
 1186 005f 00       		.align	2
 1187              	.LC6:
 1188 0060 41636365 		.ascii	"Acces denied. Key id: %d\015\012\000"
 1188      73206465 
 1188      6E696564 
 1188      2E204B65 
 1188      79206964 
 1189              		.section	.text._Z12KeyReadEventv,"ax",%progbits
 1190              		.align	1
 1191              		.global	_Z12KeyReadEventv
 1192              		.syntax unified
 1193              		.thumb
 1194              		.thumb_func
 1195              		.fpu softvfp
 1197              	_Z12KeyReadEventv:
 1198              		.fnstart
 1199              	.LFB91:
 332:Core/Src/main.cpp ****   if (wig_available())
 1200              		.loc 1 332 1 is_stmt 1 view -0
 1201              		.cfi_startproc
 1202              		@ args = 0, pretend = 0, frame = 0
 1203              		@ frame_needed = 0, uses_anonymous_args = 0
 1204 0000 10B5     		push	{r4, lr}
 1205              		.save {r4, lr}
 1206              	.LCFI14:
ARM GAS  C:\Users\Admin\AppData\Local\Temp\ccC9bEpd.s 			page 39


 1207              		.cfi_def_cfa_offset 8
 1208              		.cfi_offset 4, -8
 1209              		.cfi_offset 14, -4
 333:Core/Src/main.cpp ****   {
 1210              		.loc 1 333 3 view .LVU271
 1211              	.LBB91:
 333:Core/Src/main.cpp ****   {
 1212              		.loc 1 333 20 is_stmt 0 view .LVU272
 1213 0002 FFF7FEFF 		bl	wig_available
 1214              	.LVL90:
 333:Core/Src/main.cpp ****   {
 1215              		.loc 1 333 3 view .LVU273
 1216 0006 E0B1     		cbz	r0, .L68
 1217              	.LBB92:
 335:Core/Src/main.cpp **** 
 1218              		.loc 1 335 5 is_stmt 1 view .LVU274
 1219              	.LVL91:
 337:Core/Src/main.cpp ****     {
 1220              		.loc 1 337 5 view .LVU275
 1221 0008 1B4B     		ldr	r3, .L77
 1222 000a 1B78     		ldrb	r3, [r3]	@ zero_extendqisi2
 1223 000c D3B1     		cbz	r3, .L70
 339:Core/Src/main.cpp ****     }
 1224              		.loc 1 339 7 view .LVU276
 339:Core/Src/main.cpp ****     }
 1225              		.loc 1 339 48 is_stmt 0 view .LVU277
 1226 000e 1B4B     		ldr	r3, .L77+4
 1227 0010 1C68     		ldr	r4, [r3]
 1228 0012 FFF7FEFF 		bl	getCode
 1229              	.LVL92:
 1230 0016 0146     		mov	r1, r0
 1231 0018 2046     		mov	r0, r4
 1232 001a FFF7FEFF 		bl	_ZN7Context8CheckKeyEm
 1233              	.LVL93:
 1234              	.L71:
 346:Core/Src/main.cpp ****     {
 1235              		.loc 1 346 5 is_stmt 1 view .LVU278
 1236 001e 08B3     		cbz	r0, .L72
 348:Core/Src/main.cpp ****                       : UART_Printf("Outside intercom gave permission. Key id: %d\r\n", getCode());
 1237              		.loc 1 348 7 view .LVU279
 348:Core/Src/main.cpp ****                       : UART_Printf("Outside intercom gave permission. Key id: %d\r\n", getCode());
 1238              		.loc 1 348 23 is_stmt 0 view .LVU280
 1239 0020 154B     		ldr	r3, .L77
 1240 0022 1B78     		ldrb	r3, [r3]	@ zero_extendqisi2
 1241 0024 BBB1     		cbz	r3, .L73
 348:Core/Src/main.cpp ****                       : UART_Printf("Outside intercom gave permission. Key id: %d\r\n", getCode());
 1242              		.loc 1 348 36 discriminator 1 view .LVU281
 1243 0026 FFF7FEFF 		bl	getCode
 1244              	.LVL94:
 348:Core/Src/main.cpp ****                       : UART_Printf("Outside intercom gave permission. Key id: %d\r\n", getCode());
 1245              		.loc 1 348 36 discriminator 1 view .LVU282
 1246 002a 0146     		mov	r1, r0
 1247 002c 1448     		ldr	r0, .L77+8
 1248 002e FFF7FEFF 		bl	_Z11UART_PrintfPKcz
 1249              	.LVL95:
 1250              	.L74:
 351:Core/Src/main.cpp ****     }
ARM GAS  C:\Users\Admin\AppData\Local\Temp\ccC9bEpd.s 			page 40


 1251              		.loc 1 351 7 is_stmt 1 view .LVU283
 351:Core/Src/main.cpp ****     }
 1252              		.loc 1 351 16 is_stmt 0 view .LVU284
 1253 0032 144B     		ldr	r3, .L77+12
 1254 0034 0022     		movs	r2, #0
 1255 0036 1A60     		str	r2, [r3]
 1256              	.L75:
 360:Core/Src/main.cpp ****     outsideKeyRead = false;
 1257              		.loc 1 360 5 is_stmt 1 view .LVU285
 360:Core/Src/main.cpp ****     outsideKeyRead = false;
 1258              		.loc 1 360 19 is_stmt 0 view .LVU286
 1259 0038 0023     		movs	r3, #0
 1260 003a 0F4A     		ldr	r2, .L77
 1261 003c 1370     		strb	r3, [r2]
 361:Core/Src/main.cpp ****   }
 1262              		.loc 1 361 5 is_stmt 1 view .LVU287
 361:Core/Src/main.cpp ****   }
 1263              		.loc 1 361 20 is_stmt 0 view .LVU288
 1264 003e 124A     		ldr	r2, .L77+16
 1265 0040 1370     		strb	r3, [r2]
 1266              	.L68:
 361:Core/Src/main.cpp ****   }
 1267              		.loc 1 361 20 view .LVU289
 1268              	.LBE92:
 1269              	.LBE91:
 390:Core/Src/main.cpp **** 
 1270              		.loc 1 390 1 view .LVU290
 1271 0042 10BD     		pop	{r4, pc}
 1272              	.LVL96:
 1273              	.L70:
 1274              	.LBB94:
 1275              	.LBB93:
 343:Core/Src/main.cpp ****     }
 1276              		.loc 1 343 7 is_stmt 1 view .LVU291
 343:Core/Src/main.cpp ****     }
 1277              		.loc 1 343 49 is_stmt 0 view .LVU292
 1278 0044 114B     		ldr	r3, .L77+20
 1279 0046 1C68     		ldr	r4, [r3]
 1280 0048 FFF7FEFF 		bl	getCode
 1281              	.LVL97:
 1282 004c 0146     		mov	r1, r0
 1283 004e 2046     		mov	r0, r4
 1284 0050 FFF7FEFF 		bl	_ZN7Context8CheckKeyEm
 1285              	.LVL98:
 343:Core/Src/main.cpp ****     }
 1286              		.loc 1 343 49 view .LVU293
 1287 0054 E3E7     		b	.L71
 1288              	.L73:
 349:Core/Src/main.cpp **** 
 1289              		.loc 1 349 36 view .LVU294
 1290 0056 FFF7FEFF 		bl	getCode
 1291              	.LVL99:
 349:Core/Src/main.cpp **** 
 1292              		.loc 1 349 36 view .LVU295
 1293 005a 0146     		mov	r1, r0
 1294 005c 0C48     		ldr	r0, .L77+24
 1295 005e FFF7FEFF 		bl	_Z11UART_PrintfPKcz
ARM GAS  C:\Users\Admin\AppData\Local\Temp\ccC9bEpd.s 			page 41


 1296              	.LVL100:
 1297 0062 E6E7     		b	.L74
 1298              	.LVL101:
 1299              	.L72:
 355:Core/Src/main.cpp **** 
 1300              		.loc 1 355 7 is_stmt 1 view .LVU296
 355:Core/Src/main.cpp **** 
 1301              		.loc 1 355 18 is_stmt 0 view .LVU297
 1302 0064 FFF7FEFF 		bl	getCode
 1303              	.LVL102:
 355:Core/Src/main.cpp **** 
 1304              		.loc 1 355 18 view .LVU298
 1305 0068 0146     		mov	r1, r0
 1306 006a 0A48     		ldr	r0, .L77+28
 1307 006c FFF7FEFF 		bl	_Z11UART_PrintfPKcz
 1308              	.LVL103:
 357:Core/Src/main.cpp ****     }
 1309              		.loc 1 357 7 is_stmt 1 view .LVU299
 357:Core/Src/main.cpp ****     }
 1310              		.loc 1 357 16 is_stmt 0 view .LVU300
 1311 0070 044B     		ldr	r3, .L77+12
 1312 0072 0122     		movs	r2, #1
 1313 0074 1A60     		str	r2, [r3]
 1314 0076 DFE7     		b	.L75
 1315              	.L78:
 1316              		.align	2
 1317              	.L77:
 1318 0078 00000000 		.word	.LANCHOR14
 1319 007c 00000000 		.word	.LANCHOR8
 1320 0080 00000000 		.word	.LC4
 1321 0084 00000000 		.word	workMode
 1322 0088 00000000 		.word	.LANCHOR15
 1323 008c 00000000 		.word	.LANCHOR9
 1324 0090 30000000 		.word	.LC5
 1325 0094 60000000 		.word	.LC6
 1326              	.LBE93:
 1327              	.LBE94:
 1328              		.cfi_endproc
 1329              	.LFE91:
 1330              		.fnend
 1332              		.section	.rodata._Z18ButtonPressedEventv.str1.4,"aMS",%progbits,1
 1333              		.align	2
 1334              	.LC7:
 1335 0000 4F757473 		.ascii	"Outside\000"
 1335      69646500 
 1336              		.align	2
 1337              	.LC8:
 1338 0008 496E7369 		.ascii	"Inside\000"
 1338      646500
 1339 000f 00       		.align	2
 1340              	.LC9:
 1341 0010 25732062 		.ascii	"%s button was used.\015\012\000"
 1341      7574746F 
 1341      6E207761 
 1341      73207573 
 1341      65642E0D 
 1342 0026 0000     		.align	2
ARM GAS  C:\Users\Admin\AppData\Local\Temp\ccC9bEpd.s 			page 42


 1343              	.LC10:
 1344 0028 43757272 		.ascii	"Current mode is Conditionally Open. Switching to Op"
 1344      656E7420 
 1344      6D6F6465 
 1344      20697320 
 1344      436F6E64 
 1345 005b 656E2E0D 		.ascii	"en.\015\012\000"
 1345      0A00
 1346              		.section	.text._Z18ButtonPressedEventv,"ax",%progbits
 1347              		.align	1
 1348              		.global	_Z18ButtonPressedEventv
 1349              		.syntax unified
 1350              		.thumb
 1351              		.thumb_func
 1352              		.fpu softvfp
 1354              	_Z18ButtonPressedEventv:
 1355              		.fnstart
 1356              	.LFB92:
 393:Core/Src/main.cpp ****   if (insideButtonPressed || outsideButtonPressed)
 1357              		.loc 1 393 1 is_stmt 1 view -0
 1358              		.cfi_startproc
 1359              		@ args = 0, pretend = 0, frame = 0
 1360              		@ frame_needed = 0, uses_anonymous_args = 0
 1361 0000 08B5     		push	{r3, lr}
 1362              		.save {r3, lr}
 1363              	.LCFI15:
 1364              		.cfi_def_cfa_offset 8
 1365              		.cfi_offset 3, -8
 1366              		.cfi_offset 14, -4
 394:Core/Src/main.cpp ****   {
 1367              		.loc 1 394 3 view .LVU302
 1368 0002 104B     		ldr	r3, .L87
 1369 0004 1B78     		ldrb	r3, [r3]	@ zero_extendqisi2
 1370 0006 13B9     		cbnz	r3, .L80
 394:Core/Src/main.cpp ****   {
 1371              		.loc 1 394 27 is_stmt 0 discriminator 1 view .LVU303
 1372 0008 0F4A     		ldr	r2, .L87+4
 1373 000a 1278     		ldrb	r2, [r2]	@ zero_extendqisi2
 1374 000c 82B1     		cbz	r2, .L79
 1375              	.L80:
 396:Core/Src/main.cpp **** 
 1376              		.loc 1 396 5 is_stmt 1 view .LVU304
 396:Core/Src/main.cpp **** 
 1377              		.loc 1 396 16 is_stmt 0 view .LVU305
 1378 000e 83B1     		cbz	r3, .L84
 1379 0010 0E49     		ldr	r1, .L87+8
 1380              	.L82:
 396:Core/Src/main.cpp **** 
 1381              		.loc 1 396 16 discriminator 4 view .LVU306
 1382 0012 0F48     		ldr	r0, .L87+12
 1383 0014 FFF7FEFF 		bl	_Z11UART_PrintfPKcz
 1384              	.LVL104:
 398:Core/Src/main.cpp **** 
 1385              		.loc 1 398 5 is_stmt 1 discriminator 4 view .LVU307
 398:Core/Src/main.cpp **** 
 1386              		.loc 1 398 14 is_stmt 0 discriminator 4 view .LVU308
 1387 0018 0E4B     		ldr	r3, .L87+16
ARM GAS  C:\Users\Admin\AppData\Local\Temp\ccC9bEpd.s 			page 43


 1388 001a 0022     		movs	r2, #0
 1389 001c 1A60     		str	r2, [r3]
 400:Core/Src/main.cpp ****     {
 1390              		.loc 1 400 5 is_stmt 1 discriminator 4 view .LVU309
 400:Core/Src/main.cpp ****     {
 1391              		.loc 1 400 22 is_stmt 0 discriminator 4 view .LVU310
 1392 001e 0E4B     		ldr	r3, .L87+20
 1393 0020 1B68     		ldr	r3, [r3]
 400:Core/Src/main.cpp ****     {
 1394              		.loc 1 400 5 discriminator 4 view .LVU311
 1395 0022 032B     		cmp	r3, #3
 1396 0024 07D0     		beq	.L86
 1397              	.L83:
 406:Core/Src/main.cpp ****     outsideButtonPressed = false;
 1398              		.loc 1 406 5 is_stmt 1 view .LVU312
 406:Core/Src/main.cpp ****     outsideButtonPressed = false;
 1399              		.loc 1 406 25 is_stmt 0 view .LVU313
 1400 0026 0023     		movs	r3, #0
 1401 0028 064A     		ldr	r2, .L87
 1402 002a 1370     		strb	r3, [r2]
 407:Core/Src/main.cpp ****   }
 1403              		.loc 1 407 5 is_stmt 1 view .LVU314
 407:Core/Src/main.cpp ****   }
 1404              		.loc 1 407 26 is_stmt 0 view .LVU315
 1405 002c 064A     		ldr	r2, .L87+4
 1406 002e 1370     		strb	r3, [r2]
 1407              	.L79:
 409:Core/Src/main.cpp **** 
 1408              		.loc 1 409 1 view .LVU316
 1409 0030 08BD     		pop	{r3, pc}
 1410              	.L84:
 396:Core/Src/main.cpp **** 
 1411              		.loc 1 396 16 view .LVU317
 1412 0032 0A49     		ldr	r1, .L87+24
 1413 0034 EDE7     		b	.L82
 1414              	.L86:
 402:Core/Src/main.cpp ****       intercomMode = IntercomMode::OpenMode;
 1415              		.loc 1 402 7 is_stmt 1 view .LVU318
 402:Core/Src/main.cpp ****       intercomMode = IntercomMode::OpenMode;
 1416              		.loc 1 402 18 is_stmt 0 view .LVU319
 1417 0036 0A48     		ldr	r0, .L87+28
 1418 0038 FFF7FEFF 		bl	_Z11UART_PrintfPKcz
 1419              	.LVL105:
 403:Core/Src/main.cpp ****     }
 1420              		.loc 1 403 7 is_stmt 1 view .LVU320
 403:Core/Src/main.cpp ****     }
 1421              		.loc 1 403 20 is_stmt 0 view .LVU321
 1422 003c 064B     		ldr	r3, .L87+20
 1423 003e 0222     		movs	r2, #2
 1424 0040 1A60     		str	r2, [r3]
 1425 0042 F0E7     		b	.L83
 1426              	.L88:
 1427              		.align	2
 1428              	.L87:
 1429 0044 00000000 		.word	insideButtonPressed
 1430 0048 00000000 		.word	outsideButtonPressed
 1431 004c 08000000 		.word	.LC8
ARM GAS  C:\Users\Admin\AppData\Local\Temp\ccC9bEpd.s 			page 44


 1432 0050 10000000 		.word	.LC9
 1433 0054 00000000 		.word	workMode
 1434 0058 00000000 		.word	intercomMode
 1435 005c 00000000 		.word	.LC7
 1436 0060 28000000 		.word	.LC10
 1437              		.cfi_endproc
 1438              	.LFE92:
 1439              		.fnend
 1441              		.section	.rodata._Z17TempOpenModeEventv.str1.4,"aMS",%progbits,1
 1442              		.align	2
 1443              	.LC11:
 1444 0000 446F6F72 		.ascii	"Door is still opened. Turning on temporarily alarm."
 1444      20697320 
 1444      7374696C 
 1444      6C206F70 
 1444      656E6564 
 1445 0033 0D0A00   		.ascii	"\015\012\000"
 1446 0036 0000     		.align	2
 1447              	.LC12:
 1448 0038 446F6F72 		.ascii	"Door was not opened. Closing the relay.\015\012\000"
 1448      20776173 
 1448      206E6F74 
 1448      206F7065 
 1448      6E65642E 
 1449              		.section	.text._Z17TempOpenModeEventv,"ax",%progbits
 1450              		.align	1
 1451              		.global	_Z17TempOpenModeEventv
 1452              		.syntax unified
 1453              		.thumb
 1454              		.thumb_func
 1455              		.fpu softvfp
 1457              	_Z17TempOpenModeEventv:
 1458              		.fnstart
 1459              	.LFB93:
 412:Core/Src/main.cpp ****   static Timer lockTimer(0, 0);
 1460              		.loc 1 412 1 is_stmt 1 view -0
 1461              		.cfi_startproc
 1462              		@ args = 0, pretend = 0, frame = 0
 1463              		@ frame_needed = 0, uses_anonymous_args = 0
 1464 0000 10B5     		push	{r4, lr}
 1465              		.save {r4, lr}
 1466              	.LCFI16:
 1467              		.cfi_def_cfa_offset 8
 1468              		.cfi_offset 4, -8
 1469              		.cfi_offset 14, -4
 413:Core/Src/main.cpp ****   static Timer zumerTimer(0, 0);
 1470              		.loc 1 413 3 view .LVU323
 413:Core/Src/main.cpp ****   static Timer zumerTimer(0, 0);
 1471              		.loc 1 413 30 is_stmt 0 view .LVU324
 1472 0002 5D4B     		ldr	r3, .L113
 1473 0004 1B78     		ldrb	r3, [r3]	@ zero_extendqisi2
 1474 0006 BFF35B8F 		dmb	ish
 1475 000a 13F0010F 		tst	r3, #1
 1476 000e 04D1     		bne	.L90
 413:Core/Src/main.cpp ****   static Timer zumerTimer(0, 0);
 1477              		.loc 1 413 30 discriminator 1 view .LVU325
 1478 0010 5948     		ldr	r0, .L113
ARM GAS  C:\Users\Admin\AppData\Local\Temp\ccC9bEpd.s 			page 45


 1479 0012 FFF7FEFF 		bl	__cxa_guard_acquire
 1480              	.LVL106:
 1481 0016 0028     		cmp	r0, #0
 1482 0018 41D1     		bne	.L107
 1483              	.L90:
 414:Core/Src/main.cpp **** 
 1484              		.loc 1 414 3 is_stmt 1 view .LVU326
 414:Core/Src/main.cpp **** 
 1485              		.loc 1 414 31 is_stmt 0 view .LVU327
 1486 001a 584B     		ldr	r3, .L113+4
 1487 001c 1B78     		ldrb	r3, [r3]	@ zero_extendqisi2
 1488 001e BFF35B8F 		dmb	ish
 1489 0022 13F0010F 		tst	r3, #1
 1490 0026 43D0     		beq	.L108
 1491              	.L91:
 416:Core/Src/main.cpp ****   {
 1492              		.loc 1 416 3 is_stmt 1 view .LVU328
 1493              	.LBB95:
 416:Core/Src/main.cpp ****   {
 1494              		.loc 1 416 16 is_stmt 0 view .LVU329
 1495 0028 554B     		ldr	r3, .L113+8
 1496 002a 1B68     		ldr	r3, [r3]
 416:Core/Src/main.cpp ****   {
 1497              		.loc 1 416 3 view .LVU330
 1498 002c 002B     		cmp	r3, #0
 1499 002e 7CD1     		bne	.L89
 1500              	.LBB96:
 418:Core/Src/main.cpp ****     if (firstTime)
 1501              		.loc 1 418 5 is_stmt 1 view .LVU331
 419:Core/Src/main.cpp ****     {
 1502              		.loc 1 419 5 view .LVU332
 1503 0030 544B     		ldr	r3, .L113+12
 1504 0032 1B78     		ldrb	r3, [r3]	@ zero_extendqisi2
 1505 0034 002B     		cmp	r3, #0
 1506 0036 49D1     		bne	.L109
 1507              	.L93:
 426:Core/Src/main.cpp ****     {
 1508              		.loc 1 426 5 view .LVU333
 1509              	.LEHB7:
 426:Core/Src/main.cpp ****     {
 1510              		.loc 1 426 20 is_stmt 0 view .LVU334
 1511 0038 FFF7FEFF 		bl	HAL_GetTick
 1512              	.LVL107:
 1513 003c 0446     		mov	r4, r0
 426:Core/Src/main.cpp ****     {
 1514              		.loc 1 426 47 view .LVU335
 1515 003e 5248     		ldr	r0, .L113+16
 1516 0040 FFF7FEFF 		bl	_ZN5Timer12getStartTimeEv
 1517              	.LVL108:
 426:Core/Src/main.cpp ****     {
 1518              		.loc 1 426 23 view .LVU336
 1519 0044 241A     		subs	r4, r4, r0
 426:Core/Src/main.cpp ****     {
 1520              		.loc 1 426 57 view .LVU337
 1521 0046 41F28733 		movw	r3, #4999
 1522 004a 9C42     		cmp	r4, r3
 1523 004c 48D8     		bhi	.L94
ARM GAS  C:\Users\Admin\AppData\Local\Temp\ccC9bEpd.s 			page 46


 426:Core/Src/main.cpp ****     {
 1524              		.loc 1 426 81 discriminator 1 view .LVU338
 1525 004e 4F48     		ldr	r0, .L113+20
 1526 0050 FFF7FEFF 		bl	_ZN12InterruptPin14isStateChangedEv
 1527              	.LVL109:
 426:Core/Src/main.cpp ****     {
 1528              		.loc 1 426 57 discriminator 1 view .LVU339
 1529 0054 20B1     		cbz	r0, .L95
 426:Core/Src/main.cpp ****     {
 1530              		.loc 1 426 100 discriminator 4 view .LVU340
 1531 0056 4D48     		ldr	r0, .L113+20
 1532 0058 FFF7FEFF 		bl	_ZN5PinIn8getStateEv
 1533              	.LVL110:
 426:Core/Src/main.cpp ****     {
 1534              		.loc 1 426 60 discriminator 4 view .LVU341
 1535 005c 0028     		cmp	r0, #0
 1536 005e 3FD0     		beq	.L94
 1537              	.L95:
 428:Core/Src/main.cpp ****       {
 1538              		.loc 1 428 7 is_stmt 1 discriminator 5 view .LVU342
 428:Core/Src/main.cpp ****       {
 1539              		.loc 1 428 22 is_stmt 0 discriminator 5 view .LVU343
 1540 0060 FFF7FEFF 		bl	HAL_GetTick
 1541              	.LVL111:
 1542 0064 0446     		mov	r4, r0
 428:Core/Src/main.cpp ****       {
 1543              		.loc 1 428 49 discriminator 5 view .LVU344
 1544 0066 4A48     		ldr	r0, .L113+24
 1545 0068 FFF7FEFF 		bl	_ZN5Timer11getLastTickEv
 1546              	.LVL112:
 428:Core/Src/main.cpp ****       {
 1547              		.loc 1 428 25 discriminator 5 view .LVU345
 1548 006c 241A     		subs	r4, r4, r0
 428:Core/Src/main.cpp ****       {
 1549              		.loc 1 428 7 discriminator 5 view .LVU346
 1550 006e FA2C     		cmp	r4, #250
 1551 0070 5CD8     		bhi	.L110
 1552              	.L97:
 437:Core/Src/main.cpp ****       {
 1553              		.loc 1 437 7 is_stmt 1 view .LVU347
 437:Core/Src/main.cpp ****       {
 1554              		.loc 1 437 22 is_stmt 0 view .LVU348
 1555 0072 FFF7FEFF 		bl	HAL_GetTick
 1556              	.LVL113:
 1557 0076 0446     		mov	r4, r0
 437:Core/Src/main.cpp ****       {
 1558              		.loc 1 437 49 view .LVU349
 1559 0078 4548     		ldr	r0, .L113+24
 1560 007a FFF7FEFF 		bl	_ZN5Timer11getLastTickEv
 1561              	.LVL114:
 437:Core/Src/main.cpp ****       {
 1562              		.loc 1 437 25 view .LVU350
 1563 007e 241A     		subs	r4, r4, r0
 437:Core/Src/main.cpp ****       {
 1564              		.loc 1 437 7 view .LVU351
 1565 0080 4B2C     		cmp	r4, #75
 1566 0082 52D9     		bls	.L89
ARM GAS  C:\Users\Admin\AppData\Local\Temp\ccC9bEpd.s 			page 47


 439:Core/Src/main.cpp ****         outsideZumer.turnOff();
 1567              		.loc 1 439 9 is_stmt 1 view .LVU352
 439:Core/Src/main.cpp ****         outsideZumer.turnOff();
 1568              		.loc 1 439 28 is_stmt 0 view .LVU353
 1569 0084 4348     		ldr	r0, .L113+28
 1570 0086 FFF7FEFF 		bl	_ZN14InvertedPinOut7turnOffEv
 1571              	.LVL115:
 440:Core/Src/main.cpp ****         insideGreenLed.turnOff();
 1572              		.loc 1 440 9 is_stmt 1 view .LVU354
 440:Core/Src/main.cpp ****         insideGreenLed.turnOff();
 1573              		.loc 1 440 29 is_stmt 0 view .LVU355
 1574 008a 4348     		ldr	r0, .L113+32
 1575 008c FFF7FEFF 		bl	_ZN14InvertedPinOut7turnOffEv
 1576              	.LVL116:
 441:Core/Src/main.cpp ****         outsideGreenLed.turnOff();
 1577              		.loc 1 441 9 is_stmt 1 view .LVU356
 441:Core/Src/main.cpp ****         outsideGreenLed.turnOff();
 1578              		.loc 1 441 31 is_stmt 0 view .LVU357
 1579 0090 4248     		ldr	r0, .L113+36
 1580 0092 FFF7FEFF 		bl	_ZN14InvertedPinOut7turnOffEv
 1581              	.LVL117:
 442:Core/Src/main.cpp ****       }
 1582              		.loc 1 442 9 is_stmt 1 view .LVU358
 442:Core/Src/main.cpp ****       }
 1583              		.loc 1 442 32 is_stmt 0 view .LVU359
 1584 0096 4248     		ldr	r0, .L113+40
 1585 0098 FFF7FEFF 		bl	_ZN14InvertedPinOut7turnOffEv
 1586              	.LVL118:
 1587              	.LEHE7:
 1588 009c 45E0     		b	.L89
 1589              	.L107:
 1590              	.LBE96:
 1591              	.LBE95:
 413:Core/Src/main.cpp ****   static Timer zumerTimer(0, 0);
 1592              		.loc 1 413 30 discriminator 2 view .LVU360
 1593 009e 0022     		movs	r2, #0
 1594 00a0 1146     		mov	r1, r2
 1595 00a2 3948     		ldr	r0, .L113+16
 1596              	.LEHB8:
 1597 00a4 FFF7FEFF 		bl	_ZN5TimerC1Emm
 1598              	.LVL119:
 1599              	.LEHE8:
 413:Core/Src/main.cpp ****   static Timer zumerTimer(0, 0);
 1600              		.loc 1 413 30 discriminator 4 view .LVU361
 1601 00a8 3348     		ldr	r0, .L113
 1602 00aa FFF7FEFF 		bl	__cxa_guard_release
 1603              	.LVL120:
 1604 00ae B4E7     		b	.L90
 1605              	.L108:
 414:Core/Src/main.cpp **** 
 1606              		.loc 1 414 31 discriminator 1 view .LVU362
 1607 00b0 3248     		ldr	r0, .L113+4
 1608 00b2 FFF7FEFF 		bl	__cxa_guard_acquire
 1609              	.LVL121:
 1610 00b6 0028     		cmp	r0, #0
 1611 00b8 B6D0     		beq	.L91
 414:Core/Src/main.cpp **** 
ARM GAS  C:\Users\Admin\AppData\Local\Temp\ccC9bEpd.s 			page 48


 1612              		.loc 1 414 31 discriminator 2 view .LVU363
 1613 00ba 0022     		movs	r2, #0
 1614 00bc 1146     		mov	r1, r2
 1615 00be 3448     		ldr	r0, .L113+24
 1616              	.LEHB9:
 1617 00c0 FFF7FEFF 		bl	_ZN5TimerC1Emm
 1618              	.LVL122:
 1619              	.LEHE9:
 414:Core/Src/main.cpp **** 
 1620              		.loc 1 414 31 discriminator 4 view .LVU364
 1621 00c4 2D48     		ldr	r0, .L113+4
 1622 00c6 FFF7FEFF 		bl	__cxa_guard_release
 1623              	.LVL123:
 1624 00ca ADE7     		b	.L91
 1625              	.L109:
 1626              	.LBB99:
 1627              	.LBB97:
 421:Core/Src/main.cpp ****       lock.turnOn();
 1628              		.loc 1 421 7 is_stmt 1 view .LVU365
 421:Core/Src/main.cpp ****       lock.turnOn();
 1629              		.loc 1 421 17 is_stmt 0 view .LVU366
 1630 00cc 2D4B     		ldr	r3, .L113+12
 1631 00ce 0022     		movs	r2, #0
 1632 00d0 1A70     		strb	r2, [r3]
 422:Core/Src/main.cpp ****       lockTimer.start();
 1633              		.loc 1 422 7 is_stmt 1 view .LVU367
 422:Core/Src/main.cpp ****       lockTimer.start();
 1634              		.loc 1 422 18 is_stmt 0 view .LVU368
 1635 00d2 3448     		ldr	r0, .L113+44
 1636              	.LEHB10:
 1637 00d4 FFF7FEFF 		bl	_ZN6PinOut6turnOnEv
 1638              	.LVL124:
 423:Core/Src/main.cpp ****     }
 1639              		.loc 1 423 7 is_stmt 1 view .LVU369
 423:Core/Src/main.cpp ****     }
 1640              		.loc 1 423 22 is_stmt 0 view .LVU370
 1641 00d8 2B48     		ldr	r0, .L113+16
 1642 00da FFF7FEFF 		bl	_ZN5Timer5startEv
 1643              	.LVL125:
 1644 00de ABE7     		b	.L93
 1645              	.L94:
 445:Core/Src/main.cpp ****     {
 1646              		.loc 1 445 10 is_stmt 1 discriminator 6 view .LVU371
 445:Core/Src/main.cpp ****     {
 1647              		.loc 1 445 27 is_stmt 0 discriminator 6 view .LVU372
 1648 00e0 2A48     		ldr	r0, .L113+20
 1649 00e2 FFF7FEFF 		bl	_ZN5PinIn8getStateEv
 1650              	.LVL126:
 445:Core/Src/main.cpp ****     {
 1651              		.loc 1 445 10 discriminator 6 view .LVU373
 1652 00e6 0128     		cmp	r0, #1
 1653 00e8 30D0     		beq	.L111
 452:Core/Src/main.cpp ****       {
 1654              		.loc 1 452 7 is_stmt 1 view .LVU374
 452:Core/Src/main.cpp ****       {
 1655              		.loc 1 452 22 is_stmt 0 view .LVU375
 1656 00ea FFF7FEFF 		bl	HAL_GetTick
ARM GAS  C:\Users\Admin\AppData\Local\Temp\ccC9bEpd.s 			page 49


 1657              	.LVL127:
 1658 00ee 0446     		mov	r4, r0
 452:Core/Src/main.cpp ****       {
 1659              		.loc 1 452 49 view .LVU376
 1660 00f0 2548     		ldr	r0, .L113+16
 1661 00f2 FFF7FEFF 		bl	_ZN5Timer12getStartTimeEv
 1662              	.LVL128:
 452:Core/Src/main.cpp ****       {
 1663              		.loc 1 452 25 view .LVU377
 1664 00f6 241A     		subs	r4, r4, r0
 452:Core/Src/main.cpp ****       {
 1665              		.loc 1 452 7 view .LVU378
 1666 00f8 41F28733 		movw	r3, #4999
 1667 00fc 9C42     		cmp	r4, r3
 1668 00fe 2CD8     		bhi	.L112
 1669              	.L100:
 457:Core/Src/main.cpp ****       firstTime = true;
 1670              		.loc 1 457 7 is_stmt 1 view .LVU379
 457:Core/Src/main.cpp ****       firstTime = true;
 1671              		.loc 1 457 16 is_stmt 0 view .LVU380
 1672 0100 1F4B     		ldr	r3, .L113+8
 1673 0102 0422     		movs	r2, #4
 1674 0104 1A60     		str	r2, [r3]
 458:Core/Src/main.cpp ****       lock.turnOff();
 1675              		.loc 1 458 7 is_stmt 1 view .LVU381
 458:Core/Src/main.cpp ****       lock.turnOff();
 1676              		.loc 1 458 17 is_stmt 0 view .LVU382
 1677 0106 1F4B     		ldr	r3, .L113+12
 1678 0108 0122     		movs	r2, #1
 1679 010a 1A70     		strb	r2, [r3]
 459:Core/Src/main.cpp ****       insideZumer.turnOff();
 1680              		.loc 1 459 7 is_stmt 1 view .LVU383
 459:Core/Src/main.cpp ****       insideZumer.turnOff();
 1681              		.loc 1 459 19 is_stmt 0 view .LVU384
 1682 010c 2548     		ldr	r0, .L113+44
 1683 010e FFF7FEFF 		bl	_ZN6PinOut7turnOffEv
 1684              	.LVL129:
 460:Core/Src/main.cpp ****       outsideZumer.turnOff();
 1685              		.loc 1 460 7 is_stmt 1 view .LVU385
 460:Core/Src/main.cpp ****       outsideZumer.turnOff();
 1686              		.loc 1 460 26 is_stmt 0 view .LVU386
 1687 0112 2048     		ldr	r0, .L113+28
 1688 0114 FFF7FEFF 		bl	_ZN14InvertedPinOut7turnOffEv
 1689              	.LVL130:
 461:Core/Src/main.cpp ****       insideGreenLed.turnOff();
 1690              		.loc 1 461 7 is_stmt 1 view .LVU387
 461:Core/Src/main.cpp ****       insideGreenLed.turnOff();
 1691              		.loc 1 461 27 is_stmt 0 view .LVU388
 1692 0118 1F48     		ldr	r0, .L113+32
 1693 011a FFF7FEFF 		bl	_ZN14InvertedPinOut7turnOffEv
 1694              	.LVL131:
 462:Core/Src/main.cpp ****       outsideGreenLed.turnOff();
 1695              		.loc 1 462 7 is_stmt 1 view .LVU389
 462:Core/Src/main.cpp ****       outsideGreenLed.turnOff();
 1696              		.loc 1 462 29 is_stmt 0 view .LVU390
 1697 011e 1F48     		ldr	r0, .L113+36
 1698 0120 FFF7FEFF 		bl	_ZN14InvertedPinOut7turnOffEv
ARM GAS  C:\Users\Admin\AppData\Local\Temp\ccC9bEpd.s 			page 50


 1699              	.LVL132:
 463:Core/Src/main.cpp ****     }
 1700              		.loc 1 463 7 is_stmt 1 view .LVU391
 463:Core/Src/main.cpp ****     }
 1701              		.loc 1 463 30 is_stmt 0 view .LVU392
 1702 0124 1E48     		ldr	r0, .L113+40
 1703 0126 FFF7FEFF 		bl	_ZN14InvertedPinOut7turnOffEv
 1704              	.LVL133:
 1705              	.L89:
 1706              	.LBE97:
 1707              	.LBE99:
 466:Core/Src/main.cpp **** 
 1708              		.loc 1 466 1 view .LVU393
 1709 012a 10BD     		pop	{r4, pc}
 1710              	.L110:
 1711              	.LBB100:
 1712              	.LBB98:
 430:Core/Src/main.cpp ****         insideZumer.turnOn();
 1713              		.loc 1 430 9 is_stmt 1 view .LVU394
 430:Core/Src/main.cpp ****         insideZumer.turnOn();
 1714              		.loc 1 430 31 is_stmt 0 view .LVU395
 1715 012c 1848     		ldr	r0, .L113+24
 1716 012e FFF7FEFF 		bl	_ZN5Timer11setLastTickEv
 1717              	.LVL134:
 431:Core/Src/main.cpp ****         outsideZumer.turnOn();
 1718              		.loc 1 431 9 is_stmt 1 view .LVU396
 431:Core/Src/main.cpp ****         outsideZumer.turnOn();
 1719              		.loc 1 431 27 is_stmt 0 view .LVU397
 1720 0132 1848     		ldr	r0, .L113+28
 1721 0134 FFF7FEFF 		bl	_ZN14InvertedPinOut6turnOnEv
 1722              	.LVL135:
 432:Core/Src/main.cpp ****         insideGreenLed.turnOn();
 1723              		.loc 1 432 9 is_stmt 1 view .LVU398
 432:Core/Src/main.cpp ****         insideGreenLed.turnOn();
 1724              		.loc 1 432 28 is_stmt 0 view .LVU399
 1725 0138 1748     		ldr	r0, .L113+32
 1726 013a FFF7FEFF 		bl	_ZN14InvertedPinOut6turnOnEv
 1727              	.LVL136:
 433:Core/Src/main.cpp ****         outsideGreenLed.turnOn();
 1728              		.loc 1 433 9 is_stmt 1 view .LVU400
 433:Core/Src/main.cpp ****         outsideGreenLed.turnOn();
 1729              		.loc 1 433 30 is_stmt 0 view .LVU401
 1730 013e 1748     		ldr	r0, .L113+36
 1731 0140 FFF7FEFF 		bl	_ZN14InvertedPinOut6turnOnEv
 1732              	.LVL137:
 434:Core/Src/main.cpp ****       }
 1733              		.loc 1 434 9 is_stmt 1 view .LVU402
 434:Core/Src/main.cpp ****       }
 1734              		.loc 1 434 31 is_stmt 0 view .LVU403
 1735 0144 1648     		ldr	r0, .L113+40
 1736 0146 FFF7FEFF 		bl	_ZN14InvertedPinOut6turnOnEv
 1737              	.LVL138:
 1738 014a 92E7     		b	.L97
 1739              	.L111:
 447:Core/Src/main.cpp ****       workMode = WorkMode::TempAlarmMode;
 1740              		.loc 1 447 7 is_stmt 1 view .LVU404
 447:Core/Src/main.cpp ****       workMode = WorkMode::TempAlarmMode;
ARM GAS  C:\Users\Admin\AppData\Local\Temp\ccC9bEpd.s 			page 51


 1741              		.loc 1 447 18 is_stmt 0 view .LVU405
 1742 014c 1648     		ldr	r0, .L113+48
 1743 014e FFF7FEFF 		bl	_Z11UART_PrintfPKcz
 1744              	.LVL139:
 448:Core/Src/main.cpp ****     }
 1745              		.loc 1 448 7 is_stmt 1 view .LVU406
 448:Core/Src/main.cpp ****     }
 1746              		.loc 1 448 16 is_stmt 0 view .LVU407
 1747 0152 0B4B     		ldr	r3, .L113+8
 1748 0154 0222     		movs	r2, #2
 1749 0156 1A60     		str	r2, [r3]
 1750 0158 E7E7     		b	.L89
 1751              	.L112:
 454:Core/Src/main.cpp ****       }
 1752              		.loc 1 454 9 is_stmt 1 view .LVU408
 454:Core/Src/main.cpp ****       }
 1753              		.loc 1 454 20 is_stmt 0 view .LVU409
 1754 015a 1448     		ldr	r0, .L113+52
 1755 015c FFF7FEFF 		bl	_Z11UART_PrintfPKcz
 1756              	.LVL140:
 1757 0160 CEE7     		b	.L100
 1758              	.L103:
 1759              	.LBE98:
 1760              	.LBE100:
 413:Core/Src/main.cpp ****   static Timer zumerTimer(0, 0);
 1761              		.loc 1 413 30 view .LVU410
 1762 0162 0548     		ldr	r0, .L113
 1763 0164 FFF7FEFF 		bl	__cxa_guard_abort
 1764              	.LVL141:
 1765 0168 FFF7FEFF 		bl	__cxa_end_cleanup
 1766              	.LVL142:
 1767              	.L104:
 414:Core/Src/main.cpp **** 
 1768              		.loc 1 414 31 view .LVU411
 1769 016c 0348     		ldr	r0, .L113+4
 1770 016e FFF7FEFF 		bl	__cxa_guard_abort
 1771              	.LVL143:
 1772 0172 FFF7FEFF 		bl	__cxa_end_cleanup
 1773              	.LVL144:
 1774              	.LEHE10:
 1775              	.L114:
 1776 0176 00BF     		.align	2
 1777              	.L113:
 1778 0178 00000000 		.word	.LANCHOR19
 1779 017c 00000000 		.word	.LANCHOR21
 1780 0180 00000000 		.word	workMode
 1781 0184 00000000 		.word	.LANCHOR23
 1782 0188 00000000 		.word	.LANCHOR20
 1783 018c 00000000 		.word	.LANCHOR0
 1784 0190 00000000 		.word	.LANCHOR22
 1785 0194 00000000 		.word	.LANCHOR3
 1786 0198 00000000 		.word	.LANCHOR4
 1787 019c 00000000 		.word	.LANCHOR5
 1788 01a0 00000000 		.word	.LANCHOR6
 1789 01a4 00000000 		.word	.LANCHOR1
 1790 01a8 00000000 		.word	.LC11
 1791 01ac 38000000 		.word	.LC12
ARM GAS  C:\Users\Admin\AppData\Local\Temp\ccC9bEpd.s 			page 52


 1792              		.cfi_endproc
 1793              	.LFE93:
 1794              		.personality	__gxx_personality_v0
 1795              		.handlerdata
 1796              	.LLSDA93:
 1797 0008 FF       		.byte	0xff
 1798 0009 FF       		.byte	0xff
 1799 000a 01       		.byte	0x1
 1800 000b 16       		.uleb128 .LLSDACSE93-.LLSDACSB93
 1801              	.LLSDACSB93:
 1802 000c 38       		.uleb128 .LEHB7-.LFB93
 1803 000d 64       		.uleb128 .LEHE7-.LEHB7
 1804 000e 00       		.uleb128 0
 1805 000f 00       		.uleb128 0
 1806 0010 A401     		.uleb128 .LEHB8-.LFB93
 1807 0012 04       		.uleb128 .LEHE8-.LEHB8
 1808 0013 E202     		.uleb128 .L103-.LFB93
 1809 0015 00       		.uleb128 0
 1810 0016 C001     		.uleb128 .LEHB9-.LFB93
 1811 0018 04       		.uleb128 .LEHE9-.LEHB9
 1812 0019 EC02     		.uleb128 .L104-.LFB93
 1813 001b 00       		.uleb128 0
 1814 001c D401     		.uleb128 .LEHB10-.LFB93
 1815 001e A201     		.uleb128 .LEHE10-.LEHB10
 1816 0020 00       		.uleb128 0
 1817 0021 00       		.uleb128 0
 1818              	.LLSDACSE93:
 1819              		.section	.text._Z17TempOpenModeEventv
 1820              		.fnend
 1822              		.section	.text._Z14TempAlarmEventv,"ax",%progbits
 1823              		.align	1
 1824              		.global	_Z14TempAlarmEventv
 1825              		.syntax unified
 1826              		.thumb
 1827              		.thumb_func
 1828              		.fpu softvfp
 1830              	_Z14TempAlarmEventv:
 1831              		.fnstart
 1832              	.LFB94:
 469:Core/Src/main.cpp ****   static Timer sirenTimer(0, 0);
 1833              		.loc 1 469 1 is_stmt 1 view -0
 1834              		.cfi_startproc
 1835              		@ args = 0, pretend = 0, frame = 0
 1836              		@ frame_needed = 0, uses_anonymous_args = 0
 1837 0000 10B5     		push	{r4, lr}
 1838              		.save {r4, lr}
 1839              	.LCFI17:
 1840              		.cfi_def_cfa_offset 8
 1841              		.cfi_offset 4, -8
 1842              		.cfi_offset 14, -4
 470:Core/Src/main.cpp **** 
 1843              		.loc 1 470 3 view .LVU413
 470:Core/Src/main.cpp **** 
 1844              		.loc 1 470 31 is_stmt 0 view .LVU414
 1845 0002 2C4B     		ldr	r3, .L125
 1846 0004 1B78     		ldrb	r3, [r3]	@ zero_extendqisi2
 1847 0006 BFF35B8F 		dmb	ish
ARM GAS  C:\Users\Admin\AppData\Local\Temp\ccC9bEpd.s 			page 53


 1848 000a 13F0010F 		tst	r3, #1
 1849 000e 04D0     		beq	.L123
 1850              	.L116:
 472:Core/Src/main.cpp ****   {
 1851              		.loc 1 472 3 is_stmt 1 view .LVU415
 472:Core/Src/main.cpp ****   {
 1852              		.loc 1 472 16 is_stmt 0 view .LVU416
 1853 0010 294B     		ldr	r3, .L125+4
 1854 0012 1B68     		ldr	r3, [r3]
 472:Core/Src/main.cpp ****   {
 1855              		.loc 1 472 3 view .LVU417
 1856 0014 022B     		cmp	r3, #2
 1857 0016 0ED0     		beq	.L124
 1858              	.L115:
 491:Core/Src/main.cpp **** 
 1859              		.loc 1 491 1 view .LVU418
 1860 0018 10BD     		pop	{r4, pc}
 1861              	.L123:
 470:Core/Src/main.cpp **** 
 1862              		.loc 1 470 31 discriminator 1 view .LVU419
 1863 001a 2648     		ldr	r0, .L125
 1864 001c FFF7FEFF 		bl	__cxa_guard_acquire
 1865              	.LVL145:
 1866 0020 0028     		cmp	r0, #0
 1867 0022 F5D0     		beq	.L116
 470:Core/Src/main.cpp **** 
 1868              		.loc 1 470 31 discriminator 2 view .LVU420
 1869 0024 0022     		movs	r2, #0
 1870 0026 1146     		mov	r1, r2
 1871 0028 2448     		ldr	r0, .L125+8
 1872              	.LEHB11:
 1873 002a FFF7FEFF 		bl	_ZN5TimerC1Emm
 1874              	.LVL146:
 1875              	.LEHE11:
 470:Core/Src/main.cpp **** 
 1876              		.loc 1 470 31 discriminator 4 view .LVU421
 1877 002e 2148     		ldr	r0, .L125
 1878 0030 FFF7FEFF 		bl	__cxa_guard_release
 1879              	.LVL147:
 1880 0034 ECE7     		b	.L116
 1881              	.L124:
 474:Core/Src/main.cpp ****     {
 1882              		.loc 1 474 5 is_stmt 1 view .LVU422
 1883              	.LEHB12:
 474:Core/Src/main.cpp ****     {
 1884              		.loc 1 474 20 is_stmt 0 view .LVU423
 1885 0036 FFF7FEFF 		bl	HAL_GetTick
 1886              	.LVL148:
 1887 003a 0446     		mov	r4, r0
 474:Core/Src/main.cpp ****     {
 1888              		.loc 1 474 47 view .LVU424
 1889 003c 1F48     		ldr	r0, .L125+8
 1890 003e FFF7FEFF 		bl	_ZN5Timer11getLastTickEv
 1891              	.LVL149:
 474:Core/Src/main.cpp ****     {
 1892              		.loc 1 474 23 view .LVU425
 1893 0042 241A     		subs	r4, r4, r0
ARM GAS  C:\Users\Admin\AppData\Local\Temp\ccC9bEpd.s 			page 54


 474:Core/Src/main.cpp ****     {
 1894              		.loc 1 474 5 view .LVU426
 1895 0044 FA2C     		cmp	r4, #250
 1896 0046 19D9     		bls	.L118
 476:Core/Src/main.cpp ****       siren.turnOn();
 1897              		.loc 1 476 7 is_stmt 1 view .LVU427
 476:Core/Src/main.cpp ****       siren.turnOn();
 1898              		.loc 1 476 29 is_stmt 0 view .LVU428
 1899 0048 1C48     		ldr	r0, .L125+8
 1900 004a FFF7FEFF 		bl	_ZN5Timer11setLastTickEv
 1901              	.LVL150:
 477:Core/Src/main.cpp ****     }
 1902              		.loc 1 477 7 is_stmt 1 view .LVU429
 477:Core/Src/main.cpp ****     }
 1903              		.loc 1 477 19 is_stmt 0 view .LVU430
 1904 004e 1C48     		ldr	r0, .L125+12
 1905 0050 FFF7FEFF 		bl	_ZN6PinOut6turnOnEv
 1906              	.LVL151:
 1907              	.L119:
 484:Core/Src/main.cpp ****     {
 1908              		.loc 1 484 5 is_stmt 1 view .LVU431
 484:Core/Src/main.cpp ****     {
 1909              		.loc 1 484 28 is_stmt 0 view .LVU432
 1910 0054 1B48     		ldr	r0, .L125+16
 1911 0056 FFF7FEFF 		bl	_ZN12InterruptPin14isStateChangedEv
 1912              	.LVL152:
 484:Core/Src/main.cpp ****     {
 1913              		.loc 1 484 31 view .LVU433
 1914 005a 0028     		cmp	r0, #0
 1915 005c DCD0     		beq	.L115
 484:Core/Src/main.cpp ****     {
 1916              		.loc 1 484 47 discriminator 1 view .LVU434
 1917 005e 1948     		ldr	r0, .L125+16
 1918 0060 FFF7FEFF 		bl	_ZN5PinIn8getStateEv
 1919              	.LVL153:
 484:Core/Src/main.cpp ****     {
 1920              		.loc 1 484 31 discriminator 1 view .LVU435
 1921 0064 0028     		cmp	r0, #0
 1922 0066 D7D1     		bne	.L115
 486:Core/Src/main.cpp ****       workMode = WorkMode::NoMode;
 1923              		.loc 1 486 7 is_stmt 1 view .LVU436
 486:Core/Src/main.cpp ****       workMode = WorkMode::NoMode;
 1924              		.loc 1 486 18 is_stmt 0 view .LVU437
 1925 0068 1748     		ldr	r0, .L125+20
 1926 006a FFF7FEFF 		bl	_Z11UART_PrintfPKcz
 1927              	.LVL154:
 487:Core/Src/main.cpp ****       siren.turnOff();
 1928              		.loc 1 487 7 is_stmt 1 view .LVU438
 487:Core/Src/main.cpp ****       siren.turnOff();
 1929              		.loc 1 487 16 is_stmt 0 view .LVU439
 1930 006e 124B     		ldr	r3, .L125+4
 1931 0070 0422     		movs	r2, #4
 1932 0072 1A60     		str	r2, [r3]
 488:Core/Src/main.cpp ****     }
 1933              		.loc 1 488 7 is_stmt 1 view .LVU440
 488:Core/Src/main.cpp ****     }
 1934              		.loc 1 488 20 is_stmt 0 view .LVU441
ARM GAS  C:\Users\Admin\AppData\Local\Temp\ccC9bEpd.s 			page 55


 1935 0074 1248     		ldr	r0, .L125+12
 1936 0076 FFF7FEFF 		bl	_ZN6PinOut7turnOffEv
 1937              	.LVL155:
 491:Core/Src/main.cpp **** 
 1938              		.loc 1 491 1 view .LVU442
 1939 007a CDE7     		b	.L115
 1940              	.L118:
 479:Core/Src/main.cpp ****     {
 1941              		.loc 1 479 10 is_stmt 1 view .LVU443
 479:Core/Src/main.cpp ****     {
 1942              		.loc 1 479 25 is_stmt 0 view .LVU444
 1943 007c FFF7FEFF 		bl	HAL_GetTick
 1944              	.LVL156:
 1945 0080 0446     		mov	r4, r0
 479:Core/Src/main.cpp ****     {
 1946              		.loc 1 479 52 view .LVU445
 1947 0082 0E48     		ldr	r0, .L125+8
 1948 0084 FFF7FEFF 		bl	_ZN5Timer11getLastTickEv
 1949              	.LVL157:
 479:Core/Src/main.cpp ****     {
 1950              		.loc 1 479 28 view .LVU446
 1951 0088 241A     		subs	r4, r4, r0
 479:Core/Src/main.cpp ****     {
 1952              		.loc 1 479 61 view .LVU447
 1953 008a F92C     		cmp	r4, #249
 1954 008c E2D8     		bhi	.L119
 479:Core/Src/main.cpp ****     {
 1955              		.loc 1 479 75 discriminator 1 view .LVU448
 1956 008e FFF7FEFF 		bl	HAL_GetTick
 1957              	.LVL158:
 1958 0092 0446     		mov	r4, r0
 479:Core/Src/main.cpp ****     {
 1959              		.loc 1 479 102 discriminator 1 view .LVU449
 1960 0094 0948     		ldr	r0, .L125+8
 1961 0096 FFF7FEFF 		bl	_ZN5Timer11getLastTickEv
 1962              	.LVL159:
 479:Core/Src/main.cpp ****     {
 1963              		.loc 1 479 78 discriminator 1 view .LVU450
 1964 009a 241A     		subs	r4, r4, r0
 479:Core/Src/main.cpp ****     {
 1965              		.loc 1 479 61 discriminator 1 view .LVU451
 1966 009c 962C     		cmp	r4, #150
 1967 009e D9D9     		bls	.L119
 481:Core/Src/main.cpp ****     }
 1968              		.loc 1 481 7 is_stmt 1 view .LVU452
 481:Core/Src/main.cpp ****     }
 1969              		.loc 1 481 20 is_stmt 0 view .LVU453
 1970 00a0 0748     		ldr	r0, .L125+12
 1971 00a2 FFF7FEFF 		bl	_ZN6PinOut7turnOffEv
 1972              	.LVL160:
 1973 00a6 D5E7     		b	.L119
 1974              	.L121:
 470:Core/Src/main.cpp **** 
 1975              		.loc 1 470 31 view .LVU454
 1976 00a8 0248     		ldr	r0, .L125
 1977 00aa FFF7FEFF 		bl	__cxa_guard_abort
 1978              	.LVL161:
ARM GAS  C:\Users\Admin\AppData\Local\Temp\ccC9bEpd.s 			page 56


 1979 00ae FFF7FEFF 		bl	__cxa_end_cleanup
 1980              	.LVL162:
 1981              	.LEHE12:
 1982              	.L126:
 1983 00b2 00BF     		.align	2
 1984              	.L125:
 1985 00b4 00000000 		.word	.LANCHOR24
 1986 00b8 00000000 		.word	workMode
 1987 00bc 00000000 		.word	.LANCHOR25
 1988 00c0 00000000 		.word	.LANCHOR2
 1989 00c4 00000000 		.word	.LANCHOR0
 1990 00c8 00000000 		.word	.LC2
 1991              		.cfi_endproc
 1992              	.LFE94:
 1993              		.personality	__gxx_personality_v0
 1994              		.handlerdata
 1995              	.LLSDA94:
 1996 0008 FF       		.byte	0xff
 1997 0009 FF       		.byte	0xff
 1998 000a 01       		.byte	0x1
 1999 000b 09       		.uleb128 .LLSDACSE94-.LLSDACSB94
 2000              	.LLSDACSB94:
 2001 000c 2A       		.uleb128 .LEHB11-.LFB94
 2002 000d 04       		.uleb128 .LEHE11-.LEHB11
 2003 000e A801     		.uleb128 .L121-.LFB94
 2004 0010 00       		.uleb128 0
 2005 0011 36       		.uleb128 .LEHB12-.LFB94
 2006 0012 7C       		.uleb128 .LEHE12-.LEHB12
 2007 0013 00       		.uleb128 0
 2008 0014 00       		.uleb128 0
 2009              	.LLSDACSE94:
 2010              		.section	.text._Z14TempAlarmEventv
 2011              		.fnend
 2013              		.section	.rodata._Z10AlarmEventv.str1.4,"aMS",%progbits,1
 2014              		.align	2
 2015              	.LC13:
 2016 0000 556E6175 		.ascii	"Unauthorized access. Triggered alarm.\015\012\000"
 2016      74686F72 
 2016      697A6564 
 2016      20616363 
 2016      6573732E 
 2017              		.section	.text._Z10AlarmEventv,"ax",%progbits
 2018              		.align	1
 2019              		.global	_Z10AlarmEventv
 2020              		.syntax unified
 2021              		.thumb
 2022              		.thumb_func
 2023              		.fpu softvfp
 2025              	_Z10AlarmEventv:
 2026              		.fnstart
 2027              	.LFB96:
 531:Core/Src/main.cpp ****   if (workMode == WorkMode::AlarmMode)
 2028              		.loc 1 531 1 is_stmt 1 view -0
 2029              		.cfi_startproc
 2030              		@ args = 0, pretend = 0, frame = 0
 2031              		@ frame_needed = 0, uses_anonymous_args = 0
 532:Core/Src/main.cpp ****   {
ARM GAS  C:\Users\Admin\AppData\Local\Temp\ccC9bEpd.s 			page 57


 2032              		.loc 1 532 3 view .LVU456
 2033              	.LBB101:
 532:Core/Src/main.cpp ****   {
 2034              		.loc 1 532 16 is_stmt 0 view .LVU457
 2035 0000 354B     		ldr	r3, .L143
 2036 0002 1B68     		ldr	r3, [r3]
 532:Core/Src/main.cpp ****   {
 2037              		.loc 1 532 3 view .LVU458
 2038 0004 032B     		cmp	r3, #3
 2039 0006 00D0     		beq	.L139
 2040 0008 7047     		bx	lr
 2041              	.L139:
 2042              	.LBE101:
 531:Core/Src/main.cpp ****   if (workMode == WorkMode::AlarmMode)
 2043              		.loc 1 531 1 view .LVU459
 2044 000a 10B5     		push	{r4, lr}
 2045              		.save {r4, lr}
 2046              	.LCFI18:
 2047              		.cfi_def_cfa_offset 8
 2048              		.cfi_offset 4, -8
 2049              		.cfi_offset 14, -4
 2050              	.LBB105:
 2051              	.LBB102:
 534:Core/Src/main.cpp ****     static bool firstTime = true;
 2052              		.loc 1 534 5 is_stmt 1 view .LVU460
 534:Core/Src/main.cpp ****     static bool firstTime = true;
 2053              		.loc 1 534 33 is_stmt 0 view .LVU461
 2054 000c 334B     		ldr	r3, .L143+4
 2055 000e 1B78     		ldrb	r3, [r3]	@ zero_extendqisi2
 2056 0010 BFF35B8F 		dmb	ish
 2057 0014 13F0010F 		tst	r3, #1
 2058 0018 1DD0     		beq	.L140
 2059              	.L129:
 535:Core/Src/main.cpp **** 
 2060              		.loc 1 535 5 is_stmt 1 view .LVU462
 537:Core/Src/main.cpp ****     {
 2061              		.loc 1 537 5 view .LVU463
 2062 001a 314B     		ldr	r3, .L143+8
 2063 001c 1B78     		ldrb	r3, [r3]	@ zero_extendqisi2
 2064 001e 43BB     		cbnz	r3, .L141
 2065              	.L130:
 544:Core/Src/main.cpp ****     {
 2066              		.loc 1 544 5 view .LVU464
 2067              	.LEHB13:
 544:Core/Src/main.cpp ****     {
 2068              		.loc 1 544 20 is_stmt 0 view .LVU465
 2069 0020 FFF7FEFF 		bl	HAL_GetTick
 2070              	.LVL163:
 2071 0024 0446     		mov	r4, r0
 544:Core/Src/main.cpp ****     {
 2072              		.loc 1 544 47 view .LVU466
 2073 0026 2F48     		ldr	r0, .L143+12
 2074 0028 FFF7FEFF 		bl	_ZN5Timer11getLastTickEv
 2075              	.LVL164:
 544:Core/Src/main.cpp ****     {
 2076              		.loc 1 544 23 view .LVU467
 2077 002c 241A     		subs	r4, r4, r0
ARM GAS  C:\Users\Admin\AppData\Local\Temp\ccC9bEpd.s 			page 58


 544:Core/Src/main.cpp ****     {
 2078              		.loc 1 544 5 view .LVU468
 2079 002e B4F57A7F 		cmp	r4, #1000
 2080 0032 28D9     		bls	.L131
 546:Core/Src/main.cpp ****       siren.turnOn();
 2081              		.loc 1 546 7 is_stmt 1 view .LVU469
 546:Core/Src/main.cpp ****       siren.turnOn();
 2082              		.loc 1 546 29 is_stmt 0 view .LVU470
 2083 0034 2B48     		ldr	r0, .L143+12
 2084 0036 FFF7FEFF 		bl	_ZN5Timer11setLastTickEv
 2085              	.LVL165:
 547:Core/Src/main.cpp ****     }
 2086              		.loc 1 547 7 is_stmt 1 view .LVU471
 547:Core/Src/main.cpp ****     }
 2087              		.loc 1 547 19 is_stmt 0 view .LVU472
 2088 003a 2B48     		ldr	r0, .L143+16
 2089 003c FFF7FEFF 		bl	_ZN6PinOut6turnOnEv
 2090              	.LVL166:
 2091              	.L132:
 554:Core/Src/main.cpp ****     {
 2092              		.loc 1 554 5 is_stmt 1 view .LVU473
 554:Core/Src/main.cpp ****     {
 2093              		.loc 1 554 20 is_stmt 0 view .LVU474
 2094 0040 FFF7FEFF 		bl	HAL_GetTick
 2095              	.LVL167:
 2096 0044 0446     		mov	r4, r0
 554:Core/Src/main.cpp ****     {
 2097              		.loc 1 554 48 view .LVU475
 2098 0046 2748     		ldr	r0, .L143+12
 2099 0048 FFF7FEFF 		bl	_ZN5Timer12getStartTimeEv
 2100              	.LVL168:
 2101              	.LEHE13:
 554:Core/Src/main.cpp ****     {
 2102              		.loc 1 554 23 view .LVU476
 2103 004c 241A     		subs	r4, r4, r0
 554:Core/Src/main.cpp ****     {
 2104              		.loc 1 554 5 view .LVU477
 2105 004e B4F5FA6F 		cmp	r4, #2000
 2106 0052 31D8     		bhi	.L142
 2107              	.L127:
 2108              	.LBE102:
 2109              	.LBE105:
 561:Core/Src/main.cpp **** 
 2110              		.loc 1 561 1 view .LVU478
 2111 0054 10BD     		pop	{r4, pc}
 2112              	.L140:
 2113              	.LBB106:
 2114              	.LBB103:
 534:Core/Src/main.cpp ****     static bool firstTime = true;
 2115              		.loc 1 534 33 discriminator 1 view .LVU479
 2116 0056 2148     		ldr	r0, .L143+4
 2117 0058 FFF7FEFF 		bl	__cxa_guard_acquire
 2118              	.LVL169:
 2119 005c 0028     		cmp	r0, #0
 2120 005e DCD0     		beq	.L129
 534:Core/Src/main.cpp ****     static bool firstTime = true;
 2121              		.loc 1 534 33 discriminator 2 view .LVU480
ARM GAS  C:\Users\Admin\AppData\Local\Temp\ccC9bEpd.s 			page 59


 2122 0060 0022     		movs	r2, #0
 2123 0062 1146     		mov	r1, r2
 2124 0064 1F48     		ldr	r0, .L143+12
 2125              	.LEHB14:
 2126 0066 FFF7FEFF 		bl	_ZN5TimerC1Emm
 2127              	.LVL170:
 2128              	.LEHE14:
 534:Core/Src/main.cpp ****     static bool firstTime = true;
 2129              		.loc 1 534 33 discriminator 4 view .LVU481
 2130 006a 1C48     		ldr	r0, .L143+4
 2131 006c FFF7FEFF 		bl	__cxa_guard_release
 2132              	.LVL171:
 2133 0070 D3E7     		b	.L129
 2134              	.L141:
 539:Core/Src/main.cpp ****       alarmTimer.start();
 2135              		.loc 1 539 7 is_stmt 1 view .LVU482
 539:Core/Src/main.cpp ****       alarmTimer.start();
 2136              		.loc 1 539 18 is_stmt 0 view .LVU483
 2137 0072 1E48     		ldr	r0, .L143+20
 2138              	.LEHB15:
 2139 0074 FFF7FEFF 		bl	_Z11UART_PrintfPKcz
 2140              	.LVL172:
 540:Core/Src/main.cpp ****       firstTime = false;
 2141              		.loc 1 540 7 is_stmt 1 view .LVU484
 540:Core/Src/main.cpp ****       firstTime = false;
 2142              		.loc 1 540 23 is_stmt 0 view .LVU485
 2143 0078 1A48     		ldr	r0, .L143+12
 2144 007a FFF7FEFF 		bl	_ZN5Timer5startEv
 2145              	.LVL173:
 541:Core/Src/main.cpp ****     }
 2146              		.loc 1 541 7 is_stmt 1 view .LVU486
 541:Core/Src/main.cpp ****     }
 2147              		.loc 1 541 17 is_stmt 0 view .LVU487
 2148 007e 184B     		ldr	r3, .L143+8
 2149 0080 0022     		movs	r2, #0
 2150 0082 1A70     		strb	r2, [r3]
 2151 0084 CCE7     		b	.L130
 2152              	.L131:
 549:Core/Src/main.cpp ****     {
 2153              		.loc 1 549 10 is_stmt 1 view .LVU488
 549:Core/Src/main.cpp ****     {
 2154              		.loc 1 549 25 is_stmt 0 view .LVU489
 2155 0086 FFF7FEFF 		bl	HAL_GetTick
 2156              	.LVL174:
 2157 008a 0446     		mov	r4, r0
 549:Core/Src/main.cpp ****     {
 2158              		.loc 1 549 52 view .LVU490
 2159 008c 1548     		ldr	r0, .L143+12
 2160 008e FFF7FEFF 		bl	_ZN5Timer11getLastTickEv
 2161              	.LVL175:
 549:Core/Src/main.cpp ****     {
 2162              		.loc 1 549 28 view .LVU491
 2163 0092 241A     		subs	r4, r4, r0
 549:Core/Src/main.cpp ****     {
 2164              		.loc 1 549 62 view .LVU492
 2165 0094 B4F57A7F 		cmp	r4, #1000
 2166 0098 D2D2     		bcs	.L132
ARM GAS  C:\Users\Admin\AppData\Local\Temp\ccC9bEpd.s 			page 60


 549:Core/Src/main.cpp ****     {
 2167              		.loc 1 549 76 discriminator 1 view .LVU493
 2168 009a FFF7FEFF 		bl	HAL_GetTick
 2169              	.LVL176:
 2170 009e 0446     		mov	r4, r0
 549:Core/Src/main.cpp ****     {
 2171              		.loc 1 549 103 discriminator 1 view .LVU494
 2172 00a0 1048     		ldr	r0, .L143+12
 2173 00a2 FFF7FEFF 		bl	_ZN5Timer11getLastTickEv
 2174              	.LVL177:
 549:Core/Src/main.cpp ****     {
 2175              		.loc 1 549 79 discriminator 1 view .LVU495
 2176 00a6 241A     		subs	r4, r4, r0
 549:Core/Src/main.cpp ****     {
 2177              		.loc 1 549 62 discriminator 1 view .LVU496
 2178 00a8 40F2EE23 		movw	r3, #750
 2179 00ac 9C42     		cmp	r4, r3
 2180 00ae C7D9     		bls	.L132
 551:Core/Src/main.cpp ****     }
 2181              		.loc 1 551 7 is_stmt 1 view .LVU497
 551:Core/Src/main.cpp ****     }
 2182              		.loc 1 551 20 is_stmt 0 view .LVU498
 2183 00b0 0D48     		ldr	r0, .L143+16
 2184 00b2 FFF7FEFF 		bl	_ZN6PinOut7turnOffEv
 2185              	.LVL178:
 2186 00b6 C3E7     		b	.L132
 2187              	.L142:
 556:Core/Src/main.cpp ****       siren.turnOff();
 2188              		.loc 1 556 7 is_stmt 1 view .LVU499
 556:Core/Src/main.cpp ****       siren.turnOff();
 2189              		.loc 1 556 16 is_stmt 0 view .LVU500
 2190 00b8 074B     		ldr	r3, .L143
 2191 00ba 0022     		movs	r2, #0
 2192 00bc 1A60     		str	r2, [r3]
 557:Core/Src/main.cpp ****       firstTime = true;
 2193              		.loc 1 557 7 is_stmt 1 view .LVU501
 557:Core/Src/main.cpp ****       firstTime = true;
 2194              		.loc 1 557 20 is_stmt 0 view .LVU502
 2195 00be 0A48     		ldr	r0, .L143+16
 2196 00c0 FFF7FEFF 		bl	_ZN6PinOut7turnOffEv
 2197              	.LVL179:
 558:Core/Src/main.cpp ****     }
 2198              		.loc 1 558 7 is_stmt 1 view .LVU503
 558:Core/Src/main.cpp ****     }
 2199              		.loc 1 558 17 is_stmt 0 view .LVU504
 2200 00c4 064B     		ldr	r3, .L143+8
 2201 00c6 0122     		movs	r2, #1
 2202 00c8 1A70     		strb	r2, [r3]
 2203              	.LBE103:
 2204              	.LBE106:
 561:Core/Src/main.cpp **** 
 2205              		.loc 1 561 1 view .LVU505
 2206 00ca C3E7     		b	.L127
 2207              	.L134:
 2208              	.LBB107:
 2209              	.LBB104:
 534:Core/Src/main.cpp ****     static bool firstTime = true;
ARM GAS  C:\Users\Admin\AppData\Local\Temp\ccC9bEpd.s 			page 61


 2210              		.loc 1 534 33 view .LVU506
 2211 00cc 0348     		ldr	r0, .L143+4
 2212 00ce FFF7FEFF 		bl	__cxa_guard_abort
 2213              	.LVL180:
 2214 00d2 FFF7FEFF 		bl	__cxa_end_cleanup
 2215              	.LVL181:
 2216              	.LEHE15:
 2217              	.L144:
 2218 00d6 00BF     		.align	2
 2219              	.L143:
 2220 00d8 00000000 		.word	workMode
 2221 00dc 00000000 		.word	.LANCHOR26
 2222 00e0 00000000 		.word	.LANCHOR28
 2223 00e4 00000000 		.word	.LANCHOR27
 2224 00e8 00000000 		.word	.LANCHOR2
 2225 00ec 00000000 		.word	.LC13
 2226              	.LBE104:
 2227              	.LBE107:
 2228              		.cfi_endproc
 2229              	.LFE96:
 2230              		.personality	__gxx_personality_v0
 2231              		.handlerdata
 2232              	.LLSDA96:
 2233 0008 FF       		.byte	0xff
 2234 0009 FF       		.byte	0xff
 2235 000a 01       		.byte	0x1
 2236 000b 0D       		.uleb128 .LLSDACSE96-.LLSDACSB96
 2237              	.LLSDACSB96:
 2238 000c 20       		.uleb128 .LEHB13-.LFB96
 2239 000d 2C       		.uleb128 .LEHE13-.LEHB13
 2240 000e 00       		.uleb128 0
 2241 000f 00       		.uleb128 0
 2242 0010 66       		.uleb128 .LEHB14-.LFB96
 2243 0011 04       		.uleb128 .LEHE14-.LEHB14
 2244 0012 CC01     		.uleb128 .L134-.LFB96
 2245 0014 00       		.uleb128 0
 2246 0015 74       		.uleb128 .LEHB15-.LFB96
 2247 0016 62       		.uleb128 .LEHE15-.LEHB15
 2248 0017 00       		.uleb128 0
 2249 0018 00       		.uleb128 0
 2250              	.LLSDACSE96:
 2251              		.section	.text._Z10AlarmEventv
 2252              		.fnend
 2254              		.section	.rodata._Z10switchModev.str1.4,"aMS",%progbits,1
 2255              		.align	2
 2256              	.LC14:
 2257 0000 0A537769 		.ascii	"\012Switched to Closed mode.\015\012\000"
 2257      74636865 
 2257      6420746F 
 2257      20436C6F 
 2257      73656420 
 2258              		.align	2
 2259              	.LC15:
 2260 001c 0A537769 		.ascii	"\012Switched to Open mode.\015\012\000"
 2260      74636865 
 2260      6420746F 
 2260      204F7065 
ARM GAS  C:\Users\Admin\AppData\Local\Temp\ccC9bEpd.s 			page 62


 2260      6E206D6F 
 2261 0036 0000     		.align	2
 2262              	.LC16:
 2263 0038 0A537769 		.ascii	"\012Switched to CondOpen mode.\015\012\000"
 2263      74636865 
 2263      6420746F 
 2263      20436F6E 
 2263      644F7065 
 2264 0056 0000     		.align	2
 2265              	.LC17:
 2266 0058 0A537769 		.ascii	"\012Switched to Normal mode.\015\012\000"
 2266      74636865 
 2266      6420746F 
 2266      204E6F72 
 2266      6D616C20 
 2267              		.align	2
 2268              	.LC18:
 2269 0074 556E6B6E 		.ascii	"Unknown mode, switched to normal.\015\012\000"
 2269      6F776E20 
 2269      6D6F6465 
 2269      2C207377 
 2269      69746368 
 2270              		.section	.text._Z10switchModev,"ax",%progbits
 2271              		.align	1
 2272              		.global	_Z10switchModev
 2273              		.syntax unified
 2274              		.thumb
 2275              		.thumb_func
 2276              		.fpu softvfp
 2278              	_Z10switchModev:
 2279              		.fnstart
 2280              	.LFB99:
 656:Core/Src/main.cpp ****   switch (intercomMode)
 2281              		.loc 1 656 1 is_stmt 1 view -0
 2282              		.cfi_startproc
 2283              		@ args = 0, pretend = 0, frame = 0
 2284              		@ frame_needed = 0, uses_anonymous_args = 0
 2285 0000 70B5     		push	{r4, r5, r6, lr}
 2286              		.save {r4, r5, r6, lr}
 2287              	.LCFI19:
 2288              		.cfi_def_cfa_offset 16
 2289              		.cfi_offset 4, -16
 2290              		.cfi_offset 5, -12
 2291              		.cfi_offset 6, -8
 2292              		.cfi_offset 14, -4
 657:Core/Src/main.cpp ****   {
 2293              		.loc 1 657 3 view .LVU508
 2294 0002 514B     		ldr	r3, .L154
 2295 0004 1B68     		ldr	r3, [r3]
 2296 0006 032B     		cmp	r3, #3
 2297 0008 7FD8     		bhi	.L146
 2298 000a DFE803F0 		tbb	[pc, r3]
 2299              	.L148:
 2300 000e 02       		.byte	(.L151-.L148)/2
 2301 000f 21       		.byte	(.L150-.L148)/2
 2302 0010 40       		.byte	(.L149-.L148)/2
 2303 0011 5F       		.byte	(.L147-.L148)/2
ARM GAS  C:\Users\Admin\AppData\Local\Temp\ccC9bEpd.s 			page 63


 2304              		.p2align 1
 2305              	.L151:
 659:Core/Src/main.cpp ****   {
 2306              		.loc 1 659 3 view .LVU509
 660:Core/Src/main.cpp ****     UART_Printf("\nSwitched to Closed mode.\r\n");
 2307              		.loc 1 660 3 view .LVU510
 661:Core/Src/main.cpp ****     insideIntercom->TransitionTo(new ClosedMode);
 2308              		.loc 1 661 5 view .LVU511
 661:Core/Src/main.cpp ****     insideIntercom->TransitionTo(new ClosedMode);
 2309              		.loc 1 661 16 is_stmt 0 view .LVU512
 2310 0012 4E48     		ldr	r0, .L154+4
 2311 0014 FFF7FEFF 		bl	_Z11UART_PrintfPKcz
 2312              	.LVL182:
 662:Core/Src/main.cpp ****     outsideIntercom->TransitionTo(new ClosedMode);
 2313              		.loc 1 662 5 is_stmt 1 view .LVU513
 662:Core/Src/main.cpp ****     outsideIntercom->TransitionTo(new ClosedMode);
 2314              		.loc 1 662 33 is_stmt 0 view .LVU514
 2315 0018 4D4B     		ldr	r3, .L154+8
 2316 001a 1E68     		ldr	r6, [r3]
 662:Core/Src/main.cpp ****     outsideIntercom->TransitionTo(new ClosedMode);
 2317              		.loc 1 662 38 view .LVU515
 2318 001c 0820     		movs	r0, #8
 2319 001e FFF7FEFF 		bl	_Znwj
 2320              	.LVL183:
 2321 0022 0146     		mov	r1, r0
 2322              	.LVL184:
 2323              	.LBB108:
 2324              	.LBI108:
  37:Core/Inc/Intercom.h **** {
  38:Core/Inc/Intercom.h **** public:
  39:Core/Inc/Intercom.h ****     bool CheckKey(uint32_t key) override;
  40:Core/Inc/Intercom.h **** };
  41:Core/Inc/Intercom.h **** 
  42:Core/Inc/Intercom.h **** class ClosedMode : public Mode
 2325              		.loc 2 42 7 is_stmt 1 view .LVU516
 2326              	.LBB109:
 2327              	.LBB110:
 2328              	.LBI110:
   7:Core/Inc/Intercom.h **** {
 2329              		.loc 2 7 7 view .LVU517
 2330              	.LBB111:
 2331 0024 4B4D     		ldr	r5, .L154+12
 2332 0026 0560     		str	r5, [r0]
 2333              	.LVL185:
   7:Core/Inc/Intercom.h **** {
 2334              		.loc 2 7 7 is_stmt 0 view .LVU518
 2335              	.LBE111:
 2336              	.LBE110:
 2337              		.loc 2 42 7 view .LVU519
 2338 0028 4B4C     		ldr	r4, .L154+16
 2339 002a 0460     		str	r4, [r0]
 2340              	.LVL186:
 2341              		.loc 2 42 7 view .LVU520
 2342              	.LBE109:
 2343              	.LBE108:
 662:Core/Src/main.cpp ****     outsideIntercom->TransitionTo(new ClosedMode);
 2344              		.loc 1 662 33 view .LVU521
ARM GAS  C:\Users\Admin\AppData\Local\Temp\ccC9bEpd.s 			page 64


 2345 002c 3046     		mov	r0, r6
 2346 002e FFF7FEFF 		bl	_ZN7Context12TransitionToEP4Mode
 2347              	.LVL187:
 663:Core/Src/main.cpp ****     lock.turnOff();
 2348              		.loc 1 663 5 is_stmt 1 view .LVU522
 663:Core/Src/main.cpp ****     lock.turnOff();
 2349              		.loc 1 663 34 is_stmt 0 view .LVU523
 2350 0032 4A4B     		ldr	r3, .L154+20
 2351 0034 1E68     		ldr	r6, [r3]
 663:Core/Src/main.cpp ****     lock.turnOff();
 2352              		.loc 1 663 39 view .LVU524
 2353 0036 0820     		movs	r0, #8
 2354 0038 FFF7FEFF 		bl	_Znwj
 2355              	.LVL188:
 2356 003c 0146     		mov	r1, r0
 2357              	.LVL189:
 2358              	.LBB112:
 2359              	.LBI112:
 2360              		.loc 2 42 7 is_stmt 1 view .LVU525
 2361              	.LBB113:
 2362              	.LBB114:
 2363              	.LBI114:
   7:Core/Inc/Intercom.h **** {
 2364              		.loc 2 7 7 view .LVU526
 2365              	.LBB115:
 2366 003e 0560     		str	r5, [r0]
 2367              	.LVL190:
   7:Core/Inc/Intercom.h **** {
 2368              		.loc 2 7 7 is_stmt 0 view .LVU527
 2369              	.LBE115:
 2370              	.LBE114:
 2371              		.loc 2 42 7 view .LVU528
 2372 0040 0460     		str	r4, [r0]
 2373              	.LVL191:
 2374              		.loc 2 42 7 view .LVU529
 2375              	.LBE113:
 2376              	.LBE112:
 663:Core/Src/main.cpp ****     lock.turnOff();
 2377              		.loc 1 663 34 view .LVU530
 2378 0042 3046     		mov	r0, r6
 2379 0044 FFF7FEFF 		bl	_ZN7Context12TransitionToEP4Mode
 2380              	.LVL192:
 664:Core/Src/main.cpp ****     break;
 2381              		.loc 1 664 5 is_stmt 1 view .LVU531
 664:Core/Src/main.cpp ****     break;
 2382              		.loc 1 664 17 is_stmt 0 view .LVU532
 2383 0048 4548     		ldr	r0, .L154+24
 2384 004a FFF7FEFF 		bl	_ZN6PinOut7turnOffEv
 2385              	.LVL193:
 665:Core/Src/main.cpp ****   }
 2386              		.loc 1 665 5 is_stmt 1 view .LVU533
 2387              	.L145:
 702:Core/Src/main.cpp **** 
 2388              		.loc 1 702 1 is_stmt 0 view .LVU534
 2389 004e 70BD     		pop	{r4, r5, r6, pc}
 2390              	.L150:
 667:Core/Src/main.cpp ****   {
ARM GAS  C:\Users\Admin\AppData\Local\Temp\ccC9bEpd.s 			page 65


 2391              		.loc 1 667 3 is_stmt 1 view .LVU535
 668:Core/Src/main.cpp ****     UART_Printf("\nSwitched to Open mode.\r\n");
 2392              		.loc 1 668 3 view .LVU536
 669:Core/Src/main.cpp ****     insideIntercom->TransitionTo(new OpenMode);
 2393              		.loc 1 669 5 view .LVU537
 669:Core/Src/main.cpp ****     insideIntercom->TransitionTo(new OpenMode);
 2394              		.loc 1 669 16 is_stmt 0 view .LVU538
 2395 0050 4448     		ldr	r0, .L154+28
 2396 0052 FFF7FEFF 		bl	_Z11UART_PrintfPKcz
 2397              	.LVL194:
 670:Core/Src/main.cpp ****     outsideIntercom->TransitionTo(new OpenMode);
 2398              		.loc 1 670 5 is_stmt 1 view .LVU539
 670:Core/Src/main.cpp ****     outsideIntercom->TransitionTo(new OpenMode);
 2399              		.loc 1 670 33 is_stmt 0 view .LVU540
 2400 0056 3E4B     		ldr	r3, .L154+8
 2401 0058 1E68     		ldr	r6, [r3]
 670:Core/Src/main.cpp ****     outsideIntercom->TransitionTo(new OpenMode);
 2402              		.loc 1 670 38 view .LVU541
 2403 005a 0820     		movs	r0, #8
 2404 005c FFF7FEFF 		bl	_Znwj
 2405              	.LVL195:
 2406 0060 0146     		mov	r1, r0
 2407              	.LVL196:
 2408              	.LBB116:
 2409              	.LBI116:
  43:Core/Inc/Intercom.h **** {
  44:Core/Inc/Intercom.h ****     bool CheckKey(uint32_t key) override;
  45:Core/Inc/Intercom.h **** };
  46:Core/Inc/Intercom.h **** 
  47:Core/Inc/Intercom.h **** class OpenMode : public Mode
 2410              		.loc 2 47 7 is_stmt 1 view .LVU542
 2411              	.LBB117:
 2412              	.LBB118:
 2413              	.LBI118:
   7:Core/Inc/Intercom.h **** {
 2414              		.loc 2 7 7 view .LVU543
 2415              	.LBB119:
 2416 0062 3C4D     		ldr	r5, .L154+12
 2417 0064 0560     		str	r5, [r0]
 2418              	.LVL197:
   7:Core/Inc/Intercom.h **** {
 2419              		.loc 2 7 7 is_stmt 0 view .LVU544
 2420              	.LBE119:
 2421              	.LBE118:
 2422              		.loc 2 47 7 view .LVU545
 2423 0066 404C     		ldr	r4, .L154+32
 2424 0068 0460     		str	r4, [r0]
 2425              	.LVL198:
 2426              		.loc 2 47 7 view .LVU546
 2427              	.LBE117:
 2428              	.LBE116:
 670:Core/Src/main.cpp ****     outsideIntercom->TransitionTo(new OpenMode);
 2429              		.loc 1 670 33 view .LVU547
 2430 006a 3046     		mov	r0, r6
 2431 006c FFF7FEFF 		bl	_ZN7Context12TransitionToEP4Mode
 2432              	.LVL199:
 671:Core/Src/main.cpp ****     lock.turnOn();
ARM GAS  C:\Users\Admin\AppData\Local\Temp\ccC9bEpd.s 			page 66


 2433              		.loc 1 671 5 is_stmt 1 view .LVU548
 671:Core/Src/main.cpp ****     lock.turnOn();
 2434              		.loc 1 671 34 is_stmt 0 view .LVU549
 2435 0070 3A4B     		ldr	r3, .L154+20
 2436 0072 1E68     		ldr	r6, [r3]
 671:Core/Src/main.cpp ****     lock.turnOn();
 2437              		.loc 1 671 39 view .LVU550
 2438 0074 0820     		movs	r0, #8
 2439 0076 FFF7FEFF 		bl	_Znwj
 2440              	.LVL200:
 2441 007a 0146     		mov	r1, r0
 2442              	.LVL201:
 2443              	.LBB120:
 2444              	.LBI120:
 2445              		.loc 2 47 7 is_stmt 1 view .LVU551
 2446              	.LBB121:
 2447              	.LBB122:
 2448              	.LBI122:
   7:Core/Inc/Intercom.h **** {
 2449              		.loc 2 7 7 view .LVU552
 2450              	.LBB123:
 2451 007c 0560     		str	r5, [r0]
 2452              	.LVL202:
   7:Core/Inc/Intercom.h **** {
 2453              		.loc 2 7 7 is_stmt 0 view .LVU553
 2454              	.LBE123:
 2455              	.LBE122:
 2456              		.loc 2 47 7 view .LVU554
 2457 007e 0460     		str	r4, [r0]
 2458              	.LVL203:
 2459              		.loc 2 47 7 view .LVU555
 2460              	.LBE121:
 2461              	.LBE120:
 671:Core/Src/main.cpp ****     lock.turnOn();
 2462              		.loc 1 671 34 view .LVU556
 2463 0080 3046     		mov	r0, r6
 2464 0082 FFF7FEFF 		bl	_ZN7Context12TransitionToEP4Mode
 2465              	.LVL204:
 672:Core/Src/main.cpp ****     break;
 2466              		.loc 1 672 5 is_stmt 1 view .LVU557
 672:Core/Src/main.cpp ****     break;
 2467              		.loc 1 672 16 is_stmt 0 view .LVU558
 2468 0086 3648     		ldr	r0, .L154+24
 2469 0088 FFF7FEFF 		bl	_ZN6PinOut6turnOnEv
 2470              	.LVL205:
 673:Core/Src/main.cpp ****   }
 2471              		.loc 1 673 5 is_stmt 1 view .LVU559
 2472 008c DFE7     		b	.L145
 2473              	.L149:
 675:Core/Src/main.cpp ****   {
 2474              		.loc 1 675 3 view .LVU560
 676:Core/Src/main.cpp ****     UART_Printf("\nSwitched to CondOpen mode.\r\n");
 2475              		.loc 1 676 3 view .LVU561
 677:Core/Src/main.cpp ****     insideIntercom->TransitionTo(new CondOpenMode);
 2476              		.loc 1 677 5 view .LVU562
 677:Core/Src/main.cpp ****     insideIntercom->TransitionTo(new CondOpenMode);
 2477              		.loc 1 677 16 is_stmt 0 view .LVU563
ARM GAS  C:\Users\Admin\AppData\Local\Temp\ccC9bEpd.s 			page 67


 2478 008e 3748     		ldr	r0, .L154+36
 2479 0090 FFF7FEFF 		bl	_Z11UART_PrintfPKcz
 2480              	.LVL206:
 678:Core/Src/main.cpp ****     outsideIntercom->TransitionTo(new CondOpenMode);
 2481              		.loc 1 678 5 is_stmt 1 view .LVU564
 678:Core/Src/main.cpp ****     outsideIntercom->TransitionTo(new CondOpenMode);
 2482              		.loc 1 678 33 is_stmt 0 view .LVU565
 2483 0094 2E4B     		ldr	r3, .L154+8
 2484 0096 1E68     		ldr	r6, [r3]
 678:Core/Src/main.cpp ****     outsideIntercom->TransitionTo(new CondOpenMode);
 2485              		.loc 1 678 38 view .LVU566
 2486 0098 0820     		movs	r0, #8
 2487 009a FFF7FEFF 		bl	_Znwj
 2488              	.LVL207:
 2489 009e 0146     		mov	r1, r0
 2490              	.LVL208:
 2491              	.LBB124:
 2492              	.LBI124:
  48:Core/Inc/Intercom.h **** {
  49:Core/Inc/Intercom.h ****    bool CheckKey(uint32_t key) override;
  50:Core/Inc/Intercom.h **** };
  51:Core/Inc/Intercom.h **** 
  52:Core/Inc/Intercom.h **** class CondOpenMode : public Mode
 2493              		.loc 2 52 7 is_stmt 1 view .LVU567
 2494              	.LBB125:
 2495              	.LBB126:
 2496              	.LBI126:
   7:Core/Inc/Intercom.h **** {
 2497              		.loc 2 7 7 view .LVU568
 2498              	.LBB127:
 2499 00a0 2C4D     		ldr	r5, .L154+12
 2500 00a2 0560     		str	r5, [r0]
 2501              	.LVL209:
   7:Core/Inc/Intercom.h **** {
 2502              		.loc 2 7 7 is_stmt 0 view .LVU569
 2503              	.LBE127:
 2504              	.LBE126:
 2505              		.loc 2 52 7 view .LVU570
 2506 00a4 324C     		ldr	r4, .L154+40
 2507 00a6 0460     		str	r4, [r0]
 2508              	.LVL210:
 2509              		.loc 2 52 7 view .LVU571
 2510              	.LBE125:
 2511              	.LBE124:
 678:Core/Src/main.cpp ****     outsideIntercom->TransitionTo(new CondOpenMode);
 2512              		.loc 1 678 33 view .LVU572
 2513 00a8 3046     		mov	r0, r6
 2514 00aa FFF7FEFF 		bl	_ZN7Context12TransitionToEP4Mode
 2515              	.LVL211:
 679:Core/Src/main.cpp ****     lock.turnOff();
 2516              		.loc 1 679 5 is_stmt 1 view .LVU573
 679:Core/Src/main.cpp ****     lock.turnOff();
 2517              		.loc 1 679 34 is_stmt 0 view .LVU574
 2518 00ae 2B4B     		ldr	r3, .L154+20
 2519 00b0 1E68     		ldr	r6, [r3]
 679:Core/Src/main.cpp ****     lock.turnOff();
 2520              		.loc 1 679 39 view .LVU575
ARM GAS  C:\Users\Admin\AppData\Local\Temp\ccC9bEpd.s 			page 68


 2521 00b2 0820     		movs	r0, #8
 2522 00b4 FFF7FEFF 		bl	_Znwj
 2523              	.LVL212:
 2524 00b8 0146     		mov	r1, r0
 2525              	.LVL213:
 2526              	.LBB128:
 2527              	.LBI128:
 2528              		.loc 2 52 7 is_stmt 1 view .LVU576
 2529              	.LBB129:
 2530              	.LBB130:
 2531              	.LBI130:
   7:Core/Inc/Intercom.h **** {
 2532              		.loc 2 7 7 view .LVU577
 2533              	.LBB131:
 2534 00ba 0560     		str	r5, [r0]
 2535              	.LVL214:
   7:Core/Inc/Intercom.h **** {
 2536              		.loc 2 7 7 is_stmt 0 view .LVU578
 2537              	.LBE131:
 2538              	.LBE130:
 2539              		.loc 2 52 7 view .LVU579
 2540 00bc 0460     		str	r4, [r0]
 2541              	.LVL215:
 2542              		.loc 2 52 7 view .LVU580
 2543              	.LBE129:
 2544              	.LBE128:
 679:Core/Src/main.cpp ****     lock.turnOff();
 2545              		.loc 1 679 34 view .LVU581
 2546 00be 3046     		mov	r0, r6
 2547 00c0 FFF7FEFF 		bl	_ZN7Context12TransitionToEP4Mode
 2548              	.LVL216:
 680:Core/Src/main.cpp ****     break;
 2549              		.loc 1 680 5 is_stmt 1 view .LVU582
 680:Core/Src/main.cpp ****     break;
 2550              		.loc 1 680 17 is_stmt 0 view .LVU583
 2551 00c4 2648     		ldr	r0, .L154+24
 2552 00c6 FFF7FEFF 		bl	_ZN6PinOut7turnOffEv
 2553              	.LVL217:
 681:Core/Src/main.cpp ****   }
 2554              		.loc 1 681 5 is_stmt 1 view .LVU584
 2555 00ca C0E7     		b	.L145
 2556              	.L147:
 683:Core/Src/main.cpp ****   {
 2557              		.loc 1 683 3 view .LVU585
 684:Core/Src/main.cpp ****     UART_Printf("\nSwitched to Normal mode.\r\n");
 2558              		.loc 1 684 3 view .LVU586
 685:Core/Src/main.cpp ****     insideIntercom->TransitionTo(new NormalMode);
 2559              		.loc 1 685 5 view .LVU587
 685:Core/Src/main.cpp ****     insideIntercom->TransitionTo(new NormalMode);
 2560              		.loc 1 685 16 is_stmt 0 view .LVU588
 2561 00cc 2948     		ldr	r0, .L154+44
 2562 00ce FFF7FEFF 		bl	_Z11UART_PrintfPKcz
 2563              	.LVL218:
 686:Core/Src/main.cpp ****     outsideIntercom->TransitionTo(new NormalMode);
 2564              		.loc 1 686 5 is_stmt 1 view .LVU589
 686:Core/Src/main.cpp ****     outsideIntercom->TransitionTo(new NormalMode);
 2565              		.loc 1 686 33 is_stmt 0 view .LVU590
ARM GAS  C:\Users\Admin\AppData\Local\Temp\ccC9bEpd.s 			page 69


 2566 00d2 1F4B     		ldr	r3, .L154+8
 2567 00d4 1E68     		ldr	r6, [r3]
 686:Core/Src/main.cpp ****     outsideIntercom->TransitionTo(new NormalMode);
 2568              		.loc 1 686 38 view .LVU591
 2569 00d6 0820     		movs	r0, #8
 2570 00d8 FFF7FEFF 		bl	_Znwj
 2571              	.LVL219:
 2572 00dc 0146     		mov	r1, r0
 2573              	.LVL220:
 2574              	.LBB132:
 2575              	.LBI132:
  36:Core/Inc/Intercom.h **** {
 2576              		.loc 2 36 7 is_stmt 1 view .LVU592
 2577              	.LBB133:
 2578              	.LBB134:
 2579              	.LBI134:
   7:Core/Inc/Intercom.h **** {
 2580              		.loc 2 7 7 view .LVU593
 2581              	.LBB135:
 2582 00de 1D4D     		ldr	r5, .L154+12
 2583 00e0 0560     		str	r5, [r0]
 2584              	.LVL221:
   7:Core/Inc/Intercom.h **** {
 2585              		.loc 2 7 7 is_stmt 0 view .LVU594
 2586              	.LBE135:
 2587              	.LBE134:
  36:Core/Inc/Intercom.h **** {
 2588              		.loc 2 36 7 view .LVU595
 2589 00e2 254C     		ldr	r4, .L154+48
 2590 00e4 0460     		str	r4, [r0]
 2591              	.LVL222:
  36:Core/Inc/Intercom.h **** {
 2592              		.loc 2 36 7 view .LVU596
 2593              	.LBE133:
 2594              	.LBE132:
 686:Core/Src/main.cpp ****     outsideIntercom->TransitionTo(new NormalMode);
 2595              		.loc 1 686 33 view .LVU597
 2596 00e6 3046     		mov	r0, r6
 2597 00e8 FFF7FEFF 		bl	_ZN7Context12TransitionToEP4Mode
 2598              	.LVL223:
 687:Core/Src/main.cpp ****     lock.turnOff();
 2599              		.loc 1 687 5 is_stmt 1 view .LVU598
 687:Core/Src/main.cpp ****     lock.turnOff();
 2600              		.loc 1 687 34 is_stmt 0 view .LVU599
 2601 00ec 1B4B     		ldr	r3, .L154+20
 2602 00ee 1E68     		ldr	r6, [r3]
 687:Core/Src/main.cpp ****     lock.turnOff();
 2603              		.loc 1 687 39 view .LVU600
 2604 00f0 0820     		movs	r0, #8
 2605 00f2 FFF7FEFF 		bl	_Znwj
 2606              	.LVL224:
 2607 00f6 0146     		mov	r1, r0
 2608              	.LVL225:
 2609              	.LBB136:
 2610              	.LBI136:
  36:Core/Inc/Intercom.h **** {
 2611              		.loc 2 36 7 is_stmt 1 view .LVU601
ARM GAS  C:\Users\Admin\AppData\Local\Temp\ccC9bEpd.s 			page 70


 2612              	.LBB137:
 2613              	.LBB138:
 2614              	.LBI138:
   7:Core/Inc/Intercom.h **** {
 2615              		.loc 2 7 7 view .LVU602
 2616              	.LBB139:
 2617 00f8 0560     		str	r5, [r0]
 2618              	.LVL226:
   7:Core/Inc/Intercom.h **** {
 2619              		.loc 2 7 7 is_stmt 0 view .LVU603
 2620              	.LBE139:
 2621              	.LBE138:
  36:Core/Inc/Intercom.h **** {
 2622              		.loc 2 36 7 view .LVU604
 2623 00fa 0460     		str	r4, [r0]
 2624              	.LVL227:
  36:Core/Inc/Intercom.h **** {
 2625              		.loc 2 36 7 view .LVU605
 2626              	.LBE137:
 2627              	.LBE136:
 687:Core/Src/main.cpp ****     lock.turnOff();
 2628              		.loc 1 687 34 view .LVU606
 2629 00fc 3046     		mov	r0, r6
 2630 00fe FFF7FEFF 		bl	_ZN7Context12TransitionToEP4Mode
 2631              	.LVL228:
 688:Core/Src/main.cpp ****     break;
 2632              		.loc 1 688 5 is_stmt 1 view .LVU607
 688:Core/Src/main.cpp ****     break;
 2633              		.loc 1 688 17 is_stmt 0 view .LVU608
 2634 0102 1748     		ldr	r0, .L154+24
 2635 0104 FFF7FEFF 		bl	_ZN6PinOut7turnOffEv
 2636              	.LVL229:
 689:Core/Src/main.cpp ****   }
 2637              		.loc 1 689 5 is_stmt 1 view .LVU609
 2638 0108 A1E7     		b	.L145
 2639              	.L146:
 691:Core/Src/main.cpp ****   {
 2640              		.loc 1 691 3 view .LVU610
 692:Core/Src/main.cpp ****     UART_Printf("Unknown mode, switched to normal.\r\n");
 2641              		.loc 1 692 3 view .LVU611
 693:Core/Src/main.cpp ****     insideIntercom->TransitionTo(new NormalMode);
 2642              		.loc 1 693 5 view .LVU612
 693:Core/Src/main.cpp ****     insideIntercom->TransitionTo(new NormalMode);
 2643              		.loc 1 693 16 is_stmt 0 view .LVU613
 2644 010a 1C48     		ldr	r0, .L154+52
 2645 010c FFF7FEFF 		bl	_Z11UART_PrintfPKcz
 2646              	.LVL230:
 694:Core/Src/main.cpp ****     outsideIntercom->TransitionTo(new NormalMode);
 2647              		.loc 1 694 5 is_stmt 1 view .LVU614
 694:Core/Src/main.cpp ****     outsideIntercom->TransitionTo(new NormalMode);
 2648              		.loc 1 694 33 is_stmt 0 view .LVU615
 2649 0110 0F4B     		ldr	r3, .L154+8
 2650 0112 1E68     		ldr	r6, [r3]
 694:Core/Src/main.cpp ****     outsideIntercom->TransitionTo(new NormalMode);
 2651              		.loc 1 694 38 view .LVU616
 2652 0114 0820     		movs	r0, #8
 2653 0116 FFF7FEFF 		bl	_Znwj
ARM GAS  C:\Users\Admin\AppData\Local\Temp\ccC9bEpd.s 			page 71


 2654              	.LVL231:
 2655 011a 0146     		mov	r1, r0
 2656              	.LVL232:
 2657              	.LBB140:
 2658              	.LBI140:
  36:Core/Inc/Intercom.h **** {
 2659              		.loc 2 36 7 is_stmt 1 view .LVU617
 2660              	.LBB141:
 2661              	.LBB142:
 2662              	.LBI142:
   7:Core/Inc/Intercom.h **** {
 2663              		.loc 2 7 7 view .LVU618
 2664              	.LBB143:
 2665 011c 0D4D     		ldr	r5, .L154+12
 2666 011e 0560     		str	r5, [r0]
 2667              	.LVL233:
   7:Core/Inc/Intercom.h **** {
 2668              		.loc 2 7 7 is_stmt 0 view .LVU619
 2669              	.LBE143:
 2670              	.LBE142:
  36:Core/Inc/Intercom.h **** {
 2671              		.loc 2 36 7 view .LVU620
 2672 0120 154C     		ldr	r4, .L154+48
 2673 0122 0460     		str	r4, [r0]
 2674              	.LVL234:
  36:Core/Inc/Intercom.h **** {
 2675              		.loc 2 36 7 view .LVU621
 2676              	.LBE141:
 2677              	.LBE140:
 694:Core/Src/main.cpp ****     outsideIntercom->TransitionTo(new NormalMode);
 2678              		.loc 1 694 33 view .LVU622
 2679 0124 3046     		mov	r0, r6
 2680 0126 FFF7FEFF 		bl	_ZN7Context12TransitionToEP4Mode
 2681              	.LVL235:
 695:Core/Src/main.cpp ****     lock.turnOff();
 2682              		.loc 1 695 5 is_stmt 1 view .LVU623
 695:Core/Src/main.cpp ****     lock.turnOff();
 2683              		.loc 1 695 34 is_stmt 0 view .LVU624
 2684 012a 0C4B     		ldr	r3, .L154+20
 2685 012c 1E68     		ldr	r6, [r3]
 695:Core/Src/main.cpp ****     lock.turnOff();
 2686              		.loc 1 695 39 view .LVU625
 2687 012e 0820     		movs	r0, #8
 2688 0130 FFF7FEFF 		bl	_Znwj
 2689              	.LVL236:
 2690 0134 0146     		mov	r1, r0
 2691              	.LVL237:
 2692              	.LBB144:
 2693              	.LBI144:
  36:Core/Inc/Intercom.h **** {
 2694              		.loc 2 36 7 is_stmt 1 view .LVU626
 2695              	.LBB145:
 2696              	.LBB146:
 2697              	.LBI146:
   7:Core/Inc/Intercom.h **** {
 2698              		.loc 2 7 7 view .LVU627
 2699              	.LBB147:
ARM GAS  C:\Users\Admin\AppData\Local\Temp\ccC9bEpd.s 			page 72


 2700 0136 0560     		str	r5, [r0]
 2701              	.LVL238:
   7:Core/Inc/Intercom.h **** {
 2702              		.loc 2 7 7 is_stmt 0 view .LVU628
 2703              	.LBE147:
 2704              	.LBE146:
  36:Core/Inc/Intercom.h **** {
 2705              		.loc 2 36 7 view .LVU629
 2706 0138 0460     		str	r4, [r0]
 2707              	.LVL239:
  36:Core/Inc/Intercom.h **** {
 2708              		.loc 2 36 7 view .LVU630
 2709              	.LBE145:
 2710              	.LBE144:
 695:Core/Src/main.cpp ****     lock.turnOff();
 2711              		.loc 1 695 34 view .LVU631
 2712 013a 3046     		mov	r0, r6
 2713 013c FFF7FEFF 		bl	_ZN7Context12TransitionToEP4Mode
 2714              	.LVL240:
 696:Core/Src/main.cpp ****     break;
 2715              		.loc 1 696 5 is_stmt 1 view .LVU632
 696:Core/Src/main.cpp ****     break;
 2716              		.loc 1 696 17 is_stmt 0 view .LVU633
 2717 0140 0748     		ldr	r0, .L154+24
 2718 0142 FFF7FEFF 		bl	_ZN6PinOut7turnOffEv
 2719              	.LVL241:
 697:Core/Src/main.cpp ****   }
 2720              		.loc 1 697 5 is_stmt 1 view .LVU634
 701:Core/Src/main.cpp **** }
 2721              		.loc 1 701 3 view .LVU635
 2722 0146 82E7     		b	.L145
 2723              	.L155:
 2724              		.align	2
 2725              	.L154:
 2726 0148 00000000 		.word	intercomMode
 2727 014c 00000000 		.word	.LC14
 2728 0150 00000000 		.word	.LANCHOR8
 2729 0154 08000000 		.word	_ZTV4Mode+8
 2730 0158 08000000 		.word	_ZTV10ClosedMode+8
 2731 015c 00000000 		.word	.LANCHOR9
 2732 0160 00000000 		.word	.LANCHOR1
 2733 0164 1C000000 		.word	.LC15
 2734 0168 08000000 		.word	_ZTV8OpenMode+8
 2735 016c 38000000 		.word	.LC16
 2736 0170 08000000 		.word	_ZTV12CondOpenMode+8
 2737 0174 58000000 		.word	.LC17
 2738 0178 08000000 		.word	_ZTV10NormalMode+8
 2739 017c 74000000 		.word	.LC18
 2740              		.cfi_endproc
 2741              	.LFE99:
 2742              		.fnend
 2744              		.section	.text._Z15ChangeModeEventv,"ax",%progbits
 2745              		.align	1
 2746              		.global	_Z15ChangeModeEventv
 2747              		.syntax unified
 2748              		.thumb
 2749              		.thumb_func
ARM GAS  C:\Users\Admin\AppData\Local\Temp\ccC9bEpd.s 			page 73


 2750              		.fpu softvfp
 2752              	_Z15ChangeModeEventv:
 2753              		.fnstart
 2754              	.LFB89:
 299:Core/Src/main.cpp ****   if ((HAL_GetTick() - timme) > 15000)
 2755              		.loc 1 299 1 view -0
 2756              		.cfi_startproc
 2757              		@ args = 0, pretend = 0, frame = 0
 2758              		@ frame_needed = 0, uses_anonymous_args = 0
 2759 0000 08B5     		push	{r3, lr}
 2760              		.save {r3, lr}
 2761              	.LCFI20:
 2762              		.cfi_def_cfa_offset 8
 2763              		.cfi_offset 3, -8
 2764              		.cfi_offset 14, -4
 300:Core/Src/main.cpp ****   {
 2765              		.loc 1 300 3 view .LVU637
 300:Core/Src/main.cpp ****   {
 2766              		.loc 1 300 19 is_stmt 0 view .LVU638
 2767 0002 FFF7FEFF 		bl	HAL_GetTick
 2768              	.LVL242:
 300:Core/Src/main.cpp ****   {
 2769              		.loc 1 300 22 view .LVU639
 2770 0006 074B     		ldr	r3, .L160
 2771 0008 1B68     		ldr	r3, [r3]
 2772 000a C01A     		subs	r0, r0, r3
 300:Core/Src/main.cpp ****   {
 2773              		.loc 1 300 3 view .LVU640
 2774 000c 43F69823 		movw	r3, #15000
 2775 0010 9842     		cmp	r0, r3
 2776 0012 00D8     		bhi	.L159
 2777              	.L156:
 305:Core/Src/main.cpp **** 
 2778              		.loc 1 305 1 view .LVU641
 2779 0014 08BD     		pop	{r3, pc}
 2780              	.L159:
 302:Core/Src/main.cpp ****     switchMode();
 2781              		.loc 1 302 5 is_stmt 1 view .LVU642
 302:Core/Src/main.cpp ****     switchMode();
 2782              		.loc 1 302 24 is_stmt 0 view .LVU643
 2783 0016 FFF7FEFF 		bl	HAL_GetTick
 2784              	.LVL243:
 302:Core/Src/main.cpp ****     switchMode();
 2785              		.loc 1 302 11 view .LVU644
 2786 001a 024B     		ldr	r3, .L160
 2787 001c 1860     		str	r0, [r3]
 303:Core/Src/main.cpp ****   }
 2788              		.loc 1 303 5 is_stmt 1 view .LVU645
 303:Core/Src/main.cpp ****   }
 2789              		.loc 1 303 15 is_stmt 0 view .LVU646
 2790 001e FFF7FEFF 		bl	_Z10switchModev
 2791              	.LVL244:
 305:Core/Src/main.cpp **** 
 2792              		.loc 1 305 1 view .LVU647
 2793 0022 F7E7     		b	.L156
 2794              	.L161:
 2795              		.align	2
ARM GAS  C:\Users\Admin\AppData\Local\Temp\ccC9bEpd.s 			page 74


 2796              	.L160:
 2797 0024 00000000 		.word	.LANCHOR18
 2798              		.cfi_endproc
 2799              	.LFE89:
 2800              		.fnend
 2802              		.section	.text.Error_Handler,"ax",%progbits
 2803              		.align	1
 2804              		.global	Error_Handler
 2805              		.syntax unified
 2806              		.thumb
 2807              		.thumb_func
 2808              		.fpu softvfp
 2810              	Error_Handler:
 2811              		.fnstart
 2812              	.LFB109:
 709:Core/Src/main.cpp ****   /* USER CODE BEGIN Error_Handler_Debug */
 2813              		.loc 1 709 1 is_stmt 1 view -0
 2814              		.cfi_startproc
 2815              		@ Volatile: function does not return.
 2816              		@ args = 0, pretend = 0, frame = 0
 2817              		@ frame_needed = 0, uses_anonymous_args = 0
 2818              		@ link register save eliminated.
 712:Core/Src/main.cpp ****   while (1)
 2819              		.loc 1 712 3 view .LVU649
 2820              	.LBB148:
 2821              	.LBI148:
 2822              		.file 3 "Drivers/CMSIS/Include/cmsis_gcc.h"
   1:Drivers/CMSIS/Include/cmsis_gcc.h **** /**************************************************************************//**
   2:Drivers/CMSIS/Include/cmsis_gcc.h ****  * @file     cmsis_gcc.h
   3:Drivers/CMSIS/Include/cmsis_gcc.h ****  * @brief    CMSIS compiler GCC header file
   4:Drivers/CMSIS/Include/cmsis_gcc.h ****  * @version  V5.0.4
   5:Drivers/CMSIS/Include/cmsis_gcc.h ****  * @date     09. April 2018
   6:Drivers/CMSIS/Include/cmsis_gcc.h ****  ******************************************************************************/
   7:Drivers/CMSIS/Include/cmsis_gcc.h **** /*
   8:Drivers/CMSIS/Include/cmsis_gcc.h ****  * Copyright (c) 2009-2018 Arm Limited. All rights reserved.
   9:Drivers/CMSIS/Include/cmsis_gcc.h ****  *
  10:Drivers/CMSIS/Include/cmsis_gcc.h ****  * SPDX-License-Identifier: Apache-2.0
  11:Drivers/CMSIS/Include/cmsis_gcc.h ****  *
  12:Drivers/CMSIS/Include/cmsis_gcc.h ****  * Licensed under the Apache License, Version 2.0 (the License); you may
  13:Drivers/CMSIS/Include/cmsis_gcc.h ****  * not use this file except in compliance with the License.
  14:Drivers/CMSIS/Include/cmsis_gcc.h ****  * You may obtain a copy of the License at
  15:Drivers/CMSIS/Include/cmsis_gcc.h ****  *
  16:Drivers/CMSIS/Include/cmsis_gcc.h ****  * www.apache.org/licenses/LICENSE-2.0
  17:Drivers/CMSIS/Include/cmsis_gcc.h ****  *
  18:Drivers/CMSIS/Include/cmsis_gcc.h ****  * Unless required by applicable law or agreed to in writing, software
  19:Drivers/CMSIS/Include/cmsis_gcc.h ****  * distributed under the License is distributed on an AS IS BASIS, WITHOUT
  20:Drivers/CMSIS/Include/cmsis_gcc.h ****  * WARRANTIES OR CONDITIONS OF ANY KIND, either express or implied.
  21:Drivers/CMSIS/Include/cmsis_gcc.h ****  * See the License for the specific language governing permissions and
  22:Drivers/CMSIS/Include/cmsis_gcc.h ****  * limitations under the License.
  23:Drivers/CMSIS/Include/cmsis_gcc.h ****  */
  24:Drivers/CMSIS/Include/cmsis_gcc.h **** 
  25:Drivers/CMSIS/Include/cmsis_gcc.h **** #ifndef __CMSIS_GCC_H
  26:Drivers/CMSIS/Include/cmsis_gcc.h **** #define __CMSIS_GCC_H
  27:Drivers/CMSIS/Include/cmsis_gcc.h **** 
  28:Drivers/CMSIS/Include/cmsis_gcc.h **** /* ignore some GCC warnings */
  29:Drivers/CMSIS/Include/cmsis_gcc.h **** #pragma GCC diagnostic push
  30:Drivers/CMSIS/Include/cmsis_gcc.h **** #pragma GCC diagnostic ignored "-Wsign-conversion"
ARM GAS  C:\Users\Admin\AppData\Local\Temp\ccC9bEpd.s 			page 75


  31:Drivers/CMSIS/Include/cmsis_gcc.h **** #pragma GCC diagnostic ignored "-Wconversion"
  32:Drivers/CMSIS/Include/cmsis_gcc.h **** #pragma GCC diagnostic ignored "-Wunused-parameter"
  33:Drivers/CMSIS/Include/cmsis_gcc.h **** 
  34:Drivers/CMSIS/Include/cmsis_gcc.h **** /* Fallback for __has_builtin */
  35:Drivers/CMSIS/Include/cmsis_gcc.h **** #ifndef __has_builtin
  36:Drivers/CMSIS/Include/cmsis_gcc.h ****   #define __has_builtin(x) (0)
  37:Drivers/CMSIS/Include/cmsis_gcc.h **** #endif
  38:Drivers/CMSIS/Include/cmsis_gcc.h **** 
  39:Drivers/CMSIS/Include/cmsis_gcc.h **** /* CMSIS compiler specific defines */
  40:Drivers/CMSIS/Include/cmsis_gcc.h **** #ifndef   __ASM
  41:Drivers/CMSIS/Include/cmsis_gcc.h ****   #define __ASM                                  __asm
  42:Drivers/CMSIS/Include/cmsis_gcc.h **** #endif
  43:Drivers/CMSIS/Include/cmsis_gcc.h **** #ifndef   __INLINE
  44:Drivers/CMSIS/Include/cmsis_gcc.h ****   #define __INLINE                               inline
  45:Drivers/CMSIS/Include/cmsis_gcc.h **** #endif
  46:Drivers/CMSIS/Include/cmsis_gcc.h **** #ifndef   __STATIC_INLINE
  47:Drivers/CMSIS/Include/cmsis_gcc.h ****   #define __STATIC_INLINE                        static inline
  48:Drivers/CMSIS/Include/cmsis_gcc.h **** #endif
  49:Drivers/CMSIS/Include/cmsis_gcc.h **** #ifndef   __STATIC_FORCEINLINE                 
  50:Drivers/CMSIS/Include/cmsis_gcc.h ****   #define __STATIC_FORCEINLINE                   __attribute__((always_inline)) static inline
  51:Drivers/CMSIS/Include/cmsis_gcc.h **** #endif                                           
  52:Drivers/CMSIS/Include/cmsis_gcc.h **** #ifndef   __NO_RETURN
  53:Drivers/CMSIS/Include/cmsis_gcc.h ****   #define __NO_RETURN                            __attribute__((__noreturn__))
  54:Drivers/CMSIS/Include/cmsis_gcc.h **** #endif
  55:Drivers/CMSIS/Include/cmsis_gcc.h **** #ifndef   __USED
  56:Drivers/CMSIS/Include/cmsis_gcc.h ****   #define __USED                                 __attribute__((used))
  57:Drivers/CMSIS/Include/cmsis_gcc.h **** #endif
  58:Drivers/CMSIS/Include/cmsis_gcc.h **** #ifndef   __WEAK
  59:Drivers/CMSIS/Include/cmsis_gcc.h ****   #define __WEAK                                 __attribute__((weak))
  60:Drivers/CMSIS/Include/cmsis_gcc.h **** #endif
  61:Drivers/CMSIS/Include/cmsis_gcc.h **** #ifndef   __PACKED
  62:Drivers/CMSIS/Include/cmsis_gcc.h ****   #define __PACKED                               __attribute__((packed, aligned(1)))
  63:Drivers/CMSIS/Include/cmsis_gcc.h **** #endif
  64:Drivers/CMSIS/Include/cmsis_gcc.h **** #ifndef   __PACKED_STRUCT
  65:Drivers/CMSIS/Include/cmsis_gcc.h ****   #define __PACKED_STRUCT                        struct __attribute__((packed, aligned(1)))
  66:Drivers/CMSIS/Include/cmsis_gcc.h **** #endif
  67:Drivers/CMSIS/Include/cmsis_gcc.h **** #ifndef   __PACKED_UNION
  68:Drivers/CMSIS/Include/cmsis_gcc.h ****   #define __PACKED_UNION                         union __attribute__((packed, aligned(1)))
  69:Drivers/CMSIS/Include/cmsis_gcc.h **** #endif
  70:Drivers/CMSIS/Include/cmsis_gcc.h **** #ifndef   __UNALIGNED_UINT32        /* deprecated */
  71:Drivers/CMSIS/Include/cmsis_gcc.h ****   #pragma GCC diagnostic push
  72:Drivers/CMSIS/Include/cmsis_gcc.h ****   #pragma GCC diagnostic ignored "-Wpacked"
  73:Drivers/CMSIS/Include/cmsis_gcc.h ****   #pragma GCC diagnostic ignored "-Wattributes"
  74:Drivers/CMSIS/Include/cmsis_gcc.h ****   struct __attribute__((packed)) T_UINT32 { uint32_t v; };
  75:Drivers/CMSIS/Include/cmsis_gcc.h ****   #pragma GCC diagnostic pop
  76:Drivers/CMSIS/Include/cmsis_gcc.h ****   #define __UNALIGNED_UINT32(x)                  (((struct T_UINT32 *)(x))->v)
  77:Drivers/CMSIS/Include/cmsis_gcc.h **** #endif
  78:Drivers/CMSIS/Include/cmsis_gcc.h **** #ifndef   __UNALIGNED_UINT16_WRITE
  79:Drivers/CMSIS/Include/cmsis_gcc.h ****   #pragma GCC diagnostic push
  80:Drivers/CMSIS/Include/cmsis_gcc.h ****   #pragma GCC diagnostic ignored "-Wpacked"
  81:Drivers/CMSIS/Include/cmsis_gcc.h ****   #pragma GCC diagnostic ignored "-Wattributes"
  82:Drivers/CMSIS/Include/cmsis_gcc.h ****   __PACKED_STRUCT T_UINT16_WRITE { uint16_t v; };
  83:Drivers/CMSIS/Include/cmsis_gcc.h ****   #pragma GCC diagnostic pop
  84:Drivers/CMSIS/Include/cmsis_gcc.h ****   #define __UNALIGNED_UINT16_WRITE(addr, val)    (void)((((struct T_UINT16_WRITE *)(void *)(addr))-
  85:Drivers/CMSIS/Include/cmsis_gcc.h **** #endif
  86:Drivers/CMSIS/Include/cmsis_gcc.h **** #ifndef   __UNALIGNED_UINT16_READ
  87:Drivers/CMSIS/Include/cmsis_gcc.h ****   #pragma GCC diagnostic push
ARM GAS  C:\Users\Admin\AppData\Local\Temp\ccC9bEpd.s 			page 76


  88:Drivers/CMSIS/Include/cmsis_gcc.h ****   #pragma GCC diagnostic ignored "-Wpacked"
  89:Drivers/CMSIS/Include/cmsis_gcc.h ****   #pragma GCC diagnostic ignored "-Wattributes"
  90:Drivers/CMSIS/Include/cmsis_gcc.h ****   __PACKED_STRUCT T_UINT16_READ { uint16_t v; };
  91:Drivers/CMSIS/Include/cmsis_gcc.h ****   #pragma GCC diagnostic pop
  92:Drivers/CMSIS/Include/cmsis_gcc.h ****   #define __UNALIGNED_UINT16_READ(addr)          (((const struct T_UINT16_READ *)(const void *)(add
  93:Drivers/CMSIS/Include/cmsis_gcc.h **** #endif
  94:Drivers/CMSIS/Include/cmsis_gcc.h **** #ifndef   __UNALIGNED_UINT32_WRITE
  95:Drivers/CMSIS/Include/cmsis_gcc.h ****   #pragma GCC diagnostic push
  96:Drivers/CMSIS/Include/cmsis_gcc.h ****   #pragma GCC diagnostic ignored "-Wpacked"
  97:Drivers/CMSIS/Include/cmsis_gcc.h ****   #pragma GCC diagnostic ignored "-Wattributes"
  98:Drivers/CMSIS/Include/cmsis_gcc.h ****   __PACKED_STRUCT T_UINT32_WRITE { uint32_t v; };
  99:Drivers/CMSIS/Include/cmsis_gcc.h ****   #pragma GCC diagnostic pop
 100:Drivers/CMSIS/Include/cmsis_gcc.h ****   #define __UNALIGNED_UINT32_WRITE(addr, val)    (void)((((struct T_UINT32_WRITE *)(void *)(addr))-
 101:Drivers/CMSIS/Include/cmsis_gcc.h **** #endif
 102:Drivers/CMSIS/Include/cmsis_gcc.h **** #ifndef   __UNALIGNED_UINT32_READ
 103:Drivers/CMSIS/Include/cmsis_gcc.h ****   #pragma GCC diagnostic push
 104:Drivers/CMSIS/Include/cmsis_gcc.h ****   #pragma GCC diagnostic ignored "-Wpacked"
 105:Drivers/CMSIS/Include/cmsis_gcc.h ****   #pragma GCC diagnostic ignored "-Wattributes"
 106:Drivers/CMSIS/Include/cmsis_gcc.h ****   __PACKED_STRUCT T_UINT32_READ { uint32_t v; };
 107:Drivers/CMSIS/Include/cmsis_gcc.h ****   #pragma GCC diagnostic pop
 108:Drivers/CMSIS/Include/cmsis_gcc.h ****   #define __UNALIGNED_UINT32_READ(addr)          (((const struct T_UINT32_READ *)(const void *)(add
 109:Drivers/CMSIS/Include/cmsis_gcc.h **** #endif
 110:Drivers/CMSIS/Include/cmsis_gcc.h **** #ifndef   __ALIGNED
 111:Drivers/CMSIS/Include/cmsis_gcc.h ****   #define __ALIGNED(x)                           __attribute__((aligned(x)))
 112:Drivers/CMSIS/Include/cmsis_gcc.h **** #endif
 113:Drivers/CMSIS/Include/cmsis_gcc.h **** #ifndef   __RESTRICT
 114:Drivers/CMSIS/Include/cmsis_gcc.h ****   #define __RESTRICT                             __restrict
 115:Drivers/CMSIS/Include/cmsis_gcc.h **** #endif
 116:Drivers/CMSIS/Include/cmsis_gcc.h **** 
 117:Drivers/CMSIS/Include/cmsis_gcc.h **** 
 118:Drivers/CMSIS/Include/cmsis_gcc.h **** /* ###########################  Core Function Access  ########################### */
 119:Drivers/CMSIS/Include/cmsis_gcc.h **** /** \ingroup  CMSIS_Core_FunctionInterface
 120:Drivers/CMSIS/Include/cmsis_gcc.h ****     \defgroup CMSIS_Core_RegAccFunctions CMSIS Core Register Access Functions
 121:Drivers/CMSIS/Include/cmsis_gcc.h ****   @{
 122:Drivers/CMSIS/Include/cmsis_gcc.h ****  */
 123:Drivers/CMSIS/Include/cmsis_gcc.h **** 
 124:Drivers/CMSIS/Include/cmsis_gcc.h **** /**
 125:Drivers/CMSIS/Include/cmsis_gcc.h ****   \brief   Enable IRQ Interrupts
 126:Drivers/CMSIS/Include/cmsis_gcc.h ****   \details Enables IRQ interrupts by clearing the I-bit in the CPSR.
 127:Drivers/CMSIS/Include/cmsis_gcc.h ****            Can only be executed in Privileged modes.
 128:Drivers/CMSIS/Include/cmsis_gcc.h ****  */
 129:Drivers/CMSIS/Include/cmsis_gcc.h **** __STATIC_FORCEINLINE void __enable_irq(void)
 130:Drivers/CMSIS/Include/cmsis_gcc.h **** {
 131:Drivers/CMSIS/Include/cmsis_gcc.h ****   __ASM volatile ("cpsie i" : : : "memory");
 132:Drivers/CMSIS/Include/cmsis_gcc.h **** }
 133:Drivers/CMSIS/Include/cmsis_gcc.h **** 
 134:Drivers/CMSIS/Include/cmsis_gcc.h **** 
 135:Drivers/CMSIS/Include/cmsis_gcc.h **** /**
 136:Drivers/CMSIS/Include/cmsis_gcc.h ****   \brief   Disable IRQ Interrupts
 137:Drivers/CMSIS/Include/cmsis_gcc.h ****   \details Disables IRQ interrupts by setting the I-bit in the CPSR.
 138:Drivers/CMSIS/Include/cmsis_gcc.h ****            Can only be executed in Privileged modes.
 139:Drivers/CMSIS/Include/cmsis_gcc.h ****  */
 140:Drivers/CMSIS/Include/cmsis_gcc.h **** __STATIC_FORCEINLINE void __disable_irq(void)
 2823              		.loc 3 140 27 view .LVU650
 2824              	.LBB149:
 141:Drivers/CMSIS/Include/cmsis_gcc.h **** {
 142:Drivers/CMSIS/Include/cmsis_gcc.h ****   __ASM volatile ("cpsid i" : : : "memory");
ARM GAS  C:\Users\Admin\AppData\Local\Temp\ccC9bEpd.s 			page 77


 2825              		.loc 3 142 3 view .LVU651
 2826              		.syntax unified
 2827              	@ 142 "Drivers/CMSIS/Include/cmsis_gcc.h" 1
 2828 0000 72B6     		cpsid i
 2829              	@ 0 "" 2
 2830              		.thumb
 2831              		.syntax unified
 2832              	.L163:
 2833              	.LBE149:
 2834              	.LBE148:
 713:Core/Src/main.cpp ****   {
 2835              		.loc 1 713 3 discriminator 1 view .LVU652
 713:Core/Src/main.cpp ****   {
 2836              		.loc 1 713 3 discriminator 1 view .LVU653
 2837 0002 FEE7     		b	.L163
 2838              		.cfi_endproc
 2839              	.LFE109:
 2840              		.cantunwind
 2841              		.fnend
 2843              		.section	.text._Z18SystemClock_Configv,"ax",%progbits
 2844              		.align	1
 2845              		.global	_Z18SystemClock_Configv
 2846              		.syntax unified
 2847              		.thumb
 2848              		.thumb_func
 2849              		.fpu softvfp
 2851              	_Z18SystemClock_Configv:
 2852              		.fnstart
 2853              	.LFB84:
 141:Core/Src/main.cpp ****   RCC_OscInitTypeDef RCC_OscInitStruct = {0};
 2854              		.loc 1 141 1 view -0
 2855              		.cfi_startproc
 2856              		@ args = 0, pretend = 0, frame = 64
 2857              		@ frame_needed = 0, uses_anonymous_args = 0
 2858 0000 00B5     		push	{lr}
 2859              		.save {lr}
 2860              	.LCFI21:
 2861              		.cfi_def_cfa_offset 4
 2862              		.cfi_offset 14, -4
 2863              		.pad #68
 2864 0002 91B0     		sub	sp, sp, #68
 2865              	.LCFI22:
 2866              		.cfi_def_cfa_offset 72
 142:Core/Src/main.cpp ****   RCC_ClkInitTypeDef RCC_ClkInitStruct = {0};
 2867              		.loc 1 142 3 view .LVU655
 142:Core/Src/main.cpp ****   RCC_ClkInitTypeDef RCC_ClkInitStruct = {0};
 2868              		.loc 1 142 22 is_stmt 0 view .LVU656
 2869 0004 2822     		movs	r2, #40
 2870 0006 0021     		movs	r1, #0
 2871 0008 06A8     		add	r0, sp, #24
 2872 000a FFF7FEFF 		bl	memset
 2873              	.LVL245:
 143:Core/Src/main.cpp **** 
 2874              		.loc 1 143 3 is_stmt 1 view .LVU657
 143:Core/Src/main.cpp **** 
 2875              		.loc 1 143 22 is_stmt 0 view .LVU658
 2876 000e 0023     		movs	r3, #0
ARM GAS  C:\Users\Admin\AppData\Local\Temp\ccC9bEpd.s 			page 78


 2877 0010 0193     		str	r3, [sp, #4]
 2878 0012 0293     		str	r3, [sp, #8]
 2879 0014 0393     		str	r3, [sp, #12]
 2880 0016 0493     		str	r3, [sp, #16]
 2881 0018 0593     		str	r3, [sp, #20]
 148:Core/Src/main.cpp ****   RCC_OscInitStruct.HSIState = RCC_HSI_ON;
 2882              		.loc 1 148 3 is_stmt 1 view .LVU659
 148:Core/Src/main.cpp ****   RCC_OscInitStruct.HSIState = RCC_HSI_ON;
 2883              		.loc 1 148 36 is_stmt 0 view .LVU660
 2884 001a 0223     		movs	r3, #2
 2885 001c 0693     		str	r3, [sp, #24]
 149:Core/Src/main.cpp ****   RCC_OscInitStruct.HSICalibrationValue = RCC_HSICALIBRATION_DEFAULT;
 2886              		.loc 1 149 3 is_stmt 1 view .LVU661
 149:Core/Src/main.cpp ****   RCC_OscInitStruct.HSICalibrationValue = RCC_HSICALIBRATION_DEFAULT;
 2887              		.loc 1 149 30 is_stmt 0 view .LVU662
 2888 001e 0122     		movs	r2, #1
 2889 0020 0A92     		str	r2, [sp, #40]
 150:Core/Src/main.cpp ****   RCC_OscInitStruct.PLL.PLLState = RCC_PLL_ON;
 2890              		.loc 1 150 3 is_stmt 1 view .LVU663
 150:Core/Src/main.cpp ****   RCC_OscInitStruct.PLL.PLLState = RCC_PLL_ON;
 2891              		.loc 1 150 41 is_stmt 0 view .LVU664
 2892 0022 1022     		movs	r2, #16
 2893 0024 0B92     		str	r2, [sp, #44]
 151:Core/Src/main.cpp ****   RCC_OscInitStruct.PLL.PLLSource = RCC_PLLSOURCE_HSI_DIV2;
 2894              		.loc 1 151 3 is_stmt 1 view .LVU665
 151:Core/Src/main.cpp ****   RCC_OscInitStruct.PLL.PLLSource = RCC_PLLSOURCE_HSI_DIV2;
 2895              		.loc 1 151 34 is_stmt 0 view .LVU666
 2896 0026 0D93     		str	r3, [sp, #52]
 152:Core/Src/main.cpp ****   RCC_OscInitStruct.PLL.PLLMUL = RCC_PLL_MUL9;
 2897              		.loc 1 152 3 is_stmt 1 view .LVU667
 153:Core/Src/main.cpp ****   if (HAL_RCC_OscConfig(&RCC_OscInitStruct) != HAL_OK)
 2898              		.loc 1 153 3 view .LVU668
 153:Core/Src/main.cpp ****   if (HAL_RCC_OscConfig(&RCC_OscInitStruct) != HAL_OK)
 2899              		.loc 1 153 32 is_stmt 0 view .LVU669
 2900 0028 4FF4E013 		mov	r3, #1835008
 2901 002c 0F93     		str	r3, [sp, #60]
 154:Core/Src/main.cpp ****   {
 2902              		.loc 1 154 3 is_stmt 1 view .LVU670
 154:Core/Src/main.cpp ****   {
 2903              		.loc 1 154 24 is_stmt 0 view .LVU671
 2904 002e 06A8     		add	r0, sp, #24
 2905 0030 FFF7FEFF 		bl	HAL_RCC_OscConfig
 2906              	.LVL246:
 154:Core/Src/main.cpp ****   {
 2907              		.loc 1 154 3 view .LVU672
 2908 0034 88B9     		cbnz	r0, .L168
 160:Core/Src/main.cpp ****   RCC_ClkInitStruct.SYSCLKSource = RCC_SYSCLKSOURCE_PLLCLK;
 2909              		.loc 1 160 3 is_stmt 1 view .LVU673
 160:Core/Src/main.cpp ****   RCC_ClkInitStruct.SYSCLKSource = RCC_SYSCLKSOURCE_PLLCLK;
 2910              		.loc 1 160 31 is_stmt 0 view .LVU674
 2911 0036 0F23     		movs	r3, #15
 2912 0038 0193     		str	r3, [sp, #4]
 161:Core/Src/main.cpp ****   RCC_ClkInitStruct.AHBCLKDivider = RCC_SYSCLK_DIV1;
 2913              		.loc 1 161 3 is_stmt 1 view .LVU675
 161:Core/Src/main.cpp ****   RCC_ClkInitStruct.AHBCLKDivider = RCC_SYSCLK_DIV1;
 2914              		.loc 1 161 34 is_stmt 0 view .LVU676
 2915 003a 0223     		movs	r3, #2
ARM GAS  C:\Users\Admin\AppData\Local\Temp\ccC9bEpd.s 			page 79


 2916 003c 0293     		str	r3, [sp, #8]
 162:Core/Src/main.cpp ****   RCC_ClkInitStruct.APB1CLKDivider = RCC_HCLK_DIV2;
 2917              		.loc 1 162 3 is_stmt 1 view .LVU677
 162:Core/Src/main.cpp ****   RCC_ClkInitStruct.APB1CLKDivider = RCC_HCLK_DIV2;
 2918              		.loc 1 162 35 is_stmt 0 view .LVU678
 2919 003e 0023     		movs	r3, #0
 2920 0040 0393     		str	r3, [sp, #12]
 163:Core/Src/main.cpp ****   RCC_ClkInitStruct.APB2CLKDivider = RCC_HCLK_DIV1;
 2921              		.loc 1 163 3 is_stmt 1 view .LVU679
 163:Core/Src/main.cpp ****   RCC_ClkInitStruct.APB2CLKDivider = RCC_HCLK_DIV1;
 2922              		.loc 1 163 36 is_stmt 0 view .LVU680
 2923 0042 4FF48062 		mov	r2, #1024
 2924 0046 0492     		str	r2, [sp, #16]
 164:Core/Src/main.cpp **** 
 2925              		.loc 1 164 3 is_stmt 1 view .LVU681
 164:Core/Src/main.cpp **** 
 2926              		.loc 1 164 36 is_stmt 0 view .LVU682
 2927 0048 0593     		str	r3, [sp, #20]
 166:Core/Src/main.cpp ****   {
 2928              		.loc 1 166 3 is_stmt 1 view .LVU683
 166:Core/Src/main.cpp ****   {
 2929              		.loc 1 166 26 is_stmt 0 view .LVU684
 2930 004a 0121     		movs	r1, #1
 2931 004c 01A8     		add	r0, sp, #4
 2932 004e FFF7FEFF 		bl	HAL_RCC_ClockConfig
 2933              	.LVL247:
 166:Core/Src/main.cpp ****   {
 2934              		.loc 1 166 3 view .LVU685
 2935 0052 20B9     		cbnz	r0, .L169
 170:Core/Src/main.cpp **** 
 2936              		.loc 1 170 1 view .LVU686
 2937 0054 11B0     		add	sp, sp, #68
 2938              	.LCFI23:
 2939              		.cfi_remember_state
 2940              		.cfi_def_cfa_offset 4
 2941              		@ sp needed
 2942 0056 5DF804FB 		ldr	pc, [sp], #4
 2943              	.L168:
 2944              	.LCFI24:
 2945              		.cfi_restore_state
 156:Core/Src/main.cpp ****   }
 2946              		.loc 1 156 5 is_stmt 1 view .LVU687
 156:Core/Src/main.cpp ****   }
 2947              		.loc 1 156 18 is_stmt 0 view .LVU688
 2948 005a FFF7FEFF 		bl	Error_Handler
 2949              	.LVL248:
 2950              	.L169:
 168:Core/Src/main.cpp ****   }
 2951              		.loc 1 168 5 is_stmt 1 view .LVU689
 168:Core/Src/main.cpp ****   }
 2952              		.loc 1 168 18 is_stmt 0 view .LVU690
 2953 005e FFF7FEFF 		bl	Error_Handler
 2954              	.LVL249:
 2955              		.cfi_endproc
 2956              	.LFE84:
 2957              		.fnend
 2959              		.section	.text._ZL19MX_USART1_UART_Initv,"ax",%progbits
ARM GAS  C:\Users\Admin\AppData\Local\Temp\ccC9bEpd.s 			page 80


 2960              		.align	1
 2961              		.syntax unified
 2962              		.thumb
 2963              		.thumb_func
 2964              		.fpu softvfp
 2966              	_ZL19MX_USART1_UART_Initv:
 2967              		.fnstart
 2968              	.LFB85:
 178:Core/Src/main.cpp ****   huart1.Instance = USART1;
 2969              		.loc 1 178 1 is_stmt 1 view -0
 2970              		.cfi_startproc
 2971              		@ args = 0, pretend = 0, frame = 0
 2972              		@ frame_needed = 0, uses_anonymous_args = 0
 2973 0000 08B5     		push	{r3, lr}
 2974              		.save {r3, lr}
 2975              	.LCFI25:
 2976              		.cfi_def_cfa_offset 8
 2977              		.cfi_offset 3, -8
 2978              		.cfi_offset 14, -4
 179:Core/Src/main.cpp ****   huart1.Init.BaudRate = 115200;
 2979              		.loc 1 179 3 view .LVU692
 179:Core/Src/main.cpp ****   huart1.Init.BaudRate = 115200;
 2980              		.loc 1 179 19 is_stmt 0 view .LVU693
 2981 0002 0A48     		ldr	r0, .L174
 2982 0004 0A4B     		ldr	r3, .L174+4
 2983 0006 0360     		str	r3, [r0]
 180:Core/Src/main.cpp ****   huart1.Init.WordLength = UART_WORDLENGTH_8B;
 2984              		.loc 1 180 3 is_stmt 1 view .LVU694
 180:Core/Src/main.cpp ****   huart1.Init.WordLength = UART_WORDLENGTH_8B;
 2985              		.loc 1 180 24 is_stmt 0 view .LVU695
 2986 0008 4FF4E133 		mov	r3, #115200
 2987 000c 4360     		str	r3, [r0, #4]
 181:Core/Src/main.cpp ****   huart1.Init.StopBits = UART_STOPBITS_1;
 2988              		.loc 1 181 3 is_stmt 1 view .LVU696
 181:Core/Src/main.cpp ****   huart1.Init.StopBits = UART_STOPBITS_1;
 2989              		.loc 1 181 26 is_stmt 0 view .LVU697
 2990 000e 0023     		movs	r3, #0
 2991 0010 8360     		str	r3, [r0, #8]
 182:Core/Src/main.cpp ****   huart1.Init.Parity = UART_PARITY_NONE;
 2992              		.loc 1 182 3 is_stmt 1 view .LVU698
 182:Core/Src/main.cpp ****   huart1.Init.Parity = UART_PARITY_NONE;
 2993              		.loc 1 182 24 is_stmt 0 view .LVU699
 2994 0012 C360     		str	r3, [r0, #12]
 183:Core/Src/main.cpp ****   huart1.Init.Mode = UART_MODE_TX_RX;
 2995              		.loc 1 183 3 is_stmt 1 view .LVU700
 183:Core/Src/main.cpp ****   huart1.Init.Mode = UART_MODE_TX_RX;
 2996              		.loc 1 183 22 is_stmt 0 view .LVU701
 2997 0014 0361     		str	r3, [r0, #16]
 184:Core/Src/main.cpp ****   huart1.Init.HwFlowCtl = UART_HWCONTROL_NONE;
 2998              		.loc 1 184 3 is_stmt 1 view .LVU702
 184:Core/Src/main.cpp ****   huart1.Init.HwFlowCtl = UART_HWCONTROL_NONE;
 2999              		.loc 1 184 20 is_stmt 0 view .LVU703
 3000 0016 0C22     		movs	r2, #12
 3001 0018 4261     		str	r2, [r0, #20]
 185:Core/Src/main.cpp ****   huart1.Init.OverSampling = UART_OVERSAMPLING_16;
 3002              		.loc 1 185 3 is_stmt 1 view .LVU704
 185:Core/Src/main.cpp ****   huart1.Init.OverSampling = UART_OVERSAMPLING_16;
ARM GAS  C:\Users\Admin\AppData\Local\Temp\ccC9bEpd.s 			page 81


 3003              		.loc 1 185 25 is_stmt 0 view .LVU705
 3004 001a 8361     		str	r3, [r0, #24]
 186:Core/Src/main.cpp ****   if (HAL_UART_Init(&huart1) != HAL_OK)
 3005              		.loc 1 186 3 is_stmt 1 view .LVU706
 186:Core/Src/main.cpp ****   if (HAL_UART_Init(&huart1) != HAL_OK)
 3006              		.loc 1 186 28 is_stmt 0 view .LVU707
 3007 001c C361     		str	r3, [r0, #28]
 187:Core/Src/main.cpp ****   {
 3008              		.loc 1 187 3 is_stmt 1 view .LVU708
 187:Core/Src/main.cpp ****   {
 3009              		.loc 1 187 20 is_stmt 0 view .LVU709
 3010 001e FFF7FEFF 		bl	HAL_UART_Init
 3011              	.LVL250:
 187:Core/Src/main.cpp ****   {
 3012              		.loc 1 187 3 view .LVU710
 3013 0022 00B9     		cbnz	r0, .L173
 191:Core/Src/main.cpp **** 
 3014              		.loc 1 191 1 view .LVU711
 3015 0024 08BD     		pop	{r3, pc}
 3016              	.L173:
 189:Core/Src/main.cpp ****   }
 3017              		.loc 1 189 5 is_stmt 1 view .LVU712
 189:Core/Src/main.cpp ****   }
 3018              		.loc 1 189 18 is_stmt 0 view .LVU713
 3019 0026 FFF7FEFF 		bl	Error_Handler
 3020              	.LVL251:
 3021              	.L175:
 3022 002a 00BF     		.align	2
 3023              	.L174:
 3024 002c 00000000 		.word	.LANCHOR16
 3025 0030 00380140 		.word	1073821696
 3026              		.cfi_endproc
 3027              	.LFE85:
 3028              		.fnend
 3030              		.section	.rodata.main.str1.4,"aMS",%progbits,1
 3031              		.align	2
 3032              	.LC19:
 3033 0000 74657374 		.ascii	"test\015\012\000"
 3033      0D0A00
 3034              		.section	.text.main,"ax",%progbits
 3035              		.align	1
 3036              		.global	main
 3037              		.syntax unified
 3038              		.thumb
 3039              		.thumb_func
 3040              		.fpu softvfp
 3042              	main:
 3043              		.fnstart
 3044              	.LFB87:
 250:Core/Src/main.cpp ****   HAL_Init();
 3045              		.loc 1 250 1 is_stmt 1 view -0
 3046              		.cfi_startproc
 3047              		@ args = 0, pretend = 0, frame = 0
 3048              		@ frame_needed = 0, uses_anonymous_args = 0
 3049 0000 08B5     		push	{r3, lr}
 3050              		.save {r3, lr}
 3051              	.LCFI26:
ARM GAS  C:\Users\Admin\AppData\Local\Temp\ccC9bEpd.s 			page 82


 3052              		.cfi_def_cfa_offset 8
 3053              		.cfi_offset 3, -8
 3054              		.cfi_offset 14, -4
 251:Core/Src/main.cpp **** 
 3055              		.loc 1 251 3 view .LVU715
 251:Core/Src/main.cpp **** 
 3056              		.loc 1 251 11 is_stmt 0 view .LVU716
 3057 0002 FFF7FEFF 		bl	HAL_Init
 3058              	.LVL252:
 253:Core/Src/main.cpp ****   MX_GPIO_Init();
 3059              		.loc 1 253 3 is_stmt 1 view .LVU717
 253:Core/Src/main.cpp ****   MX_GPIO_Init();
 3060              		.loc 1 253 21 is_stmt 0 view .LVU718
 3061 0006 FFF7FEFF 		bl	_Z18SystemClock_Configv
 3062              	.LVL253:
 254:Core/Src/main.cpp ****   MX_USART1_UART_Init();
 3063              		.loc 1 254 3 is_stmt 1 view .LVU719
 254:Core/Src/main.cpp ****   MX_USART1_UART_Init();
 3064              		.loc 1 254 15 is_stmt 0 view .LVU720
 3065 000a FFF7FEFF 		bl	_ZL12MX_GPIO_Initv
 3066              	.LVL254:
 255:Core/Src/main.cpp **** 
 3067              		.loc 1 255 3 is_stmt 1 view .LVU721
 255:Core/Src/main.cpp **** 
 3068              		.loc 1 255 22 is_stmt 0 view .LVU722
 3069 000e FFF7FEFF 		bl	_ZL19MX_USART1_UART_Initv
 3070              	.LVL255:
 257:Core/Src/main.cpp ****   
 3071              		.loc 1 257 3 is_stmt 1 view .LVU723
 257:Core/Src/main.cpp ****   
 3072              		.loc 1 257 14 is_stmt 0 view .LVU724
 3073 0012 1248     		ldr	r0, .L179
 3074 0014 FFF7FEFF 		bl	_Z11UART_PrintfPKcz
 3075              	.LVL256:
 259:Core/Src/main.cpp ****   insideGreenLed.turnOff();
 3076              		.loc 1 259 3 is_stmt 1 view .LVU725
 259:Core/Src/main.cpp ****   insideGreenLed.turnOff();
 3077              		.loc 1 259 14 is_stmt 0 view .LVU726
 3078 0018 1148     		ldr	r0, .L179+4
 3079 001a FFF7FEFF 		bl	_Z11UART_PrintfPKcz
 3080              	.LVL257:
 260:Core/Src/main.cpp ****   outsideGreenLed.turnOff();
 3081              		.loc 1 260 3 is_stmt 1 view .LVU727
 260:Core/Src/main.cpp ****   outsideGreenLed.turnOff();
 3082              		.loc 1 260 25 is_stmt 0 view .LVU728
 3083 001e 1148     		ldr	r0, .L179+8
 3084 0020 FFF7FEFF 		bl	_ZN14InvertedPinOut7turnOffEv
 3085              	.LVL258:
 261:Core/Src/main.cpp ****   insideZumer.turnOff();
 3086              		.loc 1 261 3 is_stmt 1 view .LVU729
 261:Core/Src/main.cpp ****   insideZumer.turnOff();
 3087              		.loc 1 261 26 is_stmt 0 view .LVU730
 3088 0024 1048     		ldr	r0, .L179+12
 3089 0026 FFF7FEFF 		bl	_ZN14InvertedPinOut7turnOffEv
 3090              	.LVL259:
 262:Core/Src/main.cpp ****   outsideZumer.turnOff();
 3091              		.loc 1 262 3 is_stmt 1 view .LVU731
ARM GAS  C:\Users\Admin\AppData\Local\Temp\ccC9bEpd.s 			page 83


 262:Core/Src/main.cpp ****   outsideZumer.turnOff();
 3092              		.loc 1 262 22 is_stmt 0 view .LVU732
 3093 002a 1048     		ldr	r0, .L179+16
 3094 002c FFF7FEFF 		bl	_ZN14InvertedPinOut7turnOffEv
 3095              	.LVL260:
 263:Core/Src/main.cpp **** 
 3096              		.loc 1 263 3 is_stmt 1 view .LVU733
 263:Core/Src/main.cpp **** 
 3097              		.loc 1 263 23 is_stmt 0 view .LVU734
 3098 0030 0F48     		ldr	r0, .L179+20
 3099 0032 FFF7FEFF 		bl	_ZN14InvertedPinOut7turnOffEv
 3100              	.LVL261:
 3101              	.L177:
 265:Core/Src/main.cpp ****   {
 3102              		.loc 1 265 3 is_stmt 1 discriminator 1 view .LVU735
 267:Core/Src/main.cpp **** 
 3103              		.loc 1 267 5 discriminator 1 view .LVU736
 267:Core/Src/main.cpp **** 
 3104              		.loc 1 267 19 is_stmt 0 discriminator 1 view .LVU737
 3105 0036 FFF7FEFF 		bl	_Z14TimeTrackEventv
 3106              	.LVL262:
 269:Core/Src/main.cpp **** 
 3107              		.loc 1 269 5 is_stmt 1 discriminator 1 view .LVU738
 269:Core/Src/main.cpp **** 
 3108              		.loc 1 269 20 is_stmt 0 discriminator 1 view .LVU739
 3109 003a FFF7FEFF 		bl	_Z15ChangeModeEventv
 3110              	.LVL263:
 271:Core/Src/main.cpp **** 
 3111              		.loc 1 271 5 is_stmt 1 discriminator 1 view .LVU740
 271:Core/Src/main.cpp **** 
 3112              		.loc 1 271 20 is_stmt 0 discriminator 1 view .LVU741
 3113 003e FFF7FEFF 		bl	_Z15DoorSensorEventv
 3114              	.LVL264:
 273:Core/Src/main.cpp **** 
 3115              		.loc 1 273 5 is_stmt 1 discriminator 1 view .LVU742
 273:Core/Src/main.cpp **** 
 3116              		.loc 1 273 17 is_stmt 0 discriminator 1 view .LVU743
 3117 0042 FFF7FEFF 		bl	_Z12KeyReadEventv
 3118              	.LVL265:
 275:Core/Src/main.cpp **** 
 3119              		.loc 1 275 5 is_stmt 1 discriminator 1 view .LVU744
 275:Core/Src/main.cpp **** 
 3120              		.loc 1 275 23 is_stmt 0 discriminator 1 view .LVU745
 3121 0046 FFF7FEFF 		bl	_Z18ButtonPressedEventv
 3122              	.LVL266:
 277:Core/Src/main.cpp **** 
 3123              		.loc 1 277 5 is_stmt 1 discriminator 1 view .LVU746
 277:Core/Src/main.cpp **** 
 3124              		.loc 1 277 22 is_stmt 0 discriminator 1 view .LVU747
 3125 004a FFF7FEFF 		bl	_Z17TempOpenModeEventv
 3126              	.LVL267:
 279:Core/Src/main.cpp **** 
 3127              		.loc 1 279 5 is_stmt 1 discriminator 1 view .LVU748
 279:Core/Src/main.cpp **** 
 3128              		.loc 1 279 19 is_stmt 0 discriminator 1 view .LVU749
 3129 004e FFF7FEFF 		bl	_Z14TempAlarmEventv
 3130              	.LVL268:
ARM GAS  C:\Users\Admin\AppData\Local\Temp\ccC9bEpd.s 			page 84


 281:Core/Src/main.cpp **** 
 3131              		.loc 1 281 5 is_stmt 1 discriminator 1 view .LVU750
 281:Core/Src/main.cpp **** 
 3132              		.loc 1 281 17 is_stmt 0 discriminator 1 view .LVU751
 3133 0052 FFF7FEFF 		bl	_Z12DenyKeyEventv
 3134              	.LVL269:
 283:Core/Src/main.cpp ****   }
 3135              		.loc 1 283 5 is_stmt 1 discriminator 1 view .LVU752
 283:Core/Src/main.cpp ****   }
 3136              		.loc 1 283 15 is_stmt 0 discriminator 1 view .LVU753
 3137 0056 FFF7FEFF 		bl	_Z10AlarmEventv
 3138              	.LVL270:
 265:Core/Src/main.cpp ****   {
 3139              		.loc 1 265 3 is_stmt 1 discriminator 1 view .LVU754
 3140 005a ECE7     		b	.L177
 3141              	.L180:
 3142              		.align	2
 3143              	.L179:
 3144 005c 00000000 		.word	.LC19
 3145 0060 58000000 		.word	.LC17
 3146 0064 00000000 		.word	.LANCHOR5
 3147 0068 00000000 		.word	.LANCHOR6
 3148 006c 00000000 		.word	.LANCHOR3
 3149 0070 00000000 		.word	.LANCHOR4
 3150              		.cfi_endproc
 3151              	.LFE87:
 3152              		.fnend
 3154              		.section	.text._GLOBAL__sub_I_huart1,"ax",%progbits
 3155              		.align	1
 3156              		.syntax unified
 3157              		.thumb
 3158              		.thumb_func
 3159              		.fpu softvfp
 3161              	_GLOBAL__sub_I_huart1:
 3162              		.fnstart
 3163              	.LFB111:
 3164              		.loc 1 717 1 view -0
 3165              		.cfi_startproc
 3166              		@ args = 0, pretend = 0, frame = 0
 3167              		@ frame_needed = 0, uses_anonymous_args = 0
 3168 0000 08B5     		push	{r3, lr}
 3169              	.LCFI27:
 3170              		.cfi_def_cfa_offset 8
 3171              		.cfi_offset 3, -8
 3172              		.cfi_offset 14, -4
 3173              		.loc 1 717 1 is_stmt 0 view .LVU756
 3174 0002 4FF6FF71 		movw	r1, #65535
 3175 0006 0120     		movs	r0, #1
 3176 0008 FFF7FEFF 		bl	_Z41__static_initialization_and_destruction_0ii
 3177              	.LVL271:
 3178 000c 08BD     		pop	{r3, pc}
 3179              		.cfi_endproc
 3180              	.LFE111:
 3181              		.cantunwind
 3182              		.fnend
 3184              		.section	.init_array,"aw",%init_array
 3185              		.align	2
ARM GAS  C:\Users\Admin\AppData\Local\Temp\ccC9bEpd.s 			page 85


 3186 0000 00000000 		.word	_GLOBAL__sub_I_huart1(target1)
 3187              		.global	timme
 3188              		.global	timmeTrack
 3189              		.global	outsideIntercom
 3190              		.global	insideIntercom
 3191              		.global	doorSensorTimer
 3192              		.global	outsideGreenLed
 3193              		.global	insideGreenLed
 3194              		.global	outsideZumer
 3195              		.global	insideZumer
 3196              		.global	siren
 3197              		.global	lock
 3198              		.global	door
 3199              		.global	outsideKeyRead
 3200              		.global	insideKeyRead
 3201              		.global	wig_flag_inrt
 3202              		.global	huart1
 3203              		.section	.bss._ZGVZ10AlarmEventvE10alarmTimer,"aw",%nobits
 3204              		.align	2
 3205              		.set	.LANCHOR26,. + 0
 3208              	_ZGVZ10AlarmEventvE10alarmTimer:
 3209 0000 00000000 		.space	4
 3210              		.section	.bss._ZGVZ12DenyKeyEventvE9denyTimer,"aw",%nobits
 3211              		.align	2
 3212              		.set	.LANCHOR10,. + 0
 3215              	_ZGVZ12DenyKeyEventvE9denyTimer:
 3216 0000 00000000 		.space	4
 3217              		.section	.bss._ZGVZ14TempAlarmEventvE10sirenTimer,"aw",%nobits
 3218              		.align	2
 3219              		.set	.LANCHOR24,. + 0
 3222              	_ZGVZ14TempAlarmEventvE10sirenTimer:
 3223 0000 00000000 		.space	4
 3224              		.section	.bss._ZGVZ17TempOpenModeEventvE10zumerTimer,"aw",%nobits
 3225              		.align	2
 3226              		.set	.LANCHOR21,. + 0
 3229              	_ZGVZ17TempOpenModeEventvE10zumerTimer:
 3230 0000 00000000 		.space	4
 3231              		.section	.bss._ZGVZ17TempOpenModeEventvE9lockTimer,"aw",%nobits
 3232              		.align	2
 3233              		.set	.LANCHOR19,. + 0
 3236              	_ZGVZ17TempOpenModeEventvE9lockTimer:
 3237 0000 00000000 		.space	4
 3238              		.section	.bss._ZZ10AlarmEventvE10alarmTimer,"aw",%nobits
 3239              		.align	2
 3240              		.set	.LANCHOR27,. + 0
 3243              	_ZZ10AlarmEventvE10alarmTimer:
 3244 0000 00000000 		.space	8
 3244      00000000 
 3245              		.section	.bss._ZZ12DenyKeyEventvE9denyTimer,"aw",%nobits
 3246              		.align	2
 3247              		.set	.LANCHOR11,. + 0
 3250              	_ZZ12DenyKeyEventvE9denyTimer:
 3251 0000 00000000 		.space	8
 3251      00000000 
 3252              		.section	.bss._ZZ14TempAlarmEventvE10sirenTimer,"aw",%nobits
 3253              		.align	2
 3254              		.set	.LANCHOR25,. + 0
ARM GAS  C:\Users\Admin\AppData\Local\Temp\ccC9bEpd.s 			page 86


 3257              	_ZZ14TempAlarmEventvE10sirenTimer:
 3258 0000 00000000 		.space	8
 3258      00000000 
 3259              		.section	.bss._ZZ17TempOpenModeEventvE10zumerTimer,"aw",%nobits
 3260              		.align	2
 3261              		.set	.LANCHOR22,. + 0
 3264              	_ZZ17TempOpenModeEventvE10zumerTimer:
 3265 0000 00000000 		.space	8
 3265      00000000 
 3266              		.section	.bss._ZZ17TempOpenModeEventvE9lockTimer,"aw",%nobits
 3267              		.align	2
 3268              		.set	.LANCHOR20,. + 0
 3271              	_ZZ17TempOpenModeEventvE9lockTimer:
 3272 0000 00000000 		.space	8
 3272      00000000 
 3273              		.section	.bss.door,"aw",%nobits
 3274              		.align	2
 3275              		.set	.LANCHOR0,. + 0
 3278              	door:
 3279 0000 00000000 		.space	8
 3279      00000000 
 3280              		.section	.bss.doorSensorTimer,"aw",%nobits
 3281              		.align	2
 3282              		.set	.LANCHOR7,. + 0
 3285              	doorSensorTimer:
 3286 0000 00000000 		.space	8
 3286      00000000 
 3287              		.section	.bss.huart1,"aw",%nobits
 3288              		.align	2
 3289              		.set	.LANCHOR16,. + 0
 3292              	huart1:
 3293 0000 00000000 		.space	64
 3293      00000000 
 3293      00000000 
 3293      00000000 
 3293      00000000 
 3294              		.section	.bss.insideGreenLed,"aw",%nobits
 3295              		.align	2
 3296              		.set	.LANCHOR5,. + 0
 3299              	insideGreenLed:
 3300 0000 00000000 		.space	8
 3300      00000000 
 3301              		.section	.bss.insideIntercom,"aw",%nobits
 3302              		.align	2
 3303              		.set	.LANCHOR8,. + 0
 3306              	insideIntercom:
 3307 0000 00000000 		.space	4
 3308              		.section	.bss.insideKeyRead,"aw",%nobits
 3309              		.set	.LANCHOR14,. + 0
 3312              	insideKeyRead:
 3313 0000 00       		.space	1
 3314              		.section	.bss.insideZumer,"aw",%nobits
 3315              		.align	2
 3316              		.set	.LANCHOR3,. + 0
 3319              	insideZumer:
 3320 0000 00000000 		.space	8
 3320      00000000 
ARM GAS  C:\Users\Admin\AppData\Local\Temp\ccC9bEpd.s 			page 87


 3321              		.section	.bss.lock,"aw",%nobits
 3322              		.align	2
 3323              		.set	.LANCHOR1,. + 0
 3326              	lock:
 3327 0000 00000000 		.space	8
 3327      00000000 
 3328              		.section	.bss.outsideGreenLed,"aw",%nobits
 3329              		.align	2
 3330              		.set	.LANCHOR6,. + 0
 3333              	outsideGreenLed:
 3334 0000 00000000 		.space	8
 3334      00000000 
 3335              		.section	.bss.outsideIntercom,"aw",%nobits
 3336              		.align	2
 3337              		.set	.LANCHOR9,. + 0
 3340              	outsideIntercom:
 3341 0000 00000000 		.space	4
 3342              		.section	.bss.outsideKeyRead,"aw",%nobits
 3343              		.set	.LANCHOR15,. + 0
 3346              	outsideKeyRead:
 3347 0000 00       		.space	1
 3348              		.section	.bss.outsideZumer,"aw",%nobits
 3349              		.align	2
 3350              		.set	.LANCHOR4,. + 0
 3353              	outsideZumer:
 3354 0000 00000000 		.space	8
 3354      00000000 
 3355              		.section	.bss.siren,"aw",%nobits
 3356              		.align	2
 3357              		.set	.LANCHOR2,. + 0
 3360              	siren:
 3361 0000 00000000 		.space	8
 3361      00000000 
 3362              		.section	.bss.timme,"aw",%nobits
 3363              		.align	2
 3364              		.set	.LANCHOR18,. + 0
 3367              	timme:
 3368 0000 00000000 		.space	4
 3369              		.section	.bss.timmeTrack,"aw",%nobits
 3370              		.align	2
 3371              		.set	.LANCHOR17,. + 0
 3374              	timmeTrack:
 3375 0000 00000000 		.space	4
 3376              		.section	.data._ZZ10AlarmEventvE9firstTime,"aw"
 3377              		.set	.LANCHOR28,. + 0
 3380              	_ZZ10AlarmEventvE9firstTime:
 3381 0000 01       		.byte	1
 3382              		.section	.data._ZZ12DenyKeyEventvE9firstTime,"aw"
 3383              		.set	.LANCHOR12,. + 0
 3386              	_ZZ12DenyKeyEventvE9firstTime:
 3387 0000 01       		.byte	1
 3388              		.section	.data._ZZ17TempOpenModeEventvE9firstTime,"aw"
 3389              		.set	.LANCHOR23,. + 0
 3392              	_ZZ17TempOpenModeEventvE9firstTime:
 3393 0000 01       		.byte	1
 3394              		.section	.data.wig_flag_inrt,"aw"
 3395              		.set	.LANCHOR13,. + 0
ARM GAS  C:\Users\Admin\AppData\Local\Temp\ccC9bEpd.s 			page 88


 3398              	wig_flag_inrt:
 3399 0000 01       		.byte	1
 3400              		.text
 3401              	.Letext0:
 3402              		.file 4 "e:\\dev\\tools\\gcc-arm-none-eabi-10-2020-q4-major\\arm-none-eabi\\include\\c++\\10.2.1\\
 3403              		.file 5 "e:\\dev\\tools\\gcc-arm-none-eabi-10-2020-q4-major\\arm-none-eabi\\include\\c++\\10.2.1\\
 3404              		.file 6 "e:\\dev\\tools\\gcc-arm-none-eabi-10-2020-q4-major\\arm-none-eabi\\include\\c++\\10.2.1\\
 3405              		.file 7 "e:\\dev\\tools\\gcc-arm-none-eabi-10-2020-q4-major\\arm-none-eabi\\include\\c++\\10.2.1\\
 3406              		.file 8 "e:\\dev\\tools\\gcc-arm-none-eabi-10-2020-q4-major\\arm-none-eabi\\include\\c++\\10.2.1\\
 3407              		.file 9 "e:\\dev\\tools\\gcc-arm-none-eabi-10-2020-q4-major\\lib\\gcc\\arm-none-eabi\\10.2.1\\incl
 3408              		.file 10 "e:\\dev\\tools\\gcc-arm-none-eabi-10-2020-q4-major\\lib\\gcc\\arm-none-eabi\\10.2.1\\inc
 3409              		.file 11 "e:\\dev\\tools\\gcc-arm-none-eabi-10-2020-q4-major\\arm-none-eabi\\include\\machine\\_de
 3410              		.file 12 "e:\\dev\\tools\\gcc-arm-none-eabi-10-2020-q4-major\\arm-none-eabi\\include\\sys\\_types.
 3411              		.file 13 "e:\\dev\\tools\\gcc-arm-none-eabi-10-2020-q4-major\\arm-none-eabi\\include\\sys\\reent.h
 3412              		.file 14 "e:\\dev\\tools\\gcc-arm-none-eabi-10-2020-q4-major\\arm-none-eabi\\include\\sys\\lock.h"
 3413              		.file 15 "e:\\dev\\tools\\gcc-arm-none-eabi-10-2020-q4-major\\arm-none-eabi\\include\\string.h"
 3414              		.file 16 "e:\\dev\\tools\\gcc-arm-none-eabi-10-2020-q4-major\\arm-none-eabi\\include\\sys\\_stdint
 3415              		.file 17 "e:\\dev\\tools\\gcc-arm-none-eabi-10-2020-q4-major\\arm-none-eabi\\include\\stdio.h"
 3416              		.file 18 "Drivers/CMSIS/Device/ST/STM32F1xx/Include/stm32f103xg.h"
 3417              		.file 19 "e:\\dev\\tools\\gcc-arm-none-eabi-10-2020-q4-major\\arm-none-eabi\\include\\stdint.h"
 3418              		.file 20 "Drivers/STM32F1xx_HAL_Driver/Inc/stm32f1xx_hal_def.h"
 3419              		.file 21 "Drivers/STM32F1xx_HAL_Driver/Inc/stm32f1xx_hal_rcc.h"
 3420              		.file 22 "Drivers/STM32F1xx_HAL_Driver/Inc/stm32f1xx_hal_rcc_ex.h"
 3421              		.file 23 "Drivers/STM32F1xx_HAL_Driver/Inc/stm32f1xx_hal_gpio.h"
 3422              		.file 24 "Drivers/STM32F1xx_HAL_Driver/Inc/stm32f1xx_hal_dma.h"
 3423              		.file 25 "Drivers/STM32F1xx_HAL_Driver/Inc/stm32f1xx_hal_uart.h"
 3424              		.file 26 "Core/Inc/PinIn.h"
 3425              		.file 27 "Core/Inc/PinOut.h"
 3426              		.file 28 "Core/Inc/InterruptPin.h"
 3427              		.file 29 "Core/Inc/Timer.h"
 3428              		.file 30 "Core/Inc/State.h"
 3429              		.file 31 "Core/Inc/WorkMode.h"
 3430              		.file 32 "Core/Inc/IntercomMode.h"
 3431              		.file 33 "Core/Inc/InvertedPinOut.h"
 3432              		.file 34 "Core/Inc/Flags.h"
 3433              		.file 35 "Core/Inc/wiegand.h"
 3434              		.file 36 "Drivers/STM32F1xx_HAL_Driver/Inc/stm32f1xx_hal.h"
 3435              		.file 37 "Drivers/STM32F1xx_HAL_Driver/Inc/stm32f1xx_hal_cortex.h"
 3436              		.file 38 "<built-in>"
ARM GAS  C:\Users\Admin\AppData\Local\Temp\ccC9bEpd.s 			page 89


DEFINED SYMBOLS
                            *ABS*:00000000 main.cpp
C:\Users\Admin\AppData\Local\Temp\ccC9bEpd.s:16     .text._ZL12MX_GPIO_Initv:00000000 $t
C:\Users\Admin\AppData\Local\Temp\ccC9bEpd.s:23     .text._ZL12MX_GPIO_Initv:00000000 _ZL12MX_GPIO_Initv
C:\Users\Admin\AppData\Local\Temp\ccC9bEpd.s:211    .text._ZL12MX_GPIO_Initv:000000d4 $d
.ARM.exidx.text._ZL12MX_GPIO_Initv:00000000 $d
C:\Users\Admin\AppData\Local\Temp\ccC9bEpd.s:221    .text._Z41__static_initialization_and_destruction_0ii:00000000 $t
C:\Users\Admin\AppData\Local\Temp\ccC9bEpd.s:227    .text._Z41__static_initialization_and_destruction_0ii:00000000 _Z41__static_initialization_and_destruction_0ii
C:\Users\Admin\AppData\Local\Temp\ccC9bEpd.s:420    .text._Z41__static_initialization_and_destruction_0ii:000000d0 $d
.ARM.extab.text._Z41__static_initialization_and_destruction_0ii:00000000 $d
.ARM.exidx.text._Z41__static_initialization_and_destruction_0ii:00000000 $d
C:\Users\Admin\AppData\Local\Temp\ccC9bEpd.s:470    .text._Z12DenyKeyEventv:00000000 $t
C:\Users\Admin\AppData\Local\Temp\ccC9bEpd.s:477    .text._Z12DenyKeyEventv:00000000 _Z12DenyKeyEventv
C:\Users\Admin\AppData\Local\Temp\ccC9bEpd.s:666    .text._Z12DenyKeyEventv:000000dc $d
.ARM.extab.text._Z12DenyKeyEventv:00000000 $d
.ARM.exidx.text._Z12DenyKeyEventv:00000000 $d
C:\Users\Admin\AppData\Local\Temp\ccC9bEpd.s:696    .text.HAL_GPIO_EXTI_Callback:00000000 $t
C:\Users\Admin\AppData\Local\Temp\ccC9bEpd.s:703    .text.HAL_GPIO_EXTI_Callback:00000000 HAL_GPIO_EXTI_Callback
C:\Users\Admin\AppData\Local\Temp\ccC9bEpd.s:731    .text.HAL_GPIO_EXTI_Callback:00000014 $d
C:\Users\Admin\AppData\Local\Temp\ccC9bEpd.s:739    .text.HAL_GPIO_EXTI_Callback:0000001c $t
C:\Users\Admin\AppData\Local\Temp\ccC9bEpd.s:875    .text.HAL_GPIO_EXTI_Callback:0000009c $d
.ARM.extab.text.HAL_GPIO_EXTI_Callback:00000000 $d
.ARM.exidx.text.HAL_GPIO_EXTI_Callback:00000000 $d
C:\Users\Admin\AppData\Local\Temp\ccC9bEpd.s:887    .text._Z11UART_PrintfPKcz:00000000 $t
C:\Users\Admin\AppData\Local\Temp\ccC9bEpd.s:894    .text._Z11UART_PrintfPKcz:00000000 _Z11UART_PrintfPKcz
C:\Users\Admin\AppData\Local\Temp\ccC9bEpd.s:965    .text._Z11UART_PrintfPKcz:00000038 $d
.ARM.extab.text._Z11UART_PrintfPKcz:00000000 $d
.ARM.exidx.text._Z11UART_PrintfPKcz:00000000 $d
C:\Users\Admin\AppData\Local\Temp\ccC9bEpd.s:971    .rodata._Z14TimeTrackEventv.str1.4:00000000 $d
C:\Users\Admin\AppData\Local\Temp\ccC9bEpd.s:978    .text._Z14TimeTrackEventv:00000000 $t
C:\Users\Admin\AppData\Local\Temp\ccC9bEpd.s:985    .text._Z14TimeTrackEventv:00000000 _Z14TimeTrackEventv
C:\Users\Admin\AppData\Local\Temp\ccC9bEpd.s:1042   .text._Z14TimeTrackEventv:0000003c $d
.ARM.extab.text._Z14TimeTrackEventv:00000000 $d
.ARM.exidx.text._Z14TimeTrackEventv:00000000 $d
C:\Users\Admin\AppData\Local\Temp\ccC9bEpd.s:1052   .rodata._Z15DoorSensorEventv.str1.4:00000000 $d
C:\Users\Admin\AppData\Local\Temp\ccC9bEpd.s:1059   .text._Z15DoorSensorEventv:00000000 $t
C:\Users\Admin\AppData\Local\Temp\ccC9bEpd.s:1066   .text._Z15DoorSensorEventv:00000000 _Z15DoorSensorEventv
C:\Users\Admin\AppData\Local\Temp\ccC9bEpd.s:1167   .text._Z15DoorSensorEventv:00000064 $d
.ARM.exidx.text._Z15DoorSensorEventv:00000000 $d
C:\Users\Admin\AppData\Local\Temp\ccC9bEpd.s:1178   .rodata._Z12KeyReadEventv.str1.4:00000000 $d
C:\Users\Admin\AppData\Local\Temp\ccC9bEpd.s:1190   .text._Z12KeyReadEventv:00000000 $t
C:\Users\Admin\AppData\Local\Temp\ccC9bEpd.s:1197   .text._Z12KeyReadEventv:00000000 _Z12KeyReadEventv
C:\Users\Admin\AppData\Local\Temp\ccC9bEpd.s:1318   .text._Z12KeyReadEventv:00000078 $d
.ARM.exidx.text._Z12KeyReadEventv:00000000 $d
C:\Users\Admin\AppData\Local\Temp\ccC9bEpd.s:1333   .rodata._Z18ButtonPressedEventv.str1.4:00000000 $d
C:\Users\Admin\AppData\Local\Temp\ccC9bEpd.s:1347   .text._Z18ButtonPressedEventv:00000000 $t
C:\Users\Admin\AppData\Local\Temp\ccC9bEpd.s:1354   .text._Z18ButtonPressedEventv:00000000 _Z18ButtonPressedEventv
C:\Users\Admin\AppData\Local\Temp\ccC9bEpd.s:1429   .text._Z18ButtonPressedEventv:00000044 $d
.ARM.extab.text._Z18ButtonPressedEventv:00000000 $d
.ARM.exidx.text._Z18ButtonPressedEventv:00000000 $d
C:\Users\Admin\AppData\Local\Temp\ccC9bEpd.s:1442   .rodata._Z17TempOpenModeEventv.str1.4:00000000 $d
C:\Users\Admin\AppData\Local\Temp\ccC9bEpd.s:1450   .text._Z17TempOpenModeEventv:00000000 $t
C:\Users\Admin\AppData\Local\Temp\ccC9bEpd.s:1457   .text._Z17TempOpenModeEventv:00000000 _Z17TempOpenModeEventv
C:\Users\Admin\AppData\Local\Temp\ccC9bEpd.s:1778   .text._Z17TempOpenModeEventv:00000178 $d
.ARM.extab.text._Z17TempOpenModeEventv:00000000 $d
.ARM.exidx.text._Z17TempOpenModeEventv:00000000 $d
C:\Users\Admin\AppData\Local\Temp\ccC9bEpd.s:1823   .text._Z14TempAlarmEventv:00000000 $t
ARM GAS  C:\Users\Admin\AppData\Local\Temp\ccC9bEpd.s 			page 90


C:\Users\Admin\AppData\Local\Temp\ccC9bEpd.s:1830   .text._Z14TempAlarmEventv:00000000 _Z14TempAlarmEventv
C:\Users\Admin\AppData\Local\Temp\ccC9bEpd.s:1985   .text._Z14TempAlarmEventv:000000b4 $d
.ARM.extab.text._Z14TempAlarmEventv:00000000 $d
.ARM.exidx.text._Z14TempAlarmEventv:00000000 $d
C:\Users\Admin\AppData\Local\Temp\ccC9bEpd.s:2014   .rodata._Z10AlarmEventv.str1.4:00000000 $d
C:\Users\Admin\AppData\Local\Temp\ccC9bEpd.s:2018   .text._Z10AlarmEventv:00000000 $t
C:\Users\Admin\AppData\Local\Temp\ccC9bEpd.s:2025   .text._Z10AlarmEventv:00000000 _Z10AlarmEventv
C:\Users\Admin\AppData\Local\Temp\ccC9bEpd.s:2220   .text._Z10AlarmEventv:000000d8 $d
  .ARM.extab.text._Z10AlarmEventv:00000000 $d
  .ARM.exidx.text._Z10AlarmEventv:00000000 $d
C:\Users\Admin\AppData\Local\Temp\ccC9bEpd.s:2255   .rodata._Z10switchModev.str1.4:00000000 $d
C:\Users\Admin\AppData\Local\Temp\ccC9bEpd.s:2271   .text._Z10switchModev:00000000 $t
C:\Users\Admin\AppData\Local\Temp\ccC9bEpd.s:2278   .text._Z10switchModev:00000000 _Z10switchModev
C:\Users\Admin\AppData\Local\Temp\ccC9bEpd.s:2300   .text._Z10switchModev:0000000e $d
C:\Users\Admin\AppData\Local\Temp\ccC9bEpd.s:2304   .text._Z10switchModev:00000012 $t
C:\Users\Admin\AppData\Local\Temp\ccC9bEpd.s:2726   .text._Z10switchModev:00000148 $d
  .ARM.exidx.text._Z10switchModev:00000000 $d
C:\Users\Admin\AppData\Local\Temp\ccC9bEpd.s:2745   .text._Z15ChangeModeEventv:00000000 $t
C:\Users\Admin\AppData\Local\Temp\ccC9bEpd.s:2752   .text._Z15ChangeModeEventv:00000000 _Z15ChangeModeEventv
C:\Users\Admin\AppData\Local\Temp\ccC9bEpd.s:2797   .text._Z15ChangeModeEventv:00000024 $d
.ARM.extab.text._Z15ChangeModeEventv:00000000 $d
.ARM.exidx.text._Z15ChangeModeEventv:00000000 $d
C:\Users\Admin\AppData\Local\Temp\ccC9bEpd.s:2803   .text.Error_Handler:00000000 $t
C:\Users\Admin\AppData\Local\Temp\ccC9bEpd.s:2810   .text.Error_Handler:00000000 Error_Handler
    .ARM.exidx.text.Error_Handler:00000000 $d
C:\Users\Admin\AppData\Local\Temp\ccC9bEpd.s:2844   .text._Z18SystemClock_Configv:00000000 $t
C:\Users\Admin\AppData\Local\Temp\ccC9bEpd.s:2851   .text._Z18SystemClock_Configv:00000000 _Z18SystemClock_Configv
.ARM.exidx.text._Z18SystemClock_Configv:00000000 $d
C:\Users\Admin\AppData\Local\Temp\ccC9bEpd.s:2960   .text._ZL19MX_USART1_UART_Initv:00000000 $t
C:\Users\Admin\AppData\Local\Temp\ccC9bEpd.s:2966   .text._ZL19MX_USART1_UART_Initv:00000000 _ZL19MX_USART1_UART_Initv
C:\Users\Admin\AppData\Local\Temp\ccC9bEpd.s:3024   .text._ZL19MX_USART1_UART_Initv:0000002c $d
.ARM.extab.text._ZL19MX_USART1_UART_Initv:00000000 $d
.ARM.exidx.text._ZL19MX_USART1_UART_Initv:00000000 $d
C:\Users\Admin\AppData\Local\Temp\ccC9bEpd.s:3031   .rodata.main.str1.4:00000000 $d
C:\Users\Admin\AppData\Local\Temp\ccC9bEpd.s:3035   .text.main:00000000 $t
C:\Users\Admin\AppData\Local\Temp\ccC9bEpd.s:3042   .text.main:00000000 main
C:\Users\Admin\AppData\Local\Temp\ccC9bEpd.s:3144   .text.main:0000005c $d
             .ARM.extab.text.main:00000000 $d
             .ARM.exidx.text.main:00000000 $d
C:\Users\Admin\AppData\Local\Temp\ccC9bEpd.s:3155   .text._GLOBAL__sub_I_huart1:00000000 $t
C:\Users\Admin\AppData\Local\Temp\ccC9bEpd.s:3161   .text._GLOBAL__sub_I_huart1:00000000 _GLOBAL__sub_I_huart1
.ARM.exidx.text._GLOBAL__sub_I_huart1:00000000 $d
C:\Users\Admin\AppData\Local\Temp\ccC9bEpd.s:3185   .init_array:00000000 $d
C:\Users\Admin\AppData\Local\Temp\ccC9bEpd.s:3367   .bss.timme:00000000 timme
C:\Users\Admin\AppData\Local\Temp\ccC9bEpd.s:3374   .bss.timmeTrack:00000000 timmeTrack
C:\Users\Admin\AppData\Local\Temp\ccC9bEpd.s:3340   .bss.outsideIntercom:00000000 outsideIntercom
C:\Users\Admin\AppData\Local\Temp\ccC9bEpd.s:3306   .bss.insideIntercom:00000000 insideIntercom
C:\Users\Admin\AppData\Local\Temp\ccC9bEpd.s:3285   .bss.doorSensorTimer:00000000 doorSensorTimer
C:\Users\Admin\AppData\Local\Temp\ccC9bEpd.s:3333   .bss.outsideGreenLed:00000000 outsideGreenLed
C:\Users\Admin\AppData\Local\Temp\ccC9bEpd.s:3299   .bss.insideGreenLed:00000000 insideGreenLed
C:\Users\Admin\AppData\Local\Temp\ccC9bEpd.s:3353   .bss.outsideZumer:00000000 outsideZumer
C:\Users\Admin\AppData\Local\Temp\ccC9bEpd.s:3319   .bss.insideZumer:00000000 insideZumer
C:\Users\Admin\AppData\Local\Temp\ccC9bEpd.s:3360   .bss.siren:00000000 siren
C:\Users\Admin\AppData\Local\Temp\ccC9bEpd.s:3326   .bss.lock:00000000 lock
C:\Users\Admin\AppData\Local\Temp\ccC9bEpd.s:3278   .bss.door:00000000 door
C:\Users\Admin\AppData\Local\Temp\ccC9bEpd.s:3346   .bss.outsideKeyRead:00000000 outsideKeyRead
C:\Users\Admin\AppData\Local\Temp\ccC9bEpd.s:3312   .bss.insideKeyRead:00000000 insideKeyRead
ARM GAS  C:\Users\Admin\AppData\Local\Temp\ccC9bEpd.s 			page 91


C:\Users\Admin\AppData\Local\Temp\ccC9bEpd.s:3398   .data.wig_flag_inrt:00000000 wig_flag_inrt
C:\Users\Admin\AppData\Local\Temp\ccC9bEpd.s:3292   .bss.huart1:00000000 huart1
C:\Users\Admin\AppData\Local\Temp\ccC9bEpd.s:3204   .bss._ZGVZ10AlarmEventvE10alarmTimer:00000000 $d
C:\Users\Admin\AppData\Local\Temp\ccC9bEpd.s:3208   .bss._ZGVZ10AlarmEventvE10alarmTimer:00000000 _ZGVZ10AlarmEventvE10alarmTimer
C:\Users\Admin\AppData\Local\Temp\ccC9bEpd.s:3211   .bss._ZGVZ12DenyKeyEventvE9denyTimer:00000000 $d
C:\Users\Admin\AppData\Local\Temp\ccC9bEpd.s:3215   .bss._ZGVZ12DenyKeyEventvE9denyTimer:00000000 _ZGVZ12DenyKeyEventvE9denyTimer
C:\Users\Admin\AppData\Local\Temp\ccC9bEpd.s:3218   .bss._ZGVZ14TempAlarmEventvE10sirenTimer:00000000 $d
C:\Users\Admin\AppData\Local\Temp\ccC9bEpd.s:3222   .bss._ZGVZ14TempAlarmEventvE10sirenTimer:00000000 _ZGVZ14TempAlarmEventvE10sirenTimer
C:\Users\Admin\AppData\Local\Temp\ccC9bEpd.s:3225   .bss._ZGVZ17TempOpenModeEventvE10zumerTimer:00000000 $d
C:\Users\Admin\AppData\Local\Temp\ccC9bEpd.s:3229   .bss._ZGVZ17TempOpenModeEventvE10zumerTimer:00000000 _ZGVZ17TempOpenModeEventvE10zumerTimer
C:\Users\Admin\AppData\Local\Temp\ccC9bEpd.s:3232   .bss._ZGVZ17TempOpenModeEventvE9lockTimer:00000000 $d
C:\Users\Admin\AppData\Local\Temp\ccC9bEpd.s:3236   .bss._ZGVZ17TempOpenModeEventvE9lockTimer:00000000 _ZGVZ17TempOpenModeEventvE9lockTimer
C:\Users\Admin\AppData\Local\Temp\ccC9bEpd.s:3239   .bss._ZZ10AlarmEventvE10alarmTimer:00000000 $d
C:\Users\Admin\AppData\Local\Temp\ccC9bEpd.s:3243   .bss._ZZ10AlarmEventvE10alarmTimer:00000000 _ZZ10AlarmEventvE10alarmTimer
C:\Users\Admin\AppData\Local\Temp\ccC9bEpd.s:3246   .bss._ZZ12DenyKeyEventvE9denyTimer:00000000 $d
C:\Users\Admin\AppData\Local\Temp\ccC9bEpd.s:3250   .bss._ZZ12DenyKeyEventvE9denyTimer:00000000 _ZZ12DenyKeyEventvE9denyTimer
C:\Users\Admin\AppData\Local\Temp\ccC9bEpd.s:3253   .bss._ZZ14TempAlarmEventvE10sirenTimer:00000000 $d
C:\Users\Admin\AppData\Local\Temp\ccC9bEpd.s:3257   .bss._ZZ14TempAlarmEventvE10sirenTimer:00000000 _ZZ14TempAlarmEventvE10sirenTimer
C:\Users\Admin\AppData\Local\Temp\ccC9bEpd.s:3260   .bss._ZZ17TempOpenModeEventvE10zumerTimer:00000000 $d
C:\Users\Admin\AppData\Local\Temp\ccC9bEpd.s:3264   .bss._ZZ17TempOpenModeEventvE10zumerTimer:00000000 _ZZ17TempOpenModeEventvE10zumerTimer
C:\Users\Admin\AppData\Local\Temp\ccC9bEpd.s:3267   .bss._ZZ17TempOpenModeEventvE9lockTimer:00000000 $d
C:\Users\Admin\AppData\Local\Temp\ccC9bEpd.s:3271   .bss._ZZ17TempOpenModeEventvE9lockTimer:00000000 _ZZ17TempOpenModeEventvE9lockTimer
C:\Users\Admin\AppData\Local\Temp\ccC9bEpd.s:3274   .bss.door:00000000 $d
C:\Users\Admin\AppData\Local\Temp\ccC9bEpd.s:3281   .bss.doorSensorTimer:00000000 $d
C:\Users\Admin\AppData\Local\Temp\ccC9bEpd.s:3288   .bss.huart1:00000000 $d
C:\Users\Admin\AppData\Local\Temp\ccC9bEpd.s:3295   .bss.insideGreenLed:00000000 $d
C:\Users\Admin\AppData\Local\Temp\ccC9bEpd.s:3302   .bss.insideIntercom:00000000 $d
C:\Users\Admin\AppData\Local\Temp\ccC9bEpd.s:3313   .bss.insideKeyRead:00000000 $d
C:\Users\Admin\AppData\Local\Temp\ccC9bEpd.s:3315   .bss.insideZumer:00000000 $d
C:\Users\Admin\AppData\Local\Temp\ccC9bEpd.s:3322   .bss.lock:00000000 $d
C:\Users\Admin\AppData\Local\Temp\ccC9bEpd.s:3329   .bss.outsideGreenLed:00000000 $d
C:\Users\Admin\AppData\Local\Temp\ccC9bEpd.s:3336   .bss.outsideIntercom:00000000 $d
C:\Users\Admin\AppData\Local\Temp\ccC9bEpd.s:3347   .bss.outsideKeyRead:00000000 $d
C:\Users\Admin\AppData\Local\Temp\ccC9bEpd.s:3349   .bss.outsideZumer:00000000 $d
C:\Users\Admin\AppData\Local\Temp\ccC9bEpd.s:3356   .bss.siren:00000000 $d
C:\Users\Admin\AppData\Local\Temp\ccC9bEpd.s:3363   .bss.timme:00000000 $d
C:\Users\Admin\AppData\Local\Temp\ccC9bEpd.s:3370   .bss.timmeTrack:00000000 $d
C:\Users\Admin\AppData\Local\Temp\ccC9bEpd.s:3380   .data._ZZ10AlarmEventvE9firstTime:00000000 _ZZ10AlarmEventvE9firstTime
C:\Users\Admin\AppData\Local\Temp\ccC9bEpd.s:3386   .data._ZZ12DenyKeyEventvE9firstTime:00000000 _ZZ12DenyKeyEventvE9firstTime
C:\Users\Admin\AppData\Local\Temp\ccC9bEpd.s:3392   .data._ZZ17TempOpenModeEventvE9firstTime:00000000 _ZZ17TempOpenModeEventvE9firstTime

UNDEFINED SYMBOLS
HAL_GPIO_Init
HAL_NVIC_SetPriority
HAL_NVIC_EnableIRQ
__aeabi_unwind_cpp_pr0
_ZN12InterruptPinC1EP12GPIO_TypeDeft
_ZN6PinOutC1EP12GPIO_TypeDeft
_ZN14InvertedPinOutC1EP12GPIO_TypeDeft
_ZN5TimerC1Emm
_Znwj
_ZN7ContextC1EP4Mode
_ZdlPvj
__cxa_end_cleanup
_ZTV4Mode
_ZTV10NormalMode
__gxx_personality_v0
ARM GAS  C:\Users\Admin\AppData\Local\Temp\ccC9bEpd.s 			page 92


__cxa_guard_acquire
__cxa_guard_release
HAL_GetTick
_ZN5Timer12getStartTimeEv
_ZN5Timer11getLastTickEv
_ZN5Timer11setLastTickEv
_ZN14InvertedPinOut6turnOnEv
_ZN5Timer5startEv
_ZN14InvertedPinOut7turnOffEv
__cxa_guard_abort
workMode
previousWorkMode
ReadD0
ReadD1
doorSensorFirstTime
insideButtonPressed
outsideButtonPressed
__aeabi_unwind_cpp_pr1
vsnprintf
strlen
HAL_UART_Transmit
_ZN12InterruptPin15setStateChangedEv
_ZN5PinIn8getStateEv
wig_available
getCode
_ZN7Context8CheckKeyEm
intercomMode
_ZN12InterruptPin14isStateChangedEv
_ZN6PinOut6turnOnEv
_ZN6PinOut7turnOffEv
_ZN7Context12TransitionToEP4Mode
_ZTV10ClosedMode
_ZTV8OpenMode
_ZTV12CondOpenMode
memset
HAL_RCC_OscConfig
HAL_RCC_ClockConfig
HAL_UART_Init
HAL_Init
