ARM GAS  C:\Users\Admin\AppData\Local\Temp\cctaKpna.s 			page 1


   1              		.cpu cortex-m3
   2              		.eabi_attribute 20, 1
   3              		.eabi_attribute 21, 1
   4              		.eabi_attribute 23, 3
   5              		.eabi_attribute 24, 1
   6              		.eabi_attribute 25, 1
   7              		.eabi_attribute 26, 1
   8              		.eabi_attribute 30, 1
   9              		.eabi_attribute 34, 1
  10              		.eabi_attribute 18, 4
  11              		.file	"main.cpp"
  12              		.text
  13              	.Ltext0:
  14              		.cfi_sections	.debug_frame
  15              		.section	.text._ZL12MX_GPIO_Initv,"ax",%progbits
  16              		.align	1
  17              		.arch armv7-m
  18              		.syntax unified
  19              		.thumb
  20              		.thumb_func
  21              		.fpu softvfp
  23              	_ZL12MX_GPIO_Initv:
  24              		.fnstart
  25              	.LFB107:
  26              		.file 1 "Core/Src/main.cpp"
   1:Core/Src/main.cpp **** /* USER CODE BEGIN Header */
   2:Core/Src/main.cpp **** /**
   3:Core/Src/main.cpp ****   ******************************************************************************
   4:Core/Src/main.cpp ****   * @file           : main.c
   5:Core/Src/main.cpp ****   * @brief          : Main program body
   6:Core/Src/main.cpp ****   ******************************************************************************
   7:Core/Src/main.cpp ****   * @attention
   8:Core/Src/main.cpp ****   *
   9:Core/Src/main.cpp ****   * <h2><center>&copy; Copyright (c) 2021 STMicroelectronics.
  10:Core/Src/main.cpp ****   * All rights reserved.</center></h2>
  11:Core/Src/main.cpp ****   *
  12:Core/Src/main.cpp ****   * This software component is licensed by ST under BSD 3-Clause license,
  13:Core/Src/main.cpp ****   * the "License"; You may not use this file except in compliance with the
  14:Core/Src/main.cpp ****   * License. You may obtain a copy of the License at:
  15:Core/Src/main.cpp ****   *                        opensource.org/licenses/BSD-3-Clause
  16:Core/Src/main.cpp ****   *
  17:Core/Src/main.cpp ****   ******************************************************************************
  18:Core/Src/main.cpp ****   */
  19:Core/Src/main.cpp **** /* USER CODE END Header */
  20:Core/Src/main.cpp **** /* Includes ------------------------------------------------------------------*/
  21:Core/Src/main.cpp **** #include "main.h"
  22:Core/Src/main.cpp **** 
  23:Core/Src/main.cpp **** /* Private includes ----------------------------------------------------------*/
  24:Core/Src/main.cpp **** /* USER CODE BEGIN Includes */
  25:Core/Src/main.cpp **** #include "string.h"
  26:Core/Src/main.cpp **** #include <stdio.h>
  27:Core/Src/main.cpp **** #include "wiegand.h"
  28:Core/Src/main.cpp **** #include <stdarg.h>
  29:Core/Src/main.cpp **** #include "PinIn.h"
  30:Core/Src/main.cpp **** #include "PinOut.h"
  31:Core/Src/main.cpp **** #include "ConstantRelay.h"
  32:Core/Src/main.cpp **** #include "ImpulseRelay.h"
ARM GAS  C:\Users\Admin\AppData\Local\Temp\cctaKpna.s 			page 2


  33:Core/Src/main.cpp **** #include "InterruptPin.h"
  34:Core/Src/main.cpp **** #include "Timer.h"
  35:Core/Src/main.cpp **** #include "WorkMode.h"
  36:Core/Src/main.cpp **** #include "IntercomMode.h"
  37:Core/Src/main.cpp **** 
  38:Core/Src/main.cpp **** /* Private variables ---------------------------------------------------------*/
  39:Core/Src/main.cpp **** UART_HandleTypeDef huart1;
  40:Core/Src/main.cpp **** volatile uint8_t wig_flag_inrt = 1;
  41:Core/Src/main.cpp **** IntercomMode intercomMode = IntercomMode::NormalMode;
  42:Core/Src/main.cpp **** WorkMode workMode = WorkMode::NoMode, previousWorkMode = WorkMode::NoMode;
  43:Core/Src/main.cpp **** 
  44:Core/Src/main.cpp **** /* Private function prototypes -----------------------------------------------*/
  45:Core/Src/main.cpp **** void SystemClock_Config(void);
  46:Core/Src/main.cpp **** static void MX_GPIO_Init(void);
  47:Core/Src/main.cpp **** static void MX_USART1_UART_Init(void);
  48:Core/Src/main.cpp **** 
  49:Core/Src/main.cpp **** /*----> Functions Protoypes <----*/
  50:Core/Src/main.cpp **** 
  51:Core/Src/main.cpp **** /**
  52:Core/Src/main.cpp ****  * @brief Event to track time between modes
  53:Core/Src/main.cpp **** */
  54:Core/Src/main.cpp **** void TimeTrackEvent();
  55:Core/Src/main.cpp **** /**
  56:Core/Src/main.cpp ****  * @brief Event to change work mode every 15 seconds
  57:Core/Src/main.cpp **** */
  58:Core/Src/main.cpp **** void ChangeModeEvent();
  59:Core/Src/main.cpp **** void DoorOpenedEvent();
  60:Core/Src/main.cpp **** /**
  61:Core/Src/main.cpp ****  * @brief Event to listen for used intercoms
  62:Core/Src/main.cpp **** */
  63:Core/Src/main.cpp **** void KeyReadEvent();
  64:Core/Src/main.cpp **** /**
  65:Core/Src/main.cpp ****  * @brief Event to listen for pressed buttons
  66:Core/Src/main.cpp **** */
  67:Core/Src/main.cpp **** void ButtonPressedEvent();
  68:Core/Src/main.cpp **** /**
  69:Core/Src/main.cpp ****  * @brief Event to listen for switching to temporarily opened mode, giving access to enter
  70:Core/Src/main.cpp **** */
  71:Core/Src/main.cpp **** void TempOpenModeEvent();
  72:Core/Src/main.cpp **** /**
  73:Core/Src/main.cpp ****  * @brief Event to handle temporarily alarm, activated when exceeded time to enter
  74:Core/Src/main.cpp **** */
  75:Core/Src/main.cpp **** void TempAlarmEvent();
  76:Core/Src/main.cpp **** /**
  77:Core/Src/main.cpp ****  * @brief Event to handle deny work mode, activated when user is not permitted to enter
  78:Core/Src/main.cpp **** */
  79:Core/Src/main.cpp **** void DenyKeyEvent();
  80:Core/Src/main.cpp **** /**
  81:Core/Src/main.cpp ****  * @brief Event to handle alarm work mode, activated when something is wrong, like unauthorized doo
  82:Core/Src/main.cpp **** */
  83:Core/Src/main.cpp **** void AlarmEvent();
  84:Core/Src/main.cpp **** 
  85:Core/Src/main.cpp **** /**
  86:Core/Src/main.cpp ****  * @brief Check if given code is allowed to pass
  87:Core/Src/main.cpp ****  * @retval bool
  88:Core/Src/main.cpp **** */
  89:Core/Src/main.cpp **** bool verifyCode(uint32_t code);
ARM GAS  C:\Users\Admin\AppData\Local\Temp\cctaKpna.s 			page 3


  90:Core/Src/main.cpp **** /**
  91:Core/Src/main.cpp ****  * @brief printf
  92:Core/Src/main.cpp ****  * @retval None
  93:Core/Src/main.cpp **** */
  94:Core/Src/main.cpp **** void UART_Printf(const char *fmt, ...);
  95:Core/Src/main.cpp **** /**
  96:Core/Src/main.cpp ****  * @brief Switch mode depending on the current one
  97:Core/Src/main.cpp ****  * @retval None
  98:Core/Src/main.cpp **** */
  99:Core/Src/main.cpp **** void switchMode();
 100:Core/Src/main.cpp **** 
 101:Core/Src/main.cpp **** /*----------> Objects <----------*/
 102:Core/Src/main.cpp **** 
 103:Core/Src/main.cpp **** /**
 104:Core/Src/main.cpp ****  * @brief Door sensor
 105:Core/Src/main.cpp **** */
 106:Core/Src/main.cpp **** InterruptPin door(Door_GPIO_Port, Door_Pin);
 107:Core/Src/main.cpp **** 
 108:Core/Src/main.cpp **** /**
 109:Core/Src/main.cpp ****  * @brief Door relay
 110:Core/Src/main.cpp **** */
 111:Core/Src/main.cpp **** PinOut lock(Lock_GPIO_Port, Lock_Pin);
 112:Core/Src/main.cpp **** /**
 113:Core/Src/main.cpp ****  * @brief Alarm relay
 114:Core/Src/main.cpp **** */
 115:Core/Src/main.cpp **** PinOut siren(Siren_GPIO_Port, Siren_Pin);
 116:Core/Src/main.cpp **** 
 117:Core/Src/main.cpp **** /**
 118:Core/Src/main.cpp ****  * @brief Inside intercom zumer (#1, right side)
 119:Core/Src/main.cpp **** */
 120:Core/Src/main.cpp **** PinOut insideZumer(Zumer1_GPIO_Port, Zumer1_Pin);
 121:Core/Src/main.cpp **** /**
 122:Core/Src/main.cpp ****  * @brief Outside intercom zumer (#2, left side)
 123:Core/Src/main.cpp **** */
 124:Core/Src/main.cpp **** PinOut outsideZumer(Zumer2_GPIO_Port, Zumer2_Pin);
 125:Core/Src/main.cpp **** /**
 126:Core/Src/main.cpp ****  * @brief Inside intercom green led (#1, right side)
 127:Core/Src/main.cpp **** */
 128:Core/Src/main.cpp **** PinOut insideGreenLed(GreenLed_1_GPIO_Port, GreenLed_1_Pin);
 129:Core/Src/main.cpp **** /**
 130:Core/Src/main.cpp ****  * @brief Outside intercom green led (#2, left side)
 131:Core/Src/main.cpp **** */
 132:Core/Src/main.cpp **** PinOut outsideGreenLed(GreenLed_2_GPIO_Port, GreenLed_2_Pin);
 133:Core/Src/main.cpp **** 
 134:Core/Src/main.cpp **** /*----------> Flags <----------*/
 135:Core/Src/main.cpp **** 
 136:Core/Src/main.cpp **** bool
 137:Core/Src/main.cpp ****     insideButtonPressed = false,
 138:Core/Src/main.cpp ****     outsideButtonPressed = false,
 139:Core/Src/main.cpp ****     insideKeyRead = false,
 140:Core/Src/main.cpp ****     outsideKeyRead = false;
 141:Core/Src/main.cpp **** 
 142:Core/Src/main.cpp **** uint32_t
 143:Core/Src/main.cpp ****     timmeTrack = 0,
 144:Core/Src/main.cpp ****     timme = 0;
 145:Core/Src/main.cpp **** 
 146:Core/Src/main.cpp **** /*-------> Init Functions <-------*/
ARM GAS  C:\Users\Admin\AppData\Local\Temp\cctaKpna.s 			page 4


 147:Core/Src/main.cpp **** 
 148:Core/Src/main.cpp **** /**
 149:Core/Src/main.cpp ****   * @brief System Clock Configuration
 150:Core/Src/main.cpp ****   * @retval None
 151:Core/Src/main.cpp ****   */
 152:Core/Src/main.cpp **** void SystemClock_Config(void)
 153:Core/Src/main.cpp **** {
 154:Core/Src/main.cpp ****   RCC_OscInitTypeDef RCC_OscInitStruct = {0};
 155:Core/Src/main.cpp ****   RCC_ClkInitTypeDef RCC_ClkInitStruct = {0};
 156:Core/Src/main.cpp **** 
 157:Core/Src/main.cpp ****   /** Initializes the RCC Oscillators according to the specified parameters
 158:Core/Src/main.cpp ****   * in the RCC_OscInitTypeDef structure.
 159:Core/Src/main.cpp ****   */
 160:Core/Src/main.cpp ****   RCC_OscInitStruct.OscillatorType = RCC_OSCILLATORTYPE_HSI;
 161:Core/Src/main.cpp ****   RCC_OscInitStruct.HSIState = RCC_HSI_ON;
 162:Core/Src/main.cpp ****   RCC_OscInitStruct.HSICalibrationValue = RCC_HSICALIBRATION_DEFAULT;
 163:Core/Src/main.cpp ****   RCC_OscInitStruct.PLL.PLLState = RCC_PLL_ON;
 164:Core/Src/main.cpp ****   RCC_OscInitStruct.PLL.PLLSource = RCC_PLLSOURCE_HSI_DIV2;
 165:Core/Src/main.cpp ****   RCC_OscInitStruct.PLL.PLLMUL = RCC_PLL_MUL9;
 166:Core/Src/main.cpp ****   if (HAL_RCC_OscConfig(&RCC_OscInitStruct) != HAL_OK)
 167:Core/Src/main.cpp ****   {
 168:Core/Src/main.cpp ****     Error_Handler();
 169:Core/Src/main.cpp ****   }
 170:Core/Src/main.cpp ****   /** Initializes the CPU, AHB and APB buses clocks
 171:Core/Src/main.cpp ****   */
 172:Core/Src/main.cpp ****   RCC_ClkInitStruct.ClockType = RCC_CLOCKTYPE_HCLK | RCC_CLOCKTYPE_SYSCLK | RCC_CLOCKTYPE_PCLK1 | R
 173:Core/Src/main.cpp ****   RCC_ClkInitStruct.SYSCLKSource = RCC_SYSCLKSOURCE_PLLCLK;
 174:Core/Src/main.cpp ****   RCC_ClkInitStruct.AHBCLKDivider = RCC_SYSCLK_DIV1;
 175:Core/Src/main.cpp ****   RCC_ClkInitStruct.APB1CLKDivider = RCC_HCLK_DIV2;
 176:Core/Src/main.cpp ****   RCC_ClkInitStruct.APB2CLKDivider = RCC_HCLK_DIV1;
 177:Core/Src/main.cpp **** 
 178:Core/Src/main.cpp ****   if (HAL_RCC_ClockConfig(&RCC_ClkInitStruct, FLASH_LATENCY_1) != HAL_OK)
 179:Core/Src/main.cpp ****   {
 180:Core/Src/main.cpp ****     Error_Handler();
 181:Core/Src/main.cpp ****   }
 182:Core/Src/main.cpp **** }
 183:Core/Src/main.cpp **** 
 184:Core/Src/main.cpp **** /**
 185:Core/Src/main.cpp ****   * @brief USART1 Initialization Function
 186:Core/Src/main.cpp ****   * @param None
 187:Core/Src/main.cpp ****   * @retval None
 188:Core/Src/main.cpp ****   */
 189:Core/Src/main.cpp **** static void MX_USART1_UART_Init(void)
 190:Core/Src/main.cpp **** {
 191:Core/Src/main.cpp **** 
 192:Core/Src/main.cpp ****   /* USER CODE BEGIN USART1_Init 0 */
 193:Core/Src/main.cpp **** 
 194:Core/Src/main.cpp ****   /* USER CODE END USART1_Init 0 */
 195:Core/Src/main.cpp **** 
 196:Core/Src/main.cpp ****   /* USER CODE BEGIN USART1_Init 1 */
 197:Core/Src/main.cpp **** 
 198:Core/Src/main.cpp ****   /* USER CODE END USART1_Init 1 */
 199:Core/Src/main.cpp ****   huart1.Instance = USART1;
 200:Core/Src/main.cpp ****   huart1.Init.BaudRate = 115200;
 201:Core/Src/main.cpp ****   huart1.Init.WordLength = UART_WORDLENGTH_8B;
 202:Core/Src/main.cpp ****   huart1.Init.StopBits = UART_STOPBITS_1;
 203:Core/Src/main.cpp ****   huart1.Init.Parity = UART_PARITY_NONE;
ARM GAS  C:\Users\Admin\AppData\Local\Temp\cctaKpna.s 			page 5


 204:Core/Src/main.cpp ****   huart1.Init.Mode = UART_MODE_TX_RX;
 205:Core/Src/main.cpp ****   huart1.Init.HwFlowCtl = UART_HWCONTROL_NONE;
 206:Core/Src/main.cpp ****   huart1.Init.OverSampling = UART_OVERSAMPLING_16;
 207:Core/Src/main.cpp ****   if (HAL_UART_Init(&huart1) != HAL_OK)
 208:Core/Src/main.cpp ****   {
 209:Core/Src/main.cpp ****     Error_Handler();
 210:Core/Src/main.cpp ****   }
 211:Core/Src/main.cpp ****   /* USER CODE BEGIN USART1_Init 2 */
 212:Core/Src/main.cpp **** 
 213:Core/Src/main.cpp ****   /* USER CODE END USART1_Init 2 */
 214:Core/Src/main.cpp **** }
 215:Core/Src/main.cpp **** 
 216:Core/Src/main.cpp **** /**
 217:Core/Src/main.cpp ****   * @brief GPIO Initialization Function
 218:Core/Src/main.cpp ****   * @param None
 219:Core/Src/main.cpp ****   * @retval None
 220:Core/Src/main.cpp ****   */
 221:Core/Src/main.cpp **** static void MX_GPIO_Init(void)
 222:Core/Src/main.cpp **** {
  27              		.loc 1 222 1 view -0
  28              		.cfi_startproc
  29              		@ args = 0, pretend = 0, frame = 32
  30              		@ frame_needed = 0, uses_anonymous_args = 0
  31 0000 30B5     		push	{r4, r5, lr}
  32              		.save {r4, r5, lr}
  33              	.LCFI0:
  34              		.cfi_def_cfa_offset 12
  35              		.cfi_offset 4, -12
  36              		.cfi_offset 5, -8
  37              		.cfi_offset 14, -4
  38              		.pad #36
  39 0002 89B0     		sub	sp, sp, #36
  40              	.LCFI1:
  41              		.cfi_def_cfa_offset 48
 223:Core/Src/main.cpp ****   GPIO_InitTypeDef GPIO_InitStruct = {0};
  42              		.loc 1 223 3 view .LVU1
  43              		.loc 1 223 20 is_stmt 0 view .LVU2
  44 0004 0024     		movs	r4, #0
  45 0006 0494     		str	r4, [sp, #16]
  46 0008 0594     		str	r4, [sp, #20]
  47 000a 0694     		str	r4, [sp, #24]
  48 000c 0794     		str	r4, [sp, #28]
 224:Core/Src/main.cpp **** 
 225:Core/Src/main.cpp ****   /* GPIO Ports Clock Enable */
 226:Core/Src/main.cpp ****   __HAL_RCC_GPIOC_CLK_ENABLE();
  49              		.loc 1 226 3 is_stmt 1 view .LVU3
  50              	.LBB220:
  51              		.loc 1 226 3 view .LVU4
  52              		.loc 1 226 3 view .LVU5
  53 000e 314B     		ldr	r3, .L3
  54 0010 9A69     		ldr	r2, [r3, #24]
  55 0012 42F01002 		orr	r2, r2, #16
  56 0016 9A61     		str	r2, [r3, #24]
  57              		.loc 1 226 3 view .LVU6
  58 0018 9A69     		ldr	r2, [r3, #24]
  59 001a 02F01002 		and	r2, r2, #16
  60 001e 0192     		str	r2, [sp, #4]
ARM GAS  C:\Users\Admin\AppData\Local\Temp\cctaKpna.s 			page 6


  61              		.loc 1 226 3 view .LVU7
  62 0020 019A     		ldr	r2, [sp, #4]
  63              	.LBE220:
 227:Core/Src/main.cpp ****   __HAL_RCC_GPIOB_CLK_ENABLE();
  64              		.loc 1 227 3 view .LVU8
  65              	.LBB221:
  66              		.loc 1 227 3 view .LVU9
  67              		.loc 1 227 3 view .LVU10
  68 0022 9A69     		ldr	r2, [r3, #24]
  69 0024 42F00802 		orr	r2, r2, #8
  70 0028 9A61     		str	r2, [r3, #24]
  71              		.loc 1 227 3 view .LVU11
  72 002a 9A69     		ldr	r2, [r3, #24]
  73 002c 02F00802 		and	r2, r2, #8
  74 0030 0292     		str	r2, [sp, #8]
  75              		.loc 1 227 3 view .LVU12
  76 0032 029A     		ldr	r2, [sp, #8]
  77              	.LBE221:
 228:Core/Src/main.cpp ****   __HAL_RCC_GPIOA_CLK_ENABLE();
  78              		.loc 1 228 3 view .LVU13
  79              	.LBB222:
  80              		.loc 1 228 3 view .LVU14
  81              		.loc 1 228 3 view .LVU15
  82 0034 9A69     		ldr	r2, [r3, #24]
  83 0036 42F00402 		orr	r2, r2, #4
  84 003a 9A61     		str	r2, [r3, #24]
  85              		.loc 1 228 3 view .LVU16
  86 003c 9B69     		ldr	r3, [r3, #24]
  87 003e 03F00403 		and	r3, r3, #4
  88 0042 0393     		str	r3, [sp, #12]
  89              		.loc 1 228 3 view .LVU17
  90 0044 039B     		ldr	r3, [sp, #12]
  91              	.LBE222:
 229:Core/Src/main.cpp **** 
 230:Core/Src/main.cpp ****   /*Configure GPIO pins : D_01_Pin D_11_Pin D_02_Pin D_12_Pin */
 231:Core/Src/main.cpp ****   GPIO_InitStruct.Pin = D_01_Pin | D_11_Pin | D_02_Pin | D_12_Pin;
  92              		.loc 1 231 3 view .LVU18
  93              		.loc 1 231 23 is_stmt 0 view .LVU19
  94 0046 C323     		movs	r3, #195
  95 0048 0493     		str	r3, [sp, #16]
 232:Core/Src/main.cpp ****   GPIO_InitStruct.Mode = GPIO_MODE_IT_FALLING;
  96              		.loc 1 232 3 is_stmt 1 view .LVU20
  97              		.loc 1 232 24 is_stmt 0 view .LVU21
  98 004a 234B     		ldr	r3, .L3+4
  99 004c 0593     		str	r3, [sp, #20]
 233:Core/Src/main.cpp ****   GPIO_InitStruct.Pull = GPIO_NOPULL;
 100              		.loc 1 233 3 is_stmt 1 view .LVU22
 234:Core/Src/main.cpp ****   HAL_GPIO_Init(GPIOC, &GPIO_InitStruct);
 101              		.loc 1 234 3 view .LVU23
 102              		.loc 1 234 16 is_stmt 0 view .LVU24
 103 004e 234D     		ldr	r5, .L3+8
 104 0050 04A9     		add	r1, sp, #16
 105 0052 2846     		mov	r0, r5
 106 0054 FFF7FEFF 		bl	HAL_GPIO_Init
 107              	.LVL0:
 235:Core/Src/main.cpp **** 
 236:Core/Src/main.cpp ****   /*Configure GPIO pins : BT_0_Pin BT_1_Pin */
ARM GAS  C:\Users\Admin\AppData\Local\Temp\cctaKpna.s 			page 7


 237:Core/Src/main.cpp ****   GPIO_InitStruct.Pin = BT_0_Pin | BT_1_Pin;
 108              		.loc 1 237 3 is_stmt 1 view .LVU25
 109              		.loc 1 237 23 is_stmt 0 view .LVU26
 110 0058 0C23     		movs	r3, #12
 111 005a 0493     		str	r3, [sp, #16]
 238:Core/Src/main.cpp ****   GPIO_InitStruct.Mode = GPIO_MODE_IT_RISING;
 112              		.loc 1 238 3 is_stmt 1 view .LVU27
 113              		.loc 1 238 24 is_stmt 0 view .LVU28
 114 005c 204B     		ldr	r3, .L3+12
 115 005e 0593     		str	r3, [sp, #20]
 239:Core/Src/main.cpp ****   GPIO_InitStruct.Pull = GPIO_NOPULL;
 116              		.loc 1 239 3 is_stmt 1 view .LVU29
 117              		.loc 1 239 24 is_stmt 0 view .LVU30
 118 0060 0694     		str	r4, [sp, #24]
 240:Core/Src/main.cpp ****   HAL_GPIO_Init(GPIOC, &GPIO_InitStruct);
 119              		.loc 1 240 3 is_stmt 1 view .LVU31
 120              		.loc 1 240 16 is_stmt 0 view .LVU32
 121 0062 04A9     		add	r1, sp, #16
 122 0064 2846     		mov	r0, r5
 123 0066 FFF7FEFF 		bl	HAL_GPIO_Init
 124              	.LVL1:
 241:Core/Src/main.cpp **** 
 242:Core/Src/main.cpp ****   /*Configure GPIO pins : Zumer1_Pin Zumer2_Pin GreenLed_1_Pin GreenLed_2_Pin */
 243:Core/Src/main.cpp ****   /*  GPIO_InitStruct.Pin = Zumer1_Pin | Zumer2_Pin | GreenLed_1_Pin | GreenLed_2_Pin;
 244:Core/Src/main.cpp ****   GPIO_InitStruct.Mode = GPIO_MODE_OUTPUT_PP;
 245:Core/Src/main.cpp ****   GPIO_InitStruct.Pull = GPIO_NOPULL;
 246:Core/Src/main.cpp ****   GPIO_InitStruct.Speed = GPIO_SPEED_FREQ_LOW;
 247:Core/Src/main.cpp ****   HAL_GPIO_Init(GPIOB, &GPIO_InitStruct); */
 248:Core/Src/main.cpp **** 
 249:Core/Src/main.cpp ****   /*Configure GPIO pin : Door_Pin */
 250:Core/Src/main.cpp ****   GPIO_InitStruct.Pin = Door_Pin;
 125              		.loc 1 250 3 is_stmt 1 view .LVU33
 126              		.loc 1 250 23 is_stmt 0 view .LVU34
 127 006a 4FF48073 		mov	r3, #256
 128 006e 0493     		str	r3, [sp, #16]
 251:Core/Src/main.cpp ****   GPIO_InitStruct.Mode = GPIO_MODE_IT_RISING_FALLING;
 129              		.loc 1 251 3 is_stmt 1 view .LVU35
 130              		.loc 1 251 24 is_stmt 0 view .LVU36
 131 0070 1C4B     		ldr	r3, .L3+16
 132 0072 0593     		str	r3, [sp, #20]
 252:Core/Src/main.cpp ****   GPIO_InitStruct.Pull = GPIO_NOPULL;
 133              		.loc 1 252 3 is_stmt 1 view .LVU37
 134              		.loc 1 252 24 is_stmt 0 view .LVU38
 135 0074 0694     		str	r4, [sp, #24]
 253:Core/Src/main.cpp ****   HAL_GPIO_Init(Door_GPIO_Port, &GPIO_InitStruct);
 136              		.loc 1 253 3 is_stmt 1 view .LVU39
 137              		.loc 1 253 16 is_stmt 0 view .LVU40
 138 0076 04A9     		add	r1, sp, #16
 139 0078 2846     		mov	r0, r5
 140 007a FFF7FEFF 		bl	HAL_GPIO_Init
 141              	.LVL2:
 254:Core/Src/main.cpp **** 
 255:Core/Src/main.cpp ****   /* EXTI interrupt init*/
 256:Core/Src/main.cpp ****   HAL_NVIC_SetPriority(EXTI0_IRQn, 0, 0);
 142              		.loc 1 256 3 is_stmt 1 view .LVU41
 143              		.loc 1 256 23 is_stmt 0 view .LVU42
 144 007e 2246     		mov	r2, r4
ARM GAS  C:\Users\Admin\AppData\Local\Temp\cctaKpna.s 			page 8


 145 0080 2146     		mov	r1, r4
 146 0082 0620     		movs	r0, #6
 147 0084 FFF7FEFF 		bl	HAL_NVIC_SetPriority
 148              	.LVL3:
 257:Core/Src/main.cpp ****   HAL_NVIC_EnableIRQ(EXTI0_IRQn);
 149              		.loc 1 257 3 is_stmt 1 view .LVU43
 150              		.loc 1 257 21 is_stmt 0 view .LVU44
 151 0088 0620     		movs	r0, #6
 152 008a FFF7FEFF 		bl	HAL_NVIC_EnableIRQ
 153              	.LVL4:
 258:Core/Src/main.cpp **** 
 259:Core/Src/main.cpp ****   HAL_NVIC_SetPriority(EXTI1_IRQn, 0, 0);
 154              		.loc 1 259 3 is_stmt 1 view .LVU45
 155              		.loc 1 259 23 is_stmt 0 view .LVU46
 156 008e 2246     		mov	r2, r4
 157 0090 2146     		mov	r1, r4
 158 0092 0720     		movs	r0, #7
 159 0094 FFF7FEFF 		bl	HAL_NVIC_SetPriority
 160              	.LVL5:
 260:Core/Src/main.cpp ****   HAL_NVIC_EnableIRQ(EXTI1_IRQn);
 161              		.loc 1 260 3 is_stmt 1 view .LVU47
 162              		.loc 1 260 21 is_stmt 0 view .LVU48
 163 0098 0720     		movs	r0, #7
 164 009a FFF7FEFF 		bl	HAL_NVIC_EnableIRQ
 165              	.LVL6:
 261:Core/Src/main.cpp **** 
 262:Core/Src/main.cpp ****   HAL_NVIC_SetPriority(EXTI2_IRQn, 0, 0);
 166              		.loc 1 262 3 is_stmt 1 view .LVU49
 167              		.loc 1 262 23 is_stmt 0 view .LVU50
 168 009e 2246     		mov	r2, r4
 169 00a0 2146     		mov	r1, r4
 170 00a2 0820     		movs	r0, #8
 171 00a4 FFF7FEFF 		bl	HAL_NVIC_SetPriority
 172              	.LVL7:
 263:Core/Src/main.cpp ****   HAL_NVIC_EnableIRQ(EXTI2_IRQn);
 173              		.loc 1 263 3 is_stmt 1 view .LVU51
 174              		.loc 1 263 21 is_stmt 0 view .LVU52
 175 00a8 0820     		movs	r0, #8
 176 00aa FFF7FEFF 		bl	HAL_NVIC_EnableIRQ
 177              	.LVL8:
 264:Core/Src/main.cpp **** 
 265:Core/Src/main.cpp ****   HAL_NVIC_SetPriority(EXTI3_IRQn, 0, 0);
 178              		.loc 1 265 3 is_stmt 1 view .LVU53
 179              		.loc 1 265 23 is_stmt 0 view .LVU54
 180 00ae 2246     		mov	r2, r4
 181 00b0 2146     		mov	r1, r4
 182 00b2 0920     		movs	r0, #9
 183 00b4 FFF7FEFF 		bl	HAL_NVIC_SetPriority
 184              	.LVL9:
 266:Core/Src/main.cpp ****   HAL_NVIC_EnableIRQ(EXTI3_IRQn);
 185              		.loc 1 266 3 is_stmt 1 view .LVU55
 186              		.loc 1 266 21 is_stmt 0 view .LVU56
 187 00b8 0920     		movs	r0, #9
 188 00ba FFF7FEFF 		bl	HAL_NVIC_EnableIRQ
 189              	.LVL10:
 267:Core/Src/main.cpp **** 
 268:Core/Src/main.cpp ****   HAL_NVIC_SetPriority(EXTI9_5_IRQn, 0, 0);
ARM GAS  C:\Users\Admin\AppData\Local\Temp\cctaKpna.s 			page 9


 190              		.loc 1 268 3 is_stmt 1 view .LVU57
 191              		.loc 1 268 23 is_stmt 0 view .LVU58
 192 00be 2246     		mov	r2, r4
 193 00c0 2146     		mov	r1, r4
 194 00c2 1720     		movs	r0, #23
 195 00c4 FFF7FEFF 		bl	HAL_NVIC_SetPriority
 196              	.LVL11:
 269:Core/Src/main.cpp ****   HAL_NVIC_EnableIRQ(EXTI9_5_IRQn);
 197              		.loc 1 269 3 is_stmt 1 view .LVU59
 198              		.loc 1 269 21 is_stmt 0 view .LVU60
 199 00c8 1720     		movs	r0, #23
 200 00ca FFF7FEFF 		bl	HAL_NVIC_EnableIRQ
 201              	.LVL12:
 270:Core/Src/main.cpp **** }
 202              		.loc 1 270 1 view .LVU61
 203 00ce 09B0     		add	sp, sp, #36
 204              	.LCFI2:
 205              		.cfi_def_cfa_offset 12
 206              		@ sp needed
 207 00d0 30BD     		pop	{r4, r5, pc}
 208              	.L4:
 209 00d2 00BF     		.align	2
 210              	.L3:
 211 00d4 00100240 		.word	1073876992
 212 00d8 00002110 		.word	270598144
 213 00dc 00100140 		.word	1073811456
 214 00e0 00001110 		.word	269549568
 215 00e4 00003110 		.word	271646720
 216              		.cfi_endproc
 217              	.LFE107:
 218              		.fnend
 220              		.section	.text._ZN6PinOutC2EP12GPIO_TypeDeft,"axG",%progbits,_ZN6PinOutC5EP12GPIO_TypeDeft,comdat
 221              		.align	1
 222              		.weak	_ZN6PinOutC2EP12GPIO_TypeDeft
 223              		.syntax unified
 224              		.thumb
 225              		.thumb_func
 226              		.fpu softvfp
 228              	_ZN6PinOutC2EP12GPIO_TypeDeft:
 229              		.fnstart
 230              	.LVL13:
 231              	.LFB78:
 232              		.file 2 "Core/Inc/PinOut.h"
   1:Core/Inc/PinOut.h **** #pragma once
   2:Core/Inc/PinOut.h **** #include "stm32f1xx_hal.h"
   3:Core/Inc/PinOut.h **** #include "State.h"
   4:Core/Inc/PinOut.h **** 
   5:Core/Inc/PinOut.h **** class PinOut
   6:Core/Inc/PinOut.h **** {
   7:Core/Inc/PinOut.h ****     GPIO_TypeDef *GPIOx;
   8:Core/Inc/PinOut.h ****     uint16_t GPIO_Pin;
   9:Core/Inc/PinOut.h **** 
  10:Core/Inc/PinOut.h **** public:
  11:Core/Inc/PinOut.h ****     PinOut(GPIO_TypeDef *GPIOx, uint16_t GPIO_Pin)
 233              		.loc 2 11 5 is_stmt 1 view -0
 234              		.cfi_startproc
 235              		@ args = 0, pretend = 0, frame = 32
ARM GAS  C:\Users\Admin\AppData\Local\Temp\cctaKpna.s 			page 10


 236              		@ frame_needed = 0, uses_anonymous_args = 0
 237              		.loc 2 11 5 is_stmt 0 view .LVU63
 238 0000 10B5     		push	{r4, lr}
 239              		.save {r4, lr}
 240              	.LCFI3:
 241              		.cfi_def_cfa_offset 8
 242              		.cfi_offset 4, -8
 243              		.cfi_offset 14, -4
 244              		.pad #32
 245 0002 88B0     		sub	sp, sp, #32
 246              	.LCFI4:
 247              		.cfi_def_cfa_offset 40
 248 0004 0446     		mov	r4, r0
 249 0006 0846     		mov	r0, r1
 250              	.LVL14:
 251              	.LBB223:
  12:Core/Inc/PinOut.h ****     {
  13:Core/Inc/PinOut.h ****         this->GPIOx = GPIOx;
 252              		.loc 2 13 9 is_stmt 1 view .LVU64
 253              		.loc 2 13 21 is_stmt 0 view .LVU65
 254 0008 2160     		str	r1, [r4]
  14:Core/Inc/PinOut.h ****         this->GPIO_Pin = GPIO_Pin;
 255              		.loc 2 14 9 is_stmt 1 view .LVU66
 256              		.loc 2 14 24 is_stmt 0 view .LVU67
 257 000a A280     		strh	r2, [r4, #4]	@ movhi
  15:Core/Inc/PinOut.h **** 
  16:Core/Inc/PinOut.h ****         __HAL_RCC_GPIOC_CLK_ENABLE();
 258              		.loc 2 16 9 is_stmt 1 view .LVU68
 259              	.LBB224:
 260              		.loc 2 16 9 view .LVU69
 261              		.loc 2 16 9 view .LVU70
 262 000c 154B     		ldr	r3, .L7
 263 000e 9969     		ldr	r1, [r3, #24]
 264              	.LVL15:
 265              		.loc 2 16 9 is_stmt 0 view .LVU71
 266 0010 41F01001 		orr	r1, r1, #16
 267 0014 9961     		str	r1, [r3, #24]
 268              		.loc 2 16 9 is_stmt 1 view .LVU72
 269 0016 9969     		ldr	r1, [r3, #24]
 270 0018 01F01001 		and	r1, r1, #16
 271 001c 0191     		str	r1, [sp, #4]
 272              		.loc 2 16 9 view .LVU73
 273 001e 0199     		ldr	r1, [sp, #4]
 274              	.LBE224:
  17:Core/Inc/PinOut.h ****         __HAL_RCC_GPIOB_CLK_ENABLE();
 275              		.loc 2 17 9 view .LVU74
 276              	.LBB225:
 277              		.loc 2 17 9 view .LVU75
 278              		.loc 2 17 9 view .LVU76
 279 0020 9969     		ldr	r1, [r3, #24]
 280 0022 41F00801 		orr	r1, r1, #8
 281 0026 9961     		str	r1, [r3, #24]
 282              		.loc 2 17 9 view .LVU77
 283 0028 9969     		ldr	r1, [r3, #24]
 284 002a 01F00801 		and	r1, r1, #8
 285 002e 0291     		str	r1, [sp, #8]
 286              		.loc 2 17 9 view .LVU78
ARM GAS  C:\Users\Admin\AppData\Local\Temp\cctaKpna.s 			page 11


 287 0030 0299     		ldr	r1, [sp, #8]
 288              	.LBE225:
  18:Core/Inc/PinOut.h ****         __HAL_RCC_GPIOA_CLK_ENABLE();
 289              		.loc 2 18 9 view .LVU79
 290              	.LBB226:
 291              		.loc 2 18 9 view .LVU80
 292              		.loc 2 18 9 view .LVU81
 293 0032 9969     		ldr	r1, [r3, #24]
 294 0034 41F00401 		orr	r1, r1, #4
 295 0038 9961     		str	r1, [r3, #24]
 296              		.loc 2 18 9 view .LVU82
 297 003a 9B69     		ldr	r3, [r3, #24]
 298 003c 03F00403 		and	r3, r3, #4
 299 0040 0393     		str	r3, [sp, #12]
 300              		.loc 2 18 9 view .LVU83
 301 0042 039B     		ldr	r3, [sp, #12]
 302              	.LBE226:
  19:Core/Inc/PinOut.h **** 
  20:Core/Inc/PinOut.h ****         GPIO_InitTypeDef GPIO_InitStruct = {0};
 303              		.loc 2 20 9 view .LVU84
 304              		.loc 2 20 26 is_stmt 0 view .LVU85
 305 0044 0023     		movs	r3, #0
 306 0046 0493     		str	r3, [sp, #16]
 307 0048 0593     		str	r3, [sp, #20]
 308 004a 0693     		str	r3, [sp, #24]
 309 004c 0793     		str	r3, [sp, #28]
  21:Core/Inc/PinOut.h ****         GPIO_InitStruct.Pin = GPIO_Pin;
 310              		.loc 2 21 9 is_stmt 1 view .LVU86
 311              		.loc 2 21 29 is_stmt 0 view .LVU87
 312 004e 0492     		str	r2, [sp, #16]
  22:Core/Inc/PinOut.h ****         GPIO_InitStruct.Mode = GPIO_MODE_OUTPUT_PP;
 313              		.loc 2 22 9 is_stmt 1 view .LVU88
 314              		.loc 2 22 30 is_stmt 0 view .LVU89
 315 0050 0123     		movs	r3, #1
 316 0052 0593     		str	r3, [sp, #20]
  23:Core/Inc/PinOut.h ****         GPIO_InitStruct.Pull = GPIO_NOPULL;
 317              		.loc 2 23 9 is_stmt 1 view .LVU90
  24:Core/Inc/PinOut.h ****         GPIO_InitStruct.Speed = GPIO_SPEED_FREQ_LOW;
 318              		.loc 2 24 9 view .LVU91
 319              		.loc 2 24 31 is_stmt 0 view .LVU92
 320 0054 0223     		movs	r3, #2
 321 0056 0793     		str	r3, [sp, #28]
  25:Core/Inc/PinOut.h ****         HAL_GPIO_Init(GPIOx, &GPIO_InitStruct);
 322              		.loc 2 25 9 is_stmt 1 view .LVU93
 323              		.loc 2 25 22 is_stmt 0 view .LVU94
 324 0058 04A9     		add	r1, sp, #16
 325 005a FFF7FEFF 		bl	HAL_GPIO_Init
 326              	.LVL16:
 327              		.loc 2 25 22 view .LVU95
 328              	.LBE223:
  26:Core/Inc/PinOut.h ****     }
 329              		.loc 2 26 5 view .LVU96
 330 005e 2046     		mov	r0, r4
 331 0060 08B0     		add	sp, sp, #32
 332              	.LCFI5:
 333              		.cfi_def_cfa_offset 8
 334              		@ sp needed
ARM GAS  C:\Users\Admin\AppData\Local\Temp\cctaKpna.s 			page 12


 335 0062 10BD     		pop	{r4, pc}
 336              	.LVL17:
 337              	.L8:
 338              		.loc 2 26 5 view .LVU97
 339              		.align	2
 340              	.L7:
 341 0064 00100240 		.word	1073876992
 342              		.cfi_endproc
 343              	.LFE78:
 344              		.fnend
 346              		.weak	_ZN6PinOutC1EP12GPIO_TypeDeft
 347              		.thumb_set _ZN6PinOutC1EP12GPIO_TypeDeft,_ZN6PinOutC2EP12GPIO_TypeDeft
 348              		.section	.text._Z41__static_initialization_and_destruction_0ii,"ax",%progbits
 349              		.align	1
 350              		.syntax unified
 351              		.thumb
 352              		.thumb_func
 353              		.fpu softvfp
 355              	_Z41__static_initialization_and_destruction_0ii:
 356              		.fnstart
 357              	.LVL18:
 358              	.LFB123:
 271:Core/Src/main.cpp **** 
 272:Core/Src/main.cpp **** int main(void)
 273:Core/Src/main.cpp **** {
 274:Core/Src/main.cpp ****   HAL_Init();
 275:Core/Src/main.cpp **** 
 276:Core/Src/main.cpp ****   SystemClock_Config();
 277:Core/Src/main.cpp **** 
 278:Core/Src/main.cpp ****   MX_GPIO_Init();
 279:Core/Src/main.cpp ****   MX_USART1_UART_Init();
 280:Core/Src/main.cpp **** 
 281:Core/Src/main.cpp ****   UART_Printf("\nSwitched to Normal mode.\r\n");
 282:Core/Src/main.cpp ****   insideGreenLed.turnOn();
 283:Core/Src/main.cpp ****   outsideGreenLed.turnOn();
 284:Core/Src/main.cpp ****   insideZumer.turnOn();
 285:Core/Src/main.cpp ****   outsideZumer.turnOn();
 286:Core/Src/main.cpp **** 
 287:Core/Src/main.cpp ****   while (1)
 288:Core/Src/main.cpp ****   {
 289:Core/Src/main.cpp ****     TimeTrackEvent();
 290:Core/Src/main.cpp **** 
 291:Core/Src/main.cpp ****     ChangeModeEvent();
 292:Core/Src/main.cpp **** 
 293:Core/Src/main.cpp ****     DoorOpenedEvent();
 294:Core/Src/main.cpp **** 
 295:Core/Src/main.cpp ****     KeyReadEvent();
 296:Core/Src/main.cpp **** 
 297:Core/Src/main.cpp ****     ButtonPressedEvent();
 298:Core/Src/main.cpp **** 
 299:Core/Src/main.cpp ****     TempOpenModeEvent();
 300:Core/Src/main.cpp **** 
 301:Core/Src/main.cpp ****     TempAlarmEvent();
 302:Core/Src/main.cpp **** 
 303:Core/Src/main.cpp ****     DenyKeyEvent();
 304:Core/Src/main.cpp **** 
 305:Core/Src/main.cpp ****     AlarmEvent();
ARM GAS  C:\Users\Admin\AppData\Local\Temp\cctaKpna.s 			page 13


 306:Core/Src/main.cpp ****   }
 307:Core/Src/main.cpp **** }
 308:Core/Src/main.cpp **** 
 309:Core/Src/main.cpp **** /* Events */
 310:Core/Src/main.cpp **** 
 311:Core/Src/main.cpp **** void TimeTrackEvent()
 312:Core/Src/main.cpp **** {
 313:Core/Src/main.cpp ****   if ((HAL_GetTick() - timmeTrack) > 5000)
 314:Core/Src/main.cpp ****   {
 315:Core/Src/main.cpp ****     UART_Printf("Time passed: %d%s\r\n", (HAL_GetTick() - timme) / 1000, " sec.");
 316:Core/Src/main.cpp ****     timmeTrack = HAL_GetTick();
 317:Core/Src/main.cpp ****   }
 318:Core/Src/main.cpp **** }
 319:Core/Src/main.cpp **** 
 320:Core/Src/main.cpp **** void ChangeModeEvent()
 321:Core/Src/main.cpp **** {
 322:Core/Src/main.cpp ****   if ((HAL_GetTick() - timme) > 15000)
 323:Core/Src/main.cpp ****   {
 324:Core/Src/main.cpp ****     timme = HAL_GetTick();
 325:Core/Src/main.cpp ****     switchMode();
 326:Core/Src/main.cpp ****   }
 327:Core/Src/main.cpp **** }
 328:Core/Src/main.cpp **** 
 329:Core/Src/main.cpp **** void DoorOpenedEvent()
 330:Core/Src/main.cpp **** {
 331:Core/Src/main.cpp ****   /* if(door.isStateChanged() && door.getState() == State::On)
 332:Core/Src/main.cpp ****   {
 333:Core/Src/main.cpp ****     UART_Printf("Door was opened.\r\n");
 334:Core/Src/main.cpp ****   } */
 335:Core/Src/main.cpp **** }
 336:Core/Src/main.cpp **** 
 337:Core/Src/main.cpp **** void KeyReadEvent()
 338:Core/Src/main.cpp **** {
 339:Core/Src/main.cpp ****   if (wig_available())
 340:Core/Src/main.cpp ****   {
 341:Core/Src/main.cpp ****     if (intercomMode != IntercomMode::ClosedMode && verifyCode(getCode()))
 342:Core/Src/main.cpp ****     {
 343:Core/Src/main.cpp ****       UART_Printf("%s intercom was used. Key id: %d.\r\n", insideKeyRead ? "Inside" : "Outside", ge
 344:Core/Src/main.cpp **** 
 345:Core/Src/main.cpp ****       workMode = WorkMode::TempOpenMode;
 346:Core/Src/main.cpp ****     }
 347:Core/Src/main.cpp ****     else
 348:Core/Src/main.cpp ****     {
 349:Core/Src/main.cpp ****       (intercomMode == IntercomMode::ClosedMode) ? UART_Printf("Acces denied, door is closed. Key i
 350:Core/Src/main.cpp ****                                                  : UART_Printf("Acces denied. Key is not authorized
 351:Core/Src/main.cpp **** 
 352:Core/Src/main.cpp ****       previousWorkMode = workMode;
 353:Core/Src/main.cpp ****       workMode = WorkMode::DenyMode;
 354:Core/Src/main.cpp ****     }
 355:Core/Src/main.cpp **** 
 356:Core/Src/main.cpp ****     insideKeyRead = false;
 357:Core/Src/main.cpp ****     outsideKeyRead = false;
 358:Core/Src/main.cpp ****   }
 359:Core/Src/main.cpp **** }
 360:Core/Src/main.cpp **** 
 361:Core/Src/main.cpp **** void ButtonPressedEvent()
 362:Core/Src/main.cpp **** {
ARM GAS  C:\Users\Admin\AppData\Local\Temp\cctaKpna.s 			page 14


 363:Core/Src/main.cpp ****   if (insideButtonPressed || outsideButtonPressed)
 364:Core/Src/main.cpp ****   {
 365:Core/Src/main.cpp ****     UART_Printf("%s button was used.\r\n", insideButtonPressed ? "Inside" : "Outside");
 366:Core/Src/main.cpp **** 
 367:Core/Src/main.cpp ****     workMode = WorkMode::TempOpenMode;
 368:Core/Src/main.cpp **** 
 369:Core/Src/main.cpp ****     insideButtonPressed = false;
 370:Core/Src/main.cpp ****     outsideButtonPressed = false;
 371:Core/Src/main.cpp ****   }
 372:Core/Src/main.cpp **** }
 373:Core/Src/main.cpp **** 
 374:Core/Src/main.cpp **** void TempOpenModeEvent()
 375:Core/Src/main.cpp **** {
 376:Core/Src/main.cpp ****   static Timer lockTimer(0, 0);
 377:Core/Src/main.cpp ****   static Timer zumerTimer(0, 0);
 378:Core/Src/main.cpp **** 
 379:Core/Src/main.cpp ****   if (workMode == WorkMode::TempOpenMode)
 380:Core/Src/main.cpp ****   {
 381:Core/Src/main.cpp ****     static bool firstTime = true;
 382:Core/Src/main.cpp ****     if (firstTime)
 383:Core/Src/main.cpp ****     {
 384:Core/Src/main.cpp ****       firstTime = false;
 385:Core/Src/main.cpp ****       lock.turnOn();
 386:Core/Src/main.cpp ****       lockTimer.start();
 387:Core/Src/main.cpp ****     }
 388:Core/Src/main.cpp **** 
 389:Core/Src/main.cpp ****     if (HAL_GetTick() - lockTimer.getStartTime() < 5000 && !(door.isStateChanged() && door.getState
 390:Core/Src/main.cpp ****     {
 391:Core/Src/main.cpp ****       if (HAL_GetTick() - zumerTimer.getLastTick() > 250)
 392:Core/Src/main.cpp ****       {
 393:Core/Src/main.cpp ****         zumerTimer.setLastTick();
 394:Core/Src/main.cpp ****         insideZumer.turnOff();
 395:Core/Src/main.cpp ****         outsideZumer.turnOff();
 396:Core/Src/main.cpp ****         insideGreenLed.turnOff();
 397:Core/Src/main.cpp ****         outsideGreenLed.turnOff();
 398:Core/Src/main.cpp ****       }
 399:Core/Src/main.cpp **** 
 400:Core/Src/main.cpp ****       if (HAL_GetTick() - zumerTimer.getLastTick() > 75)
 401:Core/Src/main.cpp ****       {
 402:Core/Src/main.cpp ****         insideZumer.turnOn();
 403:Core/Src/main.cpp ****         outsideZumer.turnOn();
 404:Core/Src/main.cpp ****         insideGreenLed.turnOn();
 405:Core/Src/main.cpp ****         outsideGreenLed.turnOn();
 406:Core/Src/main.cpp ****       }
 407:Core/Src/main.cpp ****     }
 408:Core/Src/main.cpp ****     else if (door.getState() == State::On)
 409:Core/Src/main.cpp ****     {
 410:Core/Src/main.cpp ****       UART_Printf("Door is still opened. Turning on temporarily alarm.\r\n");
 411:Core/Src/main.cpp ****       workMode = WorkMode::TempAlarmMode;
 412:Core/Src/main.cpp ****     }
 413:Core/Src/main.cpp ****     else
 414:Core/Src/main.cpp ****     {
 415:Core/Src/main.cpp ****       HAL_GetTick() - lockTimer.getStartTime() > 5000 ? UART_Printf("Door was not opened. Closing t
 416:Core/Src/main.cpp ****                                                       : UART_Printf("Door was closed. Closing the r
 417:Core/Src/main.cpp **** 
 418:Core/Src/main.cpp ****       if (intercomMode == IntercomMode::CondOpenMode)
 419:Core/Src/main.cpp ****       {
ARM GAS  C:\Users\Admin\AppData\Local\Temp\cctaKpna.s 			page 15


 420:Core/Src/main.cpp ****         UART_Printf("Current mode is Conditionally Open. Switching to Open.\r\n");
 421:Core/Src/main.cpp ****         intercomMode = IntercomMode::OpenMode;
 422:Core/Src/main.cpp ****       }
 423:Core/Src/main.cpp **** 
 424:Core/Src/main.cpp ****       workMode = WorkMode::NoMode;
 425:Core/Src/main.cpp ****       firstTime = true;
 426:Core/Src/main.cpp ****       lock.turnOff();
 427:Core/Src/main.cpp ****       insideZumer.turnOn();
 428:Core/Src/main.cpp ****       outsideZumer.turnOn();
 429:Core/Src/main.cpp ****       insideGreenLed.turnOn();
 430:Core/Src/main.cpp ****       outsideGreenLed.turnOn();
 431:Core/Src/main.cpp ****     }
 432:Core/Src/main.cpp ****   }
 433:Core/Src/main.cpp **** }
 434:Core/Src/main.cpp **** 
 435:Core/Src/main.cpp **** void TempAlarmEvent()
 436:Core/Src/main.cpp **** {
 437:Core/Src/main.cpp ****   static Timer sirenTimer(0, 0);
 438:Core/Src/main.cpp **** 
 439:Core/Src/main.cpp ****   if (workMode == WorkMode::TempAlarmMode)
 440:Core/Src/main.cpp ****   {
 441:Core/Src/main.cpp ****     if (HAL_GetTick() - sirenTimer.getLastTick() > 250)
 442:Core/Src/main.cpp ****     {
 443:Core/Src/main.cpp ****       sirenTimer.setLastTick();
 444:Core/Src/main.cpp ****       siren.turnOn();
 445:Core/Src/main.cpp ****     }
 446:Core/Src/main.cpp ****     else if (HAL_GetTick() - sirenTimer.getLastTick() < 250 && HAL_GetTick() - sirenTimer.getLastTi
 447:Core/Src/main.cpp ****     {
 448:Core/Src/main.cpp ****       siren.turnOff();
 449:Core/Src/main.cpp ****     }
 450:Core/Src/main.cpp **** 
 451:Core/Src/main.cpp ****     if (door.isStateChanged() && door.getState() == State::Off)
 452:Core/Src/main.cpp ****     {
 453:Core/Src/main.cpp ****       UART_Printf("Door was closed.\r\n");
 454:Core/Src/main.cpp ****       workMode = WorkMode::NoMode;
 455:Core/Src/main.cpp ****       siren.turnOff();
 456:Core/Src/main.cpp ****     }
 457:Core/Src/main.cpp ****   }
 458:Core/Src/main.cpp **** }
 459:Core/Src/main.cpp **** 
 460:Core/Src/main.cpp **** void DenyKeyEvent()
 461:Core/Src/main.cpp **** {
 462:Core/Src/main.cpp ****   static Timer denyTimer(0, 0);
 463:Core/Src/main.cpp ****   static bool firstTime = true;
 464:Core/Src/main.cpp **** 
 465:Core/Src/main.cpp ****   if (workMode == WorkMode::DenyMode)
 466:Core/Src/main.cpp ****   {
 467:Core/Src/main.cpp ****     if (firstTime)
 468:Core/Src/main.cpp ****     {
 469:Core/Src/main.cpp ****       denyTimer.start();
 470:Core/Src/main.cpp ****       firstTime = false;
 471:Core/Src/main.cpp ****     }
 472:Core/Src/main.cpp **** 
 473:Core/Src/main.cpp ****     if (HAL_GetTick() - denyTimer.getStartTime() < 300)
 474:Core/Src/main.cpp ****     {
 475:Core/Src/main.cpp ****       if (HAL_GetTick() - denyTimer.getLastTick() > 150)
 476:Core/Src/main.cpp ****       {
ARM GAS  C:\Users\Admin\AppData\Local\Temp\cctaKpna.s 			page 16


 477:Core/Src/main.cpp ****         denyTimer.setLastTick();
 478:Core/Src/main.cpp ****         insideZumer.turnOff();
 479:Core/Src/main.cpp ****         outsideZumer.turnOff();
 480:Core/Src/main.cpp ****       }
 481:Core/Src/main.cpp ****       else if (HAL_GetTick() - denyTimer.getLastTick() < 150 && HAL_GetTick() - denyTimer.getLastTi
 482:Core/Src/main.cpp ****       {
 483:Core/Src/main.cpp ****         insideZumer.turnOn();
 484:Core/Src/main.cpp ****         outsideZumer.turnOn();
 485:Core/Src/main.cpp ****       }
 486:Core/Src/main.cpp ****     }
 487:Core/Src/main.cpp ****     else
 488:Core/Src/main.cpp ****     {
 489:Core/Src/main.cpp ****       workMode = previousWorkMode;
 490:Core/Src/main.cpp ****       insideZumer.turnOn();
 491:Core/Src/main.cpp ****       outsideZumer.turnOn();
 492:Core/Src/main.cpp ****       firstTime = true;
 493:Core/Src/main.cpp ****     }
 494:Core/Src/main.cpp ****   }
 495:Core/Src/main.cpp **** }
 496:Core/Src/main.cpp **** 
 497:Core/Src/main.cpp **** void AlarmEvent()
 498:Core/Src/main.cpp **** {
 499:Core/Src/main.cpp ****   if (workMode == WorkMode::AlarmMode)
 500:Core/Src/main.cpp ****   {
 501:Core/Src/main.cpp ****     static Timer alarmTimer(0, 0);
 502:Core/Src/main.cpp ****     static bool firstTime = true;
 503:Core/Src/main.cpp **** 
 504:Core/Src/main.cpp ****     if (firstTime)
 505:Core/Src/main.cpp ****     {
 506:Core/Src/main.cpp ****       alarmTimer.start();
 507:Core/Src/main.cpp ****     }
 508:Core/Src/main.cpp **** 
 509:Core/Src/main.cpp ****     if (HAL_GetTick() - alarmTimer.getStartTime() < 2000)
 510:Core/Src/main.cpp ****     {
 511:Core/Src/main.cpp ****       if (HAL_GetTick() - alarmTimer.getLastTick() > 1000)
 512:Core/Src/main.cpp ****       {
 513:Core/Src/main.cpp ****         alarmTimer.setLastTick();
 514:Core/Src/main.cpp ****         siren.turnOn();
 515:Core/Src/main.cpp ****       }
 516:Core/Src/main.cpp ****       else if (HAL_GetTick() - alarmTimer.getLastTick() < 1000 && HAL_GetTick() - alarmTimer.getLas
 517:Core/Src/main.cpp ****       {
 518:Core/Src/main.cpp ****         siren.turnOff();
 519:Core/Src/main.cpp ****       }
 520:Core/Src/main.cpp ****     }
 521:Core/Src/main.cpp ****     else if (wig_available() /* || cancelled from server */)
 522:Core/Src/main.cpp ****     {
 523:Core/Src/main.cpp ****       workMode = WorkMode::NoMode;
 524:Core/Src/main.cpp ****       siren.turnOff();
 525:Core/Src/main.cpp ****     }
 526:Core/Src/main.cpp ****   }
 527:Core/Src/main.cpp **** }
 528:Core/Src/main.cpp **** 
 529:Core/Src/main.cpp **** /* Aux functions */
 530:Core/Src/main.cpp **** 
 531:Core/Src/main.cpp **** void HAL_GPIO_EXTI_Callback(uint16_t GPIO_Pin)
 532:Core/Src/main.cpp **** {
 533:Core/Src/main.cpp ****   switch (GPIO_Pin)
ARM GAS  C:\Users\Admin\AppData\Local\Temp\cctaKpna.s 			page 17


 534:Core/Src/main.cpp ****   {
 535:Core/Src/main.cpp ****   case BT_0_Pin:
 536:Core/Src/main.cpp ****   {
 537:Core/Src/main.cpp ****     insideButtonPressed = true;
 538:Core/Src/main.cpp ****     break;
 539:Core/Src/main.cpp ****   }
 540:Core/Src/main.cpp ****   case BT_1_Pin:
 541:Core/Src/main.cpp ****   {
 542:Core/Src/main.cpp ****     outsideButtonPressed = true;
 543:Core/Src/main.cpp ****     break;
 544:Core/Src/main.cpp ****   }
 545:Core/Src/main.cpp ****   case Door_Pin:
 546:Core/Src/main.cpp ****   {
 547:Core/Src/main.cpp ****     door.setStateChanged();
 548:Core/Src/main.cpp ****     if (workMode != WorkMode::TempOpenMode && door.getState() == State::On)
 549:Core/Src/main.cpp ****     {
 550:Core/Src/main.cpp ****       workMode = WorkMode::AlarmMode;
 551:Core/Src/main.cpp ****     }
 552:Core/Src/main.cpp ****     /* if(door.getState() == State::Off)
 553:Core/Src/main.cpp ****     {
 554:Core/Src/main.cpp ****       UART_Printf("Door is opened.\r\n");
 555:Core/Src/main.cpp ****     }
 556:Core/Src/main.cpp ****     else if(door.getState() == State::On)
 557:Core/Src/main.cpp ****     {
 558:Core/Src/main.cpp ****       UART_Printf("Door is closed.\r\n");
 559:Core/Src/main.cpp ****     } */
 560:Core/Src/main.cpp ****     break;
 561:Core/Src/main.cpp ****   }
 562:Core/Src/main.cpp ****   case D_01_Pin:
 563:Core/Src/main.cpp ****   {
 564:Core/Src/main.cpp ****     if (wig_flag_inrt)
 565:Core/Src/main.cpp ****     {
 566:Core/Src/main.cpp ****       ReadD0();
 567:Core/Src/main.cpp ****       insideKeyRead = true;
 568:Core/Src/main.cpp ****     }
 569:Core/Src/main.cpp ****     break;
 570:Core/Src/main.cpp ****   }
 571:Core/Src/main.cpp ****   case D_11_Pin:
 572:Core/Src/main.cpp ****   {
 573:Core/Src/main.cpp ****     if (wig_flag_inrt)
 574:Core/Src/main.cpp ****     {
 575:Core/Src/main.cpp ****       ReadD1();
 576:Core/Src/main.cpp ****       insideKeyRead = true;
 577:Core/Src/main.cpp ****     }
 578:Core/Src/main.cpp ****     break;
 579:Core/Src/main.cpp ****   }
 580:Core/Src/main.cpp ****   case D_02_Pin:
 581:Core/Src/main.cpp ****   {
 582:Core/Src/main.cpp ****     if (wig_flag_inrt)
 583:Core/Src/main.cpp ****     {
 584:Core/Src/main.cpp ****       ReadD0();
 585:Core/Src/main.cpp ****       outsideKeyRead = true;
 586:Core/Src/main.cpp ****     }
 587:Core/Src/main.cpp ****     break;
 588:Core/Src/main.cpp ****   }
 589:Core/Src/main.cpp ****   case D_12_Pin:
 590:Core/Src/main.cpp ****   {
ARM GAS  C:\Users\Admin\AppData\Local\Temp\cctaKpna.s 			page 18


 591:Core/Src/main.cpp ****     if (wig_flag_inrt)
 592:Core/Src/main.cpp ****     {
 593:Core/Src/main.cpp ****       ReadD1();
 594:Core/Src/main.cpp ****       outsideKeyRead = true;
 595:Core/Src/main.cpp ****     }
 596:Core/Src/main.cpp ****     break;
 597:Core/Src/main.cpp ****   }
 598:Core/Src/main.cpp ****   default:
 599:Core/Src/main.cpp ****   {
 600:Core/Src/main.cpp ****     break;
 601:Core/Src/main.cpp ****   }
 602:Core/Src/main.cpp ****   }
 603:Core/Src/main.cpp **** }
 604:Core/Src/main.cpp **** 
 605:Core/Src/main.cpp **** void UART_Printf(const char *fmt, ...)
 606:Core/Src/main.cpp **** {
 607:Core/Src/main.cpp ****   char buff[256];
 608:Core/Src/main.cpp ****   va_list args;
 609:Core/Src/main.cpp ****   va_start(args, fmt);
 610:Core/Src/main.cpp ****   vsnprintf(buff, sizeof(buff), fmt, args);
 611:Core/Src/main.cpp ****   HAL_UART_Transmit(&huart1, (uint8_t *)buff, strlen(buff), HAL_MAX_DELAY);
 612:Core/Src/main.cpp ****   va_end(args);
 613:Core/Src/main.cpp **** }
 614:Core/Src/main.cpp **** 
 615:Core/Src/main.cpp **** bool verifyCode(uint32_t code)
 616:Core/Src/main.cpp **** {
 617:Core/Src/main.cpp ****   uint32_t codes[] =
 618:Core/Src/main.cpp ****       {12563593};
 619:Core/Src/main.cpp **** 
 620:Core/Src/main.cpp ****   for (unsigned int i = 0; i < sizeof(codes) / sizeof(codes[0]); i++)
 621:Core/Src/main.cpp ****   {
 622:Core/Src/main.cpp ****     if (code == codes[i])
 623:Core/Src/main.cpp ****       return true;
 624:Core/Src/main.cpp ****   }
 625:Core/Src/main.cpp **** 
 626:Core/Src/main.cpp ****   return false;
 627:Core/Src/main.cpp **** }
 628:Core/Src/main.cpp **** 
 629:Core/Src/main.cpp **** void switchMode()
 630:Core/Src/main.cpp **** {
 631:Core/Src/main.cpp ****   switch (intercomMode)
 632:Core/Src/main.cpp ****   {
 633:Core/Src/main.cpp ****   case IntercomMode::NormalMode:
 634:Core/Src/main.cpp ****   {
 635:Core/Src/main.cpp ****     UART_Printf("\nSwitched to Closed mode.\r\n");
 636:Core/Src/main.cpp ****     intercomMode = IntercomMode::ClosedMode;
 637:Core/Src/main.cpp ****     lock.turnOff();
 638:Core/Src/main.cpp ****     break;
 639:Core/Src/main.cpp ****   }
 640:Core/Src/main.cpp ****   case IntercomMode::ClosedMode:
 641:Core/Src/main.cpp ****   {
 642:Core/Src/main.cpp ****     UART_Printf("\nSwitched to Open mode.\r\n");
 643:Core/Src/main.cpp ****     intercomMode = IntercomMode::OpenMode;
 644:Core/Src/main.cpp ****     lock.turnOn();
 645:Core/Src/main.cpp ****     break;
 646:Core/Src/main.cpp ****   }
 647:Core/Src/main.cpp ****   case IntercomMode::OpenMode:
ARM GAS  C:\Users\Admin\AppData\Local\Temp\cctaKpna.s 			page 19


 648:Core/Src/main.cpp ****   {
 649:Core/Src/main.cpp ****     UART_Printf("\nSwitched to CondOpen mode.\r\n");
 650:Core/Src/main.cpp ****     intercomMode = IntercomMode::CondOpenMode;
 651:Core/Src/main.cpp ****     lock.turnOff();
 652:Core/Src/main.cpp ****     break;
 653:Core/Src/main.cpp ****   }
 654:Core/Src/main.cpp ****   case IntercomMode::CondOpenMode:
 655:Core/Src/main.cpp ****   {
 656:Core/Src/main.cpp ****     UART_Printf("\nSwitched to Normal mode.\r\n");
 657:Core/Src/main.cpp ****     intercomMode = IntercomMode::NormalMode;
 658:Core/Src/main.cpp ****     lock.turnOff();
 659:Core/Src/main.cpp ****     break;
 660:Core/Src/main.cpp ****   }
 661:Core/Src/main.cpp ****   default:
 662:Core/Src/main.cpp ****   {
 663:Core/Src/main.cpp ****     UART_Printf("Unknown mode, switched to normal.\r\n");
 664:Core/Src/main.cpp ****     intercomMode = IntercomMode::NormalMode;
 665:Core/Src/main.cpp ****     lock.turnOff();
 666:Core/Src/main.cpp ****     break;
 667:Core/Src/main.cpp ****   }
 668:Core/Src/main.cpp ****   }
 669:Core/Src/main.cpp **** 
 670:Core/Src/main.cpp ****   return;
 671:Core/Src/main.cpp **** }
 672:Core/Src/main.cpp **** 
 673:Core/Src/main.cpp **** /**
 674:Core/Src/main.cpp ****   * @brief  This function is executed in case of error occurrence.
 675:Core/Src/main.cpp ****   * @retval None
 676:Core/Src/main.cpp ****   */
 677:Core/Src/main.cpp **** void Error_Handler(void)
 678:Core/Src/main.cpp **** {
 679:Core/Src/main.cpp ****   /* USER CODE BEGIN Error_Handler_Debug */
 680:Core/Src/main.cpp ****   /* User can add his own implementation to report the HAL error return state */
 681:Core/Src/main.cpp ****   __disable_irq();
 682:Core/Src/main.cpp ****   while (1)
 683:Core/Src/main.cpp ****   {
 684:Core/Src/main.cpp ****   }
 685:Core/Src/main.cpp ****   /* USER CODE END Error_Handler_Debug */
 686:Core/Src/main.cpp **** }
 359              		.loc 1 686 1 is_stmt 1 view -0
 360              		.cfi_startproc
 361              		@ args = 0, pretend = 0, frame = 16
 362              		@ frame_needed = 0, uses_anonymous_args = 0
 363              		.loc 1 686 1 is_stmt 0 view .LVU99
 364 0000 0128     		cmp	r0, #1
 365 0002 00D0     		beq	.L15
 366              	.L12:
 367 0004 7047     		bx	lr
 368              	.L15:
 369              		.loc 1 686 1 discriminator 1 view .LVU100
 370 0006 4FF6FF73 		movw	r3, #65535
 371 000a 9942     		cmp	r1, r3
 372 000c FAD1     		bne	.L12
 373              		.loc 1 686 1 view .LVU101
 374 000e 30B5     		push	{r4, r5, lr}
 375              	.LCFI6:
 376              		.cfi_def_cfa_offset 12
ARM GAS  C:\Users\Admin\AppData\Local\Temp\cctaKpna.s 			page 20


 377              		.cfi_offset 4, -12
 378              		.cfi_offset 5, -8
 379              		.cfi_offset 14, -4
 380 0010 85B0     		sub	sp, sp, #20
 381              	.LCFI7:
 382              		.cfi_def_cfa_offset 32
 383              	.LVL19:
 384              	.LBB233:
 385              	.LBI233:
 386              		.file 3 "Core/Inc/InterruptPin.h"
   1:Core/Inc/InterruptPin.h **** #pragma once
   2:Core/Inc/InterruptPin.h **** #include "PinIn.h"
   3:Core/Inc/InterruptPin.h **** #include "stm32f1xx_hal.h"
   4:Core/Inc/InterruptPin.h **** #include "State.h"
   5:Core/Inc/InterruptPin.h **** 
   6:Core/Inc/InterruptPin.h **** class InterruptPin : public PinIn
   7:Core/Inc/InterruptPin.h **** {
   8:Core/Inc/InterruptPin.h **** private:
   9:Core/Inc/InterruptPin.h ****     bool stateChanged;
  10:Core/Inc/InterruptPin.h **** 
  11:Core/Inc/InterruptPin.h **** public:
  12:Core/Inc/InterruptPin.h ****     InterruptPin(GPIO_TypeDef *GPIOx, uint16_t GPIO_Pin) : PinIn(GPIOx, GPIO_Pin)
 387              		.loc 3 12 5 is_stmt 1 view .LVU102
 388              	.LBB234:
 389              	.LBB235:
 390              	.LBI235:
 391              		.file 4 "Core/Inc/PinIn.h"
   1:Core/Inc/PinIn.h **** #pragma once
   2:Core/Inc/PinIn.h **** #include "stm32f1xx_hal.h"
   3:Core/Inc/PinIn.h **** #include "State.h"
   4:Core/Inc/PinIn.h **** 
   5:Core/Inc/PinIn.h **** class PinIn
   6:Core/Inc/PinIn.h **** {
   7:Core/Inc/PinIn.h ****     GPIO_TypeDef *GPIOx;
   8:Core/Inc/PinIn.h ****     uint16_t GPIO_Pin;
   9:Core/Inc/PinIn.h **** 
  10:Core/Inc/PinIn.h **** public:
  11:Core/Inc/PinIn.h ****     PinIn(GPIO_TypeDef *GPIOx, uint16_t GPIO_Pin)
 392              		.loc 4 11 5 view .LVU103
 393              	.LBB236:
 394              	.LBB237:
  12:Core/Inc/PinIn.h ****     {
  13:Core/Inc/PinIn.h ****         this->GPIOx = GPIOx;
 395              		.loc 4 13 9 view .LVU104
 396              		.loc 4 13 21 is_stmt 0 view .LVU105
 397 0012 1C4B     		ldr	r3, .L16
 398 0014 1C48     		ldr	r0, .L16+4
 399              	.LVL20:
 400              		.loc 4 13 21 view .LVU106
 401 0016 1860     		str	r0, [r3]
  14:Core/Inc/PinIn.h ****         this->GPIO_Pin = GPIO_Pin;
 402              		.loc 4 14 9 is_stmt 1 view .LVU107
 403              		.loc 4 14 24 is_stmt 0 view .LVU108
 404 0018 4FF48075 		mov	r5, #256
 405 001c 9D80     		strh	r5, [r3, #4]	@ movhi
  15:Core/Inc/PinIn.h **** 
  16:Core/Inc/PinIn.h ****         GPIO_InitTypeDef GPIO_InitStruct = {0};
ARM GAS  C:\Users\Admin\AppData\Local\Temp\cctaKpna.s 			page 21


 406              		.loc 4 16 9 is_stmt 1 view .LVU109
 407              		.loc 4 16 26 is_stmt 0 view .LVU110
 408 001e 0023     		movs	r3, #0
 409 0020 0093     		str	r3, [sp]
 410 0022 0193     		str	r3, [sp, #4]
 411 0024 0293     		str	r3, [sp, #8]
 412 0026 0393     		str	r3, [sp, #12]
  17:Core/Inc/PinIn.h ****         GPIO_InitStruct.Pin = GPIO_Pin;
 413              		.loc 4 17 9 is_stmt 1 view .LVU111
 414              		.loc 4 17 29 is_stmt 0 view .LVU112
 415 0028 0095     		str	r5, [sp]
  18:Core/Inc/PinIn.h ****         GPIO_InitStruct.Mode = GPIO_MODE_OUTPUT_PP;
 416              		.loc 4 18 9 is_stmt 1 view .LVU113
 417              		.loc 4 18 30 is_stmt 0 view .LVU114
 418 002a 0123     		movs	r3, #1
 419 002c 0193     		str	r3, [sp, #4]
  19:Core/Inc/PinIn.h ****         GPIO_InitStruct.Pull = GPIO_NOPULL;
 420              		.loc 4 19 9 is_stmt 1 view .LVU115
  20:Core/Inc/PinIn.h ****         GPIO_InitStruct.Speed = GPIO_SPEED_FREQ_LOW;
 421              		.loc 4 20 9 view .LVU116
 422              		.loc 4 20 31 is_stmt 0 view .LVU117
 423 002e 0223     		movs	r3, #2
 424 0030 0393     		str	r3, [sp, #12]
  21:Core/Inc/PinIn.h ****         HAL_GPIO_Init(GPIOx, &GPIO_InitStruct);
 425              		.loc 4 21 9 is_stmt 1 view .LVU118
 426              		.loc 4 21 22 is_stmt 0 view .LVU119
 427 0032 6946     		mov	r1, sp
 428              	.LVL21:
 429              		.loc 4 21 22 view .LVU120
 430 0034 FFF7FEFF 		bl	HAL_GPIO_Init
 431              	.LVL22:
 432              		.loc 4 21 22 view .LVU121
 433              	.LBE237:
 434              	.LBE236:
 435              	.LBE235:
 436              	.LBE234:
 437              	.LBE233:
 111:Core/Src/main.cpp **** /**
 438              		.loc 1 111 37 view .LVU122
 439 0038 144C     		ldr	r4, .L16+8
 440 003a 2A46     		mov	r2, r5
 441 003c 2146     		mov	r1, r4
 442 003e 1448     		ldr	r0, .L16+12
 443 0040 FFF7FEFF 		bl	_ZN6PinOutC1EP12GPIO_TypeDeft
 444              	.LVL23:
 115:Core/Src/main.cpp **** 
 445              		.loc 1 115 40 view .LVU123
 446 0044 4FF40072 		mov	r2, #512
 447 0048 2146     		mov	r1, r4
 448 004a 1248     		ldr	r0, .L16+16
 449 004c FFF7FEFF 		bl	_ZN6PinOutC1EP12GPIO_TypeDeft
 450              	.LVL24:
 120:Core/Src/main.cpp **** /**
 451              		.loc 1 120 48 view .LVU124
 452 0050 4FF48062 		mov	r2, #1024
 453 0054 2146     		mov	r1, r4
 454 0056 1048     		ldr	r0, .L16+20
ARM GAS  C:\Users\Admin\AppData\Local\Temp\cctaKpna.s 			page 22


 455 0058 FFF7FEFF 		bl	_ZN6PinOutC1EP12GPIO_TypeDeft
 456              	.LVL25:
 124:Core/Src/main.cpp **** /**
 457              		.loc 1 124 49 view .LVU125
 458 005c 4FF40062 		mov	r2, #2048
 459 0060 2146     		mov	r1, r4
 460 0062 0E48     		ldr	r0, .L16+24
 461 0064 FFF7FEFF 		bl	_ZN6PinOutC1EP12GPIO_TypeDeft
 462              	.LVL26:
 128:Core/Src/main.cpp **** /**
 463              		.loc 1 128 59 view .LVU126
 464 0068 4FF48042 		mov	r2, #16384
 465 006c 2146     		mov	r1, r4
 466 006e 0C48     		ldr	r0, .L16+28
 467 0070 FFF7FEFF 		bl	_ZN6PinOutC1EP12GPIO_TypeDeft
 468              	.LVL27:
 132:Core/Src/main.cpp **** 
 469              		.loc 1 132 60 view .LVU127
 470 0074 4FF40042 		mov	r2, #32768
 471 0078 2146     		mov	r1, r4
 472 007a 0A48     		ldr	r0, .L16+32
 473 007c FFF7FEFF 		bl	_ZN6PinOutC1EP12GPIO_TypeDeft
 474              	.LVL28:
 475              		.loc 1 686 1 view .LVU128
 476 0080 05B0     		add	sp, sp, #20
 477              	.LCFI8:
 478              		.cfi_def_cfa_offset 12
 479              		@ sp needed
 480 0082 30BD     		pop	{r4, r5, pc}
 481              	.L17:
 482              		.align	2
 483              	.L16:
 484 0084 00000000 		.word	.LANCHOR0
 485 0088 00100140 		.word	1073811456
 486 008c 000C0140 		.word	1073810432
 487 0090 00000000 		.word	.LANCHOR1
 488 0094 00000000 		.word	.LANCHOR2
 489 0098 00000000 		.word	.LANCHOR3
 490 009c 00000000 		.word	.LANCHOR4
 491 00a0 00000000 		.word	.LANCHOR5
 492 00a4 00000000 		.word	.LANCHOR6
 493              		.cfi_endproc
 494              	.LFE123:
 495              		.cantunwind
 496              		.fnend
 498              		.section	.text._Z15DoorOpenedEventv,"ax",%progbits
 499              		.align	1
 500              		.global	_Z15DoorOpenedEventv
 501              		.syntax unified
 502              		.thumb
 503              		.thumb_func
 504              		.fpu softvfp
 506              	_Z15DoorOpenedEventv:
 507              		.fnstart
 508              	.LFB111:
 330:Core/Src/main.cpp ****   /* if(door.isStateChanged() && door.getState() == State::On)
 509              		.loc 1 330 1 is_stmt 1 view -0
ARM GAS  C:\Users\Admin\AppData\Local\Temp\cctaKpna.s 			page 23


 510              		.cfi_startproc
 511              		@ args = 0, pretend = 0, frame = 0
 512              		@ frame_needed = 0, uses_anonymous_args = 0
 513              		@ link register save eliminated.
 335:Core/Src/main.cpp **** 
 514              		.loc 1 335 1 is_stmt 0 view .LVU130
 515 0000 7047     		bx	lr
 516              		.cfi_endproc
 517              	.LFE111:
 518              		.cantunwind
 519              		.fnend
 521              		.section	.text._Z12DenyKeyEventv,"ax",%progbits
 522              		.align	1
 523              		.global	_Z12DenyKeyEventv
 524              		.syntax unified
 525              		.thumb
 526              		.thumb_func
 527              		.fpu softvfp
 529              	_Z12DenyKeyEventv:
 530              		.fnstart
 531              	.LFB116:
 461:Core/Src/main.cpp ****   static Timer denyTimer(0, 0);
 532              		.loc 1 461 1 is_stmt 1 view -0
 533              		.cfi_startproc
 534              		@ args = 0, pretend = 0, frame = 0
 535              		@ frame_needed = 0, uses_anonymous_args = 0
 536 0000 08B5     		push	{r3, lr}
 537              		.save {r3, lr}
 538              	.LCFI9:
 539              		.cfi_def_cfa_offset 8
 540              		.cfi_offset 3, -8
 541              		.cfi_offset 14, -4
 462:Core/Src/main.cpp ****   static bool firstTime = true;
 542              		.loc 1 462 3 view .LVU132
 462:Core/Src/main.cpp ****   static bool firstTime = true;
 543              		.loc 1 462 30 is_stmt 0 view .LVU133
 544 0002 394B     		ldr	r3, .L29
 545 0004 1B78     		ldrb	r3, [r3]	@ zero_extendqisi2
 546 0006 BFF35B8F 		dmb	ish
 547 000a 13F0010F 		tst	r3, #1
 548 000e 04D0     		beq	.L26
 549              	.L20:
 463:Core/Src/main.cpp **** 
 550              		.loc 1 463 3 is_stmt 1 view .LVU134
 465:Core/Src/main.cpp ****   {
 551              		.loc 1 465 3 view .LVU135
 465:Core/Src/main.cpp ****   {
 552              		.loc 1 465 16 is_stmt 0 view .LVU136
 553 0010 364B     		ldr	r3, .L29+4
 554 0012 1B68     		ldr	r3, [r3]
 465:Core/Src/main.cpp ****   {
 555              		.loc 1 465 3 view .LVU137
 556 0014 012B     		cmp	r3, #1
 557 0016 0DD0     		beq	.L27
 558              	.L19:
 495:Core/Src/main.cpp **** 
 559              		.loc 1 495 1 view .LVU138
ARM GAS  C:\Users\Admin\AppData\Local\Temp\cctaKpna.s 			page 24


 560 0018 08BD     		pop	{r3, pc}
 561              	.L26:
 462:Core/Src/main.cpp ****   static bool firstTime = true;
 562              		.loc 1 462 30 discriminator 1 view .LVU139
 563 001a 3348     		ldr	r0, .L29
 564 001c FFF7FEFF 		bl	__cxa_guard_acquire
 565              	.LVL29:
 566 0020 0028     		cmp	r0, #0
 567 0022 F5D0     		beq	.L20
 568              	.LVL30:
 569              	.LBB238:
 570              	.LBI238:
 571              		.file 5 "Core/Inc/Timer.h"
   1:Core/Inc/Timer.h **** #pragma once
   2:Core/Inc/Timer.h **** #include "stm32f1xx_hal.h"
   3:Core/Inc/Timer.h **** #include "State.h"
   4:Core/Inc/Timer.h **** 
   5:Core/Inc/Timer.h **** class Timer
   6:Core/Inc/Timer.h **** {
   7:Core/Inc/Timer.h ****     uint32_t startTime;
   8:Core/Inc/Timer.h ****     uint32_t lastTick;
   9:Core/Inc/Timer.h **** 
  10:Core/Inc/Timer.h **** public:
  11:Core/Inc/Timer.h ****     Timer()
  12:Core/Inc/Timer.h ****     {
  13:Core/Inc/Timer.h ****         start();
  14:Core/Inc/Timer.h ****         setLastTick();
  15:Core/Inc/Timer.h ****     }
  16:Core/Inc/Timer.h **** 
  17:Core/Inc/Timer.h ****     Timer(uint32_t startTime, uint32_t lastTick)
 572              		.loc 5 17 5 is_stmt 1 discriminator 2 view .LVU140
 573              	.LBB239:
 574              	.LBB240:
  18:Core/Inc/Timer.h ****     {
  19:Core/Inc/Timer.h ****         this->startTime = startTime;
 575              		.loc 5 19 9 discriminator 2 view .LVU141
 576              		.loc 5 19 25 is_stmt 0 discriminator 2 view .LVU142
 577 0024 324B     		ldr	r3, .L29+8
 578 0026 0022     		movs	r2, #0
 579 0028 1A60     		str	r2, [r3]
  20:Core/Inc/Timer.h ****         this->lastTick = lastTick;
 580              		.loc 5 20 9 is_stmt 1 discriminator 2 view .LVU143
 581              		.loc 5 20 24 is_stmt 0 discriminator 2 view .LVU144
 582 002a 5A60     		str	r2, [r3, #4]
 583              	.LVL31:
 584              		.loc 5 20 24 discriminator 2 view .LVU145
 585              	.LBE240:
 586              	.LBE239:
 587              	.LBE238:
 462:Core/Src/main.cpp ****   static bool firstTime = true;
 588              		.loc 1 462 30 discriminator 2 view .LVU146
 589 002c 2E48     		ldr	r0, .L29
 590 002e FFF7FEFF 		bl	__cxa_guard_release
 591              	.LVL32:
 592 0032 EDE7     		b	.L20
 593              	.L27:
 467:Core/Src/main.cpp ****     {
ARM GAS  C:\Users\Admin\AppData\Local\Temp\cctaKpna.s 			page 25


 594              		.loc 1 467 5 is_stmt 1 view .LVU147
 595 0034 2F4B     		ldr	r3, .L29+12
 596 0036 1B78     		ldrb	r3, [r3]	@ zero_extendqisi2
 597 0038 FBB9     		cbnz	r3, .L28
 598              	.L22:
 473:Core/Src/main.cpp ****     {
 599              		.loc 1 473 5 view .LVU148
 473:Core/Src/main.cpp ****     {
 600              		.loc 1 473 20 is_stmt 0 view .LVU149
 601 003a FFF7FEFF 		bl	HAL_GetTick
 602              	.LVL33:
 603              	.LBB241:
 604              	.LBI241:
  21:Core/Inc/Timer.h ****     }
  22:Core/Inc/Timer.h **** 
  23:Core/Inc/Timer.h ****     void start()
  24:Core/Inc/Timer.h ****     {
  25:Core/Inc/Timer.h ****         this->startTime = HAL_GetTick();
  26:Core/Inc/Timer.h ****     }
  27:Core/Inc/Timer.h **** 
  28:Core/Inc/Timer.h ****     uint32_t getStartTime()
 605              		.loc 5 28 14 is_stmt 1 view .LVU150
 606              	.LBB242:
  29:Core/Inc/Timer.h ****     {
  30:Core/Inc/Timer.h ****         return this->startTime;
 607              		.loc 5 30 9 view .LVU151
 608              		.loc 5 30 22 is_stmt 0 view .LVU152
 609 003e 2C4B     		ldr	r3, .L29+8
 610 0040 1B68     		ldr	r3, [r3]
 611              	.LVL34:
 612              		.loc 5 30 22 view .LVU153
 613              	.LBE242:
 614              	.LBE241:
 473:Core/Src/main.cpp ****     {
 615              		.loc 1 473 23 view .LVU154
 616 0042 C01A     		subs	r0, r0, r3
 473:Core/Src/main.cpp ****     {
 617              		.loc 1 473 5 view .LVU155
 618 0044 B0F5967F 		cmp	r0, #300
 619 0048 3AD2     		bcs	.L23
 475:Core/Src/main.cpp ****       {
 620              		.loc 1 475 7 is_stmt 1 view .LVU156
 475:Core/Src/main.cpp ****       {
 621              		.loc 1 475 22 is_stmt 0 view .LVU157
 622 004a FFF7FEFF 		bl	HAL_GetTick
 623              	.LVL35:
 624              	.LBB243:
 625              	.LBI243:
  31:Core/Inc/Timer.h ****     }
  32:Core/Inc/Timer.h **** 
  33:Core/Inc/Timer.h ****     void setLastTick()
  34:Core/Inc/Timer.h ****     {
  35:Core/Inc/Timer.h ****         this->lastTick = HAL_GetTick();
  36:Core/Inc/Timer.h ****     }
  37:Core/Inc/Timer.h **** 
  38:Core/Inc/Timer.h ****     uint32_t getLastTick()
 626              		.loc 5 38 14 is_stmt 1 view .LVU158
ARM GAS  C:\Users\Admin\AppData\Local\Temp\cctaKpna.s 			page 26


 627              	.LBB244:
  39:Core/Inc/Timer.h ****     {
  40:Core/Inc/Timer.h ****         return this->lastTick;
 628              		.loc 5 40 9 view .LVU159
 629              		.loc 5 40 22 is_stmt 0 view .LVU160
 630 004e 284B     		ldr	r3, .L29+8
 631 0050 5B68     		ldr	r3, [r3, #4]
 632              	.LVL36:
 633              		.loc 5 40 22 view .LVU161
 634              	.LBE244:
 635              	.LBE243:
 475:Core/Src/main.cpp ****       {
 636              		.loc 1 475 25 view .LVU162
 637 0052 C01A     		subs	r0, r0, r3
 475:Core/Src/main.cpp ****       {
 638              		.loc 1 475 7 view .LVU163
 639 0054 9628     		cmp	r0, #150
 640 0056 18D9     		bls	.L24
 477:Core/Src/main.cpp ****         insideZumer.turnOff();
 641              		.loc 1 477 9 is_stmt 1 view .LVU164
 642              	.LVL37:
 643              	.LBB245:
 644              	.LBI245:
  33:Core/Inc/Timer.h ****     {
 645              		.loc 5 33 10 view .LVU165
 646              	.LBB246:
  35:Core/Inc/Timer.h ****     }
 647              		.loc 5 35 9 view .LVU166
  35:Core/Inc/Timer.h ****     }
 648              		.loc 5 35 37 is_stmt 0 view .LVU167
 649 0058 FFF7FEFF 		bl	HAL_GetTick
 650              	.LVL38:
  35:Core/Inc/Timer.h ****     }
 651              		.loc 5 35 24 view .LVU168
 652 005c 244B     		ldr	r3, .L29+8
 653 005e 5860     		str	r0, [r3, #4]
 654              	.LVL39:
  35:Core/Inc/Timer.h ****     }
 655              		.loc 5 35 24 view .LVU169
 656              	.LBE246:
 657              	.LBE245:
 478:Core/Src/main.cpp ****         outsideZumer.turnOff();
 658              		.loc 1 478 9 is_stmt 1 view .LVU170
 659              	.LBB247:
 660              	.LBI247:
  27:Core/Inc/PinOut.h **** 
  28:Core/Inc/PinOut.h ****     void turnOn()
  29:Core/Inc/PinOut.h ****     {
  30:Core/Inc/PinOut.h ****         setState(State::On);
  31:Core/Inc/PinOut.h ****     }
  32:Core/Inc/PinOut.h **** 
  33:Core/Inc/PinOut.h ****     void turnOff()
 661              		.loc 2 33 10 view .LVU171
 662              	.LBE247:
  34:Core/Inc/PinOut.h ****     {
  35:Core/Inc/PinOut.h ****         setState(State::Off);
 663              		.loc 2 35 9 view .LVU172
ARM GAS  C:\Users\Admin\AppData\Local\Temp\cctaKpna.s 			page 27


 664              	.LBB250:
 665              	.LBB248:
 666              	.LBI248:
  36:Core/Inc/PinOut.h ****     }
  37:Core/Inc/PinOut.h **** 
  38:Core/Inc/PinOut.h ****     void setState(State state)
 667              		.loc 2 38 10 view .LVU173
 668              	.LBB249:
  39:Core/Inc/PinOut.h ****     {
  40:Core/Inc/PinOut.h ****         if (state == State::On)
 669              		.loc 2 40 9 view .LVU174
  41:Core/Inc/PinOut.h ****         {
  42:Core/Inc/PinOut.h ****             HAL_GPIO_WritePin(this->GPIOx, this->GPIO_Pin, GPIO_PIN_SET);
  43:Core/Inc/PinOut.h ****         }
  44:Core/Inc/PinOut.h ****         else if (state == State::Off)
 670              		.loc 2 44 14 view .LVU175
  45:Core/Inc/PinOut.h ****         {
  46:Core/Inc/PinOut.h ****             HAL_GPIO_WritePin(this->GPIOx, this->GPIO_Pin, GPIO_PIN_RESET);
 671              		.loc 2 46 13 view .LVU176
 672              		.loc 2 46 30 is_stmt 0 view .LVU177
 673 0060 254B     		ldr	r3, .L29+16
 674 0062 0022     		movs	r2, #0
 675 0064 9988     		ldrh	r1, [r3, #4]
 676 0066 1868     		ldr	r0, [r3]
 677 0068 FFF7FEFF 		bl	HAL_GPIO_WritePin
 678              	.LVL40:
 679              		.loc 2 46 30 view .LVU178
 680              	.LBE249:
 681              	.LBE248:
 682              	.LBE250:
 479:Core/Src/main.cpp ****       }
 683              		.loc 1 479 9 is_stmt 1 view .LVU179
 684              	.LBB251:
 685              	.LBI251:
  33:Core/Inc/PinOut.h ****     {
 686              		.loc 2 33 10 view .LVU180
 687              	.LBB252:
  35:Core/Inc/PinOut.h ****     }
 688              		.loc 2 35 9 view .LVU181
 689              	.LBB253:
 690              	.LBI253:
  38:Core/Inc/PinOut.h ****     {
 691              		.loc 2 38 10 view .LVU182
 692              	.LBB254:
  40:Core/Inc/PinOut.h ****         {
 693              		.loc 2 40 9 view .LVU183
  44:Core/Inc/PinOut.h ****         {
 694              		.loc 2 44 14 view .LVU184
 695              		.loc 2 46 13 view .LVU185
 696              		.loc 2 46 30 is_stmt 0 view .LVU186
 697 006c 234B     		ldr	r3, .L29+20
 698 006e 0022     		movs	r2, #0
 699 0070 9988     		ldrh	r1, [r3, #4]
 700 0072 1868     		ldr	r0, [r3]
 701 0074 FFF7FEFF 		bl	HAL_GPIO_WritePin
 702              	.LVL41:
 703              		.loc 2 46 30 view .LVU187
ARM GAS  C:\Users\Admin\AppData\Local\Temp\cctaKpna.s 			page 28


 704              	.LBE254:
 705              	.LBE253:
  36:Core/Inc/PinOut.h **** 
 706              		.loc 2 36 5 view .LVU188
 707 0078 CEE7     		b	.L19
 708              	.LVL42:
 709              	.L28:
  36:Core/Inc/PinOut.h **** 
 710              		.loc 2 36 5 view .LVU189
 711              	.LBE252:
 712              	.LBE251:
 469:Core/Src/main.cpp ****       firstTime = false;
 713              		.loc 1 469 7 is_stmt 1 view .LVU190
 714              	.LBB255:
 715              	.LBI255:
  23:Core/Inc/Timer.h ****     {
 716              		.loc 5 23 10 view .LVU191
 717              	.LBB256:
  25:Core/Inc/Timer.h ****     }
 718              		.loc 5 25 9 view .LVU192
  25:Core/Inc/Timer.h ****     }
 719              		.loc 5 25 38 is_stmt 0 view .LVU193
 720 007a FFF7FEFF 		bl	HAL_GetTick
 721              	.LVL43:
  25:Core/Inc/Timer.h ****     }
 722              		.loc 5 25 25 view .LVU194
 723 007e 1C4B     		ldr	r3, .L29+8
 724 0080 1860     		str	r0, [r3]
 725              	.LVL44:
  25:Core/Inc/Timer.h ****     }
 726              		.loc 5 25 25 view .LVU195
 727              	.LBE256:
 728              	.LBE255:
 470:Core/Src/main.cpp ****     }
 729              		.loc 1 470 7 is_stmt 1 view .LVU196
 470:Core/Src/main.cpp ****     }
 730              		.loc 1 470 17 is_stmt 0 view .LVU197
 731 0082 1C4B     		ldr	r3, .L29+12
 732 0084 0022     		movs	r2, #0
 733 0086 1A70     		strb	r2, [r3]
 734 0088 D7E7     		b	.L22
 735              	.L24:
 481:Core/Src/main.cpp ****       {
 736              		.loc 1 481 12 is_stmt 1 view .LVU198
 481:Core/Src/main.cpp ****       {
 737              		.loc 1 481 27 is_stmt 0 view .LVU199
 738 008a FFF7FEFF 		bl	HAL_GetTick
 739              	.LVL45:
 740              	.LBB257:
 741              	.LBI257:
  38:Core/Inc/Timer.h ****     {
 742              		.loc 5 38 14 is_stmt 1 view .LVU200
 743              	.LBB258:
 744              		.loc 5 40 9 view .LVU201
 745              		.loc 5 40 22 is_stmt 0 view .LVU202
 746 008e 184B     		ldr	r3, .L29+8
 747 0090 5B68     		ldr	r3, [r3, #4]
ARM GAS  C:\Users\Admin\AppData\Local\Temp\cctaKpna.s 			page 29


 748              	.LVL46:
 749              		.loc 5 40 22 view .LVU203
 750              	.LBE258:
 751              	.LBE257:
 481:Core/Src/main.cpp ****       {
 752              		.loc 1 481 30 view .LVU204
 753 0092 C01A     		subs	r0, r0, r3
 481:Core/Src/main.cpp ****       {
 754              		.loc 1 481 62 view .LVU205
 755 0094 9528     		cmp	r0, #149
 756 0096 BFD8     		bhi	.L19
 481:Core/Src/main.cpp ****       {
 757              		.loc 1 481 76 discriminator 1 view .LVU206
 758 0098 FFF7FEFF 		bl	HAL_GetTick
 759              	.LVL47:
 760              	.LBB259:
 761              	.LBI259:
  38:Core/Inc/Timer.h ****     {
 762              		.loc 5 38 14 is_stmt 1 discriminator 1 view .LVU207
 763              	.LBB260:
 764              		.loc 5 40 9 discriminator 1 view .LVU208
 765              		.loc 5 40 22 is_stmt 0 discriminator 1 view .LVU209
 766 009c 144B     		ldr	r3, .L29+8
 767 009e 5B68     		ldr	r3, [r3, #4]
 768              	.LVL48:
 769              		.loc 5 40 22 discriminator 1 view .LVU210
 770              	.LBE260:
 771              	.LBE259:
 481:Core/Src/main.cpp ****       {
 772              		.loc 1 481 79 discriminator 1 view .LVU211
 773 00a0 C01A     		subs	r0, r0, r3
 481:Core/Src/main.cpp ****       {
 774              		.loc 1 481 62 discriminator 1 view .LVU212
 775 00a2 4B28     		cmp	r0, #75
 776 00a4 B8D9     		bls	.L19
 483:Core/Src/main.cpp ****         outsideZumer.turnOn();
 777              		.loc 1 483 9 is_stmt 1 view .LVU213
 778              	.LVL49:
 779              	.LBB261:
 780              	.LBI261:
  28:Core/Inc/PinOut.h ****     {
 781              		.loc 2 28 10 view .LVU214
 782              	.LBE261:
  30:Core/Inc/PinOut.h ****     }
 783              		.loc 2 30 9 view .LVU215
 784              	.LBB264:
 785              	.LBB262:
 786              	.LBI262:
  38:Core/Inc/PinOut.h ****     {
 787              		.loc 2 38 10 view .LVU216
 788              	.LBB263:
  40:Core/Inc/PinOut.h ****         {
 789              		.loc 2 40 9 view .LVU217
  42:Core/Inc/PinOut.h ****         }
 790              		.loc 2 42 13 view .LVU218
  42:Core/Inc/PinOut.h ****         }
 791              		.loc 2 42 30 is_stmt 0 view .LVU219
ARM GAS  C:\Users\Admin\AppData\Local\Temp\cctaKpna.s 			page 30


 792 00a6 144B     		ldr	r3, .L29+16
 793 00a8 0122     		movs	r2, #1
 794 00aa 9988     		ldrh	r1, [r3, #4]
 795 00ac 1868     		ldr	r0, [r3]
 796 00ae FFF7FEFF 		bl	HAL_GPIO_WritePin
 797              	.LVL50:
  42:Core/Inc/PinOut.h ****         }
 798              		.loc 2 42 30 view .LVU220
 799              	.LBE263:
 800              	.LBE262:
 801              	.LBE264:
 484:Core/Src/main.cpp ****       }
 802              		.loc 1 484 9 is_stmt 1 view .LVU221
 803              	.LBB265:
 804              	.LBI265:
  28:Core/Inc/PinOut.h ****     {
 805              		.loc 2 28 10 view .LVU222
 806              	.LBB266:
  30:Core/Inc/PinOut.h ****     }
 807              		.loc 2 30 9 view .LVU223
 808              	.LBB267:
 809              	.LBI267:
  38:Core/Inc/PinOut.h ****     {
 810              		.loc 2 38 10 view .LVU224
 811              	.LBB268:
  40:Core/Inc/PinOut.h ****         {
 812              		.loc 2 40 9 view .LVU225
  42:Core/Inc/PinOut.h ****         }
 813              		.loc 2 42 13 view .LVU226
  42:Core/Inc/PinOut.h ****         }
 814              		.loc 2 42 30 is_stmt 0 view .LVU227
 815 00b2 124B     		ldr	r3, .L29+20
 816 00b4 0122     		movs	r2, #1
 817 00b6 9988     		ldrh	r1, [r3, #4]
 818 00b8 1868     		ldr	r0, [r3]
 819 00ba FFF7FEFF 		bl	HAL_GPIO_WritePin
 820              	.LVL51:
  42:Core/Inc/PinOut.h ****         }
 821              		.loc 2 42 30 view .LVU228
 822              	.LBE268:
 823              	.LBE267:
  31:Core/Inc/PinOut.h **** 
 824              		.loc 2 31 5 view .LVU229
 825 00be ABE7     		b	.L19
 826              	.LVL52:
 827              	.L23:
  31:Core/Inc/PinOut.h **** 
 828              		.loc 2 31 5 view .LVU230
 829              	.LBE266:
 830              	.LBE265:
 489:Core/Src/main.cpp ****       insideZumer.turnOn();
 831              		.loc 1 489 7 is_stmt 1 view .LVU231
 489:Core/Src/main.cpp ****       insideZumer.turnOn();
 832              		.loc 1 489 16 is_stmt 0 view .LVU232
 833 00c0 0F4B     		ldr	r3, .L29+24
 834 00c2 1A68     		ldr	r2, [r3]
 835 00c4 094B     		ldr	r3, .L29+4
ARM GAS  C:\Users\Admin\AppData\Local\Temp\cctaKpna.s 			page 31


 836 00c6 1A60     		str	r2, [r3]
 490:Core/Src/main.cpp ****       outsideZumer.turnOn();
 837              		.loc 1 490 7 is_stmt 1 view .LVU233
 838              	.LVL53:
 839              	.LBB269:
 840              	.LBI269:
  28:Core/Inc/PinOut.h ****     {
 841              		.loc 2 28 10 view .LVU234
 842              	.LBE269:
  30:Core/Inc/PinOut.h ****     }
 843              		.loc 2 30 9 view .LVU235
 844              	.LBB272:
 845              	.LBB270:
 846              	.LBI270:
  38:Core/Inc/PinOut.h ****     {
 847              		.loc 2 38 10 view .LVU236
 848              	.LBB271:
  40:Core/Inc/PinOut.h ****         {
 849              		.loc 2 40 9 view .LVU237
  42:Core/Inc/PinOut.h ****         }
 850              		.loc 2 42 13 view .LVU238
  42:Core/Inc/PinOut.h ****         }
 851              		.loc 2 42 30 is_stmt 0 view .LVU239
 852 00c8 0B4B     		ldr	r3, .L29+16
 853 00ca 0122     		movs	r2, #1
 854 00cc 9988     		ldrh	r1, [r3, #4]
 855 00ce 1868     		ldr	r0, [r3]
 856 00d0 FFF7FEFF 		bl	HAL_GPIO_WritePin
 857              	.LVL54:
  42:Core/Inc/PinOut.h ****         }
 858              		.loc 2 42 30 view .LVU240
 859              	.LBE271:
 860              	.LBE270:
 861              	.LBE272:
 491:Core/Src/main.cpp ****       firstTime = true;
 862              		.loc 1 491 7 is_stmt 1 view .LVU241
 863              	.LBB273:
 864              	.LBI273:
  28:Core/Inc/PinOut.h ****     {
 865              		.loc 2 28 10 view .LVU242
 866              	.LBE273:
  30:Core/Inc/PinOut.h ****     }
 867              		.loc 2 30 9 view .LVU243
 868              	.LBB276:
 869              	.LBB274:
 870              	.LBI274:
  38:Core/Inc/PinOut.h ****     {
 871              		.loc 2 38 10 view .LVU244
 872              	.LBB275:
  40:Core/Inc/PinOut.h ****         {
 873              		.loc 2 40 9 view .LVU245
  42:Core/Inc/PinOut.h ****         }
 874              		.loc 2 42 13 view .LVU246
  42:Core/Inc/PinOut.h ****         }
 875              		.loc 2 42 30 is_stmt 0 view .LVU247
 876 00d4 094B     		ldr	r3, .L29+20
 877 00d6 0122     		movs	r2, #1
ARM GAS  C:\Users\Admin\AppData\Local\Temp\cctaKpna.s 			page 32


 878 00d8 9988     		ldrh	r1, [r3, #4]
 879 00da 1868     		ldr	r0, [r3]
 880 00dc FFF7FEFF 		bl	HAL_GPIO_WritePin
 881              	.LVL55:
  42:Core/Inc/PinOut.h ****         }
 882              		.loc 2 42 30 view .LVU248
 883              	.LBE275:
 884              	.LBE274:
 885              	.LBE276:
 492:Core/Src/main.cpp ****     }
 886              		.loc 1 492 7 is_stmt 1 view .LVU249
 492:Core/Src/main.cpp ****     }
 887              		.loc 1 492 17 is_stmt 0 view .LVU250
 888 00e0 044B     		ldr	r3, .L29+12
 889 00e2 0122     		movs	r2, #1
 890 00e4 1A70     		strb	r2, [r3]
 495:Core/Src/main.cpp **** 
 891              		.loc 1 495 1 view .LVU251
 892 00e6 97E7     		b	.L19
 893              	.L30:
 894              		.align	2
 895              	.L29:
 896 00e8 00000000 		.word	.LANCHOR7
 897 00ec 00000000 		.word	.LANCHOR9
 898 00f0 00000000 		.word	.LANCHOR8
 899 00f4 00000000 		.word	.LANCHOR10
 900 00f8 00000000 		.word	.LANCHOR3
 901 00fc 00000000 		.word	.LANCHOR4
 902 0100 00000000 		.word	.LANCHOR11
 903              		.cfi_endproc
 904              	.LFE116:
 905              		.fnend
 907              		.section	.text._Z10AlarmEventv,"ax",%progbits
 908              		.align	1
 909              		.global	_Z10AlarmEventv
 910              		.syntax unified
 911              		.thumb
 912              		.thumb_func
 913              		.fpu softvfp
 915              	_Z10AlarmEventv:
 916              		.fnstart
 917              	.LFB117:
 498:Core/Src/main.cpp ****   if (workMode == WorkMode::AlarmMode)
 918              		.loc 1 498 1 is_stmt 1 view -0
 919              		.cfi_startproc
 920              		@ args = 0, pretend = 0, frame = 0
 921              		@ frame_needed = 0, uses_anonymous_args = 0
 499:Core/Src/main.cpp ****   {
 922              		.loc 1 499 3 view .LVU253
 923              	.LBB277:
 499:Core/Src/main.cpp ****   {
 924              		.loc 1 499 16 is_stmt 0 view .LVU254
 925 0000 2D4B     		ldr	r3, .L43
 926 0002 1B68     		ldr	r3, [r3]
 499:Core/Src/main.cpp ****   {
 927              		.loc 1 499 3 view .LVU255
 928 0004 032B     		cmp	r3, #3
ARM GAS  C:\Users\Admin\AppData\Local\Temp\cctaKpna.s 			page 33


 929 0006 00D0     		beq	.L40
 930 0008 7047     		bx	lr
 931              	.L40:
 932              	.LBE277:
 498:Core/Src/main.cpp ****   if (workMode == WorkMode::AlarmMode)
 933              		.loc 1 498 1 view .LVU256
 934 000a 10B5     		push	{r4, lr}
 935              		.save {r4, lr}
 936              	.LCFI10:
 937              		.cfi_def_cfa_offset 8
 938              		.cfi_offset 4, -8
 939              		.cfi_offset 14, -4
 940              	.LBB307:
 941              	.LBB278:
 501:Core/Src/main.cpp ****     static bool firstTime = true;
 942              		.loc 1 501 5 is_stmt 1 view .LVU257
 501:Core/Src/main.cpp ****     static bool firstTime = true;
 943              		.loc 1 501 33 is_stmt 0 view .LVU258
 944 000c 2B4B     		ldr	r3, .L43+4
 945 000e 1B78     		ldrb	r3, [r3]	@ zero_extendqisi2
 946 0010 BFF35B8F 		dmb	ish
 947 0014 13F0010F 		tst	r3, #1
 948 0018 1BD0     		beq	.L41
 949              	.L33:
 502:Core/Src/main.cpp **** 
 950              		.loc 1 502 5 is_stmt 1 view .LVU259
 504:Core/Src/main.cpp ****     {
 951              		.loc 1 504 5 view .LVU260
 506:Core/Src/main.cpp ****     }
 952              		.loc 1 506 7 view .LVU261
 953              	.LVL56:
 954              	.LBB279:
 955              	.LBI279:
  23:Core/Inc/Timer.h ****     {
 956              		.loc 5 23 10 view .LVU262
 957              	.LBB280:
  25:Core/Inc/Timer.h ****     }
 958              		.loc 5 25 9 view .LVU263
  25:Core/Inc/Timer.h ****     }
 959              		.loc 5 25 38 is_stmt 0 view .LVU264
 960 001a FFF7FEFF 		bl	HAL_GetTick
 961              	.LVL57:
  25:Core/Inc/Timer.h ****     }
 962              		.loc 5 25 25 view .LVU265
 963 001e 284C     		ldr	r4, .L43+8
 964 0020 2060     		str	r0, [r4]
 965              	.LVL58:
  25:Core/Inc/Timer.h ****     }
 966              		.loc 5 25 25 view .LVU266
 967              	.LBE280:
 968              	.LBE279:
 509:Core/Src/main.cpp ****     {
 969              		.loc 1 509 5 is_stmt 1 view .LVU267
 509:Core/Src/main.cpp ****     {
 970              		.loc 1 509 20 is_stmt 0 view .LVU268
 971 0022 FFF7FEFF 		bl	HAL_GetTick
 972              	.LVL59:
ARM GAS  C:\Users\Admin\AppData\Local\Temp\cctaKpna.s 			page 34


 973              	.LBB281:
 974              	.LBI281:
  28:Core/Inc/Timer.h ****     {
 975              		.loc 5 28 14 is_stmt 1 view .LVU269
 976              	.LBB282:
  30:Core/Inc/Timer.h ****     }
 977              		.loc 5 30 9 view .LVU270
  30:Core/Inc/Timer.h ****     }
 978              		.loc 5 30 22 is_stmt 0 view .LVU271
 979 0026 2368     		ldr	r3, [r4]
 980              	.LVL60:
  30:Core/Inc/Timer.h ****     }
 981              		.loc 5 30 22 view .LVU272
 982              	.LBE282:
 983              	.LBE281:
 509:Core/Src/main.cpp ****     {
 984              		.loc 1 509 23 view .LVU273
 985 0028 C01A     		subs	r0, r0, r3
 509:Core/Src/main.cpp ****     {
 986              		.loc 1 509 5 view .LVU274
 987 002a B0F5FA6F 		cmp	r0, #2000
 988 002e 35D2     		bcs	.L34
 511:Core/Src/main.cpp ****       {
 989              		.loc 1 511 7 is_stmt 1 view .LVU275
 511:Core/Src/main.cpp ****       {
 990              		.loc 1 511 22 is_stmt 0 view .LVU276
 991 0030 FFF7FEFF 		bl	HAL_GetTick
 992              	.LVL61:
 993              	.LBB283:
 994              	.LBI283:
  38:Core/Inc/Timer.h ****     {
 995              		.loc 5 38 14 is_stmt 1 view .LVU277
 996              	.LBB284:
 997              		.loc 5 40 9 view .LVU278
 998              		.loc 5 40 22 is_stmt 0 view .LVU279
 999 0034 6368     		ldr	r3, [r4, #4]
 1000              	.LVL62:
 1001              		.loc 5 40 22 view .LVU280
 1002              	.LBE284:
 1003              	.LBE283:
 511:Core/Src/main.cpp ****       {
 1004              		.loc 1 511 25 view .LVU281
 1005 0036 C01A     		subs	r0, r0, r3
 511:Core/Src/main.cpp ****       {
 1006              		.loc 1 511 7 view .LVU282
 1007 0038 B0F57A7F 		cmp	r0, #1000
 1008 003c 16D9     		bls	.L35
 513:Core/Src/main.cpp ****         siren.turnOn();
 1009              		.loc 1 513 9 is_stmt 1 view .LVU283
 1010              	.LVL63:
 1011              	.LBB285:
 1012              	.LBI285:
  33:Core/Inc/Timer.h ****     {
 1013              		.loc 5 33 10 view .LVU284
 1014              	.LBB286:
  35:Core/Inc/Timer.h ****     }
 1015              		.loc 5 35 9 view .LVU285
ARM GAS  C:\Users\Admin\AppData\Local\Temp\cctaKpna.s 			page 35


  35:Core/Inc/Timer.h ****     }
 1016              		.loc 5 35 37 is_stmt 0 view .LVU286
 1017 003e FFF7FEFF 		bl	HAL_GetTick
 1018              	.LVL64:
  35:Core/Inc/Timer.h ****     }
 1019              		.loc 5 35 24 view .LVU287
 1020 0042 6060     		str	r0, [r4, #4]
 1021              	.LVL65:
  35:Core/Inc/Timer.h ****     }
 1022              		.loc 5 35 24 view .LVU288
 1023              	.LBE286:
 1024              	.LBE285:
 514:Core/Src/main.cpp ****       }
 1025              		.loc 1 514 9 is_stmt 1 view .LVU289
 1026              	.LBB287:
 1027              	.LBI287:
  28:Core/Inc/PinOut.h ****     {
 1028              		.loc 2 28 10 view .LVU290
 1029              	.LBB288:
  30:Core/Inc/PinOut.h ****     }
 1030              		.loc 2 30 9 view .LVU291
 1031              	.LBB289:
 1032              	.LBI289:
  38:Core/Inc/PinOut.h ****     {
 1033              		.loc 2 38 10 view .LVU292
 1034              	.LBB290:
  40:Core/Inc/PinOut.h ****         {
 1035              		.loc 2 40 9 view .LVU293
  42:Core/Inc/PinOut.h ****         }
 1036              		.loc 2 42 13 view .LVU294
  42:Core/Inc/PinOut.h ****         }
 1037              		.loc 2 42 30 is_stmt 0 view .LVU295
 1038 0044 1F4B     		ldr	r3, .L43+12
 1039 0046 0122     		movs	r2, #1
 1040 0048 9988     		ldrh	r1, [r3, #4]
 1041 004a 1868     		ldr	r0, [r3]
 1042 004c FFF7FEFF 		bl	HAL_GPIO_WritePin
 1043              	.LVL66:
  42:Core/Inc/PinOut.h ****         }
 1044              		.loc 2 42 30 view .LVU296
 1045              	.LBE290:
 1046              	.LBE289:
  31:Core/Inc/PinOut.h **** 
 1047              		.loc 2 31 5 view .LVU297
 1048 0050 27E0     		b	.L31
 1049              	.LVL67:
 1050              	.L41:
  31:Core/Inc/PinOut.h **** 
 1051              		.loc 2 31 5 view .LVU298
 1052              	.LBE288:
 1053              	.LBE287:
 501:Core/Src/main.cpp ****     static bool firstTime = true;
 1054              		.loc 1 501 33 discriminator 1 view .LVU299
 1055 0052 1A48     		ldr	r0, .L43+4
 1056 0054 FFF7FEFF 		bl	__cxa_guard_acquire
 1057              	.LVL68:
 1058 0058 0028     		cmp	r0, #0
ARM GAS  C:\Users\Admin\AppData\Local\Temp\cctaKpna.s 			page 36


 1059 005a DED0     		beq	.L33
 1060              	.LVL69:
 1061              	.LBB291:
 1062              	.LBI291:
  17:Core/Inc/Timer.h ****     {
 1063              		.loc 5 17 5 is_stmt 1 discriminator 2 view .LVU300
 1064              	.LBB292:
 1065              	.LBB293:
  19:Core/Inc/Timer.h ****         this->lastTick = lastTick;
 1066              		.loc 5 19 9 discriminator 2 view .LVU301
  19:Core/Inc/Timer.h ****         this->lastTick = lastTick;
 1067              		.loc 5 19 25 is_stmt 0 discriminator 2 view .LVU302
 1068 005c 184B     		ldr	r3, .L43+8
 1069 005e 0022     		movs	r2, #0
 1070 0060 1A60     		str	r2, [r3]
  20:Core/Inc/Timer.h ****     }
 1071              		.loc 5 20 9 is_stmt 1 discriminator 2 view .LVU303
  20:Core/Inc/Timer.h ****     }
 1072              		.loc 5 20 24 is_stmt 0 discriminator 2 view .LVU304
 1073 0062 5A60     		str	r2, [r3, #4]
 1074              	.LVL70:
  20:Core/Inc/Timer.h ****     }
 1075              		.loc 5 20 24 discriminator 2 view .LVU305
 1076              	.LBE293:
 1077              	.LBE292:
 1078              	.LBE291:
 501:Core/Src/main.cpp ****     static bool firstTime = true;
 1079              		.loc 1 501 33 discriminator 2 view .LVU306
 1080 0064 1548     		ldr	r0, .L43+4
 1081 0066 FFF7FEFF 		bl	__cxa_guard_release
 1082              	.LVL71:
 1083 006a D6E7     		b	.L33
 1084              	.L35:
 516:Core/Src/main.cpp ****       {
 1085              		.loc 1 516 12 is_stmt 1 view .LVU307
 516:Core/Src/main.cpp ****       {
 1086              		.loc 1 516 27 is_stmt 0 view .LVU308
 1087 006c FFF7FEFF 		bl	HAL_GetTick
 1088              	.LVL72:
 1089              	.LBB294:
 1090              	.LBI294:
  38:Core/Inc/Timer.h ****     {
 1091              		.loc 5 38 14 is_stmt 1 view .LVU309
 1092              	.LBB295:
 1093              		.loc 5 40 9 view .LVU310
 1094              		.loc 5 40 22 is_stmt 0 view .LVU311
 1095 0070 134B     		ldr	r3, .L43+8
 1096 0072 5B68     		ldr	r3, [r3, #4]
 1097              	.LVL73:
 1098              		.loc 5 40 22 view .LVU312
 1099              	.LBE295:
 1100              	.LBE294:
 516:Core/Src/main.cpp ****       {
 1101              		.loc 1 516 30 view .LVU313
 1102 0074 C01A     		subs	r0, r0, r3
 516:Core/Src/main.cpp ****       {
 1103              		.loc 1 516 64 view .LVU314
ARM GAS  C:\Users\Admin\AppData\Local\Temp\cctaKpna.s 			page 37


 1104 0076 B0F57A7F 		cmp	r0, #1000
 1105 007a 12D2     		bcs	.L31
 516:Core/Src/main.cpp ****       {
 1106              		.loc 1 516 78 discriminator 1 view .LVU315
 1107 007c FFF7FEFF 		bl	HAL_GetTick
 1108              	.LVL74:
 1109              	.LBB296:
 1110              	.LBI296:
  38:Core/Inc/Timer.h ****     {
 1111              		.loc 5 38 14 is_stmt 1 discriminator 1 view .LVU316
 1112              	.LBB297:
 1113              		.loc 5 40 9 discriminator 1 view .LVU317
 1114              		.loc 5 40 22 is_stmt 0 discriminator 1 view .LVU318
 1115 0080 0F4B     		ldr	r3, .L43+8
 1116 0082 5B68     		ldr	r3, [r3, #4]
 1117              	.LVL75:
 1118              		.loc 5 40 22 discriminator 1 view .LVU319
 1119              	.LBE297:
 1120              	.LBE296:
 516:Core/Src/main.cpp ****       {
 1121              		.loc 1 516 81 discriminator 1 view .LVU320
 1122 0084 C01A     		subs	r0, r0, r3
 516:Core/Src/main.cpp ****       {
 1123              		.loc 1 516 64 discriminator 1 view .LVU321
 1124 0086 40F2EE23 		movw	r3, #750
 1125 008a 9842     		cmp	r0, r3
 1126 008c 09D9     		bls	.L31
 518:Core/Src/main.cpp ****       }
 1127              		.loc 1 518 9 is_stmt 1 view .LVU322
 1128              	.LVL76:
 1129              	.LBB298:
 1130              	.LBI298:
  33:Core/Inc/PinOut.h ****     {
 1131              		.loc 2 33 10 view .LVU323
 1132              	.LBB299:
  35:Core/Inc/PinOut.h ****     }
 1133              		.loc 2 35 9 view .LVU324
 1134              	.LBB300:
 1135              	.LBI300:
  38:Core/Inc/PinOut.h ****     {
 1136              		.loc 2 38 10 view .LVU325
 1137              	.LBB301:
  40:Core/Inc/PinOut.h ****         {
 1138              		.loc 2 40 9 view .LVU326
  44:Core/Inc/PinOut.h ****         {
 1139              		.loc 2 44 14 view .LVU327
 1140              		.loc 2 46 13 view .LVU328
 1141              		.loc 2 46 30 is_stmt 0 view .LVU329
 1142 008e 0D4B     		ldr	r3, .L43+12
 1143 0090 0022     		movs	r2, #0
 1144 0092 9988     		ldrh	r1, [r3, #4]
 1145 0094 1868     		ldr	r0, [r3]
 1146 0096 FFF7FEFF 		bl	HAL_GPIO_WritePin
 1147              	.LVL77:
 1148              		.loc 2 46 30 view .LVU330
 1149              	.LBE301:
 1150              	.LBE300:
ARM GAS  C:\Users\Admin\AppData\Local\Temp\cctaKpna.s 			page 38


  36:Core/Inc/PinOut.h **** 
 1151              		.loc 2 36 5 view .LVU331
 1152 009a 02E0     		b	.L31
 1153              	.LVL78:
 1154              	.L34:
  36:Core/Inc/PinOut.h **** 
 1155              		.loc 2 36 5 view .LVU332
 1156              	.LBE299:
 1157              	.LBE298:
 521:Core/Src/main.cpp ****     {
 1158              		.loc 1 521 10 is_stmt 1 view .LVU333
 521:Core/Src/main.cpp ****     {
 1159              		.loc 1 521 27 is_stmt 0 view .LVU334
 1160 009c FFF7FEFF 		bl	wig_available
 1161              	.LVL79:
 521:Core/Src/main.cpp ****     {
 1162              		.loc 1 521 10 view .LVU335
 1163 00a0 00B9     		cbnz	r0, .L42
 1164              	.L31:
 1165              	.LBE278:
 1166              	.LBE307:
 527:Core/Src/main.cpp **** 
 1167              		.loc 1 527 1 view .LVU336
 1168 00a2 10BD     		pop	{r4, pc}
 1169              	.L42:
 1170              	.LBB308:
 1171              	.LBB306:
 523:Core/Src/main.cpp ****       siren.turnOff();
 1172              		.loc 1 523 7 is_stmt 1 view .LVU337
 523:Core/Src/main.cpp ****       siren.turnOff();
 1173              		.loc 1 523 16 is_stmt 0 view .LVU338
 1174 00a4 044B     		ldr	r3, .L43
 1175 00a6 0422     		movs	r2, #4
 1176 00a8 1A60     		str	r2, [r3]
 524:Core/Src/main.cpp ****     }
 1177              		.loc 1 524 7 is_stmt 1 view .LVU339
 1178              	.LVL80:
 1179              	.LBB302:
 1180              	.LBI302:
  33:Core/Inc/PinOut.h ****     {
 1181              		.loc 2 33 10 view .LVU340
 1182              	.LBB303:
  35:Core/Inc/PinOut.h ****     }
 1183              		.loc 2 35 9 view .LVU341
 1184              	.LBB304:
 1185              	.LBI304:
  38:Core/Inc/PinOut.h ****     {
 1186              		.loc 2 38 10 view .LVU342
 1187              	.LBB305:
  40:Core/Inc/PinOut.h ****         {
 1188              		.loc 2 40 9 view .LVU343
  44:Core/Inc/PinOut.h ****         {
 1189              		.loc 2 44 14 view .LVU344
 1190              		.loc 2 46 13 view .LVU345
 1191              		.loc 2 46 30 is_stmt 0 view .LVU346
 1192 00aa 064B     		ldr	r3, .L43+12
 1193 00ac 0022     		movs	r2, #0
ARM GAS  C:\Users\Admin\AppData\Local\Temp\cctaKpna.s 			page 39


 1194 00ae 9988     		ldrh	r1, [r3, #4]
 1195 00b0 1868     		ldr	r0, [r3]
 1196 00b2 FFF7FEFF 		bl	HAL_GPIO_WritePin
 1197              	.LVL81:
 1198              		.loc 2 46 30 view .LVU347
 1199              	.LBE305:
 1200              	.LBE304:
 1201              	.LBE303:
 1202              	.LBE302:
 1203              	.LBE306:
 1204              	.LBE308:
 527:Core/Src/main.cpp **** 
 1205              		.loc 1 527 1 view .LVU348
 1206 00b6 F4E7     		b	.L31
 1207              	.L44:
 1208              		.align	2
 1209              	.L43:
 1210 00b8 00000000 		.word	.LANCHOR9
 1211 00bc 00000000 		.word	.LANCHOR12
 1212 00c0 00000000 		.word	.LANCHOR13
 1213 00c4 00000000 		.word	.LANCHOR2
 1214              		.cfi_endproc
 1215              	.LFE117:
 1216              		.fnend
 1218              		.section	.text.HAL_GPIO_EXTI_Callback,"ax",%progbits
 1219              		.align	1
 1220              		.global	HAL_GPIO_EXTI_Callback
 1221              		.syntax unified
 1222              		.thumb
 1223              		.thumb_func
 1224              		.fpu softvfp
 1226              	HAL_GPIO_EXTI_Callback:
 1227              		.fnstart
 1228              	.LVL82:
 1229              	.LFB118:
 532:Core/Src/main.cpp ****   switch (GPIO_Pin)
 1230              		.loc 1 532 1 is_stmt 1 view -0
 1231              		.cfi_startproc
 1232              		@ args = 0, pretend = 0, frame = 0
 1233              		@ frame_needed = 0, uses_anonymous_args = 0
 532:Core/Src/main.cpp ****   switch (GPIO_Pin)
 1234              		.loc 1 532 1 is_stmt 0 view .LVU350
 1235 0000 08B5     		push	{r3, lr}
 1236              		.save {r3, lr}
 1237              	.LCFI11:
 1238              		.cfi_def_cfa_offset 8
 1239              		.cfi_offset 3, -8
 1240              		.cfi_offset 14, -4
 533:Core/Src/main.cpp ****   {
 1241              		.loc 1 533 3 is_stmt 1 view .LVU351
 1242 0002 0828     		cmp	r0, #8
 1243 0004 0BD8     		bhi	.L46
 1244 0006 03B2     		sxth	r3, r0
 1245 0008 002B     		cmp	r3, #0
 1246 000a 2ED0     		beq	.L45
 1247 000c 0138     		subs	r0, r0, #1
 1248              	.LVL83:
ARM GAS  C:\Users\Admin\AppData\Local\Temp\cctaKpna.s 			page 40


 533:Core/Src/main.cpp ****   {
 1249              		.loc 1 533 3 is_stmt 0 view .LVU352
 1250 000e 0728     		cmp	r0, #7
 1251 0010 2BD8     		bhi	.L45
 1252 0012 DFE800F0 		tbb	[pc, r0]
 1253              	.LVL84:
 1254              	.L49:
 1255 0016 31       		.byte	(.L52-.L49)/2
 1256 0017 3B       		.byte	(.L51-.L49)/2
 1257 0018 2A       		.byte	(.L45-.L49)/2
 1258 0019 27       		.byte	(.L50-.L49)/2
 1259 001a 2A       		.byte	(.L45-.L49)/2
 1260 001b 2A       		.byte	(.L45-.L49)/2
 1261 001c 2A       		.byte	(.L45-.L49)/2
 1262 001d 2B       		.byte	(.L48-.L49)/2
 1263              		.p2align 1
 1264              	.L46:
 533:Core/Src/main.cpp ****   {
 1265              		.loc 1 533 3 view .LVU353
 1266 001e 8028     		cmp	r0, #128
 1267 0020 3ED0     		beq	.L53
 1268 0022 B0F5807F 		cmp	r0, #256
 1269 0026 12D1     		bne	.L59
 545:Core/Src/main.cpp ****   {
 1270              		.loc 1 545 3 is_stmt 1 view .LVU354
 546:Core/Src/main.cpp ****     door.setStateChanged();
 1271              		.loc 1 546 3 view .LVU355
 547:Core/Src/main.cpp ****     if (workMode != WorkMode::TempOpenMode && door.getState() == State::On)
 1272              		.loc 1 547 5 view .LVU356
 1273              	.LVL85:
 1274              	.LBB313:
 1275              	.LBI313:
  13:Core/Inc/InterruptPin.h ****     {
  14:Core/Inc/InterruptPin.h ****     }
  15:Core/Inc/InterruptPin.h **** 
  16:Core/Inc/InterruptPin.h ****     bool isStateChanged()
  17:Core/Inc/InterruptPin.h ****     {
  18:Core/Inc/InterruptPin.h ****         if (this->stateChanged == true)
  19:Core/Inc/InterruptPin.h ****         {
  20:Core/Inc/InterruptPin.h ****             this->stateChanged = false;
  21:Core/Inc/InterruptPin.h ****             return true;
  22:Core/Inc/InterruptPin.h ****         }
  23:Core/Inc/InterruptPin.h **** 
  24:Core/Inc/InterruptPin.h ****         return false;
  25:Core/Inc/InterruptPin.h ****     }
  26:Core/Inc/InterruptPin.h **** 
  27:Core/Inc/InterruptPin.h ****     void setStateChanged()
 1276              		.loc 3 27 10 view .LVU357
 1277              	.LBB314:
  28:Core/Inc/InterruptPin.h ****     {
  29:Core/Inc/InterruptPin.h ****         this->stateChanged = true;
 1278              		.loc 3 29 9 view .LVU358
 1279              		.loc 3 29 28 is_stmt 0 view .LVU359
 1280 0028 224B     		ldr	r3, .L60
 1281 002a 0122     		movs	r2, #1
 1282 002c 9A71     		strb	r2, [r3, #6]
 1283              	.LVL86:
ARM GAS  C:\Users\Admin\AppData\Local\Temp\cctaKpna.s 			page 41


 1284              		.loc 3 29 28 view .LVU360
 1285              	.LBE314:
 1286              	.LBE313:
 548:Core/Src/main.cpp ****     {
 1287              		.loc 1 548 5 is_stmt 1 view .LVU361
 548:Core/Src/main.cpp ****     {
 1288              		.loc 1 548 18 is_stmt 0 view .LVU362
 1289 002e 224B     		ldr	r3, .L60+4
 1290 0030 1B68     		ldr	r3, [r3]
 548:Core/Src/main.cpp ****     {
 1291              		.loc 1 548 44 view .LVU363
 1292 0032 D3B1     		cbz	r3, .L45
 1293              	.LVL87:
 1294              	.LBB315:
 1295              	.LBI315:
  22:Core/Inc/PinIn.h ****     }
  23:Core/Inc/PinIn.h **** 
  24:Core/Inc/PinIn.h ****     State getState()
 1296              		.loc 4 24 11 is_stmt 1 view .LVU364
 1297              	.LBB316:
  25:Core/Inc/PinIn.h ****     {
  26:Core/Inc/PinIn.h ****         if (HAL_GPIO_ReadPin(GPIOx, GPIO_Pin) == GPIO_PIN_SET)
 1298              		.loc 4 26 9 view .LVU365
 1299              		.loc 4 26 29 is_stmt 0 view .LVU366
 1300 0034 1F4B     		ldr	r3, .L60
 1301 0036 9988     		ldrh	r1, [r3, #4]
 1302 0038 1868     		ldr	r0, [r3]
 1303              	.LVL88:
 1304              		.loc 4 26 29 view .LVU367
 1305 003a FFF7FEFF 		bl	HAL_GPIO_ReadPin
 1306              	.LVL89:
 1307              		.loc 4 26 9 view .LVU368
 1308 003e 0128     		cmp	r0, #1
 1309 0040 18D0     		beq	.L57
  27:Core/Inc/PinIn.h ****         {
  28:Core/Inc/PinIn.h ****             return State::On;
  29:Core/Inc/PinIn.h ****         }
  30:Core/Inc/PinIn.h **** 
  31:Core/Inc/PinIn.h ****         return State::Off;
 1310              		.loc 4 31 23 view .LVU369
 1311 0042 0023     		movs	r3, #0
 1312              	.L56:
 1313              	.LVL90:
 1314              		.loc 4 31 23 view .LVU370
 1315              	.LBE316:
 1316              	.LBE315:
 548:Core/Src/main.cpp ****     {
 1317              		.loc 1 548 44 view .LVU371
 1318 0044 8BB1     		cbz	r3, .L45
 550:Core/Src/main.cpp ****     }
 1319              		.loc 1 550 7 is_stmt 1 view .LVU372
 550:Core/Src/main.cpp ****     }
 1320              		.loc 1 550 16 is_stmt 0 view .LVU373
 1321 0046 1C4B     		ldr	r3, .L60+4
 1322 0048 0322     		movs	r2, #3
 1323 004a 1A60     		str	r2, [r3]
 1324 004c 0DE0     		b	.L45
ARM GAS  C:\Users\Admin\AppData\Local\Temp\cctaKpna.s 			page 42


 1325              	.LVL91:
 1326              	.L59:
 533:Core/Src/main.cpp ****   {
 1327              		.loc 1 533 3 view .LVU374
 1328 004e 4028     		cmp	r0, #64
 1329 0050 0BD1     		bne	.L45
 580:Core/Src/main.cpp ****   {
 1330              		.loc 1 580 3 is_stmt 1 view .LVU375
 581:Core/Src/main.cpp ****     if (wig_flag_inrt)
 1331              		.loc 1 581 3 view .LVU376
 582:Core/Src/main.cpp ****     {
 1332              		.loc 1 582 5 view .LVU377
 582:Core/Src/main.cpp ****     {
 1333              		.loc 1 582 9 is_stmt 0 view .LVU378
 1334 0052 1A4B     		ldr	r3, .L60+8
 1335 0054 1B78     		ldrb	r3, [r3]	@ zero_extendqisi2
 582:Core/Src/main.cpp ****     {
 1336              		.loc 1 582 5 view .LVU379
 1337 0056 43B1     		cbz	r3, .L45
 584:Core/Src/main.cpp ****       outsideKeyRead = true;
 1338              		.loc 1 584 7 is_stmt 1 view .LVU380
 584:Core/Src/main.cpp ****       outsideKeyRead = true;
 1339              		.loc 1 584 13 is_stmt 0 view .LVU381
 1340 0058 FFF7FEFF 		bl	ReadD0
 1341              	.LVL92:
 585:Core/Src/main.cpp ****     }
 1342              		.loc 1 585 7 is_stmt 1 view .LVU382
 585:Core/Src/main.cpp ****     }
 1343              		.loc 1 585 22 is_stmt 0 view .LVU383
 1344 005c 184B     		ldr	r3, .L60+12
 1345 005e 0122     		movs	r2, #1
 1346 0060 1A70     		strb	r2, [r3]
 1347 0062 02E0     		b	.L45
 1348              	.L50:
 535:Core/Src/main.cpp ****   {
 1349              		.loc 1 535 3 is_stmt 1 view .LVU384
 536:Core/Src/main.cpp ****     insideButtonPressed = true;
 1350              		.loc 1 536 3 view .LVU385
 537:Core/Src/main.cpp ****     break;
 1351              		.loc 1 537 5 view .LVU386
 537:Core/Src/main.cpp ****     break;
 1352              		.loc 1 537 25 is_stmt 0 view .LVU387
 1353 0064 174B     		ldr	r3, .L60+16
 1354 0066 0122     		movs	r2, #1
 1355 0068 1A70     		strb	r2, [r3]
 538:Core/Src/main.cpp ****   }
 1356              		.loc 1 538 5 is_stmt 1 view .LVU388
 1357              	.L45:
 603:Core/Src/main.cpp **** 
 1358              		.loc 1 603 1 is_stmt 0 view .LVU389
 1359 006a 08BD     		pop	{r3, pc}
 1360              	.L48:
 540:Core/Src/main.cpp ****   {
 1361              		.loc 1 540 3 is_stmt 1 view .LVU390
 541:Core/Src/main.cpp ****     outsideButtonPressed = true;
 1362              		.loc 1 541 3 view .LVU391
 542:Core/Src/main.cpp ****     break;
ARM GAS  C:\Users\Admin\AppData\Local\Temp\cctaKpna.s 			page 43


 1363              		.loc 1 542 5 view .LVU392
 542:Core/Src/main.cpp ****     break;
 1364              		.loc 1 542 26 is_stmt 0 view .LVU393
 1365 006c 164B     		ldr	r3, .L60+20
 1366 006e 0122     		movs	r2, #1
 1367 0070 1A70     		strb	r2, [r3]
 543:Core/Src/main.cpp ****   }
 1368              		.loc 1 543 5 is_stmt 1 view .LVU394
 1369 0072 FAE7     		b	.L45
 1370              	.LVL93:
 1371              	.L57:
 1372              	.LBB318:
 1373              	.LBB317:
  28:Core/Inc/PinIn.h ****         }
 1374              		.loc 4 28 27 is_stmt 0 view .LVU395
 1375 0074 0123     		movs	r3, #1
 1376 0076 E5E7     		b	.L56
 1377              	.LVL94:
 1378              	.L52:
  28:Core/Inc/PinIn.h ****         }
 1379              		.loc 4 28 27 view .LVU396
 1380              	.LBE317:
 1381              	.LBE318:
 562:Core/Src/main.cpp ****   {
 1382              		.loc 1 562 3 is_stmt 1 view .LVU397
 563:Core/Src/main.cpp ****     if (wig_flag_inrt)
 1383              		.loc 1 563 3 view .LVU398
 564:Core/Src/main.cpp ****     {
 1384              		.loc 1 564 5 view .LVU399
 564:Core/Src/main.cpp ****     {
 1385              		.loc 1 564 9 is_stmt 0 view .LVU400
 1386 0078 104B     		ldr	r3, .L60+8
 1387 007a 1B78     		ldrb	r3, [r3]	@ zero_extendqisi2
 564:Core/Src/main.cpp ****     {
 1388              		.loc 1 564 5 view .LVU401
 1389 007c 002B     		cmp	r3, #0
 1390 007e F4D0     		beq	.L45
 566:Core/Src/main.cpp ****       insideKeyRead = true;
 1391              		.loc 1 566 7 is_stmt 1 view .LVU402
 566:Core/Src/main.cpp ****       insideKeyRead = true;
 1392              		.loc 1 566 13 is_stmt 0 view .LVU403
 1393 0080 FFF7FEFF 		bl	ReadD0
 1394              	.LVL95:
 567:Core/Src/main.cpp ****     }
 1395              		.loc 1 567 7 is_stmt 1 view .LVU404
 567:Core/Src/main.cpp ****     }
 1396              		.loc 1 567 21 is_stmt 0 view .LVU405
 1397 0084 114B     		ldr	r3, .L60+24
 1398 0086 0122     		movs	r2, #1
 1399 0088 1A70     		strb	r2, [r3]
 1400 008a EEE7     		b	.L45
 1401              	.L51:
 571:Core/Src/main.cpp ****   {
 1402              		.loc 1 571 3 is_stmt 1 view .LVU406
 572:Core/Src/main.cpp ****     if (wig_flag_inrt)
 1403              		.loc 1 572 3 view .LVU407
 573:Core/Src/main.cpp ****     {
ARM GAS  C:\Users\Admin\AppData\Local\Temp\cctaKpna.s 			page 44


 1404              		.loc 1 573 5 view .LVU408
 573:Core/Src/main.cpp ****     {
 1405              		.loc 1 573 9 is_stmt 0 view .LVU409
 1406 008c 0B4B     		ldr	r3, .L60+8
 1407 008e 1B78     		ldrb	r3, [r3]	@ zero_extendqisi2
 573:Core/Src/main.cpp ****     {
 1408              		.loc 1 573 5 view .LVU410
 1409 0090 002B     		cmp	r3, #0
 1410 0092 EAD0     		beq	.L45
 575:Core/Src/main.cpp ****       insideKeyRead = true;
 1411              		.loc 1 575 7 is_stmt 1 view .LVU411
 575:Core/Src/main.cpp ****       insideKeyRead = true;
 1412              		.loc 1 575 13 is_stmt 0 view .LVU412
 1413 0094 FFF7FEFF 		bl	ReadD1
 1414              	.LVL96:
 576:Core/Src/main.cpp ****     }
 1415              		.loc 1 576 7 is_stmt 1 view .LVU413
 576:Core/Src/main.cpp ****     }
 1416              		.loc 1 576 21 is_stmt 0 view .LVU414
 1417 0098 0C4B     		ldr	r3, .L60+24
 1418 009a 0122     		movs	r2, #1
 1419 009c 1A70     		strb	r2, [r3]
 1420 009e E4E7     		b	.L45
 1421              	.LVL97:
 1422              	.L53:
 589:Core/Src/main.cpp ****   {
 1423              		.loc 1 589 3 is_stmt 1 view .LVU415
 590:Core/Src/main.cpp ****     if (wig_flag_inrt)
 1424              		.loc 1 590 3 view .LVU416
 591:Core/Src/main.cpp ****     {
 1425              		.loc 1 591 5 view .LVU417
 591:Core/Src/main.cpp ****     {
 1426              		.loc 1 591 9 is_stmt 0 view .LVU418
 1427 00a0 064B     		ldr	r3, .L60+8
 1428 00a2 1B78     		ldrb	r3, [r3]	@ zero_extendqisi2
 591:Core/Src/main.cpp ****     {
 1429              		.loc 1 591 5 view .LVU419
 1430 00a4 002B     		cmp	r3, #0
 1431 00a6 E0D0     		beq	.L45
 593:Core/Src/main.cpp ****       outsideKeyRead = true;
 1432              		.loc 1 593 7 is_stmt 1 view .LVU420
 593:Core/Src/main.cpp ****       outsideKeyRead = true;
 1433              		.loc 1 593 13 is_stmt 0 view .LVU421
 1434 00a8 FFF7FEFF 		bl	ReadD1
 1435              	.LVL98:
 594:Core/Src/main.cpp ****     }
 1436              		.loc 1 594 7 is_stmt 1 view .LVU422
 594:Core/Src/main.cpp ****     }
 1437              		.loc 1 594 22 is_stmt 0 view .LVU423
 1438 00ac 044B     		ldr	r3, .L60+12
 1439 00ae 0122     		movs	r2, #1
 1440 00b0 1A70     		strb	r2, [r3]
 603:Core/Src/main.cpp **** 
 1441              		.loc 1 603 1 view .LVU424
 1442 00b2 DAE7     		b	.L45
 1443              	.L61:
 1444              		.align	2
ARM GAS  C:\Users\Admin\AppData\Local\Temp\cctaKpna.s 			page 45


 1445              	.L60:
 1446 00b4 00000000 		.word	.LANCHOR0
 1447 00b8 00000000 		.word	.LANCHOR9
 1448 00bc 00000000 		.word	.LANCHOR16
 1449 00c0 00000000 		.word	.LANCHOR18
 1450 00c4 00000000 		.word	.LANCHOR14
 1451 00c8 00000000 		.word	.LANCHOR15
 1452 00cc 00000000 		.word	.LANCHOR17
 1453              		.cfi_endproc
 1454              	.LFE118:
 1455              		.fnend
 1457              		.section	.text._Z11UART_PrintfPKcz,"ax",%progbits
 1458              		.align	1
 1459              		.global	_Z11UART_PrintfPKcz
 1460              		.syntax unified
 1461              		.thumb
 1462              		.thumb_func
 1463              		.fpu softvfp
 1465              	_Z11UART_PrintfPKcz:
 1466              		.fnstart
 1467              	.LVL99:
 1468              	.LFB119:
 606:Core/Src/main.cpp ****   char buff[256];
 1469              		.loc 1 606 1 is_stmt 1 view -0
 1470              		.cfi_startproc
 1471              		@ args = 4, pretend = 16, frame = 264
 1472              		@ frame_needed = 0, uses_anonymous_args = 1
 606:Core/Src/main.cpp ****   char buff[256];
 1473              		.loc 1 606 1 is_stmt 0 view .LVU426
 1474 0000 0FB4     		push	{r0, r1, r2, r3}
 1475              		.save {r0, r1, r2, r3}
 1476              	.LCFI12:
 1477              		.cfi_def_cfa_offset 16
 1478              		.cfi_offset 0, -16
 1479              		.cfi_offset 1, -12
 1480              		.cfi_offset 2, -8
 1481              		.cfi_offset 3, -4
 1482 0002 00B5     		push	{lr}
 1483              		.save {lr}
 1484              	.LCFI13:
 1485              		.cfi_def_cfa_offset 20
 1486              		.cfi_offset 14, -20
 1487              		.pad #268
 1488 0004 C3B0     		sub	sp, sp, #268
 1489              	.LCFI14:
 1490              		.cfi_def_cfa_offset 288
 1491 0006 44AB     		add	r3, sp, #272
 1492 0008 53F8042B 		ldr	r2, [r3], #4
 607:Core/Src/main.cpp ****   va_list args;
 1493              		.loc 1 607 3 is_stmt 1 view .LVU427
 608:Core/Src/main.cpp ****   va_start(args, fmt);
 1494              		.loc 1 608 3 view .LVU428
 609:Core/Src/main.cpp ****   vsnprintf(buff, sizeof(buff), fmt, args);
 1495              		.loc 1 609 3 view .LVU429
 1496 000c 0193     		str	r3, [sp, #4]
 610:Core/Src/main.cpp ****   HAL_UART_Transmit(&huart1, (uint8_t *)buff, strlen(buff), HAL_MAX_DELAY);
 1497              		.loc 1 610 3 view .LVU430
ARM GAS  C:\Users\Admin\AppData\Local\Temp\cctaKpna.s 			page 46


 610:Core/Src/main.cpp ****   HAL_UART_Transmit(&huart1, (uint8_t *)buff, strlen(buff), HAL_MAX_DELAY);
 1498              		.loc 1 610 12 is_stmt 0 view .LVU431
 1499 000e 4FF48071 		mov	r1, #256
 1500 0012 02A8     		add	r0, sp, #8
 1501 0014 FFF7FEFF 		bl	vsnprintf
 1502              	.LVL100:
 611:Core/Src/main.cpp ****   va_end(args);
 1503              		.loc 1 611 3 is_stmt 1 view .LVU432
 611:Core/Src/main.cpp ****   va_end(args);
 1504              		.loc 1 611 53 is_stmt 0 view .LVU433
 1505 0018 02A8     		add	r0, sp, #8
 1506 001a FFF7FEFF 		bl	strlen
 1507              	.LVL101:
 611:Core/Src/main.cpp ****   va_end(args);
 1508              		.loc 1 611 20 view .LVU434
 1509 001e 4FF0FF33 		mov	r3, #-1
 1510 0022 82B2     		uxth	r2, r0
 1511 0024 02A9     		add	r1, sp, #8
 1512 0026 0448     		ldr	r0, .L64
 1513 0028 FFF7FEFF 		bl	HAL_UART_Transmit
 1514              	.LVL102:
 612:Core/Src/main.cpp **** }
 1515              		.loc 1 612 3 is_stmt 1 view .LVU435
 613:Core/Src/main.cpp **** 
 1516              		.loc 1 613 1 is_stmt 0 view .LVU436
 1517 002c 43B0     		add	sp, sp, #268
 1518              	.LCFI15:
 1519              		.cfi_def_cfa_offset 20
 1520              		@ sp needed
 1521 002e 5DF804EB 		ldr	lr, [sp], #4
 1522              	.LCFI16:
 1523              		.cfi_restore 14
 1524              		.cfi_def_cfa_offset 16
 1525 0032 04B0     		add	sp, sp, #16
 1526              	.LCFI17:
 1527              		.cfi_restore 3
 1528              		.cfi_restore 2
 1529              		.cfi_restore 1
 1530              		.cfi_restore 0
 1531              		.cfi_def_cfa_offset 0
 1532 0034 7047     		bx	lr
 1533              	.L65:
 1534 0036 00BF     		.align	2
 1535              	.L64:
 1536 0038 00000000 		.word	.LANCHOR19
 1537              		.cfi_endproc
 1538              	.LFE119:
 1539              		.fnend
 1541              		.section	.rodata._Z14TimeTrackEventv.str1.4,"aMS",%progbits,1
 1542              		.align	2
 1543              	.LC0:
 1544 0000 20736563 		.ascii	" sec.\000"
 1544      2E00
 1545 0006 0000     		.align	2
 1546              	.LC1:
 1547 0008 54696D65 		.ascii	"Time passed: %d%s\015\012\000"
 1547      20706173 
ARM GAS  C:\Users\Admin\AppData\Local\Temp\cctaKpna.s 			page 47


 1547      7365643A 
 1547      20256425 
 1547      730D0A00 
 1548              		.section	.text._Z14TimeTrackEventv,"ax",%progbits
 1549              		.align	1
 1550              		.global	_Z14TimeTrackEventv
 1551              		.syntax unified
 1552              		.thumb
 1553              		.thumb_func
 1554              		.fpu softvfp
 1556              	_Z14TimeTrackEventv:
 1557              		.fnstart
 1558              	.LFB109:
 312:Core/Src/main.cpp ****   if ((HAL_GetTick() - timmeTrack) > 5000)
 1559              		.loc 1 312 1 is_stmt 1 view -0
 1560              		.cfi_startproc
 1561              		@ args = 0, pretend = 0, frame = 0
 1562              		@ frame_needed = 0, uses_anonymous_args = 0
 1563 0000 08B5     		push	{r3, lr}
 1564              		.save {r3, lr}
 1565              	.LCFI18:
 1566              		.cfi_def_cfa_offset 8
 1567              		.cfi_offset 3, -8
 1568              		.cfi_offset 14, -4
 313:Core/Src/main.cpp ****   {
 1569              		.loc 1 313 3 view .LVU438
 313:Core/Src/main.cpp ****   {
 1570              		.loc 1 313 19 is_stmt 0 view .LVU439
 1571 0002 FFF7FEFF 		bl	HAL_GetTick
 1572              	.LVL103:
 313:Core/Src/main.cpp ****   {
 1573              		.loc 1 313 22 view .LVU440
 1574 0006 0D4B     		ldr	r3, .L70
 1575 0008 1B68     		ldr	r3, [r3]
 1576 000a C01A     		subs	r0, r0, r3
 313:Core/Src/main.cpp ****   {
 1577              		.loc 1 313 3 view .LVU441
 1578 000c 41F28833 		movw	r3, #5000
 1579 0010 9842     		cmp	r0, r3
 1580 0012 00D8     		bhi	.L69
 1581              	.L66:
 318:Core/Src/main.cpp **** 
 1582              		.loc 1 318 1 view .LVU442
 1583 0014 08BD     		pop	{r3, pc}
 1584              	.L69:
 315:Core/Src/main.cpp ****     timmeTrack = HAL_GetTick();
 1585              		.loc 1 315 5 is_stmt 1 view .LVU443
 315:Core/Src/main.cpp ****     timmeTrack = HAL_GetTick();
 1586              		.loc 1 315 54 is_stmt 0 view .LVU444
 1587 0016 FFF7FEFF 		bl	HAL_GetTick
 1588              	.LVL104:
 315:Core/Src/main.cpp ****     timmeTrack = HAL_GetTick();
 1589              		.loc 1 315 57 view .LVU445
 1590 001a 094B     		ldr	r3, .L70+4
 1591 001c 1968     		ldr	r1, [r3]
 1592 001e 411A     		subs	r1, r0, r1
 315:Core/Src/main.cpp ****     timmeTrack = HAL_GetTick();
ARM GAS  C:\Users\Admin\AppData\Local\Temp\cctaKpna.s 			page 48


 1593              		.loc 1 315 16 view .LVU446
 1594 0020 0848     		ldr	r0, .L70+8
 1595 0022 A0FB0131 		umull	r3, r1, r0, r1
 1596 0026 084A     		ldr	r2, .L70+12
 1597 0028 8909     		lsrs	r1, r1, #6
 1598 002a 0848     		ldr	r0, .L70+16
 1599 002c FFF7FEFF 		bl	_Z11UART_PrintfPKcz
 1600              	.LVL105:
 316:Core/Src/main.cpp ****   }
 1601              		.loc 1 316 5 is_stmt 1 view .LVU447
 316:Core/Src/main.cpp ****   }
 1602              		.loc 1 316 29 is_stmt 0 view .LVU448
 1603 0030 FFF7FEFF 		bl	HAL_GetTick
 1604              	.LVL106:
 316:Core/Src/main.cpp ****   }
 1605              		.loc 1 316 16 view .LVU449
 1606 0034 014B     		ldr	r3, .L70
 1607 0036 1860     		str	r0, [r3]
 318:Core/Src/main.cpp **** 
 1608              		.loc 1 318 1 view .LVU450
 1609 0038 ECE7     		b	.L66
 1610              	.L71:
 1611 003a 00BF     		.align	2
 1612              	.L70:
 1613 003c 00000000 		.word	.LANCHOR20
 1614 0040 00000000 		.word	.LANCHOR21
 1615 0044 D34D6210 		.word	274877907
 1616 0048 00000000 		.word	.LC0
 1617 004c 08000000 		.word	.LC1
 1618              		.cfi_endproc
 1619              	.LFE109:
 1620              		.fnend
 1622              		.section	.rodata._Z18ButtonPressedEventv.str1.4,"aMS",%progbits,1
 1623              		.align	2
 1624              	.LC2:
 1625 0000 4F757473 		.ascii	"Outside\000"
 1625      69646500 
 1626              		.align	2
 1627              	.LC3:
 1628 0008 496E7369 		.ascii	"Inside\000"
 1628      646500
 1629 000f 00       		.align	2
 1630              	.LC4:
 1631 0010 25732062 		.ascii	"%s button was used.\015\012\000"
 1631      7574746F 
 1631      6E207761 
 1631      73207573 
 1631      65642E0D 
 1632              		.section	.text._Z18ButtonPressedEventv,"ax",%progbits
 1633              		.align	1
 1634              		.global	_Z18ButtonPressedEventv
 1635              		.syntax unified
 1636              		.thumb
 1637              		.thumb_func
 1638              		.fpu softvfp
 1640              	_Z18ButtonPressedEventv:
 1641              		.fnstart
ARM GAS  C:\Users\Admin\AppData\Local\Temp\cctaKpna.s 			page 49


 1642              	.LFB113:
 362:Core/Src/main.cpp ****   if (insideButtonPressed || outsideButtonPressed)
 1643              		.loc 1 362 1 is_stmt 1 view -0
 1644              		.cfi_startproc
 1645              		@ args = 0, pretend = 0, frame = 0
 1646              		@ frame_needed = 0, uses_anonymous_args = 0
 1647 0000 08B5     		push	{r3, lr}
 1648              		.save {r3, lr}
 1649              	.LCFI19:
 1650              		.cfi_def_cfa_offset 8
 1651              		.cfi_offset 3, -8
 1652              		.cfi_offset 14, -4
 363:Core/Src/main.cpp ****   {
 1653              		.loc 1 363 3 view .LVU452
 1654 0002 0A4B     		ldr	r3, .L78
 1655 0004 1B78     		ldrb	r3, [r3]	@ zero_extendqisi2
 1656 0006 13B9     		cbnz	r3, .L73
 363:Core/Src/main.cpp ****   {
 1657              		.loc 1 363 27 is_stmt 0 discriminator 1 view .LVU453
 1658 0008 094A     		ldr	r2, .L78+4
 1659 000a 1278     		ldrb	r2, [r2]	@ zero_extendqisi2
 1660 000c 5AB1     		cbz	r2, .L72
 1661              	.L73:
 365:Core/Src/main.cpp **** 
 1662              		.loc 1 365 5 is_stmt 1 view .LVU454
 365:Core/Src/main.cpp **** 
 1663              		.loc 1 365 16 is_stmt 0 view .LVU455
 1664 000e 5BB1     		cbz	r3, .L76
 1665 0010 0849     		ldr	r1, .L78+8
 1666              	.L75:
 365:Core/Src/main.cpp **** 
 1667              		.loc 1 365 16 discriminator 4 view .LVU456
 1668 0012 0948     		ldr	r0, .L78+12
 1669 0014 FFF7FEFF 		bl	_Z11UART_PrintfPKcz
 1670              	.LVL107:
 367:Core/Src/main.cpp **** 
 1671              		.loc 1 367 5 is_stmt 1 discriminator 4 view .LVU457
 367:Core/Src/main.cpp **** 
 1672              		.loc 1 367 14 is_stmt 0 discriminator 4 view .LVU458
 1673 0018 0023     		movs	r3, #0
 1674 001a 084A     		ldr	r2, .L78+16
 1675 001c 1360     		str	r3, [r2]
 369:Core/Src/main.cpp ****     outsideButtonPressed = false;
 1676              		.loc 1 369 5 is_stmt 1 discriminator 4 view .LVU459
 369:Core/Src/main.cpp ****     outsideButtonPressed = false;
 1677              		.loc 1 369 25 is_stmt 0 discriminator 4 view .LVU460
 1678 001e 034A     		ldr	r2, .L78
 1679 0020 1370     		strb	r3, [r2]
 370:Core/Src/main.cpp ****   }
 1680              		.loc 1 370 5 is_stmt 1 discriminator 4 view .LVU461
 370:Core/Src/main.cpp ****   }
 1681              		.loc 1 370 26 is_stmt 0 discriminator 4 view .LVU462
 1682 0022 034A     		ldr	r2, .L78+4
 1683 0024 1370     		strb	r3, [r2]
 1684              	.L72:
 372:Core/Src/main.cpp **** 
 1685              		.loc 1 372 1 view .LVU463
ARM GAS  C:\Users\Admin\AppData\Local\Temp\cctaKpna.s 			page 50


 1686 0026 08BD     		pop	{r3, pc}
 1687              	.L76:
 365:Core/Src/main.cpp **** 
 1688              		.loc 1 365 16 view .LVU464
 1689 0028 0549     		ldr	r1, .L78+20
 1690 002a F2E7     		b	.L75
 1691              	.L79:
 1692              		.align	2
 1693              	.L78:
 1694 002c 00000000 		.word	.LANCHOR14
 1695 0030 00000000 		.word	.LANCHOR15
 1696 0034 08000000 		.word	.LC3
 1697 0038 10000000 		.word	.LC4
 1698 003c 00000000 		.word	.LANCHOR9
 1699 0040 00000000 		.word	.LC2
 1700              		.cfi_endproc
 1701              	.LFE113:
 1702              		.fnend
 1704              		.section	.rodata._Z17TempOpenModeEventv.str1.4,"aMS",%progbits,1
 1705              		.align	2
 1706              	.LC5:
 1707 0000 446F6F72 		.ascii	"Door is still opened. Turning on temporarily alarm."
 1707      20697320 
 1707      7374696C 
 1707      6C206F70 
 1707      656E6564 
 1708 0033 0D0A00   		.ascii	"\015\012\000"
 1709 0036 0000     		.align	2
 1710              	.LC6:
 1711 0038 446F6F72 		.ascii	"Door was not opened. Closing the relay.\015\012\000"
 1711      20776173 
 1711      206E6F74 
 1711      206F7065 
 1711      6E65642E 
 1712 0062 0000     		.align	2
 1713              	.LC7:
 1714 0064 446F6F72 		.ascii	"Door was closed. Closing the relay.\015\012\000"
 1714      20776173 
 1714      20636C6F 
 1714      7365642E 
 1714      20436C6F 
 1715 008a 0000     		.align	2
 1716              	.LC8:
 1717 008c 43757272 		.ascii	"Current mode is Conditionally Open. Switching to Op"
 1717      656E7420 
 1717      6D6F6465 
 1717      20697320 
 1717      436F6E64 
 1718 00bf 656E2E0D 		.ascii	"en.\015\012\000"
 1718      0A00
 1719              		.section	.text._Z17TempOpenModeEventv,"ax",%progbits
 1720              		.align	1
 1721              		.global	_Z17TempOpenModeEventv
 1722              		.syntax unified
 1723              		.thumb
 1724              		.thumb_func
 1725              		.fpu softvfp
ARM GAS  C:\Users\Admin\AppData\Local\Temp\cctaKpna.s 			page 51


 1727              	_Z17TempOpenModeEventv:
 1728              		.fnstart
 1729              	.LFB114:
 375:Core/Src/main.cpp ****   static Timer lockTimer(0, 0);
 1730              		.loc 1 375 1 is_stmt 1 view -0
 1731              		.cfi_startproc
 1732              		@ args = 0, pretend = 0, frame = 0
 1733              		@ frame_needed = 0, uses_anonymous_args = 0
 1734 0000 10B5     		push	{r4, lr}
 1735              		.save {r4, lr}
 1736              	.LCFI20:
 1737              		.cfi_def_cfa_offset 8
 1738              		.cfi_offset 4, -8
 1739              		.cfi_offset 14, -4
 376:Core/Src/main.cpp ****   static Timer zumerTimer(0, 0);
 1740              		.loc 1 376 3 view .LVU466
 376:Core/Src/main.cpp ****   static Timer zumerTimer(0, 0);
 1741              		.loc 1 376 30 is_stmt 0 view .LVU467
 1742 0002 784B     		ldr	r3, .L109
 1743 0004 1B78     		ldrb	r3, [r3]	@ zero_extendqisi2
 1744 0006 BFF35B8F 		dmb	ish
 1745 000a 13F0010F 		tst	r3, #1
 1746 000e 2AD0     		beq	.L100
 1747              	.L81:
 377:Core/Src/main.cpp **** 
 1748              		.loc 1 377 3 is_stmt 1 view .LVU468
 377:Core/Src/main.cpp **** 
 1749              		.loc 1 377 31 is_stmt 0 view .LVU469
 1750 0010 754B     		ldr	r3, .L109+4
 1751 0012 1B78     		ldrb	r3, [r3]	@ zero_extendqisi2
 1752 0014 BFF35B8F 		dmb	ish
 1753 0018 13F0010F 		tst	r3, #1
 1754 001c 30D0     		beq	.L101
 1755              	.L82:
 379:Core/Src/main.cpp ****   {
 1756              		.loc 1 379 3 is_stmt 1 view .LVU470
 1757              	.LBB390:
 379:Core/Src/main.cpp ****   {
 1758              		.loc 1 379 16 is_stmt 0 view .LVU471
 1759 001e 734B     		ldr	r3, .L109+8
 1760 0020 1C68     		ldr	r4, [r3]
 379:Core/Src/main.cpp ****   {
 1761              		.loc 1 379 3 view .LVU472
 1762 0022 FCB9     		cbnz	r4, .L80
 1763              	.LBB391:
 381:Core/Src/main.cpp ****     if (firstTime)
 1764              		.loc 1 381 5 is_stmt 1 view .LVU473
 382:Core/Src/main.cpp ****     {
 1765              		.loc 1 382 5 view .LVU474
 1766 0024 724B     		ldr	r3, .L109+12
 1767 0026 1B78     		ldrb	r3, [r3]	@ zero_extendqisi2
 1768 0028 002B     		cmp	r3, #0
 1769 002a 36D1     		bne	.L102
 1770              	.L84:
 389:Core/Src/main.cpp ****     {
 1771              		.loc 1 389 5 view .LVU475
 389:Core/Src/main.cpp ****     {
ARM GAS  C:\Users\Admin\AppData\Local\Temp\cctaKpna.s 			page 52


 1772              		.loc 1 389 20 is_stmt 0 view .LVU476
 1773 002c FFF7FEFF 		bl	HAL_GetTick
 1774              	.LVL108:
 1775              	.LBB392:
 1776              	.LBI392:
  28:Core/Inc/Timer.h ****     {
 1777              		.loc 5 28 14 is_stmt 1 view .LVU477
 1778              	.LBB393:
  30:Core/Inc/Timer.h ****     }
 1779              		.loc 5 30 9 view .LVU478
  30:Core/Inc/Timer.h ****     }
 1780              		.loc 5 30 22 is_stmt 0 view .LVU479
 1781 0030 704B     		ldr	r3, .L109+16
 1782 0032 1B68     		ldr	r3, [r3]
 1783              	.LVL109:
  30:Core/Inc/Timer.h ****     }
 1784              		.loc 5 30 22 view .LVU480
 1785              	.LBE393:
 1786              	.LBE392:
 389:Core/Src/main.cpp ****     {
 1787              		.loc 1 389 23 view .LVU481
 1788 0034 C01A     		subs	r0, r0, r3
 389:Core/Src/main.cpp ****     {
 1789              		.loc 1 389 57 view .LVU482
 1790 0036 41F28733 		movw	r3, #4999
 1791 003a 9842     		cmp	r0, r3
 1792 003c 47D8     		bhi	.L85
 1793              	.LVL110:
 1794              	.LBB394:
 1795              	.LBI394:
  16:Core/Inc/InterruptPin.h ****     {
 1796              		.loc 3 16 10 is_stmt 1 view .LVU483
 1797              	.LBB395:
  18:Core/Inc/InterruptPin.h ****         {
 1798              		.loc 3 18 9 view .LVU484
  18:Core/Inc/InterruptPin.h ****         {
 1799              		.loc 3 18 19 is_stmt 0 view .LVU485
 1800 003e 6E4B     		ldr	r3, .L109+20
 1801 0040 9B79     		ldrb	r3, [r3, #6]	@ zero_extendqisi2
  18:Core/Inc/InterruptPin.h ****         {
 1802              		.loc 3 18 9 view .LVU486
 1803 0042 002B     		cmp	r3, #0
 1804 0044 37D1     		bne	.L103
 1805              	.LVL111:
 1806              	.L86:
  18:Core/Inc/InterruptPin.h ****         {
 1807              		.loc 3 18 9 view .LVU487
 1808              	.LBE395:
 1809              	.LBE394:
 391:Core/Src/main.cpp ****       {
 1810              		.loc 1 391 7 is_stmt 1 discriminator 5 view .LVU488
 391:Core/Src/main.cpp ****       {
 1811              		.loc 1 391 22 is_stmt 0 discriminator 5 view .LVU489
 1812 0046 FFF7FEFF 		bl	HAL_GetTick
 1813              	.LVL112:
 1814              	.LBB397:
 1815              	.LBI397:
ARM GAS  C:\Users\Admin\AppData\Local\Temp\cctaKpna.s 			page 53


  38:Core/Inc/Timer.h ****     {
 1816              		.loc 5 38 14 is_stmt 1 discriminator 5 view .LVU490
 1817              	.LBB398:
 1818              		.loc 5 40 9 discriminator 5 view .LVU491
 1819              		.loc 5 40 22 is_stmt 0 discriminator 5 view .LVU492
 1820 004a 6C4B     		ldr	r3, .L109+24
 1821 004c 5B68     		ldr	r3, [r3, #4]
 1822              	.LVL113:
 1823              		.loc 5 40 22 discriminator 5 view .LVU493
 1824              	.LBE398:
 1825              	.LBE397:
 391:Core/Src/main.cpp ****       {
 1826              		.loc 1 391 25 discriminator 5 view .LVU494
 1827 004e C01A     		subs	r0, r0, r3
 391:Core/Src/main.cpp ****       {
 1828              		.loc 1 391 7 discriminator 5 view .LVU495
 1829 0050 FA28     		cmp	r0, #250
 1830 0052 7ED8     		bhi	.L104
 1831              	.L89:
 400:Core/Src/main.cpp ****       {
 1832              		.loc 1 400 7 is_stmt 1 view .LVU496
 400:Core/Src/main.cpp ****       {
 1833              		.loc 1 400 22 is_stmt 0 view .LVU497
 1834 0054 FFF7FEFF 		bl	HAL_GetTick
 1835              	.LVL114:
 1836              	.LBB399:
 1837              	.LBI399:
  38:Core/Inc/Timer.h ****     {
 1838              		.loc 5 38 14 is_stmt 1 view .LVU498
 1839              	.LBB400:
 1840              		.loc 5 40 9 view .LVU499
 1841              		.loc 5 40 22 is_stmt 0 view .LVU500
 1842 0058 684B     		ldr	r3, .L109+24
 1843 005a 5B68     		ldr	r3, [r3, #4]
 1844              	.LVL115:
 1845              		.loc 5 40 22 view .LVU501
 1846              	.LBE400:
 1847              	.LBE399:
 400:Core/Src/main.cpp ****       {
 1848              		.loc 1 400 25 view .LVU502
 1849 005c C01A     		subs	r0, r0, r3
 400:Core/Src/main.cpp ****       {
 1850              		.loc 1 400 7 view .LVU503
 1851 005e 4B28     		cmp	r0, #75
 1852 0060 00F29480 		bhi	.L105
 1853              	.L80:
 1854              	.LBE391:
 1855              	.LBE390:
 433:Core/Src/main.cpp **** 
 1856              		.loc 1 433 1 view .LVU504
 1857 0064 10BD     		pop	{r4, pc}
 1858              	.L100:
 376:Core/Src/main.cpp ****   static Timer zumerTimer(0, 0);
 1859              		.loc 1 376 30 discriminator 1 view .LVU505
 1860 0066 5F48     		ldr	r0, .L109
 1861 0068 FFF7FEFF 		bl	__cxa_guard_acquire
 1862              	.LVL116:
ARM GAS  C:\Users\Admin\AppData\Local\Temp\cctaKpna.s 			page 54


 1863 006c 0028     		cmp	r0, #0
 1864 006e CFD0     		beq	.L81
 1865              	.LVL117:
 1866              	.LBB485:
 1867              	.LBI485:
  17:Core/Inc/Timer.h ****     {
 1868              		.loc 5 17 5 is_stmt 1 discriminator 2 view .LVU506
 1869              	.LBB486:
 1870              	.LBB487:
  19:Core/Inc/Timer.h ****         this->lastTick = lastTick;
 1871              		.loc 5 19 9 discriminator 2 view .LVU507
  19:Core/Inc/Timer.h ****         this->lastTick = lastTick;
 1872              		.loc 5 19 25 is_stmt 0 discriminator 2 view .LVU508
 1873 0070 604B     		ldr	r3, .L109+16
 1874 0072 0022     		movs	r2, #0
 1875 0074 1A60     		str	r2, [r3]
  20:Core/Inc/Timer.h ****     }
 1876              		.loc 5 20 9 is_stmt 1 discriminator 2 view .LVU509
  20:Core/Inc/Timer.h ****     }
 1877              		.loc 5 20 24 is_stmt 0 discriminator 2 view .LVU510
 1878 0076 5A60     		str	r2, [r3, #4]
 1879              	.LVL118:
  20:Core/Inc/Timer.h ****     }
 1880              		.loc 5 20 24 discriminator 2 view .LVU511
 1881              	.LBE487:
 1882              	.LBE486:
 1883              	.LBE485:
 376:Core/Src/main.cpp ****   static Timer zumerTimer(0, 0);
 1884              		.loc 1 376 30 discriminator 2 view .LVU512
 1885 0078 5A48     		ldr	r0, .L109
 1886 007a FFF7FEFF 		bl	__cxa_guard_release
 1887              	.LVL119:
 1888 007e C7E7     		b	.L81
 1889              	.L101:
 377:Core/Src/main.cpp **** 
 1890              		.loc 1 377 31 discriminator 1 view .LVU513
 1891 0080 5948     		ldr	r0, .L109+4
 1892 0082 FFF7FEFF 		bl	__cxa_guard_acquire
 1893              	.LVL120:
 1894 0086 0028     		cmp	r0, #0
 1895 0088 C9D0     		beq	.L82
 1896              	.LVL121:
 1897              	.LBB488:
 1898              	.LBI488:
  17:Core/Inc/Timer.h ****     {
 1899              		.loc 5 17 5 is_stmt 1 discriminator 2 view .LVU514
 1900              	.LBB489:
 1901              	.LBB490:
  19:Core/Inc/Timer.h ****         this->lastTick = lastTick;
 1902              		.loc 5 19 9 discriminator 2 view .LVU515
  19:Core/Inc/Timer.h ****         this->lastTick = lastTick;
 1903              		.loc 5 19 25 is_stmt 0 discriminator 2 view .LVU516
 1904 008a 5C4B     		ldr	r3, .L109+24
 1905 008c 0022     		movs	r2, #0
 1906 008e 1A60     		str	r2, [r3]
  20:Core/Inc/Timer.h ****     }
 1907              		.loc 5 20 9 is_stmt 1 discriminator 2 view .LVU517
ARM GAS  C:\Users\Admin\AppData\Local\Temp\cctaKpna.s 			page 55


  20:Core/Inc/Timer.h ****     }
 1908              		.loc 5 20 24 is_stmt 0 discriminator 2 view .LVU518
 1909 0090 5A60     		str	r2, [r3, #4]
 1910              	.LVL122:
  20:Core/Inc/Timer.h ****     }
 1911              		.loc 5 20 24 discriminator 2 view .LVU519
 1912              	.LBE490:
 1913              	.LBE489:
 1914              	.LBE488:
 377:Core/Src/main.cpp **** 
 1915              		.loc 1 377 31 discriminator 2 view .LVU520
 1916 0092 5548     		ldr	r0, .L109+4
 1917 0094 FFF7FEFF 		bl	__cxa_guard_release
 1918              	.LVL123:
 1919 0098 C1E7     		b	.L82
 1920              	.L102:
 1921              	.LBB491:
 1922              	.LBB472:
 384:Core/Src/main.cpp ****       lock.turnOn();
 1923              		.loc 1 384 7 is_stmt 1 view .LVU521
 384:Core/Src/main.cpp ****       lock.turnOn();
 1924              		.loc 1 384 17 is_stmt 0 view .LVU522
 1925 009a 554B     		ldr	r3, .L109+12
 1926 009c 0022     		movs	r2, #0
 1927 009e 1A70     		strb	r2, [r3]
 385:Core/Src/main.cpp ****       lockTimer.start();
 1928              		.loc 1 385 7 is_stmt 1 view .LVU523
 1929              	.LVL124:
 1930              	.LBB401:
 1931              	.LBI401:
  28:Core/Inc/PinOut.h ****     {
 1932              		.loc 2 28 10 view .LVU524
 1933              	.LBE401:
 1934              	.LBE472:
 1935              	.LBE491:
  30:Core/Inc/PinOut.h ****     }
 1936              		.loc 2 30 9 view .LVU525
 1937              	.LBB492:
 1938              	.LBB473:
 1939              	.LBB404:
 1940              	.LBB402:
 1941              	.LBI402:
  38:Core/Inc/PinOut.h ****     {
 1942              		.loc 2 38 10 view .LVU526
 1943              	.LBB403:
  40:Core/Inc/PinOut.h ****         {
 1944              		.loc 2 40 9 view .LVU527
  42:Core/Inc/PinOut.h ****         }
 1945              		.loc 2 42 13 view .LVU528
  42:Core/Inc/PinOut.h ****         }
 1946              		.loc 2 42 30 is_stmt 0 view .LVU529
 1947 00a0 574B     		ldr	r3, .L109+28
 1948 00a2 0122     		movs	r2, #1
 1949 00a4 9988     		ldrh	r1, [r3, #4]
 1950 00a6 1868     		ldr	r0, [r3]
 1951 00a8 FFF7FEFF 		bl	HAL_GPIO_WritePin
 1952              	.LVL125:
ARM GAS  C:\Users\Admin\AppData\Local\Temp\cctaKpna.s 			page 56


  42:Core/Inc/PinOut.h ****         }
 1953              		.loc 2 42 30 view .LVU530
 1954              	.LBE403:
 1955              	.LBE402:
 1956              	.LBE404:
 386:Core/Src/main.cpp ****     }
 1957              		.loc 1 386 7 is_stmt 1 view .LVU531
 1958              	.LBB405:
 1959              	.LBI405:
  23:Core/Inc/Timer.h ****     {
 1960              		.loc 5 23 10 view .LVU532
 1961              	.LBB406:
  25:Core/Inc/Timer.h ****     }
 1962              		.loc 5 25 9 view .LVU533
  25:Core/Inc/Timer.h ****     }
 1963              		.loc 5 25 38 is_stmt 0 view .LVU534
 1964 00ac FFF7FEFF 		bl	HAL_GetTick
 1965              	.LVL126:
  25:Core/Inc/Timer.h ****     }
 1966              		.loc 5 25 25 view .LVU535
 1967 00b0 504B     		ldr	r3, .L109+16
 1968 00b2 1860     		str	r0, [r3]
  26:Core/Inc/Timer.h **** 
 1969              		.loc 5 26 5 view .LVU536
 1970 00b4 BAE7     		b	.L84
 1971              	.LVL127:
 1972              	.L103:
  26:Core/Inc/Timer.h **** 
 1973              		.loc 5 26 5 view .LVU537
 1974              	.LBE406:
 1975              	.LBE405:
 1976              	.LBB407:
 1977              	.LBB396:
  20:Core/Inc/InterruptPin.h ****             return true;
 1978              		.loc 3 20 13 is_stmt 1 view .LVU538
  20:Core/Inc/InterruptPin.h ****             return true;
 1979              		.loc 3 20 32 is_stmt 0 view .LVU539
 1980 00b6 504B     		ldr	r3, .L109+20
 1981 00b8 0022     		movs	r2, #0
 1982 00ba 9A71     		strb	r2, [r3, #6]
  21:Core/Inc/InterruptPin.h ****         }
 1983              		.loc 3 21 13 is_stmt 1 view .LVU540
 1984              	.LVL128:
  21:Core/Inc/InterruptPin.h ****         }
 1985              		.loc 3 21 13 is_stmt 0 view .LVU541
 1986              	.LBE396:
 1987              	.LBE407:
 1988              	.LBB408:
 1989              	.LBI408:
  24:Core/Inc/PinIn.h ****     {
 1990              		.loc 4 24 11 is_stmt 1 view .LVU542
 1991              	.LBB409:
  26:Core/Inc/PinIn.h ****         {
 1992              		.loc 4 26 9 view .LVU543
  26:Core/Inc/PinIn.h ****         {
 1993              		.loc 4 26 29 is_stmt 0 view .LVU544
 1994 00bc 9988     		ldrh	r1, [r3, #4]
ARM GAS  C:\Users\Admin\AppData\Local\Temp\cctaKpna.s 			page 57


 1995 00be 1868     		ldr	r0, [r3]
 1996 00c0 FFF7FEFF 		bl	HAL_GPIO_ReadPin
 1997              	.LVL129:
  26:Core/Inc/PinIn.h ****         {
 1998              		.loc 4 26 9 view .LVU545
 1999 00c4 0128     		cmp	r0, #1
 2000 00c6 40D0     		beq	.L96
 2001              		.loc 4 31 23 view .LVU546
 2002 00c8 2346     		mov	r3, r4
 2003              	.L87:
 2004              	.LVL130:
 2005              		.loc 4 31 23 view .LVU547
 2006              	.LBE409:
 2007              	.LBE408:
 389:Core/Src/main.cpp ****     {
 2008              		.loc 1 389 60 view .LVU548
 2009 00ca 002B     		cmp	r3, #0
 2010 00cc BBD1     		bne	.L86
 2011              	.L85:
 408:Core/Src/main.cpp ****     {
 2012              		.loc 1 408 10 is_stmt 1 discriminator 6 view .LVU549
 2013              	.LVL131:
 2014              	.LBB411:
 2015              	.LBI411:
  24:Core/Inc/PinIn.h ****     {
 2016              		.loc 4 24 11 discriminator 6 view .LVU550
 2017              	.LBB412:
  26:Core/Inc/PinIn.h ****         {
 2018              		.loc 4 26 9 discriminator 6 view .LVU551
  26:Core/Inc/PinIn.h ****         {
 2019              		.loc 4 26 29 is_stmt 0 discriminator 6 view .LVU552
 2020 00ce 4A4B     		ldr	r3, .L109+20
 2021 00d0 9988     		ldrh	r1, [r3, #4]
 2022 00d2 1868     		ldr	r0, [r3]
 2023 00d4 FFF7FEFF 		bl	HAL_GPIO_ReadPin
 2024              	.LVL132:
  26:Core/Inc/PinIn.h ****         {
 2025              		.loc 4 26 9 discriminator 6 view .LVU553
 2026 00d8 0128     		cmp	r0, #1
 2027 00da 38D0     		beq	.L106
 2028              	.L90:
 2029              	.LVL133:
  26:Core/Inc/PinIn.h ****         {
 2030              		.loc 4 26 9 discriminator 6 view .LVU554
 2031              	.LBE412:
 2032              	.LBE411:
 408:Core/Src/main.cpp ****     {
 2033              		.loc 1 408 10 view .LVU555
 2034 00dc 012C     		cmp	r4, #1
 2035 00de 6ED0     		beq	.L107
 415:Core/Src/main.cpp ****                                                       : UART_Printf("Door was closed. Closing the r
 2036              		.loc 1 415 7 is_stmt 1 view .LVU556
 415:Core/Src/main.cpp ****                                                       : UART_Printf("Door was closed. Closing the r
 2037              		.loc 1 415 18 is_stmt 0 view .LVU557
 2038 00e0 FFF7FEFF 		bl	HAL_GetTick
 2039              	.LVL134:
 2040              	.LBB414:
ARM GAS  C:\Users\Admin\AppData\Local\Temp\cctaKpna.s 			page 58


 2041              	.LBI414:
  28:Core/Inc/Timer.h ****     {
 2042              		.loc 5 28 14 is_stmt 1 view .LVU558
 2043              	.LBB415:
  30:Core/Inc/Timer.h ****     }
 2044              		.loc 5 30 9 view .LVU559
  30:Core/Inc/Timer.h ****     }
 2045              		.loc 5 30 22 is_stmt 0 view .LVU560
 2046 00e4 434B     		ldr	r3, .L109+16
 2047 00e6 1B68     		ldr	r3, [r3]
 2048              	.LVL135:
  30:Core/Inc/Timer.h ****     }
 2049              		.loc 5 30 22 view .LVU561
 2050              	.LBE415:
 2051              	.LBE414:
 415:Core/Src/main.cpp ****                                                       : UART_Printf("Door was closed. Closing the r
 2052              		.loc 1 415 21 view .LVU562
 2053 00e8 C01A     		subs	r0, r0, r3
 415:Core/Src/main.cpp ****                                                       : UART_Printf("Door was closed. Closing the r
 2054              		.loc 1 415 55 view .LVU563
 2055 00ea 41F28833 		movw	r3, #5000
 2056 00ee 9842     		cmp	r0, r3
 2057 00f0 6CD9     		bls	.L93
 415:Core/Src/main.cpp ****                                                       : UART_Printf("Door was closed. Closing the r
 2058              		.loc 1 415 68 discriminator 1 view .LVU564
 2059 00f2 4448     		ldr	r0, .L109+32
 2060 00f4 FFF7FEFF 		bl	_Z11UART_PrintfPKcz
 2061              	.LVL136:
 2062              	.L94:
 418:Core/Src/main.cpp ****       {
 2063              		.loc 1 418 7 is_stmt 1 view .LVU565
 418:Core/Src/main.cpp ****       {
 2064              		.loc 1 418 24 is_stmt 0 view .LVU566
 2065 00f8 434B     		ldr	r3, .L109+36
 2066 00fa 1B68     		ldr	r3, [r3]
 418:Core/Src/main.cpp ****       {
 2067              		.loc 1 418 7 view .LVU567
 2068 00fc 032B     		cmp	r3, #3
 2069 00fe 69D0     		beq	.L108
 2070              	.L95:
 424:Core/Src/main.cpp ****       firstTime = true;
 2071              		.loc 1 424 7 is_stmt 1 view .LVU568
 424:Core/Src/main.cpp ****       firstTime = true;
 2072              		.loc 1 424 16 is_stmt 0 view .LVU569
 2073 0100 3A4B     		ldr	r3, .L109+8
 2074 0102 0422     		movs	r2, #4
 2075 0104 1A60     		str	r2, [r3]
 425:Core/Src/main.cpp ****       lock.turnOff();
 2076              		.loc 1 425 7 is_stmt 1 view .LVU570
 425:Core/Src/main.cpp ****       lock.turnOff();
 2077              		.loc 1 425 17 is_stmt 0 view .LVU571
 2078 0106 0124     		movs	r4, #1
 2079 0108 394B     		ldr	r3, .L109+12
 2080 010a 1C70     		strb	r4, [r3]
 426:Core/Src/main.cpp ****       insideZumer.turnOn();
 2081              		.loc 1 426 7 is_stmt 1 view .LVU572
 2082              	.LVL137:
ARM GAS  C:\Users\Admin\AppData\Local\Temp\cctaKpna.s 			page 59


 2083              	.LBB416:
 2084              	.LBI416:
  33:Core/Inc/PinOut.h ****     {
 2085              		.loc 2 33 10 view .LVU573
 2086              	.LBE416:
 2087              	.LBE473:
 2088              	.LBE492:
  35:Core/Inc/PinOut.h ****     }
 2089              		.loc 2 35 9 view .LVU574
 2090              	.LBB493:
 2091              	.LBB474:
 2092              	.LBB419:
 2093              	.LBB417:
 2094              	.LBI417:
  38:Core/Inc/PinOut.h ****     {
 2095              		.loc 2 38 10 view .LVU575
 2096              	.LBB418:
  40:Core/Inc/PinOut.h ****         {
 2097              		.loc 2 40 9 view .LVU576
  44:Core/Inc/PinOut.h ****         {
 2098              		.loc 2 44 14 view .LVU577
 2099              		.loc 2 46 13 view .LVU578
 2100              		.loc 2 46 30 is_stmt 0 view .LVU579
 2101 010c 3C4B     		ldr	r3, .L109+28
 2102 010e 0022     		movs	r2, #0
 2103 0110 9988     		ldrh	r1, [r3, #4]
 2104 0112 1868     		ldr	r0, [r3]
 2105 0114 FFF7FEFF 		bl	HAL_GPIO_WritePin
 2106              	.LVL138:
 2107              		.loc 2 46 30 view .LVU580
 2108              	.LBE418:
 2109              	.LBE417:
 2110              	.LBE419:
 427:Core/Src/main.cpp ****       outsideZumer.turnOn();
 2111              		.loc 1 427 7 is_stmt 1 view .LVU581
 2112              	.LBB420:
 2113              	.LBI420:
  28:Core/Inc/PinOut.h ****     {
 2114              		.loc 2 28 10 view .LVU582
 2115              	.LBE420:
 2116              	.LBE474:
 2117              	.LBE493:
  30:Core/Inc/PinOut.h ****     }
 2118              		.loc 2 30 9 view .LVU583
 2119              	.LBB494:
 2120              	.LBB475:
 2121              	.LBB423:
 2122              	.LBB421:
 2123              	.LBI421:
  38:Core/Inc/PinOut.h ****     {
 2124              		.loc 2 38 10 view .LVU584
 2125              	.LBB422:
  40:Core/Inc/PinOut.h ****         {
 2126              		.loc 2 40 9 view .LVU585
  42:Core/Inc/PinOut.h ****         }
 2127              		.loc 2 42 13 view .LVU586
  42:Core/Inc/PinOut.h ****         }
ARM GAS  C:\Users\Admin\AppData\Local\Temp\cctaKpna.s 			page 60


 2128              		.loc 2 42 30 is_stmt 0 view .LVU587
 2129 0118 3C4B     		ldr	r3, .L109+40
 2130 011a 2246     		mov	r2, r4
 2131 011c 9988     		ldrh	r1, [r3, #4]
 2132 011e 1868     		ldr	r0, [r3]
 2133 0120 FFF7FEFF 		bl	HAL_GPIO_WritePin
 2134              	.LVL139:
  42:Core/Inc/PinOut.h ****         }
 2135              		.loc 2 42 30 view .LVU588
 2136              	.LBE422:
 2137              	.LBE421:
 2138              	.LBE423:
 428:Core/Src/main.cpp ****       insideGreenLed.turnOn();
 2139              		.loc 1 428 7 is_stmt 1 view .LVU589
 2140              	.LBB424:
 2141              	.LBI424:
  28:Core/Inc/PinOut.h ****     {
 2142              		.loc 2 28 10 view .LVU590
 2143              	.LBE424:
 2144              	.LBE475:
 2145              	.LBE494:
  30:Core/Inc/PinOut.h ****     }
 2146              		.loc 2 30 9 view .LVU591
 2147              	.LBB495:
 2148              	.LBB476:
 2149              	.LBB427:
 2150              	.LBB425:
 2151              	.LBI425:
  38:Core/Inc/PinOut.h ****     {
 2152              		.loc 2 38 10 view .LVU592
 2153              	.LBB426:
  40:Core/Inc/PinOut.h ****         {
 2154              		.loc 2 40 9 view .LVU593
  42:Core/Inc/PinOut.h ****         }
 2155              		.loc 2 42 13 view .LVU594
  42:Core/Inc/PinOut.h ****         }
 2156              		.loc 2 42 30 is_stmt 0 view .LVU595
 2157 0124 3A4B     		ldr	r3, .L109+44
 2158 0126 2246     		mov	r2, r4
 2159 0128 9988     		ldrh	r1, [r3, #4]
 2160 012a 1868     		ldr	r0, [r3]
 2161 012c FFF7FEFF 		bl	HAL_GPIO_WritePin
 2162              	.LVL140:
  42:Core/Inc/PinOut.h ****         }
 2163              		.loc 2 42 30 view .LVU596
 2164              	.LBE426:
 2165              	.LBE425:
 2166              	.LBE427:
 429:Core/Src/main.cpp ****       outsideGreenLed.turnOn();
 2167              		.loc 1 429 7 is_stmt 1 view .LVU597
 2168              	.LBB428:
 2169              	.LBI428:
  28:Core/Inc/PinOut.h ****     {
 2170              		.loc 2 28 10 view .LVU598
 2171              	.LBE428:
 2172              	.LBE476:
 2173              	.LBE495:
ARM GAS  C:\Users\Admin\AppData\Local\Temp\cctaKpna.s 			page 61


  30:Core/Inc/PinOut.h ****     }
 2174              		.loc 2 30 9 view .LVU599
 2175              	.LBB496:
 2176              	.LBB477:
 2177              	.LBB431:
 2178              	.LBB429:
 2179              	.LBI429:
  38:Core/Inc/PinOut.h ****     {
 2180              		.loc 2 38 10 view .LVU600
 2181              	.LBB430:
  40:Core/Inc/PinOut.h ****         {
 2182              		.loc 2 40 9 view .LVU601
  42:Core/Inc/PinOut.h ****         }
 2183              		.loc 2 42 13 view .LVU602
  42:Core/Inc/PinOut.h ****         }
 2184              		.loc 2 42 30 is_stmt 0 view .LVU603
 2185 0130 384B     		ldr	r3, .L109+48
 2186 0132 2246     		mov	r2, r4
 2187 0134 9988     		ldrh	r1, [r3, #4]
 2188 0136 1868     		ldr	r0, [r3]
 2189 0138 FFF7FEFF 		bl	HAL_GPIO_WritePin
 2190              	.LVL141:
  42:Core/Inc/PinOut.h ****         }
 2191              		.loc 2 42 30 view .LVU604
 2192              	.LBE430:
 2193              	.LBE429:
 2194              	.LBE431:
 430:Core/Src/main.cpp ****     }
 2195              		.loc 1 430 7 is_stmt 1 view .LVU605
 2196              	.LBB432:
 2197              	.LBI432:
  28:Core/Inc/PinOut.h ****     {
 2198              		.loc 2 28 10 view .LVU606
 2199              	.LBB433:
  30:Core/Inc/PinOut.h ****     }
 2200              		.loc 2 30 9 view .LVU607
 2201              	.LBB434:
 2202              	.LBI434:
  38:Core/Inc/PinOut.h ****     {
 2203              		.loc 2 38 10 view .LVU608
 2204              	.LBB435:
  40:Core/Inc/PinOut.h ****         {
 2205              		.loc 2 40 9 view .LVU609
  42:Core/Inc/PinOut.h ****         }
 2206              		.loc 2 42 13 view .LVU610
  42:Core/Inc/PinOut.h ****         }
 2207              		.loc 2 42 30 is_stmt 0 view .LVU611
 2208 013c 364B     		ldr	r3, .L109+52
 2209 013e 2246     		mov	r2, r4
 2210 0140 9988     		ldrh	r1, [r3, #4]
 2211 0142 1868     		ldr	r0, [r3]
 2212 0144 FFF7FEFF 		bl	HAL_GPIO_WritePin
 2213              	.LVL142:
  42:Core/Inc/PinOut.h ****         }
 2214              		.loc 2 42 30 view .LVU612
 2215              	.LBE435:
 2216              	.LBE434:
ARM GAS  C:\Users\Admin\AppData\Local\Temp\cctaKpna.s 			page 62


 2217              	.LBE433:
 2218              	.LBE432:
 2219              	.LBE477:
 2220              	.LBE496:
 433:Core/Src/main.cpp **** 
 2221              		.loc 1 433 1 view .LVU613
 2222 0148 8CE7     		b	.L80
 2223              	.LVL143:
 2224              	.L96:
 2225              	.LBB497:
 2226              	.LBB478:
 2227              	.LBB436:
 2228              	.LBB410:
  28:Core/Inc/PinIn.h ****         }
 2229              		.loc 4 28 27 view .LVU614
 2230 014a 0123     		movs	r3, #1
 2231 014c BDE7     		b	.L87
 2232              	.LVL144:
 2233              	.L106:
  28:Core/Inc/PinIn.h ****         }
 2234              		.loc 4 28 27 view .LVU615
 2235              	.LBE410:
 2236              	.LBE436:
 2237              	.LBB437:
 2238              	.LBB413:
 2239 014e 0124     		movs	r4, #1
 2240 0150 C4E7     		b	.L90
 2241              	.LVL145:
 2242              	.L104:
  28:Core/Inc/PinIn.h ****         }
 2243              		.loc 4 28 27 view .LVU616
 2244              	.LBE413:
 2245              	.LBE437:
 393:Core/Src/main.cpp ****         insideZumer.turnOff();
 2246              		.loc 1 393 9 is_stmt 1 view .LVU617
 2247              	.LBB438:
 2248              	.LBI438:
  33:Core/Inc/Timer.h ****     {
 2249              		.loc 5 33 10 view .LVU618
 2250              	.LBB439:
  35:Core/Inc/Timer.h ****     }
 2251              		.loc 5 35 9 view .LVU619
  35:Core/Inc/Timer.h ****     }
 2252              		.loc 5 35 37 is_stmt 0 view .LVU620
 2253 0152 FFF7FEFF 		bl	HAL_GetTick
 2254              	.LVL146:
  35:Core/Inc/Timer.h ****     }
 2255              		.loc 5 35 24 view .LVU621
 2256 0156 294B     		ldr	r3, .L109+24
 2257 0158 5860     		str	r0, [r3, #4]
 2258              	.LVL147:
  35:Core/Inc/Timer.h ****     }
 2259              		.loc 5 35 24 view .LVU622
 2260              	.LBE439:
 2261              	.LBE438:
 394:Core/Src/main.cpp ****         outsideZumer.turnOff();
 2262              		.loc 1 394 9 is_stmt 1 view .LVU623
ARM GAS  C:\Users\Admin\AppData\Local\Temp\cctaKpna.s 			page 63


 2263              	.LBB440:
 2264              	.LBI440:
  33:Core/Inc/PinOut.h ****     {
 2265              		.loc 2 33 10 view .LVU624
 2266              	.LBE440:
 2267              	.LBE478:
 2268              	.LBE497:
  35:Core/Inc/PinOut.h ****     }
 2269              		.loc 2 35 9 view .LVU625
 2270              	.LBB498:
 2271              	.LBB479:
 2272              	.LBB443:
 2273              	.LBB441:
 2274              	.LBI441:
  38:Core/Inc/PinOut.h ****     {
 2275              		.loc 2 38 10 view .LVU626
 2276              	.LBB442:
  40:Core/Inc/PinOut.h ****         {
 2277              		.loc 2 40 9 view .LVU627
  44:Core/Inc/PinOut.h ****         {
 2278              		.loc 2 44 14 view .LVU628
 2279              		.loc 2 46 13 view .LVU629
 2280              		.loc 2 46 30 is_stmt 0 view .LVU630
 2281 015a 2C4B     		ldr	r3, .L109+40
 2282 015c 0022     		movs	r2, #0
 2283 015e 9988     		ldrh	r1, [r3, #4]
 2284 0160 1868     		ldr	r0, [r3]
 2285 0162 FFF7FEFF 		bl	HAL_GPIO_WritePin
 2286              	.LVL148:
 2287              		.loc 2 46 30 view .LVU631
 2288              	.LBE442:
 2289              	.LBE441:
 2290              	.LBE443:
 395:Core/Src/main.cpp ****         insideGreenLed.turnOff();
 2291              		.loc 1 395 9 is_stmt 1 view .LVU632
 2292              	.LBB444:
 2293              	.LBI444:
  33:Core/Inc/PinOut.h ****     {
 2294              		.loc 2 33 10 view .LVU633
 2295              	.LBE444:
 2296              	.LBE479:
 2297              	.LBE498:
  35:Core/Inc/PinOut.h ****     }
 2298              		.loc 2 35 9 view .LVU634
 2299              	.LBB499:
 2300              	.LBB480:
 2301              	.LBB447:
 2302              	.LBB445:
 2303              	.LBI445:
  38:Core/Inc/PinOut.h ****     {
 2304              		.loc 2 38 10 view .LVU635
 2305              	.LBB446:
  40:Core/Inc/PinOut.h ****         {
 2306              		.loc 2 40 9 view .LVU636
  44:Core/Inc/PinOut.h ****         {
 2307              		.loc 2 44 14 view .LVU637
 2308              		.loc 2 46 13 view .LVU638
ARM GAS  C:\Users\Admin\AppData\Local\Temp\cctaKpna.s 			page 64


 2309              		.loc 2 46 30 is_stmt 0 view .LVU639
 2310 0166 2A4B     		ldr	r3, .L109+44
 2311 0168 0022     		movs	r2, #0
 2312 016a 9988     		ldrh	r1, [r3, #4]
 2313 016c 1868     		ldr	r0, [r3]
 2314 016e FFF7FEFF 		bl	HAL_GPIO_WritePin
 2315              	.LVL149:
 2316              		.loc 2 46 30 view .LVU640
 2317              	.LBE446:
 2318              	.LBE445:
 2319              	.LBE447:
 396:Core/Src/main.cpp ****         outsideGreenLed.turnOff();
 2320              		.loc 1 396 9 is_stmt 1 view .LVU641
 2321              	.LBB448:
 2322              	.LBI448:
  33:Core/Inc/PinOut.h ****     {
 2323              		.loc 2 33 10 view .LVU642
 2324              	.LBE448:
 2325              	.LBE480:
 2326              	.LBE499:
  35:Core/Inc/PinOut.h ****     }
 2327              		.loc 2 35 9 view .LVU643
 2328              	.LBB500:
 2329              	.LBB481:
 2330              	.LBB451:
 2331              	.LBB449:
 2332              	.LBI449:
  38:Core/Inc/PinOut.h ****     {
 2333              		.loc 2 38 10 view .LVU644
 2334              	.LBB450:
  40:Core/Inc/PinOut.h ****         {
 2335              		.loc 2 40 9 view .LVU645
  44:Core/Inc/PinOut.h ****         {
 2336              		.loc 2 44 14 view .LVU646
 2337              		.loc 2 46 13 view .LVU647
 2338              		.loc 2 46 30 is_stmt 0 view .LVU648
 2339 0172 284B     		ldr	r3, .L109+48
 2340 0174 0022     		movs	r2, #0
 2341 0176 9988     		ldrh	r1, [r3, #4]
 2342 0178 1868     		ldr	r0, [r3]
 2343 017a FFF7FEFF 		bl	HAL_GPIO_WritePin
 2344              	.LVL150:
 2345              		.loc 2 46 30 view .LVU649
 2346              	.LBE450:
 2347              	.LBE449:
 2348              	.LBE451:
 397:Core/Src/main.cpp ****       }
 2349              		.loc 1 397 9 is_stmt 1 view .LVU650
 2350              	.LBB452:
 2351              	.LBI452:
  33:Core/Inc/PinOut.h ****     {
 2352              		.loc 2 33 10 view .LVU651
 2353              	.LBB453:
  35:Core/Inc/PinOut.h ****     }
 2354              		.loc 2 35 9 view .LVU652
 2355              	.LBB454:
 2356              	.LBI454:
ARM GAS  C:\Users\Admin\AppData\Local\Temp\cctaKpna.s 			page 65


  38:Core/Inc/PinOut.h ****     {
 2357              		.loc 2 38 10 view .LVU653
 2358              	.LBB455:
  40:Core/Inc/PinOut.h ****         {
 2359              		.loc 2 40 9 view .LVU654
  44:Core/Inc/PinOut.h ****         {
 2360              		.loc 2 44 14 view .LVU655
 2361              		.loc 2 46 13 view .LVU656
 2362              		.loc 2 46 30 is_stmt 0 view .LVU657
 2363 017e 264B     		ldr	r3, .L109+52
 2364 0180 0022     		movs	r2, #0
 2365 0182 9988     		ldrh	r1, [r3, #4]
 2366 0184 1868     		ldr	r0, [r3]
 2367 0186 FFF7FEFF 		bl	HAL_GPIO_WritePin
 2368              	.LVL151:
 2369              		.loc 2 46 30 view .LVU658
 2370              	.LBE455:
 2371              	.LBE454:
  36:Core/Inc/PinOut.h **** 
 2372              		.loc 2 36 5 view .LVU659
 2373 018a 63E7     		b	.L89
 2374              	.LVL152:
 2375              	.L105:
  36:Core/Inc/PinOut.h **** 
 2376              		.loc 2 36 5 view .LVU660
 2377              	.LBE453:
 2378              	.LBE452:
 402:Core/Src/main.cpp ****         outsideZumer.turnOn();
 2379              		.loc 1 402 9 is_stmt 1 view .LVU661
 2380              	.LBB456:
 2381              	.LBI456:
  28:Core/Inc/PinOut.h ****     {
 2382              		.loc 2 28 10 view .LVU662
 2383              	.LBE456:
 2384              	.LBE481:
 2385              	.LBE500:
  30:Core/Inc/PinOut.h ****     }
 2386              		.loc 2 30 9 view .LVU663
 2387              	.LBB501:
 2388              	.LBB482:
 2389              	.LBB459:
 2390              	.LBB457:
 2391              	.LBI457:
  38:Core/Inc/PinOut.h ****     {
 2392              		.loc 2 38 10 view .LVU664
 2393              	.LBB458:
  40:Core/Inc/PinOut.h ****         {
 2394              		.loc 2 40 9 view .LVU665
  42:Core/Inc/PinOut.h ****         }
 2395              		.loc 2 42 13 view .LVU666
  42:Core/Inc/PinOut.h ****         }
 2396              		.loc 2 42 30 is_stmt 0 view .LVU667
 2397 018c 1F4B     		ldr	r3, .L109+40
 2398 018e 0122     		movs	r2, #1
 2399 0190 9988     		ldrh	r1, [r3, #4]
 2400 0192 1868     		ldr	r0, [r3]
 2401 0194 FFF7FEFF 		bl	HAL_GPIO_WritePin
ARM GAS  C:\Users\Admin\AppData\Local\Temp\cctaKpna.s 			page 66


 2402              	.LVL153:
  42:Core/Inc/PinOut.h ****         }
 2403              		.loc 2 42 30 view .LVU668
 2404              	.LBE458:
 2405              	.LBE457:
 2406              	.LBE459:
 403:Core/Src/main.cpp ****         insideGreenLed.turnOn();
 2407              		.loc 1 403 9 is_stmt 1 view .LVU669
 2408              	.LBB460:
 2409              	.LBI460:
  28:Core/Inc/PinOut.h ****     {
 2410              		.loc 2 28 10 view .LVU670
 2411              	.LBE460:
 2412              	.LBE482:
 2413              	.LBE501:
  30:Core/Inc/PinOut.h ****     }
 2414              		.loc 2 30 9 view .LVU671
 2415              	.LBB502:
 2416              	.LBB483:
 2417              	.LBB463:
 2418              	.LBB461:
 2419              	.LBI461:
  38:Core/Inc/PinOut.h ****     {
 2420              		.loc 2 38 10 view .LVU672
 2421              	.LBB462:
  40:Core/Inc/PinOut.h ****         {
 2422              		.loc 2 40 9 view .LVU673
  42:Core/Inc/PinOut.h ****         }
 2423              		.loc 2 42 13 view .LVU674
  42:Core/Inc/PinOut.h ****         }
 2424              		.loc 2 42 30 is_stmt 0 view .LVU675
 2425 0198 1D4B     		ldr	r3, .L109+44
 2426 019a 0122     		movs	r2, #1
 2427 019c 9988     		ldrh	r1, [r3, #4]
 2428 019e 1868     		ldr	r0, [r3]
 2429 01a0 FFF7FEFF 		bl	HAL_GPIO_WritePin
 2430              	.LVL154:
  42:Core/Inc/PinOut.h ****         }
 2431              		.loc 2 42 30 view .LVU676
 2432              	.LBE462:
 2433              	.LBE461:
 2434              	.LBE463:
 404:Core/Src/main.cpp ****         outsideGreenLed.turnOn();
 2435              		.loc 1 404 9 is_stmt 1 view .LVU677
 2436              	.LBB464:
 2437              	.LBI464:
  28:Core/Inc/PinOut.h ****     {
 2438              		.loc 2 28 10 view .LVU678
 2439              	.LBE464:
 2440              	.LBE483:
 2441              	.LBE502:
  30:Core/Inc/PinOut.h ****     }
 2442              		.loc 2 30 9 view .LVU679
 2443              	.LBB503:
 2444              	.LBB484:
 2445              	.LBB467:
 2446              	.LBB465:
ARM GAS  C:\Users\Admin\AppData\Local\Temp\cctaKpna.s 			page 67


 2447              	.LBI465:
  38:Core/Inc/PinOut.h ****     {
 2448              		.loc 2 38 10 view .LVU680
 2449              	.LBB466:
  40:Core/Inc/PinOut.h ****         {
 2450              		.loc 2 40 9 view .LVU681
  42:Core/Inc/PinOut.h ****         }
 2451              		.loc 2 42 13 view .LVU682
  42:Core/Inc/PinOut.h ****         }
 2452              		.loc 2 42 30 is_stmt 0 view .LVU683
 2453 01a4 1B4B     		ldr	r3, .L109+48
 2454 01a6 0122     		movs	r2, #1
 2455 01a8 9988     		ldrh	r1, [r3, #4]
 2456 01aa 1868     		ldr	r0, [r3]
 2457 01ac FFF7FEFF 		bl	HAL_GPIO_WritePin
 2458              	.LVL155:
  42:Core/Inc/PinOut.h ****         }
 2459              		.loc 2 42 30 view .LVU684
 2460              	.LBE466:
 2461              	.LBE465:
 2462              	.LBE467:
 405:Core/Src/main.cpp ****       }
 2463              		.loc 1 405 9 is_stmt 1 view .LVU685
 2464              	.LBB468:
 2465              	.LBI468:
  28:Core/Inc/PinOut.h ****     {
 2466              		.loc 2 28 10 view .LVU686
 2467              	.LBB469:
  30:Core/Inc/PinOut.h ****     }
 2468              		.loc 2 30 9 view .LVU687
 2469              	.LBB470:
 2470              	.LBI470:
  38:Core/Inc/PinOut.h ****     {
 2471              		.loc 2 38 10 view .LVU688
 2472              	.LBB471:
  40:Core/Inc/PinOut.h ****         {
 2473              		.loc 2 40 9 view .LVU689
  42:Core/Inc/PinOut.h ****         }
 2474              		.loc 2 42 13 view .LVU690
  42:Core/Inc/PinOut.h ****         }
 2475              		.loc 2 42 30 is_stmt 0 view .LVU691
 2476 01b0 194B     		ldr	r3, .L109+52
 2477 01b2 0122     		movs	r2, #1
 2478 01b4 9988     		ldrh	r1, [r3, #4]
 2479 01b6 1868     		ldr	r0, [r3]
 2480 01b8 FFF7FEFF 		bl	HAL_GPIO_WritePin
 2481              	.LVL156:
  42:Core/Inc/PinOut.h ****         }
 2482              		.loc 2 42 30 view .LVU692
 2483              	.LBE471:
 2484              	.LBE470:
  31:Core/Inc/PinOut.h **** 
 2485              		.loc 2 31 5 view .LVU693
 2486 01bc 52E7     		b	.L80
 2487              	.LVL157:
 2488              	.L107:
  31:Core/Inc/PinOut.h **** 
ARM GAS  C:\Users\Admin\AppData\Local\Temp\cctaKpna.s 			page 68


 2489              		.loc 2 31 5 view .LVU694
 2490              	.LBE469:
 2491              	.LBE468:
 410:Core/Src/main.cpp ****       workMode = WorkMode::TempAlarmMode;
 2492              		.loc 1 410 7 is_stmt 1 view .LVU695
 410:Core/Src/main.cpp ****       workMode = WorkMode::TempAlarmMode;
 2493              		.loc 1 410 18 is_stmt 0 view .LVU696
 2494 01be 1748     		ldr	r0, .L109+56
 2495 01c0 FFF7FEFF 		bl	_Z11UART_PrintfPKcz
 2496              	.LVL158:
 411:Core/Src/main.cpp ****     }
 2497              		.loc 1 411 7 is_stmt 1 view .LVU697
 411:Core/Src/main.cpp ****     }
 2498              		.loc 1 411 16 is_stmt 0 view .LVU698
 2499 01c4 094B     		ldr	r3, .L109+8
 2500 01c6 0222     		movs	r2, #2
 2501 01c8 1A60     		str	r2, [r3]
 2502 01ca 4BE7     		b	.L80
 2503              	.L93:
 416:Core/Src/main.cpp **** 
 2504              		.loc 1 416 68 view .LVU699
 2505 01cc 1448     		ldr	r0, .L109+60
 2506 01ce FFF7FEFF 		bl	_Z11UART_PrintfPKcz
 2507              	.LVL159:
 2508 01d2 91E7     		b	.L94
 2509              	.L108:
 420:Core/Src/main.cpp ****         intercomMode = IntercomMode::OpenMode;
 2510              		.loc 1 420 9 is_stmt 1 view .LVU700
 420:Core/Src/main.cpp ****         intercomMode = IntercomMode::OpenMode;
 2511              		.loc 1 420 20 is_stmt 0 view .LVU701
 2512 01d4 1348     		ldr	r0, .L109+64
 2513 01d6 FFF7FEFF 		bl	_Z11UART_PrintfPKcz
 2514              	.LVL160:
 421:Core/Src/main.cpp ****       }
 2515              		.loc 1 421 9 is_stmt 1 view .LVU702
 421:Core/Src/main.cpp ****       }
 2516              		.loc 1 421 22 is_stmt 0 view .LVU703
 2517 01da 0B4B     		ldr	r3, .L109+36
 2518 01dc 0222     		movs	r2, #2
 2519 01de 1A60     		str	r2, [r3]
 2520 01e0 8EE7     		b	.L95
 2521              	.L110:
 2522 01e2 00BF     		.align	2
 2523              	.L109:
 2524 01e4 00000000 		.word	.LANCHOR22
 2525 01e8 00000000 		.word	.LANCHOR24
 2526 01ec 00000000 		.word	.LANCHOR9
 2527 01f0 00000000 		.word	.LANCHOR26
 2528 01f4 00000000 		.word	.LANCHOR23
 2529 01f8 00000000 		.word	.LANCHOR0
 2530 01fc 00000000 		.word	.LANCHOR25
 2531 0200 00000000 		.word	.LANCHOR1
 2532 0204 38000000 		.word	.LC6
 2533 0208 00000000 		.word	.LANCHOR27
 2534 020c 00000000 		.word	.LANCHOR3
 2535 0210 00000000 		.word	.LANCHOR4
 2536 0214 00000000 		.word	.LANCHOR5
ARM GAS  C:\Users\Admin\AppData\Local\Temp\cctaKpna.s 			page 69


 2537 0218 00000000 		.word	.LANCHOR6
 2538 021c 00000000 		.word	.LC5
 2539 0220 64000000 		.word	.LC7
 2540 0224 8C000000 		.word	.LC8
 2541              	.LBE484:
 2542              	.LBE503:
 2543              		.cfi_endproc
 2544              	.LFE114:
 2545              		.fnend
 2547              		.section	.rodata._Z14TempAlarmEventv.str1.4,"aMS",%progbits,1
 2548              		.align	2
 2549              	.LC9:
 2550 0000 446F6F72 		.ascii	"Door was closed.\015\012\000"
 2550      20776173 
 2550      20636C6F 
 2550      7365642E 
 2550      0D0A00
 2551              		.section	.text._Z14TempAlarmEventv,"ax",%progbits
 2552              		.align	1
 2553              		.global	_Z14TempAlarmEventv
 2554              		.syntax unified
 2555              		.thumb
 2556              		.thumb_func
 2557              		.fpu softvfp
 2559              	_Z14TempAlarmEventv:
 2560              		.fnstart
 2561              	.LFB115:
 436:Core/Src/main.cpp ****   static Timer sirenTimer(0, 0);
 2562              		.loc 1 436 1 is_stmt 1 view -0
 2563              		.cfi_startproc
 2564              		@ args = 0, pretend = 0, frame = 0
 2565              		@ frame_needed = 0, uses_anonymous_args = 0
 2566 0000 08B5     		push	{r3, lr}
 2567              		.save {r3, lr}
 2568              	.LCFI21:
 2569              		.cfi_def_cfa_offset 8
 2570              		.cfi_offset 3, -8
 2571              		.cfi_offset 14, -4
 437:Core/Src/main.cpp **** 
 2572              		.loc 1 437 3 view .LVU705
 437:Core/Src/main.cpp **** 
 2573              		.loc 1 437 31 is_stmt 0 view .LVU706
 2574 0002 2F4B     		ldr	r3, .L121
 2575 0004 1B78     		ldrb	r3, [r3]	@ zero_extendqisi2
 2576 0006 BFF35B8F 		dmb	ish
 2577 000a 13F0010F 		tst	r3, #1
 2578 000e 04D0     		beq	.L119
 2579              	.L112:
 439:Core/Src/main.cpp ****   {
 2580              		.loc 1 439 3 is_stmt 1 view .LVU707
 439:Core/Src/main.cpp ****   {
 2581              		.loc 1 439 16 is_stmt 0 view .LVU708
 2582 0010 2C4B     		ldr	r3, .L121+4
 2583 0012 1B68     		ldr	r3, [r3]
 439:Core/Src/main.cpp ****   {
 2584              		.loc 1 439 3 view .LVU709
 2585 0014 022B     		cmp	r3, #2
ARM GAS  C:\Users\Admin\AppData\Local\Temp\cctaKpna.s 			page 70


 2586 0016 0DD0     		beq	.L120
 2587              	.L111:
 458:Core/Src/main.cpp **** 
 2588              		.loc 1 458 1 view .LVU710
 2589 0018 08BD     		pop	{r3, pc}
 2590              	.L119:
 437:Core/Src/main.cpp **** 
 2591              		.loc 1 437 31 discriminator 1 view .LVU711
 2592 001a 2948     		ldr	r0, .L121
 2593 001c FFF7FEFF 		bl	__cxa_guard_acquire
 2594              	.LVL161:
 2595 0020 0028     		cmp	r0, #0
 2596 0022 F5D0     		beq	.L112
 2597              	.LVL162:
 2598              	.LBB531:
 2599              	.LBI531:
  17:Core/Inc/Timer.h ****     {
 2600              		.loc 5 17 5 is_stmt 1 discriminator 2 view .LVU712
 2601              	.LBB532:
 2602              	.LBB533:
  19:Core/Inc/Timer.h ****         this->lastTick = lastTick;
 2603              		.loc 5 19 9 discriminator 2 view .LVU713
  19:Core/Inc/Timer.h ****         this->lastTick = lastTick;
 2604              		.loc 5 19 25 is_stmt 0 discriminator 2 view .LVU714
 2605 0024 284B     		ldr	r3, .L121+8
 2606 0026 0022     		movs	r2, #0
 2607 0028 1A60     		str	r2, [r3]
  20:Core/Inc/Timer.h ****     }
 2608              		.loc 5 20 9 is_stmt 1 discriminator 2 view .LVU715
  20:Core/Inc/Timer.h ****     }
 2609              		.loc 5 20 24 is_stmt 0 discriminator 2 view .LVU716
 2610 002a 5A60     		str	r2, [r3, #4]
 2611              	.LVL163:
  20:Core/Inc/Timer.h ****     }
 2612              		.loc 5 20 24 discriminator 2 view .LVU717
 2613              	.LBE533:
 2614              	.LBE532:
 2615              	.LBE531:
 437:Core/Src/main.cpp **** 
 2616              		.loc 1 437 31 discriminator 2 view .LVU718
 2617 002c 2448     		ldr	r0, .L121
 2618 002e FFF7FEFF 		bl	__cxa_guard_release
 2619              	.LVL164:
 2620 0032 EDE7     		b	.L112
 2621              	.L120:
 441:Core/Src/main.cpp ****     {
 2622              		.loc 1 441 5 is_stmt 1 view .LVU719
 441:Core/Src/main.cpp ****     {
 2623              		.loc 1 441 20 is_stmt 0 view .LVU720
 2624 0034 FFF7FEFF 		bl	HAL_GetTick
 2625              	.LVL165:
 2626              	.LBB534:
 2627              	.LBI534:
  38:Core/Inc/Timer.h ****     {
 2628              		.loc 5 38 14 is_stmt 1 view .LVU721
 2629              	.LBB535:
 2630              		.loc 5 40 9 view .LVU722
ARM GAS  C:\Users\Admin\AppData\Local\Temp\cctaKpna.s 			page 71


 2631              		.loc 5 40 22 is_stmt 0 view .LVU723
 2632 0038 234B     		ldr	r3, .L121+8
 2633 003a 5B68     		ldr	r3, [r3, #4]
 2634              	.LVL166:
 2635              		.loc 5 40 22 view .LVU724
 2636              	.LBE535:
 2637              	.LBE534:
 441:Core/Src/main.cpp ****     {
 2638              		.loc 1 441 23 view .LVU725
 2639 003c C01A     		subs	r0, r0, r3
 441:Core/Src/main.cpp ****     {
 2640              		.loc 1 441 5 view .LVU726
 2641 003e FA28     		cmp	r0, #250
 2642 0040 26D9     		bls	.L114
 443:Core/Src/main.cpp ****       siren.turnOn();
 2643              		.loc 1 443 7 is_stmt 1 view .LVU727
 2644              	.LVL167:
 2645              	.LBB536:
 2646              	.LBI536:
  33:Core/Inc/Timer.h ****     {
 2647              		.loc 5 33 10 view .LVU728
 2648              	.LBB537:
  35:Core/Inc/Timer.h ****     }
 2649              		.loc 5 35 9 view .LVU729
  35:Core/Inc/Timer.h ****     }
 2650              		.loc 5 35 37 is_stmt 0 view .LVU730
 2651 0042 FFF7FEFF 		bl	HAL_GetTick
 2652              	.LVL168:
  35:Core/Inc/Timer.h ****     }
 2653              		.loc 5 35 24 view .LVU731
 2654 0046 204B     		ldr	r3, .L121+8
 2655 0048 5860     		str	r0, [r3, #4]
 2656              	.LVL169:
  35:Core/Inc/Timer.h ****     }
 2657              		.loc 5 35 24 view .LVU732
 2658              	.LBE537:
 2659              	.LBE536:
 444:Core/Src/main.cpp ****     }
 2660              		.loc 1 444 7 is_stmt 1 view .LVU733
 2661              	.LBB538:
 2662              	.LBI538:
  28:Core/Inc/PinOut.h ****     {
 2663              		.loc 2 28 10 view .LVU734
 2664              	.LBB539:
  30:Core/Inc/PinOut.h ****     }
 2665              		.loc 2 30 9 view .LVU735
 2666              	.LBB540:
 2667              	.LBI540:
  38:Core/Inc/PinOut.h ****     {
 2668              		.loc 2 38 10 view .LVU736
 2669              	.LBB541:
  40:Core/Inc/PinOut.h ****         {
 2670              		.loc 2 40 9 view .LVU737
  42:Core/Inc/PinOut.h ****         }
 2671              		.loc 2 42 13 view .LVU738
  42:Core/Inc/PinOut.h ****         }
 2672              		.loc 2 42 30 is_stmt 0 view .LVU739
ARM GAS  C:\Users\Admin\AppData\Local\Temp\cctaKpna.s 			page 72


 2673 004a 204B     		ldr	r3, .L121+12
 2674 004c 0122     		movs	r2, #1
 2675 004e 9988     		ldrh	r1, [r3, #4]
 2676 0050 1868     		ldr	r0, [r3]
 2677 0052 FFF7FEFF 		bl	HAL_GPIO_WritePin
 2678              	.LVL170:
 2679              	.L115:
  42:Core/Inc/PinOut.h ****         }
 2680              		.loc 2 42 30 view .LVU740
 2681              	.LBE541:
 2682              	.LBE540:
 2683              	.LBE539:
 2684              	.LBE538:
 451:Core/Src/main.cpp ****     {
 2685              		.loc 1 451 5 is_stmt 1 view .LVU741
 2686              	.LBB542:
 2687              	.LBI542:
  16:Core/Inc/InterruptPin.h ****     {
 2688              		.loc 3 16 10 view .LVU742
 2689              	.LBB543:
  18:Core/Inc/InterruptPin.h ****         {
 2690              		.loc 3 18 9 view .LVU743
  18:Core/Inc/InterruptPin.h ****         {
 2691              		.loc 3 18 19 is_stmt 0 view .LVU744
 2692 0056 1E4B     		ldr	r3, .L121+16
 2693 0058 9B79     		ldrb	r3, [r3, #6]	@ zero_extendqisi2
  18:Core/Inc/InterruptPin.h ****         {
 2694              		.loc 3 18 9 view .LVU745
 2695 005a 002B     		cmp	r3, #0
 2696 005c DCD0     		beq	.L111
  20:Core/Inc/InterruptPin.h ****             return true;
 2697              		.loc 3 20 13 is_stmt 1 view .LVU746
  20:Core/Inc/InterruptPin.h ****             return true;
 2698              		.loc 3 20 32 is_stmt 0 view .LVU747
 2699 005e 1C4B     		ldr	r3, .L121+16
 2700 0060 0022     		movs	r2, #0
 2701 0062 9A71     		strb	r2, [r3, #6]
  21:Core/Inc/InterruptPin.h ****         }
 2702              		.loc 3 21 13 is_stmt 1 view .LVU748
 2703              	.LVL171:
  21:Core/Inc/InterruptPin.h ****         }
 2704              		.loc 3 21 13 is_stmt 0 view .LVU749
 2705              	.LBE543:
 2706              	.LBE542:
 2707              	.LBB544:
 2708              	.LBI544:
  24:Core/Inc/PinIn.h ****     {
 2709              		.loc 4 24 11 is_stmt 1 view .LVU750
 2710              	.LBB545:
  26:Core/Inc/PinIn.h ****         {
 2711              		.loc 4 26 9 view .LVU751
  26:Core/Inc/PinIn.h ****         {
 2712              		.loc 4 26 29 is_stmt 0 view .LVU752
 2713 0064 9988     		ldrh	r1, [r3, #4]
 2714 0066 1868     		ldr	r0, [r3]
 2715 0068 FFF7FEFF 		bl	HAL_GPIO_ReadPin
 2716              	.LVL172:
ARM GAS  C:\Users\Admin\AppData\Local\Temp\cctaKpna.s 			page 73


  26:Core/Inc/PinIn.h ****         {
 2717              		.loc 4 26 9 view .LVU753
 2718 006c 0128     		cmp	r0, #1
 2719 006e 24D0     		beq	.L117
 2720              		.loc 4 31 23 view .LVU754
 2721 0070 0023     		movs	r3, #0
 2722              	.L116:
 2723              	.LVL173:
 2724              		.loc 4 31 23 view .LVU755
 2725              	.LBE545:
 2726              	.LBE544:
 451:Core/Src/main.cpp ****     {
 2727              		.loc 1 451 31 view .LVU756
 2728 0072 002B     		cmp	r3, #0
 2729 0074 D0D1     		bne	.L111
 453:Core/Src/main.cpp ****       workMode = WorkMode::NoMode;
 2730              		.loc 1 453 7 is_stmt 1 view .LVU757
 453:Core/Src/main.cpp ****       workMode = WorkMode::NoMode;
 2731              		.loc 1 453 18 is_stmt 0 view .LVU758
 2732 0076 1748     		ldr	r0, .L121+20
 2733 0078 FFF7FEFF 		bl	_Z11UART_PrintfPKcz
 2734              	.LVL174:
 454:Core/Src/main.cpp ****       siren.turnOff();
 2735              		.loc 1 454 7 is_stmt 1 view .LVU759
 454:Core/Src/main.cpp ****       siren.turnOff();
 2736              		.loc 1 454 16 is_stmt 0 view .LVU760
 2737 007c 114B     		ldr	r3, .L121+4
 2738 007e 0422     		movs	r2, #4
 2739 0080 1A60     		str	r2, [r3]
 455:Core/Src/main.cpp ****     }
 2740              		.loc 1 455 7 is_stmt 1 view .LVU761
 2741              	.LVL175:
 2742              	.LBB547:
 2743              	.LBI547:
  33:Core/Inc/PinOut.h ****     {
 2744              		.loc 2 33 10 view .LVU762
 2745              	.LBB548:
  35:Core/Inc/PinOut.h ****     }
 2746              		.loc 2 35 9 view .LVU763
 2747              	.LBB549:
 2748              	.LBI549:
  38:Core/Inc/PinOut.h ****     {
 2749              		.loc 2 38 10 view .LVU764
 2750              	.LBB550:
  40:Core/Inc/PinOut.h ****         {
 2751              		.loc 2 40 9 view .LVU765
  44:Core/Inc/PinOut.h ****         {
 2752              		.loc 2 44 14 view .LVU766
 2753              		.loc 2 46 13 view .LVU767
 2754              		.loc 2 46 30 is_stmt 0 view .LVU768
 2755 0082 124B     		ldr	r3, .L121+12
 2756 0084 0022     		movs	r2, #0
 2757 0086 9988     		ldrh	r1, [r3, #4]
 2758 0088 1868     		ldr	r0, [r3]
 2759 008a FFF7FEFF 		bl	HAL_GPIO_WritePin
 2760              	.LVL176:
 2761              		.loc 2 46 30 view .LVU769
ARM GAS  C:\Users\Admin\AppData\Local\Temp\cctaKpna.s 			page 74


 2762              	.LBE550:
 2763              	.LBE549:
 2764              	.LBE548:
 2765              	.LBE547:
 458:Core/Src/main.cpp **** 
 2766              		.loc 1 458 1 view .LVU770
 2767 008e C3E7     		b	.L111
 2768              	.L114:
 446:Core/Src/main.cpp ****     {
 2769              		.loc 1 446 10 is_stmt 1 view .LVU771
 446:Core/Src/main.cpp ****     {
 2770              		.loc 1 446 25 is_stmt 0 view .LVU772
 2771 0090 FFF7FEFF 		bl	HAL_GetTick
 2772              	.LVL177:
 2773              	.LBB551:
 2774              	.LBI551:
  38:Core/Inc/Timer.h ****     {
 2775              		.loc 5 38 14 is_stmt 1 view .LVU773
 2776              	.LBB552:
 2777              		.loc 5 40 9 view .LVU774
 2778              		.loc 5 40 22 is_stmt 0 view .LVU775
 2779 0094 0C4B     		ldr	r3, .L121+8
 2780 0096 5B68     		ldr	r3, [r3, #4]
 2781              	.LVL178:
 2782              		.loc 5 40 22 view .LVU776
 2783              	.LBE552:
 2784              	.LBE551:
 446:Core/Src/main.cpp ****     {
 2785              		.loc 1 446 28 view .LVU777
 2786 0098 C01A     		subs	r0, r0, r3
 446:Core/Src/main.cpp ****     {
 2787              		.loc 1 446 61 view .LVU778
 2788 009a F928     		cmp	r0, #249
 2789 009c DBD8     		bhi	.L115
 446:Core/Src/main.cpp ****     {
 2790              		.loc 1 446 75 discriminator 1 view .LVU779
 2791 009e FFF7FEFF 		bl	HAL_GetTick
 2792              	.LVL179:
 2793              	.LBB553:
 2794              	.LBI553:
  38:Core/Inc/Timer.h ****     {
 2795              		.loc 5 38 14 is_stmt 1 discriminator 1 view .LVU780
 2796              	.LBB554:
 2797              		.loc 5 40 9 discriminator 1 view .LVU781
 2798              		.loc 5 40 22 is_stmt 0 discriminator 1 view .LVU782
 2799 00a2 094B     		ldr	r3, .L121+8
 2800 00a4 5B68     		ldr	r3, [r3, #4]
 2801              	.LVL180:
 2802              		.loc 5 40 22 discriminator 1 view .LVU783
 2803              	.LBE554:
 2804              	.LBE553:
 446:Core/Src/main.cpp ****     {
 2805              		.loc 1 446 78 discriminator 1 view .LVU784
 2806 00a6 C01A     		subs	r0, r0, r3
 446:Core/Src/main.cpp ****     {
 2807              		.loc 1 446 61 discriminator 1 view .LVU785
 2808 00a8 9628     		cmp	r0, #150
ARM GAS  C:\Users\Admin\AppData\Local\Temp\cctaKpna.s 			page 75


 2809 00aa D4D9     		bls	.L115
 448:Core/Src/main.cpp ****     }
 2810              		.loc 1 448 7 is_stmt 1 view .LVU786
 2811              	.LVL181:
 2812              	.LBB555:
 2813              	.LBI555:
  33:Core/Inc/PinOut.h ****     {
 2814              		.loc 2 33 10 view .LVU787
 2815              	.LBB556:
  35:Core/Inc/PinOut.h ****     }
 2816              		.loc 2 35 9 view .LVU788
 2817              	.LBB557:
 2818              	.LBI557:
  38:Core/Inc/PinOut.h ****     {
 2819              		.loc 2 38 10 view .LVU789
 2820              	.LBB558:
  40:Core/Inc/PinOut.h ****         {
 2821              		.loc 2 40 9 view .LVU790
  44:Core/Inc/PinOut.h ****         {
 2822              		.loc 2 44 14 view .LVU791
 2823              		.loc 2 46 13 view .LVU792
 2824              		.loc 2 46 30 is_stmt 0 view .LVU793
 2825 00ac 074B     		ldr	r3, .L121+12
 2826 00ae 0022     		movs	r2, #0
 2827 00b0 9988     		ldrh	r1, [r3, #4]
 2828 00b2 1868     		ldr	r0, [r3]
 2829 00b4 FFF7FEFF 		bl	HAL_GPIO_WritePin
 2830              	.LVL182:
 2831              		.loc 2 46 30 view .LVU794
 2832              	.LBE558:
 2833              	.LBE557:
  36:Core/Inc/PinOut.h **** 
 2834              		.loc 2 36 5 view .LVU795
 2835 00b8 CDE7     		b	.L115
 2836              	.LVL183:
 2837              	.L117:
  36:Core/Inc/PinOut.h **** 
 2838              		.loc 2 36 5 view .LVU796
 2839              	.LBE556:
 2840              	.LBE555:
 2841              	.LBB559:
 2842              	.LBB546:
  28:Core/Inc/PinIn.h ****         }
 2843              		.loc 4 28 27 view .LVU797
 2844 00ba 0123     		movs	r3, #1
 2845 00bc D9E7     		b	.L116
 2846              	.L122:
 2847 00be 00BF     		.align	2
 2848              	.L121:
 2849 00c0 00000000 		.word	.LANCHOR28
 2850 00c4 00000000 		.word	.LANCHOR9
 2851 00c8 00000000 		.word	.LANCHOR29
 2852 00cc 00000000 		.word	.LANCHOR2
 2853 00d0 00000000 		.word	.LANCHOR0
 2854 00d4 00000000 		.word	.LC9
 2855              	.LBE546:
 2856              	.LBE559:
ARM GAS  C:\Users\Admin\AppData\Local\Temp\cctaKpna.s 			page 76


 2857              		.cfi_endproc
 2858              	.LFE115:
 2859              		.fnend
 2861              		.section	.text._Z10verifyCodem,"ax",%progbits
 2862              		.align	1
 2863              		.global	_Z10verifyCodem
 2864              		.syntax unified
 2865              		.thumb
 2866              		.thumb_func
 2867              		.fpu softvfp
 2869              	_Z10verifyCodem:
 2870              		.fnstart
 2871              	.LVL184:
 2872              	.LFB120:
 616:Core/Src/main.cpp ****   uint32_t codes[] =
 2873              		.loc 1 616 1 is_stmt 1 view -0
 2874              		.cfi_startproc
 2875              		@ args = 0, pretend = 0, frame = 0
 2876              		@ frame_needed = 0, uses_anonymous_args = 0
 2877              		@ link register save eliminated.
 617:Core/Src/main.cpp ****       {12563593};
 2878              		.loc 1 617 3 view .LVU799
 620:Core/Src/main.cpp ****   {
 2879              		.loc 1 620 3 view .LVU800
 2880              	.LBB560:
 620:Core/Src/main.cpp ****   {
 2881              		.loc 1 620 21 is_stmt 0 view .LVU801
 2882 0000 0023     		movs	r3, #0
 2883              	.LVL185:
 2884              	.L125:
 620:Core/Src/main.cpp ****   {
 2885              		.loc 1 620 30 is_stmt 1 discriminator 1 view .LVU802
 2886 0002 23B9     		cbnz	r3, .L126
 622:Core/Src/main.cpp ****       return true;
 2887              		.loc 1 622 5 view .LVU803
 2888 0004 044A     		ldr	r2, .L128
 2889 0006 9042     		cmp	r0, r2
 2890 0008 03D0     		beq	.L127
 620:Core/Src/main.cpp ****   {
 2891              		.loc 1 620 3 discriminator 2 view .LVU804
 2892 000a 0133     		adds	r3, r3, #1
 2893              	.LVL186:
 620:Core/Src/main.cpp ****   {
 2894              		.loc 1 620 3 is_stmt 0 discriminator 2 view .LVU805
 2895 000c F9E7     		b	.L125
 2896              	.L126:
 620:Core/Src/main.cpp ****   {
 2897              		.loc 1 620 3 discriminator 2 view .LVU806
 2898              	.LBE560:
 626:Core/Src/main.cpp **** }
 2899              		.loc 1 626 10 view .LVU807
 2900 000e 0020     		movs	r0, #0
 2901              	.LVL187:
 626:Core/Src/main.cpp **** }
 2902              		.loc 1 626 10 view .LVU808
 2903 0010 7047     		bx	lr
 2904              	.LVL188:
ARM GAS  C:\Users\Admin\AppData\Local\Temp\cctaKpna.s 			page 77


 2905              	.L127:
 2906              	.LBB561:
 623:Core/Src/main.cpp ****   }
 2907              		.loc 1 623 14 view .LVU809
 2908 0012 0120     		movs	r0, #1
 2909              	.LVL189:
 623:Core/Src/main.cpp ****   }
 2910              		.loc 1 623 14 view .LVU810
 2911              	.LBE561:
 627:Core/Src/main.cpp **** 
 2912              		.loc 1 627 1 view .LVU811
 2913 0014 7047     		bx	lr
 2914              	.L129:
 2915 0016 00BF     		.align	2
 2916              	.L128:
 2917 0018 89B4BF00 		.word	12563593
 2918              		.cfi_endproc
 2919              	.LFE120:
 2920              		.cantunwind
 2921              		.fnend
 2923              		.section	.rodata._Z12KeyReadEventv.str1.4,"aMS",%progbits,1
 2924              		.align	2
 2925              	.LC10:
 2926 0000 25732069 		.ascii	"%s intercom was used. Key id: %d.\015\012\000"
 2926      6E746572 
 2926      636F6D20 
 2926      77617320 
 2926      75736564 
 2927              		.align	2
 2928              	.LC11:
 2929 0024 41636365 		.ascii	"Acces denied, door is closed. Key id: %d.\015\012\000"
 2929      73206465 
 2929      6E696564 
 2929      2C20646F 
 2929      6F722069 
 2930              		.align	2
 2931              	.LC12:
 2932 0050 41636365 		.ascii	"Acces denied. Key is not authorized to enter. Key i"
 2932      73206465 
 2932      6E696564 
 2932      2E204B65 
 2932      79206973 
 2933 0083 643A2025 		.ascii	"d: %d.\015\012\000"
 2933      642E0D0A 
 2933      00
 2934              		.section	.text._Z12KeyReadEventv,"ax",%progbits
 2935              		.align	1
 2936              		.global	_Z12KeyReadEventv
 2937              		.syntax unified
 2938              		.thumb
 2939              		.thumb_func
 2940              		.fpu softvfp
 2942              	_Z12KeyReadEventv:
 2943              		.fnstart
 2944              	.LFB112:
 338:Core/Src/main.cpp ****   if (wig_available())
 2945              		.loc 1 338 1 is_stmt 1 view -0
ARM GAS  C:\Users\Admin\AppData\Local\Temp\cctaKpna.s 			page 78


 2946              		.cfi_startproc
 2947              		@ args = 0, pretend = 0, frame = 0
 2948              		@ frame_needed = 0, uses_anonymous_args = 0
 2949 0000 10B5     		push	{r4, lr}
 2950              		.save {r4, lr}
 2951              	.LCFI22:
 2952              		.cfi_def_cfa_offset 8
 2953              		.cfi_offset 4, -8
 2954              		.cfi_offset 14, -4
 339:Core/Src/main.cpp ****   {
 2955              		.loc 1 339 3 view .LVU813
 339:Core/Src/main.cpp ****   {
 2956              		.loc 1 339 20 is_stmt 0 view .LVU814
 2957 0002 FFF7FEFF 		bl	wig_available
 2958              	.LVL190:
 339:Core/Src/main.cpp ****   {
 2959              		.loc 1 339 3 view .LVU815
 2960 0006 C0B1     		cbz	r0, .L130
 341:Core/Src/main.cpp ****     {
 2961              		.loc 1 341 5 is_stmt 1 view .LVU816
 341:Core/Src/main.cpp ****     {
 2962              		.loc 1 341 22 is_stmt 0 view .LVU817
 2963 0008 1B4B     		ldr	r3, .L143
 2964 000a 1B68     		ldr	r3, [r3]
 341:Core/Src/main.cpp ****     {
 2965              		.loc 1 341 50 view .LVU818
 2966 000c 012B     		cmp	r3, #1
 2967 000e 15D1     		bne	.L141
 2968              	.L132:
 349:Core/Src/main.cpp ****                                                  : UART_Printf("Acces denied. Key is not authorized
 2969              		.loc 1 349 7 is_stmt 1 discriminator 4 view .LVU819
 349:Core/Src/main.cpp ****                                                  : UART_Printf("Acces denied. Key is not authorized
 2970              		.loc 1 349 21 is_stmt 0 discriminator 4 view .LVU820
 2971 0010 194B     		ldr	r3, .L143
 2972 0012 1B68     		ldr	r3, [r3]
 349:Core/Src/main.cpp ****                                                  : UART_Printf("Acces denied. Key is not authorized
 2973              		.loc 1 349 50 discriminator 4 view .LVU821
 2974 0014 012B     		cmp	r3, #1
 2975 0016 28D0     		beq	.L142
 350:Core/Src/main.cpp **** 
 2976              		.loc 1 350 63 view .LVU822
 2977 0018 FFF7FEFF 		bl	getCode
 2978              	.LVL191:
 2979 001c 0146     		mov	r1, r0
 2980 001e 1748     		ldr	r0, .L143+4
 2981 0020 FFF7FEFF 		bl	_Z11UART_PrintfPKcz
 2982              	.LVL192:
 2983              	.L137:
 352:Core/Src/main.cpp ****       workMode = WorkMode::DenyMode;
 2984              		.loc 1 352 7 is_stmt 1 view .LVU823
 352:Core/Src/main.cpp ****       workMode = WorkMode::DenyMode;
 2985              		.loc 1 352 24 is_stmt 0 view .LVU824
 2986 0024 164B     		ldr	r3, .L143+8
 2987 0026 1968     		ldr	r1, [r3]
 2988 0028 164A     		ldr	r2, .L143+12
 2989 002a 1160     		str	r1, [r2]
 353:Core/Src/main.cpp ****     }
ARM GAS  C:\Users\Admin\AppData\Local\Temp\cctaKpna.s 			page 79


 2990              		.loc 1 353 7 is_stmt 1 view .LVU825
 353:Core/Src/main.cpp ****     }
 2991              		.loc 1 353 16 is_stmt 0 view .LVU826
 2992 002c 0122     		movs	r2, #1
 2993 002e 1A60     		str	r2, [r3]
 2994              	.L136:
 356:Core/Src/main.cpp ****     outsideKeyRead = false;
 2995              		.loc 1 356 5 is_stmt 1 view .LVU827
 356:Core/Src/main.cpp ****     outsideKeyRead = false;
 2996              		.loc 1 356 19 is_stmt 0 view .LVU828
 2997 0030 0023     		movs	r3, #0
 2998 0032 154A     		ldr	r2, .L143+16
 2999 0034 1370     		strb	r3, [r2]
 357:Core/Src/main.cpp ****   }
 3000              		.loc 1 357 5 is_stmt 1 view .LVU829
 357:Core/Src/main.cpp ****   }
 3001              		.loc 1 357 20 is_stmt 0 view .LVU830
 3002 0036 154A     		ldr	r2, .L143+20
 3003 0038 1370     		strb	r3, [r2]
 3004              	.L130:
 359:Core/Src/main.cpp **** 
 3005              		.loc 1 359 1 view .LVU831
 3006 003a 10BD     		pop	{r4, pc}
 3007              	.L141:
 341:Core/Src/main.cpp ****     {
 3008              		.loc 1 341 63 discriminator 1 view .LVU832
 3009 003c FFF7FEFF 		bl	getCode
 3010              	.LVL193:
 3011 0040 FFF7FEFF 		bl	_Z10verifyCodem
 3012              	.LVL194:
 341:Core/Src/main.cpp ****     {
 3013              		.loc 1 341 50 discriminator 1 view .LVU833
 3014 0044 0028     		cmp	r0, #0
 3015 0046 E3D0     		beq	.L132
 343:Core/Src/main.cpp **** 
 3016              		.loc 1 343 7 is_stmt 1 view .LVU834
 343:Core/Src/main.cpp **** 
 3017              		.loc 1 343 18 is_stmt 0 view .LVU835
 3018 0048 0F4B     		ldr	r3, .L143+16
 3019 004a 1B78     		ldrb	r3, [r3]	@ zero_extendqisi2
 3020 004c 5BB1     		cbz	r3, .L138
 3021 004e 104C     		ldr	r4, .L143+24
 3022              	.L133:
 343:Core/Src/main.cpp **** 
 3023              		.loc 1 343 18 discriminator 4 view .LVU836
 3024 0050 FFF7FEFF 		bl	getCode
 3025              	.LVL195:
 3026 0054 0246     		mov	r2, r0
 3027 0056 2146     		mov	r1, r4
 3028 0058 0E48     		ldr	r0, .L143+28
 3029 005a FFF7FEFF 		bl	_Z11UART_PrintfPKcz
 3030              	.LVL196:
 345:Core/Src/main.cpp ****     }
 3031              		.loc 1 345 7 is_stmt 1 discriminator 4 view .LVU837
 345:Core/Src/main.cpp ****     }
 3032              		.loc 1 345 16 is_stmt 0 discriminator 4 view .LVU838
 3033 005e 084B     		ldr	r3, .L143+8
ARM GAS  C:\Users\Admin\AppData\Local\Temp\cctaKpna.s 			page 80


 3034 0060 0022     		movs	r2, #0
 3035 0062 1A60     		str	r2, [r3]
 3036 0064 E4E7     		b	.L136
 3037              	.L138:
 343:Core/Src/main.cpp **** 
 3038              		.loc 1 343 18 view .LVU839
 3039 0066 0C4C     		ldr	r4, .L143+32
 3040 0068 F2E7     		b	.L133
 3041              	.L142:
 349:Core/Src/main.cpp ****                                                  : UART_Printf("Acces denied. Key is not authorized
 3042              		.loc 1 349 63 discriminator 1 view .LVU840
 3043 006a FFF7FEFF 		bl	getCode
 3044              	.LVL197:
 3045 006e 0146     		mov	r1, r0
 3046 0070 0A48     		ldr	r0, .L143+36
 3047 0072 FFF7FEFF 		bl	_Z11UART_PrintfPKcz
 3048              	.LVL198:
 3049 0076 D5E7     		b	.L137
 3050              	.L144:
 3051              		.align	2
 3052              	.L143:
 3053 0078 00000000 		.word	.LANCHOR27
 3054 007c 50000000 		.word	.LC12
 3055 0080 00000000 		.word	.LANCHOR9
 3056 0084 00000000 		.word	.LANCHOR11
 3057 0088 00000000 		.word	.LANCHOR17
 3058 008c 00000000 		.word	.LANCHOR18
 3059 0090 08000000 		.word	.LC3
 3060 0094 00000000 		.word	.LC10
 3061 0098 00000000 		.word	.LC2
 3062 009c 24000000 		.word	.LC11
 3063              		.cfi_endproc
 3064              	.LFE112:
 3065              		.fnend
 3067              		.section	.rodata._Z10switchModev.str1.4,"aMS",%progbits,1
 3068              		.align	2
 3069              	.LC13:
 3070 0000 0A537769 		.ascii	"\012Switched to Closed mode.\015\012\000"
 3070      74636865 
 3070      6420746F 
 3070      20436C6F 
 3070      73656420 
 3071              		.align	2
 3072              	.LC14:
 3073 001c 0A537769 		.ascii	"\012Switched to Open mode.\015\012\000"
 3073      74636865 
 3073      6420746F 
 3073      204F7065 
 3073      6E206D6F 
 3074 0036 0000     		.align	2
 3075              	.LC15:
 3076 0038 0A537769 		.ascii	"\012Switched to CondOpen mode.\015\012\000"
 3076      74636865 
 3076      6420746F 
 3076      20436F6E 
 3076      644F7065 
 3077 0056 0000     		.align	2
ARM GAS  C:\Users\Admin\AppData\Local\Temp\cctaKpna.s 			page 81


 3078              	.LC16:
 3079 0058 0A537769 		.ascii	"\012Switched to Normal mode.\015\012\000"
 3079      74636865 
 3079      6420746F 
 3079      204E6F72 
 3079      6D616C20 
 3080              		.align	2
 3081              	.LC17:
 3082 0074 556E6B6E 		.ascii	"Unknown mode, switched to normal.\015\012\000"
 3082      6F776E20 
 3082      6D6F6465 
 3082      2C207377 
 3082      69746368 
 3083              		.section	.text._Z10switchModev,"ax",%progbits
 3084              		.align	1
 3085              		.global	_Z10switchModev
 3086              		.syntax unified
 3087              		.thumb
 3088              		.thumb_func
 3089              		.fpu softvfp
 3091              	_Z10switchModev:
 3092              		.fnstart
 3093              	.LFB121:
 630:Core/Src/main.cpp ****   switch (intercomMode)
 3094              		.loc 1 630 1 is_stmt 1 view -0
 3095              		.cfi_startproc
 3096              		@ args = 0, pretend = 0, frame = 0
 3097              		@ frame_needed = 0, uses_anonymous_args = 0
 3098 0000 08B5     		push	{r3, lr}
 3099              		.save {r3, lr}
 3100              	.LCFI23:
 3101              		.cfi_def_cfa_offset 8
 3102              		.cfi_offset 3, -8
 3103              		.cfi_offset 14, -4
 631:Core/Src/main.cpp ****   {
 3104              		.loc 1 631 3 view .LVU842
 3105 0002 234B     		ldr	r3, .L154
 3106 0004 1B68     		ldr	r3, [r3]
 3107 0006 032B     		cmp	r3, #3
 3108 0008 36D8     		bhi	.L146
 3109 000a DFE803F0 		tbb	[pc, r3]
 3110              	.L148:
 3111 000e 02       		.byte	(.L151-.L148)/2
 3112 000f 0F       		.byte	(.L150-.L148)/2
 3113 0010 1C       		.byte	(.L149-.L148)/2
 3114 0011 29       		.byte	(.L147-.L148)/2
 3115              		.p2align 1
 3116              	.L151:
 633:Core/Src/main.cpp ****   {
 3117              		.loc 1 633 3 view .LVU843
 634:Core/Src/main.cpp ****     UART_Printf("\nSwitched to Closed mode.\r\n");
 3118              		.loc 1 634 3 view .LVU844
 635:Core/Src/main.cpp ****     intercomMode = IntercomMode::ClosedMode;
 3119              		.loc 1 635 5 view .LVU845
 635:Core/Src/main.cpp ****     intercomMode = IntercomMode::ClosedMode;
 3120              		.loc 1 635 16 is_stmt 0 view .LVU846
 3121 0012 2048     		ldr	r0, .L154+4
ARM GAS  C:\Users\Admin\AppData\Local\Temp\cctaKpna.s 			page 82


 3122 0014 FFF7FEFF 		bl	_Z11UART_PrintfPKcz
 3123              	.LVL199:
 636:Core/Src/main.cpp ****     lock.turnOff();
 3124              		.loc 1 636 5 is_stmt 1 view .LVU847
 636:Core/Src/main.cpp ****     lock.turnOff();
 3125              		.loc 1 636 18 is_stmt 0 view .LVU848
 3126 0018 1D4B     		ldr	r3, .L154
 3127 001a 0122     		movs	r2, #1
 3128 001c 1A60     		str	r2, [r3]
 637:Core/Src/main.cpp ****     break;
 3129              		.loc 1 637 5 is_stmt 1 view .LVU849
 3130              	.LVL200:
 3131              	.LBB562:
 3132              	.LBI562:
  33:Core/Inc/PinOut.h ****     {
 3133              		.loc 2 33 10 view .LVU850
 3134              	.LBB563:
  35:Core/Inc/PinOut.h ****     }
 3135              		.loc 2 35 9 view .LVU851
 3136              	.LBB564:
 3137              	.LBI564:
  38:Core/Inc/PinOut.h ****     {
 3138              		.loc 2 38 10 view .LVU852
 3139              	.LBB565:
  40:Core/Inc/PinOut.h ****         {
 3140              		.loc 2 40 9 view .LVU853
  44:Core/Inc/PinOut.h ****         {
 3141              		.loc 2 44 14 view .LVU854
 3142              		.loc 2 46 13 view .LVU855
 3143              		.loc 2 46 30 is_stmt 0 view .LVU856
 3144 001e 1E4B     		ldr	r3, .L154+8
 3145 0020 0022     		movs	r2, #0
 3146 0022 9988     		ldrh	r1, [r3, #4]
 3147 0024 1868     		ldr	r0, [r3]
 3148 0026 FFF7FEFF 		bl	HAL_GPIO_WritePin
 3149              	.LVL201:
 3150              	.L145:
 3151              		.loc 2 46 30 view .LVU857
 3152              	.LBE565:
 3153              	.LBE564:
 3154              	.LBE563:
 3155              	.LBE562:
 671:Core/Src/main.cpp **** 
 3156              		.loc 1 671 1 view .LVU858
 3157 002a 08BD     		pop	{r3, pc}
 3158              	.L150:
 640:Core/Src/main.cpp ****   {
 3159              		.loc 1 640 3 is_stmt 1 view .LVU859
 641:Core/Src/main.cpp ****     UART_Printf("\nSwitched to Open mode.\r\n");
 3160              		.loc 1 641 3 view .LVU860
 642:Core/Src/main.cpp ****     intercomMode = IntercomMode::OpenMode;
 3161              		.loc 1 642 5 view .LVU861
 642:Core/Src/main.cpp ****     intercomMode = IntercomMode::OpenMode;
 3162              		.loc 1 642 16 is_stmt 0 view .LVU862
 3163 002c 1B48     		ldr	r0, .L154+12
 3164 002e FFF7FEFF 		bl	_Z11UART_PrintfPKcz
 3165              	.LVL202:
ARM GAS  C:\Users\Admin\AppData\Local\Temp\cctaKpna.s 			page 83


 643:Core/Src/main.cpp ****     lock.turnOn();
 3166              		.loc 1 643 5 is_stmt 1 view .LVU863
 643:Core/Src/main.cpp ****     lock.turnOn();
 3167              		.loc 1 643 18 is_stmt 0 view .LVU864
 3168 0032 174B     		ldr	r3, .L154
 3169 0034 0222     		movs	r2, #2
 3170 0036 1A60     		str	r2, [r3]
 644:Core/Src/main.cpp ****     break;
 3171              		.loc 1 644 5 is_stmt 1 view .LVU865
 3172              	.LVL203:
 3173              	.LBB566:
 3174              	.LBI566:
  28:Core/Inc/PinOut.h ****     {
 3175              		.loc 2 28 10 view .LVU866
 3176              	.LBB567:
  30:Core/Inc/PinOut.h ****     }
 3177              		.loc 2 30 9 view .LVU867
 3178              	.LBB568:
 3179              	.LBI568:
  38:Core/Inc/PinOut.h ****     {
 3180              		.loc 2 38 10 view .LVU868
 3181              	.LBB569:
  40:Core/Inc/PinOut.h ****         {
 3182              		.loc 2 40 9 view .LVU869
  42:Core/Inc/PinOut.h ****         }
 3183              		.loc 2 42 13 view .LVU870
  42:Core/Inc/PinOut.h ****         }
 3184              		.loc 2 42 30 is_stmt 0 view .LVU871
 3185 0038 174B     		ldr	r3, .L154+8
 3186 003a 0122     		movs	r2, #1
 3187 003c 9988     		ldrh	r1, [r3, #4]
 3188 003e 1868     		ldr	r0, [r3]
 3189 0040 FFF7FEFF 		bl	HAL_GPIO_WritePin
 3190              	.LVL204:
  42:Core/Inc/PinOut.h ****         }
 3191              		.loc 2 42 30 view .LVU872
 3192              	.LBE569:
 3193              	.LBE568:
  31:Core/Inc/PinOut.h **** 
 3194              		.loc 2 31 5 view .LVU873
 3195 0044 F1E7     		b	.L145
 3196              	.LVL205:
 3197              	.L149:
  31:Core/Inc/PinOut.h **** 
 3198              		.loc 2 31 5 view .LVU874
 3199              	.LBE567:
 3200              	.LBE566:
 647:Core/Src/main.cpp ****   {
 3201              		.loc 1 647 3 is_stmt 1 view .LVU875
 648:Core/Src/main.cpp ****     UART_Printf("\nSwitched to CondOpen mode.\r\n");
 3202              		.loc 1 648 3 view .LVU876
 649:Core/Src/main.cpp ****     intercomMode = IntercomMode::CondOpenMode;
 3203              		.loc 1 649 5 view .LVU877
 649:Core/Src/main.cpp ****     intercomMode = IntercomMode::CondOpenMode;
 3204              		.loc 1 649 16 is_stmt 0 view .LVU878
 3205 0046 1648     		ldr	r0, .L154+16
 3206 0048 FFF7FEFF 		bl	_Z11UART_PrintfPKcz
ARM GAS  C:\Users\Admin\AppData\Local\Temp\cctaKpna.s 			page 84


 3207              	.LVL206:
 650:Core/Src/main.cpp ****     lock.turnOff();
 3208              		.loc 1 650 5 is_stmt 1 view .LVU879
 650:Core/Src/main.cpp ****     lock.turnOff();
 3209              		.loc 1 650 18 is_stmt 0 view .LVU880
 3210 004c 104B     		ldr	r3, .L154
 3211 004e 0322     		movs	r2, #3
 3212 0050 1A60     		str	r2, [r3]
 651:Core/Src/main.cpp ****     break;
 3213              		.loc 1 651 5 is_stmt 1 view .LVU881
 3214              	.LVL207:
 3215              	.LBB570:
 3216              	.LBI570:
  33:Core/Inc/PinOut.h ****     {
 3217              		.loc 2 33 10 view .LVU882
 3218              	.LBB571:
  35:Core/Inc/PinOut.h ****     }
 3219              		.loc 2 35 9 view .LVU883
 3220              	.LBB572:
 3221              	.LBI572:
  38:Core/Inc/PinOut.h ****     {
 3222              		.loc 2 38 10 view .LVU884
 3223              	.LBB573:
  40:Core/Inc/PinOut.h ****         {
 3224              		.loc 2 40 9 view .LVU885
  44:Core/Inc/PinOut.h ****         {
 3225              		.loc 2 44 14 view .LVU886
 3226              		.loc 2 46 13 view .LVU887
 3227              		.loc 2 46 30 is_stmt 0 view .LVU888
 3228 0052 114B     		ldr	r3, .L154+8
 3229 0054 0022     		movs	r2, #0
 3230 0056 9988     		ldrh	r1, [r3, #4]
 3231 0058 1868     		ldr	r0, [r3]
 3232 005a FFF7FEFF 		bl	HAL_GPIO_WritePin
 3233              	.LVL208:
 3234              		.loc 2 46 30 view .LVU889
 3235              	.LBE573:
 3236              	.LBE572:
  36:Core/Inc/PinOut.h **** 
 3237              		.loc 2 36 5 view .LVU890
 3238 005e E4E7     		b	.L145
 3239              	.LVL209:
 3240              	.L147:
  36:Core/Inc/PinOut.h **** 
 3241              		.loc 2 36 5 view .LVU891
 3242              	.LBE571:
 3243              	.LBE570:
 654:Core/Src/main.cpp ****   {
 3244              		.loc 1 654 3 is_stmt 1 view .LVU892
 655:Core/Src/main.cpp ****     UART_Printf("\nSwitched to Normal mode.\r\n");
 3245              		.loc 1 655 3 view .LVU893
 656:Core/Src/main.cpp ****     intercomMode = IntercomMode::NormalMode;
 3246              		.loc 1 656 5 view .LVU894
 656:Core/Src/main.cpp ****     intercomMode = IntercomMode::NormalMode;
 3247              		.loc 1 656 16 is_stmt 0 view .LVU895
 3248 0060 1048     		ldr	r0, .L154+20
 3249 0062 FFF7FEFF 		bl	_Z11UART_PrintfPKcz
ARM GAS  C:\Users\Admin\AppData\Local\Temp\cctaKpna.s 			page 85


 3250              	.LVL210:
 657:Core/Src/main.cpp ****     lock.turnOff();
 3251              		.loc 1 657 5 is_stmt 1 view .LVU896
 657:Core/Src/main.cpp ****     lock.turnOff();
 3252              		.loc 1 657 18 is_stmt 0 view .LVU897
 3253 0066 0022     		movs	r2, #0
 3254 0068 094B     		ldr	r3, .L154
 3255 006a 1A60     		str	r2, [r3]
 658:Core/Src/main.cpp ****     break;
 3256              		.loc 1 658 5 is_stmt 1 view .LVU898
 3257              	.LVL211:
 3258              	.LBB574:
 3259              	.LBI574:
  33:Core/Inc/PinOut.h ****     {
 3260              		.loc 2 33 10 view .LVU899
 3261              	.LBB575:
  35:Core/Inc/PinOut.h ****     }
 3262              		.loc 2 35 9 view .LVU900
 3263              	.LBB576:
 3264              	.LBI576:
  38:Core/Inc/PinOut.h ****     {
 3265              		.loc 2 38 10 view .LVU901
 3266              	.LBB577:
  40:Core/Inc/PinOut.h ****         {
 3267              		.loc 2 40 9 view .LVU902
  44:Core/Inc/PinOut.h ****         {
 3268              		.loc 2 44 14 view .LVU903
 3269              		.loc 2 46 13 view .LVU904
 3270              		.loc 2 46 30 is_stmt 0 view .LVU905
 3271 006c 0A4B     		ldr	r3, .L154+8
 3272 006e 9988     		ldrh	r1, [r3, #4]
 3273 0070 1868     		ldr	r0, [r3]
 3274 0072 FFF7FEFF 		bl	HAL_GPIO_WritePin
 3275              	.LVL212:
 3276              		.loc 2 46 30 view .LVU906
 3277              	.LBE577:
 3278              	.LBE576:
  36:Core/Inc/PinOut.h **** 
 3279              		.loc 2 36 5 view .LVU907
 3280 0076 D8E7     		b	.L145
 3281              	.LVL213:
 3282              	.L146:
  36:Core/Inc/PinOut.h **** 
 3283              		.loc 2 36 5 view .LVU908
 3284              	.LBE575:
 3285              	.LBE574:
 661:Core/Src/main.cpp ****   {
 3286              		.loc 1 661 3 is_stmt 1 view .LVU909
 662:Core/Src/main.cpp ****     UART_Printf("Unknown mode, switched to normal.\r\n");
 3287              		.loc 1 662 3 view .LVU910
 663:Core/Src/main.cpp ****     intercomMode = IntercomMode::NormalMode;
 3288              		.loc 1 663 5 view .LVU911
 663:Core/Src/main.cpp ****     intercomMode = IntercomMode::NormalMode;
 3289              		.loc 1 663 16 is_stmt 0 view .LVU912
 3290 0078 0B48     		ldr	r0, .L154+24
 3291 007a FFF7FEFF 		bl	_Z11UART_PrintfPKcz
 3292              	.LVL214:
ARM GAS  C:\Users\Admin\AppData\Local\Temp\cctaKpna.s 			page 86


 664:Core/Src/main.cpp ****     lock.turnOff();
 3293              		.loc 1 664 5 is_stmt 1 view .LVU913
 664:Core/Src/main.cpp ****     lock.turnOff();
 3294              		.loc 1 664 18 is_stmt 0 view .LVU914
 3295 007e 0022     		movs	r2, #0
 3296 0080 034B     		ldr	r3, .L154
 3297 0082 1A60     		str	r2, [r3]
 665:Core/Src/main.cpp ****     break;
 3298              		.loc 1 665 5 is_stmt 1 view .LVU915
 3299              	.LVL215:
 3300              	.LBB578:
 3301              	.LBI578:
  33:Core/Inc/PinOut.h ****     {
 3302              		.loc 2 33 10 view .LVU916
 3303              	.LBB579:
  35:Core/Inc/PinOut.h ****     }
 3304              		.loc 2 35 9 view .LVU917
 3305              	.LBB580:
 3306              	.LBI580:
  38:Core/Inc/PinOut.h ****     {
 3307              		.loc 2 38 10 view .LVU918
 3308              	.LBB581:
  40:Core/Inc/PinOut.h ****         {
 3309              		.loc 2 40 9 view .LVU919
  44:Core/Inc/PinOut.h ****         {
 3310              		.loc 2 44 14 view .LVU920
 3311              		.loc 2 46 13 view .LVU921
 3312              		.loc 2 46 30 is_stmt 0 view .LVU922
 3313 0084 044B     		ldr	r3, .L154+8
 3314 0086 9988     		ldrh	r1, [r3, #4]
 3315 0088 1868     		ldr	r0, [r3]
 3316 008a FFF7FEFF 		bl	HAL_GPIO_WritePin
 3317              	.LVL216:
 3318              		.loc 2 46 30 view .LVU923
 3319              	.LBE581:
 3320              	.LBE580:
 3321              	.LBE579:
 3322              	.LBE578:
 670:Core/Src/main.cpp **** }
 3323              		.loc 1 670 3 is_stmt 1 view .LVU924
 3324 008e CCE7     		b	.L145
 3325              	.L155:
 3326              		.align	2
 3327              	.L154:
 3328 0090 00000000 		.word	.LANCHOR27
 3329 0094 00000000 		.word	.LC13
 3330 0098 00000000 		.word	.LANCHOR1
 3331 009c 1C000000 		.word	.LC14
 3332 00a0 38000000 		.word	.LC15
 3333 00a4 58000000 		.word	.LC16
 3334 00a8 74000000 		.word	.LC17
 3335              		.cfi_endproc
 3336              	.LFE121:
 3337              		.fnend
 3339              		.section	.text._Z15ChangeModeEventv,"ax",%progbits
 3340              		.align	1
 3341              		.global	_Z15ChangeModeEventv
ARM GAS  C:\Users\Admin\AppData\Local\Temp\cctaKpna.s 			page 87


 3342              		.syntax unified
 3343              		.thumb
 3344              		.thumb_func
 3345              		.fpu softvfp
 3347              	_Z15ChangeModeEventv:
 3348              		.fnstart
 3349              	.LFB110:
 321:Core/Src/main.cpp ****   if ((HAL_GetTick() - timme) > 15000)
 3350              		.loc 1 321 1 view -0
 3351              		.cfi_startproc
 3352              		@ args = 0, pretend = 0, frame = 0
 3353              		@ frame_needed = 0, uses_anonymous_args = 0
 3354 0000 08B5     		push	{r3, lr}
 3355              		.save {r3, lr}
 3356              	.LCFI24:
 3357              		.cfi_def_cfa_offset 8
 3358              		.cfi_offset 3, -8
 3359              		.cfi_offset 14, -4
 322:Core/Src/main.cpp ****   {
 3360              		.loc 1 322 3 view .LVU926
 322:Core/Src/main.cpp ****   {
 3361              		.loc 1 322 19 is_stmt 0 view .LVU927
 3362 0002 FFF7FEFF 		bl	HAL_GetTick
 3363              	.LVL217:
 322:Core/Src/main.cpp ****   {
 3364              		.loc 1 322 22 view .LVU928
 3365 0006 074B     		ldr	r3, .L160
 3366 0008 1B68     		ldr	r3, [r3]
 3367 000a C01A     		subs	r0, r0, r3
 322:Core/Src/main.cpp ****   {
 3368              		.loc 1 322 3 view .LVU929
 3369 000c 43F69823 		movw	r3, #15000
 3370 0010 9842     		cmp	r0, r3
 3371 0012 00D8     		bhi	.L159
 3372              	.L156:
 327:Core/Src/main.cpp **** 
 3373              		.loc 1 327 1 view .LVU930
 3374 0014 08BD     		pop	{r3, pc}
 3375              	.L159:
 324:Core/Src/main.cpp ****     switchMode();
 3376              		.loc 1 324 5 is_stmt 1 view .LVU931
 324:Core/Src/main.cpp ****     switchMode();
 3377              		.loc 1 324 24 is_stmt 0 view .LVU932
 3378 0016 FFF7FEFF 		bl	HAL_GetTick
 3379              	.LVL218:
 324:Core/Src/main.cpp ****     switchMode();
 3380              		.loc 1 324 11 view .LVU933
 3381 001a 024B     		ldr	r3, .L160
 3382 001c 1860     		str	r0, [r3]
 325:Core/Src/main.cpp ****   }
 3383              		.loc 1 325 5 is_stmt 1 view .LVU934
 325:Core/Src/main.cpp ****   }
 3384              		.loc 1 325 15 is_stmt 0 view .LVU935
 3385 001e FFF7FEFF 		bl	_Z10switchModev
 3386              	.LVL219:
 327:Core/Src/main.cpp **** 
 3387              		.loc 1 327 1 view .LVU936
ARM GAS  C:\Users\Admin\AppData\Local\Temp\cctaKpna.s 			page 88


 3388 0022 F7E7     		b	.L156
 3389              	.L161:
 3390              		.align	2
 3391              	.L160:
 3392 0024 00000000 		.word	.LANCHOR21
 3393              		.cfi_endproc
 3394              	.LFE110:
 3395              		.fnend
 3397              		.section	.text.Error_Handler,"ax",%progbits
 3398              		.align	1
 3399              		.global	Error_Handler
 3400              		.syntax unified
 3401              		.thumb
 3402              		.thumb_func
 3403              		.fpu softvfp
 3405              	Error_Handler:
 3406              		.fnstart
 3407              	.LFB122:
 678:Core/Src/main.cpp ****   /* USER CODE BEGIN Error_Handler_Debug */
 3408              		.loc 1 678 1 is_stmt 1 view -0
 3409              		.cfi_startproc
 3410              		@ Volatile: function does not return.
 3411              		@ args = 0, pretend = 0, frame = 0
 3412              		@ frame_needed = 0, uses_anonymous_args = 0
 3413              		@ link register save eliminated.
 681:Core/Src/main.cpp ****   while (1)
 3414              		.loc 1 681 3 view .LVU938
 3415              	.LBB582:
 3416              	.LBI582:
 3417              		.file 6 "Drivers/CMSIS/Include/cmsis_gcc.h"
   1:Drivers/CMSIS/Include/cmsis_gcc.h **** /**************************************************************************//**
   2:Drivers/CMSIS/Include/cmsis_gcc.h ****  * @file     cmsis_gcc.h
   3:Drivers/CMSIS/Include/cmsis_gcc.h ****  * @brief    CMSIS compiler GCC header file
   4:Drivers/CMSIS/Include/cmsis_gcc.h ****  * @version  V5.0.4
   5:Drivers/CMSIS/Include/cmsis_gcc.h ****  * @date     09. April 2018
   6:Drivers/CMSIS/Include/cmsis_gcc.h ****  ******************************************************************************/
   7:Drivers/CMSIS/Include/cmsis_gcc.h **** /*
   8:Drivers/CMSIS/Include/cmsis_gcc.h ****  * Copyright (c) 2009-2018 Arm Limited. All rights reserved.
   9:Drivers/CMSIS/Include/cmsis_gcc.h ****  *
  10:Drivers/CMSIS/Include/cmsis_gcc.h ****  * SPDX-License-Identifier: Apache-2.0
  11:Drivers/CMSIS/Include/cmsis_gcc.h ****  *
  12:Drivers/CMSIS/Include/cmsis_gcc.h ****  * Licensed under the Apache License, Version 2.0 (the License); you may
  13:Drivers/CMSIS/Include/cmsis_gcc.h ****  * not use this file except in compliance with the License.
  14:Drivers/CMSIS/Include/cmsis_gcc.h ****  * You may obtain a copy of the License at
  15:Drivers/CMSIS/Include/cmsis_gcc.h ****  *
  16:Drivers/CMSIS/Include/cmsis_gcc.h ****  * www.apache.org/licenses/LICENSE-2.0
  17:Drivers/CMSIS/Include/cmsis_gcc.h ****  *
  18:Drivers/CMSIS/Include/cmsis_gcc.h ****  * Unless required by applicable law or agreed to in writing, software
  19:Drivers/CMSIS/Include/cmsis_gcc.h ****  * distributed under the License is distributed on an AS IS BASIS, WITHOUT
  20:Drivers/CMSIS/Include/cmsis_gcc.h ****  * WARRANTIES OR CONDITIONS OF ANY KIND, either express or implied.
  21:Drivers/CMSIS/Include/cmsis_gcc.h ****  * See the License for the specific language governing permissions and
  22:Drivers/CMSIS/Include/cmsis_gcc.h ****  * limitations under the License.
  23:Drivers/CMSIS/Include/cmsis_gcc.h ****  */
  24:Drivers/CMSIS/Include/cmsis_gcc.h **** 
  25:Drivers/CMSIS/Include/cmsis_gcc.h **** #ifndef __CMSIS_GCC_H
  26:Drivers/CMSIS/Include/cmsis_gcc.h **** #define __CMSIS_GCC_H
  27:Drivers/CMSIS/Include/cmsis_gcc.h **** 
ARM GAS  C:\Users\Admin\AppData\Local\Temp\cctaKpna.s 			page 89


  28:Drivers/CMSIS/Include/cmsis_gcc.h **** /* ignore some GCC warnings */
  29:Drivers/CMSIS/Include/cmsis_gcc.h **** #pragma GCC diagnostic push
  30:Drivers/CMSIS/Include/cmsis_gcc.h **** #pragma GCC diagnostic ignored "-Wsign-conversion"
  31:Drivers/CMSIS/Include/cmsis_gcc.h **** #pragma GCC diagnostic ignored "-Wconversion"
  32:Drivers/CMSIS/Include/cmsis_gcc.h **** #pragma GCC diagnostic ignored "-Wunused-parameter"
  33:Drivers/CMSIS/Include/cmsis_gcc.h **** 
  34:Drivers/CMSIS/Include/cmsis_gcc.h **** /* Fallback for __has_builtin */
  35:Drivers/CMSIS/Include/cmsis_gcc.h **** #ifndef __has_builtin
  36:Drivers/CMSIS/Include/cmsis_gcc.h ****   #define __has_builtin(x) (0)
  37:Drivers/CMSIS/Include/cmsis_gcc.h **** #endif
  38:Drivers/CMSIS/Include/cmsis_gcc.h **** 
  39:Drivers/CMSIS/Include/cmsis_gcc.h **** /* CMSIS compiler specific defines */
  40:Drivers/CMSIS/Include/cmsis_gcc.h **** #ifndef   __ASM
  41:Drivers/CMSIS/Include/cmsis_gcc.h ****   #define __ASM                                  __asm
  42:Drivers/CMSIS/Include/cmsis_gcc.h **** #endif
  43:Drivers/CMSIS/Include/cmsis_gcc.h **** #ifndef   __INLINE
  44:Drivers/CMSIS/Include/cmsis_gcc.h ****   #define __INLINE                               inline
  45:Drivers/CMSIS/Include/cmsis_gcc.h **** #endif
  46:Drivers/CMSIS/Include/cmsis_gcc.h **** #ifndef   __STATIC_INLINE
  47:Drivers/CMSIS/Include/cmsis_gcc.h ****   #define __STATIC_INLINE                        static inline
  48:Drivers/CMSIS/Include/cmsis_gcc.h **** #endif
  49:Drivers/CMSIS/Include/cmsis_gcc.h **** #ifndef   __STATIC_FORCEINLINE                 
  50:Drivers/CMSIS/Include/cmsis_gcc.h ****   #define __STATIC_FORCEINLINE                   __attribute__((always_inline)) static inline
  51:Drivers/CMSIS/Include/cmsis_gcc.h **** #endif                                           
  52:Drivers/CMSIS/Include/cmsis_gcc.h **** #ifndef   __NO_RETURN
  53:Drivers/CMSIS/Include/cmsis_gcc.h ****   #define __NO_RETURN                            __attribute__((__noreturn__))
  54:Drivers/CMSIS/Include/cmsis_gcc.h **** #endif
  55:Drivers/CMSIS/Include/cmsis_gcc.h **** #ifndef   __USED
  56:Drivers/CMSIS/Include/cmsis_gcc.h ****   #define __USED                                 __attribute__((used))
  57:Drivers/CMSIS/Include/cmsis_gcc.h **** #endif
  58:Drivers/CMSIS/Include/cmsis_gcc.h **** #ifndef   __WEAK
  59:Drivers/CMSIS/Include/cmsis_gcc.h ****   #define __WEAK                                 __attribute__((weak))
  60:Drivers/CMSIS/Include/cmsis_gcc.h **** #endif
  61:Drivers/CMSIS/Include/cmsis_gcc.h **** #ifndef   __PACKED
  62:Drivers/CMSIS/Include/cmsis_gcc.h ****   #define __PACKED                               __attribute__((packed, aligned(1)))
  63:Drivers/CMSIS/Include/cmsis_gcc.h **** #endif
  64:Drivers/CMSIS/Include/cmsis_gcc.h **** #ifndef   __PACKED_STRUCT
  65:Drivers/CMSIS/Include/cmsis_gcc.h ****   #define __PACKED_STRUCT                        struct __attribute__((packed, aligned(1)))
  66:Drivers/CMSIS/Include/cmsis_gcc.h **** #endif
  67:Drivers/CMSIS/Include/cmsis_gcc.h **** #ifndef   __PACKED_UNION
  68:Drivers/CMSIS/Include/cmsis_gcc.h ****   #define __PACKED_UNION                         union __attribute__((packed, aligned(1)))
  69:Drivers/CMSIS/Include/cmsis_gcc.h **** #endif
  70:Drivers/CMSIS/Include/cmsis_gcc.h **** #ifndef   __UNALIGNED_UINT32        /* deprecated */
  71:Drivers/CMSIS/Include/cmsis_gcc.h ****   #pragma GCC diagnostic push
  72:Drivers/CMSIS/Include/cmsis_gcc.h ****   #pragma GCC diagnostic ignored "-Wpacked"
  73:Drivers/CMSIS/Include/cmsis_gcc.h ****   #pragma GCC diagnostic ignored "-Wattributes"
  74:Drivers/CMSIS/Include/cmsis_gcc.h ****   struct __attribute__((packed)) T_UINT32 { uint32_t v; };
  75:Drivers/CMSIS/Include/cmsis_gcc.h ****   #pragma GCC diagnostic pop
  76:Drivers/CMSIS/Include/cmsis_gcc.h ****   #define __UNALIGNED_UINT32(x)                  (((struct T_UINT32 *)(x))->v)
  77:Drivers/CMSIS/Include/cmsis_gcc.h **** #endif
  78:Drivers/CMSIS/Include/cmsis_gcc.h **** #ifndef   __UNALIGNED_UINT16_WRITE
  79:Drivers/CMSIS/Include/cmsis_gcc.h ****   #pragma GCC diagnostic push
  80:Drivers/CMSIS/Include/cmsis_gcc.h ****   #pragma GCC diagnostic ignored "-Wpacked"
  81:Drivers/CMSIS/Include/cmsis_gcc.h ****   #pragma GCC diagnostic ignored "-Wattributes"
  82:Drivers/CMSIS/Include/cmsis_gcc.h ****   __PACKED_STRUCT T_UINT16_WRITE { uint16_t v; };
  83:Drivers/CMSIS/Include/cmsis_gcc.h ****   #pragma GCC diagnostic pop
  84:Drivers/CMSIS/Include/cmsis_gcc.h ****   #define __UNALIGNED_UINT16_WRITE(addr, val)    (void)((((struct T_UINT16_WRITE *)(void *)(addr))-
ARM GAS  C:\Users\Admin\AppData\Local\Temp\cctaKpna.s 			page 90


  85:Drivers/CMSIS/Include/cmsis_gcc.h **** #endif
  86:Drivers/CMSIS/Include/cmsis_gcc.h **** #ifndef   __UNALIGNED_UINT16_READ
  87:Drivers/CMSIS/Include/cmsis_gcc.h ****   #pragma GCC diagnostic push
  88:Drivers/CMSIS/Include/cmsis_gcc.h ****   #pragma GCC diagnostic ignored "-Wpacked"
  89:Drivers/CMSIS/Include/cmsis_gcc.h ****   #pragma GCC diagnostic ignored "-Wattributes"
  90:Drivers/CMSIS/Include/cmsis_gcc.h ****   __PACKED_STRUCT T_UINT16_READ { uint16_t v; };
  91:Drivers/CMSIS/Include/cmsis_gcc.h ****   #pragma GCC diagnostic pop
  92:Drivers/CMSIS/Include/cmsis_gcc.h ****   #define __UNALIGNED_UINT16_READ(addr)          (((const struct T_UINT16_READ *)(const void *)(add
  93:Drivers/CMSIS/Include/cmsis_gcc.h **** #endif
  94:Drivers/CMSIS/Include/cmsis_gcc.h **** #ifndef   __UNALIGNED_UINT32_WRITE
  95:Drivers/CMSIS/Include/cmsis_gcc.h ****   #pragma GCC diagnostic push
  96:Drivers/CMSIS/Include/cmsis_gcc.h ****   #pragma GCC diagnostic ignored "-Wpacked"
  97:Drivers/CMSIS/Include/cmsis_gcc.h ****   #pragma GCC diagnostic ignored "-Wattributes"
  98:Drivers/CMSIS/Include/cmsis_gcc.h ****   __PACKED_STRUCT T_UINT32_WRITE { uint32_t v; };
  99:Drivers/CMSIS/Include/cmsis_gcc.h ****   #pragma GCC diagnostic pop
 100:Drivers/CMSIS/Include/cmsis_gcc.h ****   #define __UNALIGNED_UINT32_WRITE(addr, val)    (void)((((struct T_UINT32_WRITE *)(void *)(addr))-
 101:Drivers/CMSIS/Include/cmsis_gcc.h **** #endif
 102:Drivers/CMSIS/Include/cmsis_gcc.h **** #ifndef   __UNALIGNED_UINT32_READ
 103:Drivers/CMSIS/Include/cmsis_gcc.h ****   #pragma GCC diagnostic push
 104:Drivers/CMSIS/Include/cmsis_gcc.h ****   #pragma GCC diagnostic ignored "-Wpacked"
 105:Drivers/CMSIS/Include/cmsis_gcc.h ****   #pragma GCC diagnostic ignored "-Wattributes"
 106:Drivers/CMSIS/Include/cmsis_gcc.h ****   __PACKED_STRUCT T_UINT32_READ { uint32_t v; };
 107:Drivers/CMSIS/Include/cmsis_gcc.h ****   #pragma GCC diagnostic pop
 108:Drivers/CMSIS/Include/cmsis_gcc.h ****   #define __UNALIGNED_UINT32_READ(addr)          (((const struct T_UINT32_READ *)(const void *)(add
 109:Drivers/CMSIS/Include/cmsis_gcc.h **** #endif
 110:Drivers/CMSIS/Include/cmsis_gcc.h **** #ifndef   __ALIGNED
 111:Drivers/CMSIS/Include/cmsis_gcc.h ****   #define __ALIGNED(x)                           __attribute__((aligned(x)))
 112:Drivers/CMSIS/Include/cmsis_gcc.h **** #endif
 113:Drivers/CMSIS/Include/cmsis_gcc.h **** #ifndef   __RESTRICT
 114:Drivers/CMSIS/Include/cmsis_gcc.h ****   #define __RESTRICT                             __restrict
 115:Drivers/CMSIS/Include/cmsis_gcc.h **** #endif
 116:Drivers/CMSIS/Include/cmsis_gcc.h **** 
 117:Drivers/CMSIS/Include/cmsis_gcc.h **** 
 118:Drivers/CMSIS/Include/cmsis_gcc.h **** /* ###########################  Core Function Access  ########################### */
 119:Drivers/CMSIS/Include/cmsis_gcc.h **** /** \ingroup  CMSIS_Core_FunctionInterface
 120:Drivers/CMSIS/Include/cmsis_gcc.h ****     \defgroup CMSIS_Core_RegAccFunctions CMSIS Core Register Access Functions
 121:Drivers/CMSIS/Include/cmsis_gcc.h ****   @{
 122:Drivers/CMSIS/Include/cmsis_gcc.h ****  */
 123:Drivers/CMSIS/Include/cmsis_gcc.h **** 
 124:Drivers/CMSIS/Include/cmsis_gcc.h **** /**
 125:Drivers/CMSIS/Include/cmsis_gcc.h ****   \brief   Enable IRQ Interrupts
 126:Drivers/CMSIS/Include/cmsis_gcc.h ****   \details Enables IRQ interrupts by clearing the I-bit in the CPSR.
 127:Drivers/CMSIS/Include/cmsis_gcc.h ****            Can only be executed in Privileged modes.
 128:Drivers/CMSIS/Include/cmsis_gcc.h ****  */
 129:Drivers/CMSIS/Include/cmsis_gcc.h **** __STATIC_FORCEINLINE void __enable_irq(void)
 130:Drivers/CMSIS/Include/cmsis_gcc.h **** {
 131:Drivers/CMSIS/Include/cmsis_gcc.h ****   __ASM volatile ("cpsie i" : : : "memory");
 132:Drivers/CMSIS/Include/cmsis_gcc.h **** }
 133:Drivers/CMSIS/Include/cmsis_gcc.h **** 
 134:Drivers/CMSIS/Include/cmsis_gcc.h **** 
 135:Drivers/CMSIS/Include/cmsis_gcc.h **** /**
 136:Drivers/CMSIS/Include/cmsis_gcc.h ****   \brief   Disable IRQ Interrupts
 137:Drivers/CMSIS/Include/cmsis_gcc.h ****   \details Disables IRQ interrupts by setting the I-bit in the CPSR.
 138:Drivers/CMSIS/Include/cmsis_gcc.h ****            Can only be executed in Privileged modes.
 139:Drivers/CMSIS/Include/cmsis_gcc.h ****  */
 140:Drivers/CMSIS/Include/cmsis_gcc.h **** __STATIC_FORCEINLINE void __disable_irq(void)
 3418              		.loc 6 140 27 view .LVU939
ARM GAS  C:\Users\Admin\AppData\Local\Temp\cctaKpna.s 			page 91


 3419              	.LBB583:
 141:Drivers/CMSIS/Include/cmsis_gcc.h **** {
 142:Drivers/CMSIS/Include/cmsis_gcc.h ****   __ASM volatile ("cpsid i" : : : "memory");
 3420              		.loc 6 142 3 view .LVU940
 3421              		.syntax unified
 3422              	@ 142 "Drivers/CMSIS/Include/cmsis_gcc.h" 1
 3423 0000 72B6     		cpsid i
 3424              	@ 0 "" 2
 3425              		.thumb
 3426              		.syntax unified
 3427              	.L163:
 3428              	.LBE583:
 3429              	.LBE582:
 682:Core/Src/main.cpp ****   {
 3430              		.loc 1 682 3 discriminator 1 view .LVU941
 682:Core/Src/main.cpp ****   {
 3431              		.loc 1 682 3 discriminator 1 view .LVU942
 3432 0002 FEE7     		b	.L163
 3433              		.cfi_endproc
 3434              	.LFE122:
 3435              		.cantunwind
 3436              		.fnend
 3438              		.section	.text._Z18SystemClock_Configv,"ax",%progbits
 3439              		.align	1
 3440              		.global	_Z18SystemClock_Configv
 3441              		.syntax unified
 3442              		.thumb
 3443              		.thumb_func
 3444              		.fpu softvfp
 3446              	_Z18SystemClock_Configv:
 3447              		.fnstart
 3448              	.LFB105:
 153:Core/Src/main.cpp ****   RCC_OscInitTypeDef RCC_OscInitStruct = {0};
 3449              		.loc 1 153 1 view -0
 3450              		.cfi_startproc
 3451              		@ args = 0, pretend = 0, frame = 64
 3452              		@ frame_needed = 0, uses_anonymous_args = 0
 3453 0000 00B5     		push	{lr}
 3454              		.save {lr}
 3455              	.LCFI25:
 3456              		.cfi_def_cfa_offset 4
 3457              		.cfi_offset 14, -4
 3458              		.pad #68
 3459 0002 91B0     		sub	sp, sp, #68
 3460              	.LCFI26:
 3461              		.cfi_def_cfa_offset 72
 154:Core/Src/main.cpp ****   RCC_ClkInitTypeDef RCC_ClkInitStruct = {0};
 3462              		.loc 1 154 3 view .LVU944
 154:Core/Src/main.cpp ****   RCC_ClkInitTypeDef RCC_ClkInitStruct = {0};
 3463              		.loc 1 154 22 is_stmt 0 view .LVU945
 3464 0004 2822     		movs	r2, #40
 3465 0006 0021     		movs	r1, #0
 3466 0008 06A8     		add	r0, sp, #24
 3467 000a FFF7FEFF 		bl	memset
 3468              	.LVL220:
 155:Core/Src/main.cpp **** 
 3469              		.loc 1 155 3 is_stmt 1 view .LVU946
ARM GAS  C:\Users\Admin\AppData\Local\Temp\cctaKpna.s 			page 92


 155:Core/Src/main.cpp **** 
 3470              		.loc 1 155 22 is_stmt 0 view .LVU947
 3471 000e 0023     		movs	r3, #0
 3472 0010 0193     		str	r3, [sp, #4]
 3473 0012 0293     		str	r3, [sp, #8]
 3474 0014 0393     		str	r3, [sp, #12]
 3475 0016 0493     		str	r3, [sp, #16]
 3476 0018 0593     		str	r3, [sp, #20]
 160:Core/Src/main.cpp ****   RCC_OscInitStruct.HSIState = RCC_HSI_ON;
 3477              		.loc 1 160 3 is_stmt 1 view .LVU948
 160:Core/Src/main.cpp ****   RCC_OscInitStruct.HSIState = RCC_HSI_ON;
 3478              		.loc 1 160 36 is_stmt 0 view .LVU949
 3479 001a 0223     		movs	r3, #2
 3480 001c 0693     		str	r3, [sp, #24]
 161:Core/Src/main.cpp ****   RCC_OscInitStruct.HSICalibrationValue = RCC_HSICALIBRATION_DEFAULT;
 3481              		.loc 1 161 3 is_stmt 1 view .LVU950
 161:Core/Src/main.cpp ****   RCC_OscInitStruct.HSICalibrationValue = RCC_HSICALIBRATION_DEFAULT;
 3482              		.loc 1 161 30 is_stmt 0 view .LVU951
 3483 001e 0122     		movs	r2, #1
 3484 0020 0A92     		str	r2, [sp, #40]
 162:Core/Src/main.cpp ****   RCC_OscInitStruct.PLL.PLLState = RCC_PLL_ON;
 3485              		.loc 1 162 3 is_stmt 1 view .LVU952
 162:Core/Src/main.cpp ****   RCC_OscInitStruct.PLL.PLLState = RCC_PLL_ON;
 3486              		.loc 1 162 41 is_stmt 0 view .LVU953
 3487 0022 1022     		movs	r2, #16
 3488 0024 0B92     		str	r2, [sp, #44]
 163:Core/Src/main.cpp ****   RCC_OscInitStruct.PLL.PLLSource = RCC_PLLSOURCE_HSI_DIV2;
 3489              		.loc 1 163 3 is_stmt 1 view .LVU954
 163:Core/Src/main.cpp ****   RCC_OscInitStruct.PLL.PLLSource = RCC_PLLSOURCE_HSI_DIV2;
 3490              		.loc 1 163 34 is_stmt 0 view .LVU955
 3491 0026 0D93     		str	r3, [sp, #52]
 164:Core/Src/main.cpp ****   RCC_OscInitStruct.PLL.PLLMUL = RCC_PLL_MUL9;
 3492              		.loc 1 164 3 is_stmt 1 view .LVU956
 165:Core/Src/main.cpp ****   if (HAL_RCC_OscConfig(&RCC_OscInitStruct) != HAL_OK)
 3493              		.loc 1 165 3 view .LVU957
 165:Core/Src/main.cpp ****   if (HAL_RCC_OscConfig(&RCC_OscInitStruct) != HAL_OK)
 3494              		.loc 1 165 32 is_stmt 0 view .LVU958
 3495 0028 4FF4E013 		mov	r3, #1835008
 3496 002c 0F93     		str	r3, [sp, #60]
 166:Core/Src/main.cpp ****   {
 3497              		.loc 1 166 3 is_stmt 1 view .LVU959
 166:Core/Src/main.cpp ****   {
 3498              		.loc 1 166 24 is_stmt 0 view .LVU960
 3499 002e 06A8     		add	r0, sp, #24
 3500 0030 FFF7FEFF 		bl	HAL_RCC_OscConfig
 3501              	.LVL221:
 166:Core/Src/main.cpp ****   {
 3502              		.loc 1 166 3 view .LVU961
 3503 0034 88B9     		cbnz	r0, .L168
 172:Core/Src/main.cpp ****   RCC_ClkInitStruct.SYSCLKSource = RCC_SYSCLKSOURCE_PLLCLK;
 3504              		.loc 1 172 3 is_stmt 1 view .LVU962
 172:Core/Src/main.cpp ****   RCC_ClkInitStruct.SYSCLKSource = RCC_SYSCLKSOURCE_PLLCLK;
 3505              		.loc 1 172 31 is_stmt 0 view .LVU963
 3506 0036 0F23     		movs	r3, #15
 3507 0038 0193     		str	r3, [sp, #4]
 173:Core/Src/main.cpp ****   RCC_ClkInitStruct.AHBCLKDivider = RCC_SYSCLK_DIV1;
 3508              		.loc 1 173 3 is_stmt 1 view .LVU964
ARM GAS  C:\Users\Admin\AppData\Local\Temp\cctaKpna.s 			page 93


 173:Core/Src/main.cpp ****   RCC_ClkInitStruct.AHBCLKDivider = RCC_SYSCLK_DIV1;
 3509              		.loc 1 173 34 is_stmt 0 view .LVU965
 3510 003a 0223     		movs	r3, #2
 3511 003c 0293     		str	r3, [sp, #8]
 174:Core/Src/main.cpp ****   RCC_ClkInitStruct.APB1CLKDivider = RCC_HCLK_DIV2;
 3512              		.loc 1 174 3 is_stmt 1 view .LVU966
 174:Core/Src/main.cpp ****   RCC_ClkInitStruct.APB1CLKDivider = RCC_HCLK_DIV2;
 3513              		.loc 1 174 35 is_stmt 0 view .LVU967
 3514 003e 0023     		movs	r3, #0
 3515 0040 0393     		str	r3, [sp, #12]
 175:Core/Src/main.cpp ****   RCC_ClkInitStruct.APB2CLKDivider = RCC_HCLK_DIV1;
 3516              		.loc 1 175 3 is_stmt 1 view .LVU968
 175:Core/Src/main.cpp ****   RCC_ClkInitStruct.APB2CLKDivider = RCC_HCLK_DIV1;
 3517              		.loc 1 175 36 is_stmt 0 view .LVU969
 3518 0042 4FF48062 		mov	r2, #1024
 3519 0046 0492     		str	r2, [sp, #16]
 176:Core/Src/main.cpp **** 
 3520              		.loc 1 176 3 is_stmt 1 view .LVU970
 176:Core/Src/main.cpp **** 
 3521              		.loc 1 176 36 is_stmt 0 view .LVU971
 3522 0048 0593     		str	r3, [sp, #20]
 178:Core/Src/main.cpp ****   {
 3523              		.loc 1 178 3 is_stmt 1 view .LVU972
 178:Core/Src/main.cpp ****   {
 3524              		.loc 1 178 26 is_stmt 0 view .LVU973
 3525 004a 0121     		movs	r1, #1
 3526 004c 01A8     		add	r0, sp, #4
 3527 004e FFF7FEFF 		bl	HAL_RCC_ClockConfig
 3528              	.LVL222:
 178:Core/Src/main.cpp ****   {
 3529              		.loc 1 178 3 view .LVU974
 3530 0052 20B9     		cbnz	r0, .L169
 182:Core/Src/main.cpp **** 
 3531              		.loc 1 182 1 view .LVU975
 3532 0054 11B0     		add	sp, sp, #68
 3533              	.LCFI27:
 3534              		.cfi_remember_state
 3535              		.cfi_def_cfa_offset 4
 3536              		@ sp needed
 3537 0056 5DF804FB 		ldr	pc, [sp], #4
 3538              	.L168:
 3539              	.LCFI28:
 3540              		.cfi_restore_state
 168:Core/Src/main.cpp ****   }
 3541              		.loc 1 168 5 is_stmt 1 view .LVU976
 168:Core/Src/main.cpp ****   }
 3542              		.loc 1 168 18 is_stmt 0 view .LVU977
 3543 005a FFF7FEFF 		bl	Error_Handler
 3544              	.LVL223:
 3545              	.L169:
 180:Core/Src/main.cpp ****   }
 3546              		.loc 1 180 5 is_stmt 1 view .LVU978
 180:Core/Src/main.cpp ****   }
 3547              		.loc 1 180 18 is_stmt 0 view .LVU979
 3548 005e FFF7FEFF 		bl	Error_Handler
 3549              	.LVL224:
 3550              		.cfi_endproc
ARM GAS  C:\Users\Admin\AppData\Local\Temp\cctaKpna.s 			page 94


 3551              	.LFE105:
 3552              		.fnend
 3554              		.section	.text._ZL19MX_USART1_UART_Initv,"ax",%progbits
 3555              		.align	1
 3556              		.syntax unified
 3557              		.thumb
 3558              		.thumb_func
 3559              		.fpu softvfp
 3561              	_ZL19MX_USART1_UART_Initv:
 3562              		.fnstart
 3563              	.LFB106:
 190:Core/Src/main.cpp **** 
 3564              		.loc 1 190 1 is_stmt 1 view -0
 3565              		.cfi_startproc
 3566              		@ args = 0, pretend = 0, frame = 0
 3567              		@ frame_needed = 0, uses_anonymous_args = 0
 3568 0000 08B5     		push	{r3, lr}
 3569              		.save {r3, lr}
 3570              	.LCFI29:
 3571              		.cfi_def_cfa_offset 8
 3572              		.cfi_offset 3, -8
 3573              		.cfi_offset 14, -4
 199:Core/Src/main.cpp ****   huart1.Init.BaudRate = 115200;
 3574              		.loc 1 199 3 view .LVU981
 199:Core/Src/main.cpp ****   huart1.Init.BaudRate = 115200;
 3575              		.loc 1 199 19 is_stmt 0 view .LVU982
 3576 0002 0A48     		ldr	r0, .L174
 3577 0004 0A4B     		ldr	r3, .L174+4
 3578 0006 0360     		str	r3, [r0]
 200:Core/Src/main.cpp ****   huart1.Init.WordLength = UART_WORDLENGTH_8B;
 3579              		.loc 1 200 3 is_stmt 1 view .LVU983
 200:Core/Src/main.cpp ****   huart1.Init.WordLength = UART_WORDLENGTH_8B;
 3580              		.loc 1 200 24 is_stmt 0 view .LVU984
 3581 0008 4FF4E133 		mov	r3, #115200
 3582 000c 4360     		str	r3, [r0, #4]
 201:Core/Src/main.cpp ****   huart1.Init.StopBits = UART_STOPBITS_1;
 3583              		.loc 1 201 3 is_stmt 1 view .LVU985
 201:Core/Src/main.cpp ****   huart1.Init.StopBits = UART_STOPBITS_1;
 3584              		.loc 1 201 26 is_stmt 0 view .LVU986
 3585 000e 0023     		movs	r3, #0
 3586 0010 8360     		str	r3, [r0, #8]
 202:Core/Src/main.cpp ****   huart1.Init.Parity = UART_PARITY_NONE;
 3587              		.loc 1 202 3 is_stmt 1 view .LVU987
 202:Core/Src/main.cpp ****   huart1.Init.Parity = UART_PARITY_NONE;
 3588              		.loc 1 202 24 is_stmt 0 view .LVU988
 3589 0012 C360     		str	r3, [r0, #12]
 203:Core/Src/main.cpp ****   huart1.Init.Mode = UART_MODE_TX_RX;
 3590              		.loc 1 203 3 is_stmt 1 view .LVU989
 203:Core/Src/main.cpp ****   huart1.Init.Mode = UART_MODE_TX_RX;
 3591              		.loc 1 203 22 is_stmt 0 view .LVU990
 3592 0014 0361     		str	r3, [r0, #16]
 204:Core/Src/main.cpp ****   huart1.Init.HwFlowCtl = UART_HWCONTROL_NONE;
 3593              		.loc 1 204 3 is_stmt 1 view .LVU991
 204:Core/Src/main.cpp ****   huart1.Init.HwFlowCtl = UART_HWCONTROL_NONE;
 3594              		.loc 1 204 20 is_stmt 0 view .LVU992
 3595 0016 0C22     		movs	r2, #12
 3596 0018 4261     		str	r2, [r0, #20]
ARM GAS  C:\Users\Admin\AppData\Local\Temp\cctaKpna.s 			page 95


 205:Core/Src/main.cpp ****   huart1.Init.OverSampling = UART_OVERSAMPLING_16;
 3597              		.loc 1 205 3 is_stmt 1 view .LVU993
 205:Core/Src/main.cpp ****   huart1.Init.OverSampling = UART_OVERSAMPLING_16;
 3598              		.loc 1 205 25 is_stmt 0 view .LVU994
 3599 001a 8361     		str	r3, [r0, #24]
 206:Core/Src/main.cpp ****   if (HAL_UART_Init(&huart1) != HAL_OK)
 3600              		.loc 1 206 3 is_stmt 1 view .LVU995
 206:Core/Src/main.cpp ****   if (HAL_UART_Init(&huart1) != HAL_OK)
 3601              		.loc 1 206 28 is_stmt 0 view .LVU996
 3602 001c C361     		str	r3, [r0, #28]
 207:Core/Src/main.cpp ****   {
 3603              		.loc 1 207 3 is_stmt 1 view .LVU997
 207:Core/Src/main.cpp ****   {
 3604              		.loc 1 207 20 is_stmt 0 view .LVU998
 3605 001e FFF7FEFF 		bl	HAL_UART_Init
 3606              	.LVL225:
 207:Core/Src/main.cpp ****   {
 3607              		.loc 1 207 3 view .LVU999
 3608 0022 00B9     		cbnz	r0, .L173
 214:Core/Src/main.cpp **** 
 3609              		.loc 1 214 1 view .LVU1000
 3610 0024 08BD     		pop	{r3, pc}
 3611              	.L173:
 209:Core/Src/main.cpp ****   }
 3612              		.loc 1 209 5 is_stmt 1 view .LVU1001
 209:Core/Src/main.cpp ****   }
 3613              		.loc 1 209 18 is_stmt 0 view .LVU1002
 3614 0026 FFF7FEFF 		bl	Error_Handler
 3615              	.LVL226:
 3616              	.L175:
 3617 002a 00BF     		.align	2
 3618              	.L174:
 3619 002c 00000000 		.word	.LANCHOR19
 3620 0030 00380140 		.word	1073821696
 3621              		.cfi_endproc
 3622              	.LFE106:
 3623              		.fnend
 3625              		.section	.text.main,"ax",%progbits
 3626              		.align	1
 3627              		.global	main
 3628              		.syntax unified
 3629              		.thumb
 3630              		.thumb_func
 3631              		.fpu softvfp
 3633              	main:
 3634              		.fnstart
 3635              	.LFB108:
 273:Core/Src/main.cpp ****   HAL_Init();
 3636              		.loc 1 273 1 is_stmt 1 view -0
 3637              		.cfi_startproc
 3638              		@ args = 0, pretend = 0, frame = 0
 3639              		@ frame_needed = 0, uses_anonymous_args = 0
 3640 0000 08B5     		push	{r3, lr}
 3641              		.save {r3, lr}
 3642              	.LCFI30:
 3643              		.cfi_def_cfa_offset 8
 3644              		.cfi_offset 3, -8
ARM GAS  C:\Users\Admin\AppData\Local\Temp\cctaKpna.s 			page 96


 3645              		.cfi_offset 14, -4
 274:Core/Src/main.cpp **** 
 3646              		.loc 1 274 3 view .LVU1004
 274:Core/Src/main.cpp **** 
 3647              		.loc 1 274 11 is_stmt 0 view .LVU1005
 3648 0002 FFF7FEFF 		bl	HAL_Init
 3649              	.LVL227:
 276:Core/Src/main.cpp **** 
 3650              		.loc 1 276 3 is_stmt 1 view .LVU1006
 276:Core/Src/main.cpp **** 
 3651              		.loc 1 276 21 is_stmt 0 view .LVU1007
 3652 0006 FFF7FEFF 		bl	_Z18SystemClock_Configv
 3653              	.LVL228:
 278:Core/Src/main.cpp ****   MX_USART1_UART_Init();
 3654              		.loc 1 278 3 is_stmt 1 view .LVU1008
 278:Core/Src/main.cpp ****   MX_USART1_UART_Init();
 3655              		.loc 1 278 15 is_stmt 0 view .LVU1009
 3656 000a FFF7FEFF 		bl	_ZL12MX_GPIO_Initv
 3657              	.LVL229:
 279:Core/Src/main.cpp **** 
 3658              		.loc 1 279 3 is_stmt 1 view .LVU1010
 279:Core/Src/main.cpp **** 
 3659              		.loc 1 279 22 is_stmt 0 view .LVU1011
 3660 000e FFF7FEFF 		bl	_ZL19MX_USART1_UART_Initv
 3661              	.LVL230:
 281:Core/Src/main.cpp ****   insideGreenLed.turnOn();
 3662              		.loc 1 281 3 is_stmt 1 view .LVU1012
 281:Core/Src/main.cpp ****   insideGreenLed.turnOn();
 3663              		.loc 1 281 14 is_stmt 0 view .LVU1013
 3664 0012 1648     		ldr	r0, .L179
 3665 0014 FFF7FEFF 		bl	_Z11UART_PrintfPKcz
 3666              	.LVL231:
 282:Core/Src/main.cpp ****   outsideGreenLed.turnOn();
 3667              		.loc 1 282 3 is_stmt 1 view .LVU1014
 3668              	.LBB584:
 3669              	.LBI584:
  28:Core/Inc/PinOut.h ****     {
 3670              		.loc 2 28 10 view .LVU1015
 3671              	.LBE584:
  30:Core/Inc/PinOut.h ****     }
 3672              		.loc 2 30 9 view .LVU1016
 3673              	.LBB587:
 3674              	.LBB585:
 3675              	.LBI585:
  38:Core/Inc/PinOut.h ****     {
 3676              		.loc 2 38 10 view .LVU1017
 3677              	.LBB586:
  40:Core/Inc/PinOut.h ****         {
 3678              		.loc 2 40 9 view .LVU1018
  42:Core/Inc/PinOut.h ****         }
 3679              		.loc 2 42 13 view .LVU1019
  42:Core/Inc/PinOut.h ****         }
 3680              		.loc 2 42 30 is_stmt 0 view .LVU1020
 3681 0018 154B     		ldr	r3, .L179+4
 3682 001a 0122     		movs	r2, #1
 3683 001c 9988     		ldrh	r1, [r3, #4]
 3684 001e 1868     		ldr	r0, [r3]
ARM GAS  C:\Users\Admin\AppData\Local\Temp\cctaKpna.s 			page 97


 3685 0020 FFF7FEFF 		bl	HAL_GPIO_WritePin
 3686              	.LVL232:
  42:Core/Inc/PinOut.h ****         }
 3687              		.loc 2 42 30 view .LVU1021
 3688              	.LBE586:
 3689              	.LBE585:
 3690              	.LBE587:
 283:Core/Src/main.cpp ****   insideZumer.turnOn();
 3691              		.loc 1 283 3 is_stmt 1 view .LVU1022
 3692              	.LBB588:
 3693              	.LBI588:
  28:Core/Inc/PinOut.h ****     {
 3694              		.loc 2 28 10 view .LVU1023
 3695              	.LBE588:
  30:Core/Inc/PinOut.h ****     }
 3696              		.loc 2 30 9 view .LVU1024
 3697              	.LBB591:
 3698              	.LBB589:
 3699              	.LBI589:
  38:Core/Inc/PinOut.h ****     {
 3700              		.loc 2 38 10 view .LVU1025
 3701              	.LBB590:
  40:Core/Inc/PinOut.h ****         {
 3702              		.loc 2 40 9 view .LVU1026
  42:Core/Inc/PinOut.h ****         }
 3703              		.loc 2 42 13 view .LVU1027
  42:Core/Inc/PinOut.h ****         }
 3704              		.loc 2 42 30 is_stmt 0 view .LVU1028
 3705 0024 134B     		ldr	r3, .L179+8
 3706 0026 0122     		movs	r2, #1
 3707 0028 9988     		ldrh	r1, [r3, #4]
 3708 002a 1868     		ldr	r0, [r3]
 3709 002c FFF7FEFF 		bl	HAL_GPIO_WritePin
 3710              	.LVL233:
  42:Core/Inc/PinOut.h ****         }
 3711              		.loc 2 42 30 view .LVU1029
 3712              	.LBE590:
 3713              	.LBE589:
 3714              	.LBE591:
 284:Core/Src/main.cpp ****   outsideZumer.turnOn();
 3715              		.loc 1 284 3 is_stmt 1 view .LVU1030
 3716              	.LBB592:
 3717              	.LBI592:
  28:Core/Inc/PinOut.h ****     {
 3718              		.loc 2 28 10 view .LVU1031
 3719              	.LBE592:
  30:Core/Inc/PinOut.h ****     }
 3720              		.loc 2 30 9 view .LVU1032
 3721              	.LBB595:
 3722              	.LBB593:
 3723              	.LBI593:
  38:Core/Inc/PinOut.h ****     {
 3724              		.loc 2 38 10 view .LVU1033
 3725              	.LBB594:
  40:Core/Inc/PinOut.h ****         {
 3726              		.loc 2 40 9 view .LVU1034
  42:Core/Inc/PinOut.h ****         }
ARM GAS  C:\Users\Admin\AppData\Local\Temp\cctaKpna.s 			page 98


 3727              		.loc 2 42 13 view .LVU1035
  42:Core/Inc/PinOut.h ****         }
 3728              		.loc 2 42 30 is_stmt 0 view .LVU1036
 3729 0030 114B     		ldr	r3, .L179+12
 3730 0032 0122     		movs	r2, #1
 3731 0034 9988     		ldrh	r1, [r3, #4]
 3732 0036 1868     		ldr	r0, [r3]
 3733 0038 FFF7FEFF 		bl	HAL_GPIO_WritePin
 3734              	.LVL234:
  42:Core/Inc/PinOut.h ****         }
 3735              		.loc 2 42 30 view .LVU1037
 3736              	.LBE594:
 3737              	.LBE593:
 3738              	.LBE595:
 285:Core/Src/main.cpp **** 
 3739              		.loc 1 285 3 is_stmt 1 view .LVU1038
 3740              	.LBB596:
 3741              	.LBI596:
  28:Core/Inc/PinOut.h ****     {
 3742              		.loc 2 28 10 view .LVU1039
 3743              	.LBB597:
  30:Core/Inc/PinOut.h ****     }
 3744              		.loc 2 30 9 view .LVU1040
 3745              	.LBB598:
 3746              	.LBI598:
  38:Core/Inc/PinOut.h ****     {
 3747              		.loc 2 38 10 view .LVU1041
 3748              	.LBB599:
  40:Core/Inc/PinOut.h ****         {
 3749              		.loc 2 40 9 view .LVU1042
  42:Core/Inc/PinOut.h ****         }
 3750              		.loc 2 42 13 view .LVU1043
  42:Core/Inc/PinOut.h ****         }
 3751              		.loc 2 42 30 is_stmt 0 view .LVU1044
 3752 003c 0F4B     		ldr	r3, .L179+16
 3753 003e 0122     		movs	r2, #1
 3754 0040 9988     		ldrh	r1, [r3, #4]
 3755 0042 1868     		ldr	r0, [r3]
 3756 0044 FFF7FEFF 		bl	HAL_GPIO_WritePin
 3757              	.LVL235:
 3758              	.L177:
  42:Core/Inc/PinOut.h ****         }
 3759              		.loc 2 42 30 view .LVU1045
 3760              	.LBE599:
 3761              	.LBE598:
 3762              	.LBE597:
 3763              	.LBE596:
 287:Core/Src/main.cpp ****   {
 3764              		.loc 1 287 3 is_stmt 1 discriminator 1 view .LVU1046
 289:Core/Src/main.cpp **** 
 3765              		.loc 1 289 5 discriminator 1 view .LVU1047
 289:Core/Src/main.cpp **** 
 3766              		.loc 1 289 19 is_stmt 0 discriminator 1 view .LVU1048
 3767 0048 FFF7FEFF 		bl	_Z14TimeTrackEventv
 3768              	.LVL236:
 291:Core/Src/main.cpp **** 
 3769              		.loc 1 291 5 is_stmt 1 discriminator 1 view .LVU1049
ARM GAS  C:\Users\Admin\AppData\Local\Temp\cctaKpna.s 			page 99


 291:Core/Src/main.cpp **** 
 3770              		.loc 1 291 20 is_stmt 0 discriminator 1 view .LVU1050
 3771 004c FFF7FEFF 		bl	_Z15ChangeModeEventv
 3772              	.LVL237:
 293:Core/Src/main.cpp **** 
 3773              		.loc 1 293 5 is_stmt 1 discriminator 1 view .LVU1051
 295:Core/Src/main.cpp **** 
 3774              		.loc 1 295 5 discriminator 1 view .LVU1052
 295:Core/Src/main.cpp **** 
 3775              		.loc 1 295 17 is_stmt 0 discriminator 1 view .LVU1053
 3776 0050 FFF7FEFF 		bl	_Z12KeyReadEventv
 3777              	.LVL238:
 297:Core/Src/main.cpp **** 
 3778              		.loc 1 297 5 is_stmt 1 discriminator 1 view .LVU1054
 297:Core/Src/main.cpp **** 
 3779              		.loc 1 297 23 is_stmt 0 discriminator 1 view .LVU1055
 3780 0054 FFF7FEFF 		bl	_Z18ButtonPressedEventv
 3781              	.LVL239:
 299:Core/Src/main.cpp **** 
 3782              		.loc 1 299 5 is_stmt 1 discriminator 1 view .LVU1056
 299:Core/Src/main.cpp **** 
 3783              		.loc 1 299 22 is_stmt 0 discriminator 1 view .LVU1057
 3784 0058 FFF7FEFF 		bl	_Z17TempOpenModeEventv
 3785              	.LVL240:
 301:Core/Src/main.cpp **** 
 3786              		.loc 1 301 5 is_stmt 1 discriminator 1 view .LVU1058
 301:Core/Src/main.cpp **** 
 3787              		.loc 1 301 19 is_stmt 0 discriminator 1 view .LVU1059
 3788 005c FFF7FEFF 		bl	_Z14TempAlarmEventv
 3789              	.LVL241:
 303:Core/Src/main.cpp **** 
 3790              		.loc 1 303 5 is_stmt 1 discriminator 1 view .LVU1060
 303:Core/Src/main.cpp **** 
 3791              		.loc 1 303 17 is_stmt 0 discriminator 1 view .LVU1061
 3792 0060 FFF7FEFF 		bl	_Z12DenyKeyEventv
 3793              	.LVL242:
 305:Core/Src/main.cpp ****   }
 3794              		.loc 1 305 5 is_stmt 1 discriminator 1 view .LVU1062
 305:Core/Src/main.cpp ****   }
 3795              		.loc 1 305 15 is_stmt 0 discriminator 1 view .LVU1063
 3796 0064 FFF7FEFF 		bl	_Z10AlarmEventv
 3797              	.LVL243:
 287:Core/Src/main.cpp ****   {
 3798              		.loc 1 287 3 is_stmt 1 discriminator 1 view .LVU1064
 3799 0068 EEE7     		b	.L177
 3800              	.L180:
 3801 006a 00BF     		.align	2
 3802              	.L179:
 3803 006c 58000000 		.word	.LC16
 3804 0070 00000000 		.word	.LANCHOR5
 3805 0074 00000000 		.word	.LANCHOR6
 3806 0078 00000000 		.word	.LANCHOR3
 3807 007c 00000000 		.word	.LANCHOR4
 3808              		.cfi_endproc
 3809              	.LFE108:
 3810              		.fnend
 3812              		.section	.text._GLOBAL__sub_I_huart1,"ax",%progbits
ARM GAS  C:\Users\Admin\AppData\Local\Temp\cctaKpna.s 			page 100


 3813              		.align	1
 3814              		.syntax unified
 3815              		.thumb
 3816              		.thumb_func
 3817              		.fpu softvfp
 3819              	_GLOBAL__sub_I_huart1:
 3820              		.fnstart
 3821              	.LFB124:
 3822              		.loc 1 686 1 view -0
 3823              		.cfi_startproc
 3824              		@ args = 0, pretend = 0, frame = 0
 3825              		@ frame_needed = 0, uses_anonymous_args = 0
 3826 0000 08B5     		push	{r3, lr}
 3827              	.LCFI31:
 3828              		.cfi_def_cfa_offset 8
 3829              		.cfi_offset 3, -8
 3830              		.cfi_offset 14, -4
 3831              		.loc 1 686 1 is_stmt 0 view .LVU1066
 3832 0002 4FF6FF71 		movw	r1, #65535
 3833 0006 0120     		movs	r0, #1
 3834 0008 FFF7FEFF 		bl	_Z41__static_initialization_and_destruction_0ii
 3835              	.LVL244:
 3836 000c 08BD     		pop	{r3, pc}
 3837              		.cfi_endproc
 3838              	.LFE124:
 3839              		.cantunwind
 3840              		.fnend
 3842              		.section	.init_array,"aw",%init_array
 3843              		.align	2
 3844 0000 00000000 		.word	_GLOBAL__sub_I_huart1(target1)
 3845              		.global	timme
 3846              		.global	timmeTrack
 3847              		.global	outsideKeyRead
 3848              		.global	insideKeyRead
 3849              		.global	outsideButtonPressed
 3850              		.global	insideButtonPressed
 3851              		.global	outsideGreenLed
 3852              		.global	insideGreenLed
 3853              		.global	outsideZumer
 3854              		.global	insideZumer
 3855              		.global	siren
 3856              		.global	lock
 3857              		.global	door
 3858              		.global	previousWorkMode
 3859              		.global	workMode
 3860              		.global	intercomMode
 3861              		.global	wig_flag_inrt
 3862              		.global	huart1
 3863              		.section	.bss._ZGVZ10AlarmEventvE10alarmTimer,"aw",%nobits
 3864              		.align	2
 3865              		.set	.LANCHOR12,. + 0
 3868              	_ZGVZ10AlarmEventvE10alarmTimer:
 3869 0000 00000000 		.space	4
 3870              		.section	.bss._ZGVZ12DenyKeyEventvE9denyTimer,"aw",%nobits
 3871              		.align	2
 3872              		.set	.LANCHOR7,. + 0
 3875              	_ZGVZ12DenyKeyEventvE9denyTimer:
ARM GAS  C:\Users\Admin\AppData\Local\Temp\cctaKpna.s 			page 101


 3876 0000 00000000 		.space	4
 3877              		.section	.bss._ZGVZ14TempAlarmEventvE10sirenTimer,"aw",%nobits
 3878              		.align	2
 3879              		.set	.LANCHOR28,. + 0
 3882              	_ZGVZ14TempAlarmEventvE10sirenTimer:
 3883 0000 00000000 		.space	4
 3884              		.section	.bss._ZGVZ17TempOpenModeEventvE10zumerTimer,"aw",%nobits
 3885              		.align	2
 3886              		.set	.LANCHOR24,. + 0
 3889              	_ZGVZ17TempOpenModeEventvE10zumerTimer:
 3890 0000 00000000 		.space	4
 3891              		.section	.bss._ZGVZ17TempOpenModeEventvE9lockTimer,"aw",%nobits
 3892              		.align	2
 3893              		.set	.LANCHOR22,. + 0
 3896              	_ZGVZ17TempOpenModeEventvE9lockTimer:
 3897 0000 00000000 		.space	4
 3898              		.section	.bss._ZZ10AlarmEventvE10alarmTimer,"aw",%nobits
 3899              		.align	2
 3900              		.set	.LANCHOR13,. + 0
 3903              	_ZZ10AlarmEventvE10alarmTimer:
 3904 0000 00000000 		.space	8
 3904      00000000 
 3905              		.section	.bss._ZZ12DenyKeyEventvE9denyTimer,"aw",%nobits
 3906              		.align	2
 3907              		.set	.LANCHOR8,. + 0
 3910              	_ZZ12DenyKeyEventvE9denyTimer:
 3911 0000 00000000 		.space	8
 3911      00000000 
 3912              		.section	.bss._ZZ14TempAlarmEventvE10sirenTimer,"aw",%nobits
 3913              		.align	2
 3914              		.set	.LANCHOR29,. + 0
 3917              	_ZZ14TempAlarmEventvE10sirenTimer:
 3918 0000 00000000 		.space	8
 3918      00000000 
 3919              		.section	.bss._ZZ17TempOpenModeEventvE10zumerTimer,"aw",%nobits
 3920              		.align	2
 3921              		.set	.LANCHOR25,. + 0
 3924              	_ZZ17TempOpenModeEventvE10zumerTimer:
 3925 0000 00000000 		.space	8
 3925      00000000 
 3926              		.section	.bss._ZZ17TempOpenModeEventvE9lockTimer,"aw",%nobits
 3927              		.align	2
 3928              		.set	.LANCHOR23,. + 0
 3931              	_ZZ17TempOpenModeEventvE9lockTimer:
 3932 0000 00000000 		.space	8
 3932      00000000 
 3933              		.section	.bss.door,"aw",%nobits
 3934              		.align	2
 3935              		.set	.LANCHOR0,. + 0
 3938              	door:
 3939 0000 00000000 		.space	8
 3939      00000000 
 3940              		.section	.bss.huart1,"aw",%nobits
 3941              		.align	2
 3942              		.set	.LANCHOR19,. + 0
 3945              	huart1:
 3946 0000 00000000 		.space	64
ARM GAS  C:\Users\Admin\AppData\Local\Temp\cctaKpna.s 			page 102


 3946      00000000 
 3946      00000000 
 3946      00000000 
 3946      00000000 
 3947              		.section	.bss.insideButtonPressed,"aw",%nobits
 3948              		.set	.LANCHOR14,. + 0
 3951              	insideButtonPressed:
 3952 0000 00       		.space	1
 3953              		.section	.bss.insideGreenLed,"aw",%nobits
 3954              		.align	2
 3955              		.set	.LANCHOR5,. + 0
 3958              	insideGreenLed:
 3959 0000 00000000 		.space	8
 3959      00000000 
 3960              		.section	.bss.insideKeyRead,"aw",%nobits
 3961              		.set	.LANCHOR17,. + 0
 3964              	insideKeyRead:
 3965 0000 00       		.space	1
 3966              		.section	.bss.insideZumer,"aw",%nobits
 3967              		.align	2
 3968              		.set	.LANCHOR3,. + 0
 3971              	insideZumer:
 3972 0000 00000000 		.space	8
 3972      00000000 
 3973              		.section	.bss.intercomMode,"aw",%nobits
 3974              		.align	2
 3975              		.set	.LANCHOR27,. + 0
 3978              	intercomMode:
 3979 0000 00000000 		.space	4
 3980              		.section	.bss.lock,"aw",%nobits
 3981              		.align	2
 3982              		.set	.LANCHOR1,. + 0
 3985              	lock:
 3986 0000 00000000 		.space	8
 3986      00000000 
 3987              		.section	.bss.outsideButtonPressed,"aw",%nobits
 3988              		.set	.LANCHOR15,. + 0
 3991              	outsideButtonPressed:
 3992 0000 00       		.space	1
 3993              		.section	.bss.outsideGreenLed,"aw",%nobits
 3994              		.align	2
 3995              		.set	.LANCHOR6,. + 0
 3998              	outsideGreenLed:
 3999 0000 00000000 		.space	8
 3999      00000000 
 4000              		.section	.bss.outsideKeyRead,"aw",%nobits
 4001              		.set	.LANCHOR18,. + 0
 4004              	outsideKeyRead:
 4005 0000 00       		.space	1
 4006              		.section	.bss.outsideZumer,"aw",%nobits
 4007              		.align	2
 4008              		.set	.LANCHOR4,. + 0
 4011              	outsideZumer:
 4012 0000 00000000 		.space	8
 4012      00000000 
 4013              		.section	.bss.siren,"aw",%nobits
 4014              		.align	2
ARM GAS  C:\Users\Admin\AppData\Local\Temp\cctaKpna.s 			page 103


 4015              		.set	.LANCHOR2,. + 0
 4018              	siren:
 4019 0000 00000000 		.space	8
 4019      00000000 
 4020              		.section	.bss.timme,"aw",%nobits
 4021              		.align	2
 4022              		.set	.LANCHOR21,. + 0
 4025              	timme:
 4026 0000 00000000 		.space	4
 4027              		.section	.bss.timmeTrack,"aw",%nobits
 4028              		.align	2
 4029              		.set	.LANCHOR20,. + 0
 4032              	timmeTrack:
 4033 0000 00000000 		.space	4
 4034              		.section	.data._ZZ12DenyKeyEventvE9firstTime,"aw"
 4035              		.set	.LANCHOR10,. + 0
 4038              	_ZZ12DenyKeyEventvE9firstTime:
 4039 0000 01       		.byte	1
 4040              		.section	.data._ZZ17TempOpenModeEventvE9firstTime,"aw"
 4041              		.set	.LANCHOR26,. + 0
 4044              	_ZZ17TempOpenModeEventvE9firstTime:
 4045 0000 01       		.byte	1
 4046              		.section	.data.previousWorkMode,"aw"
 4047              		.align	2
 4048              		.set	.LANCHOR11,. + 0
 4051              	previousWorkMode:
 4052 0000 04000000 		.word	4
 4053              		.section	.data.wig_flag_inrt,"aw"
 4054              		.set	.LANCHOR16,. + 0
 4057              	wig_flag_inrt:
 4058 0000 01       		.byte	1
 4059              		.section	.data.workMode,"aw"
 4060              		.align	2
 4061              		.set	.LANCHOR9,. + 0
 4064              	workMode:
 4065 0000 04000000 		.word	4
 4066              		.text
 4067              	.Letext0:
 4068              		.file 7 "Drivers/CMSIS/Device/ST/STM32F1xx/Include/stm32f103xg.h"
 4069              		.file 8 "e:\\dev\\tools\\gcc-arm-none-eabi-10-2020-q4-major\\arm-none-eabi\\include\\machine\\_def
 4070              		.file 9 "e:\\dev\\tools\\gcc-arm-none-eabi-10-2020-q4-major\\arm-none-eabi\\include\\sys\\_stdint.
 4071              		.file 10 "Drivers/CMSIS/Device/ST/STM32F1xx/Include/stm32f1xx.h"
 4072              		.file 11 "Drivers/STM32F1xx_HAL_Driver/Inc/stm32f1xx_hal_def.h"
 4073              		.file 12 "Drivers/STM32F1xx_HAL_Driver/Inc/stm32f1xx_hal_rcc.h"
 4074              		.file 13 "Drivers/STM32F1xx_HAL_Driver/Inc/stm32f1xx_hal_rcc_ex.h"
 4075              		.file 14 "Drivers/STM32F1xx_HAL_Driver/Inc/stm32f1xx_hal_gpio.h"
 4076              		.file 15 "Drivers/STM32F1xx_HAL_Driver/Inc/stm32f1xx_hal_dma.h"
 4077              		.file 16 "Drivers/STM32F1xx_HAL_Driver/Inc/stm32f1xx_hal_uart.h"
 4078              		.file 17 "Drivers/STM32F1xx_HAL_Driver/Inc/stm32f1xx_hal.h"
 4079              		.file 18 "e:\\dev\\tools\\gcc-arm-none-eabi-10-2020-q4-major\\lib\\gcc\\arm-none-eabi\\10.2.1\\inc
 4080              		.file 19 "e:\\dev\\tools\\gcc-arm-none-eabi-10-2020-q4-major\\arm-none-eabi\\include\\stdio.h"
 4081              		.file 20 "Core/Inc/State.h"
 4082              		.file 21 "Core/Inc/WorkMode.h"
 4083              		.file 22 "Core/Inc/IntercomMode.h"
 4084              		.file 23 "e:\\dev\\tools\\gcc-arm-none-eabi-10-2020-q4-major\\arm-none-eabi\\include\\string.h"
 4085              		.file 24 "Core/Inc/wiegand.h"
 4086              		.file 25 "Drivers/STM32F1xx_HAL_Driver/Inc/stm32f1xx_hal_cortex.h"
ARM GAS  C:\Users\Admin\AppData\Local\Temp\cctaKpna.s 			page 104


 4087              		.file 26 "<built-in>"
ARM GAS  C:\Users\Admin\AppData\Local\Temp\cctaKpna.s 			page 105


DEFINED SYMBOLS
                            *ABS*:00000000 main.cpp
C:\Users\Admin\AppData\Local\Temp\cctaKpna.s:16     .text._ZL12MX_GPIO_Initv:00000000 $t
C:\Users\Admin\AppData\Local\Temp\cctaKpna.s:23     .text._ZL12MX_GPIO_Initv:00000000 _ZL12MX_GPIO_Initv
C:\Users\Admin\AppData\Local\Temp\cctaKpna.s:211    .text._ZL12MX_GPIO_Initv:000000d4 $d
.ARM.exidx.text._ZL12MX_GPIO_Initv:00000000 $d
C:\Users\Admin\AppData\Local\Temp\cctaKpna.s:221    .text._ZN6PinOutC2EP12GPIO_TypeDeft:00000000 $t
C:\Users\Admin\AppData\Local\Temp\cctaKpna.s:228    .text._ZN6PinOutC2EP12GPIO_TypeDeft:00000000 _ZN6PinOutC2EP12GPIO_TypeDeft
C:\Users\Admin\AppData\Local\Temp\cctaKpna.s:341    .text._ZN6PinOutC2EP12GPIO_TypeDeft:00000064 $d
.ARM.exidx.text._ZN6PinOutC2EP12GPIO_TypeDeft:00000000 $d
C:\Users\Admin\AppData\Local\Temp\cctaKpna.s:228    .text._ZN6PinOutC2EP12GPIO_TypeDeft:00000000 _ZN6PinOutC1EP12GPIO_TypeDeft
C:\Users\Admin\AppData\Local\Temp\cctaKpna.s:349    .text._Z41__static_initialization_and_destruction_0ii:00000000 $t
C:\Users\Admin\AppData\Local\Temp\cctaKpna.s:355    .text._Z41__static_initialization_and_destruction_0ii:00000000 _Z41__static_initialization_and_destruction_0ii
C:\Users\Admin\AppData\Local\Temp\cctaKpna.s:484    .text._Z41__static_initialization_and_destruction_0ii:00000084 $d
.ARM.exidx.text._Z41__static_initialization_and_destruction_0ii:00000000 $d
C:\Users\Admin\AppData\Local\Temp\cctaKpna.s:499    .text._Z15DoorOpenedEventv:00000000 $t
C:\Users\Admin\AppData\Local\Temp\cctaKpna.s:506    .text._Z15DoorOpenedEventv:00000000 _Z15DoorOpenedEventv
.ARM.exidx.text._Z15DoorOpenedEventv:00000000 $d
C:\Users\Admin\AppData\Local\Temp\cctaKpna.s:522    .text._Z12DenyKeyEventv:00000000 $t
C:\Users\Admin\AppData\Local\Temp\cctaKpna.s:529    .text._Z12DenyKeyEventv:00000000 _Z12DenyKeyEventv
C:\Users\Admin\AppData\Local\Temp\cctaKpna.s:896    .text._Z12DenyKeyEventv:000000e8 $d
.ARM.extab.text._Z12DenyKeyEventv:00000000 $d
.ARM.exidx.text._Z12DenyKeyEventv:00000000 $d
C:\Users\Admin\AppData\Local\Temp\cctaKpna.s:908    .text._Z10AlarmEventv:00000000 $t
C:\Users\Admin\AppData\Local\Temp\cctaKpna.s:915    .text._Z10AlarmEventv:00000000 _Z10AlarmEventv
C:\Users\Admin\AppData\Local\Temp\cctaKpna.s:1210   .text._Z10AlarmEventv:000000b8 $d
  .ARM.exidx.text._Z10AlarmEventv:00000000 $d
C:\Users\Admin\AppData\Local\Temp\cctaKpna.s:1219   .text.HAL_GPIO_EXTI_Callback:00000000 $t
C:\Users\Admin\AppData\Local\Temp\cctaKpna.s:1226   .text.HAL_GPIO_EXTI_Callback:00000000 HAL_GPIO_EXTI_Callback
C:\Users\Admin\AppData\Local\Temp\cctaKpna.s:1255   .text.HAL_GPIO_EXTI_Callback:00000016 $d
C:\Users\Admin\AppData\Local\Temp\cctaKpna.s:1263   .text.HAL_GPIO_EXTI_Callback:0000001e $t
C:\Users\Admin\AppData\Local\Temp\cctaKpna.s:1446   .text.HAL_GPIO_EXTI_Callback:000000b4 $d
.ARM.extab.text.HAL_GPIO_EXTI_Callback:00000000 $d
.ARM.exidx.text.HAL_GPIO_EXTI_Callback:00000000 $d
C:\Users\Admin\AppData\Local\Temp\cctaKpna.s:1458   .text._Z11UART_PrintfPKcz:00000000 $t
C:\Users\Admin\AppData\Local\Temp\cctaKpna.s:1465   .text._Z11UART_PrintfPKcz:00000000 _Z11UART_PrintfPKcz
C:\Users\Admin\AppData\Local\Temp\cctaKpna.s:1536   .text._Z11UART_PrintfPKcz:00000038 $d
.ARM.extab.text._Z11UART_PrintfPKcz:00000000 $d
.ARM.exidx.text._Z11UART_PrintfPKcz:00000000 $d
C:\Users\Admin\AppData\Local\Temp\cctaKpna.s:1542   .rodata._Z14TimeTrackEventv.str1.4:00000000 $d
C:\Users\Admin\AppData\Local\Temp\cctaKpna.s:1549   .text._Z14TimeTrackEventv:00000000 $t
C:\Users\Admin\AppData\Local\Temp\cctaKpna.s:1556   .text._Z14TimeTrackEventv:00000000 _Z14TimeTrackEventv
C:\Users\Admin\AppData\Local\Temp\cctaKpna.s:1613   .text._Z14TimeTrackEventv:0000003c $d
.ARM.extab.text._Z14TimeTrackEventv:00000000 $d
.ARM.exidx.text._Z14TimeTrackEventv:00000000 $d
C:\Users\Admin\AppData\Local\Temp\cctaKpna.s:1623   .rodata._Z18ButtonPressedEventv.str1.4:00000000 $d
C:\Users\Admin\AppData\Local\Temp\cctaKpna.s:1633   .text._Z18ButtonPressedEventv:00000000 $t
C:\Users\Admin\AppData\Local\Temp\cctaKpna.s:1640   .text._Z18ButtonPressedEventv:00000000 _Z18ButtonPressedEventv
C:\Users\Admin\AppData\Local\Temp\cctaKpna.s:1694   .text._Z18ButtonPressedEventv:0000002c $d
.ARM.extab.text._Z18ButtonPressedEventv:00000000 $d
.ARM.exidx.text._Z18ButtonPressedEventv:00000000 $d
C:\Users\Admin\AppData\Local\Temp\cctaKpna.s:1705   .rodata._Z17TempOpenModeEventv.str1.4:00000000 $d
C:\Users\Admin\AppData\Local\Temp\cctaKpna.s:1720   .text._Z17TempOpenModeEventv:00000000 $t
C:\Users\Admin\AppData\Local\Temp\cctaKpna.s:1727   .text._Z17TempOpenModeEventv:00000000 _Z17TempOpenModeEventv
C:\Users\Admin\AppData\Local\Temp\cctaKpna.s:2524   .text._Z17TempOpenModeEventv:000001e4 $d
.ARM.exidx.text._Z17TempOpenModeEventv:00000000 $d
C:\Users\Admin\AppData\Local\Temp\cctaKpna.s:2548   .rodata._Z14TempAlarmEventv.str1.4:00000000 $d
ARM GAS  C:\Users\Admin\AppData\Local\Temp\cctaKpna.s 			page 106


C:\Users\Admin\AppData\Local\Temp\cctaKpna.s:2552   .text._Z14TempAlarmEventv:00000000 $t
C:\Users\Admin\AppData\Local\Temp\cctaKpna.s:2559   .text._Z14TempAlarmEventv:00000000 _Z14TempAlarmEventv
C:\Users\Admin\AppData\Local\Temp\cctaKpna.s:2849   .text._Z14TempAlarmEventv:000000c0 $d
.ARM.extab.text._Z14TempAlarmEventv:00000000 $d
.ARM.exidx.text._Z14TempAlarmEventv:00000000 $d
C:\Users\Admin\AppData\Local\Temp\cctaKpna.s:2862   .text._Z10verifyCodem:00000000 $t
C:\Users\Admin\AppData\Local\Temp\cctaKpna.s:2869   .text._Z10verifyCodem:00000000 _Z10verifyCodem
C:\Users\Admin\AppData\Local\Temp\cctaKpna.s:2917   .text._Z10verifyCodem:00000018 $d
  .ARM.exidx.text._Z10verifyCodem:00000000 $d
C:\Users\Admin\AppData\Local\Temp\cctaKpna.s:2924   .rodata._Z12KeyReadEventv.str1.4:00000000 $d
C:\Users\Admin\AppData\Local\Temp\cctaKpna.s:2935   .text._Z12KeyReadEventv:00000000 $t
C:\Users\Admin\AppData\Local\Temp\cctaKpna.s:2942   .text._Z12KeyReadEventv:00000000 _Z12KeyReadEventv
C:\Users\Admin\AppData\Local\Temp\cctaKpna.s:3053   .text._Z12KeyReadEventv:00000078 $d
.ARM.exidx.text._Z12KeyReadEventv:00000000 $d
C:\Users\Admin\AppData\Local\Temp\cctaKpna.s:3068   .rodata._Z10switchModev.str1.4:00000000 $d
C:\Users\Admin\AppData\Local\Temp\cctaKpna.s:3084   .text._Z10switchModev:00000000 $t
C:\Users\Admin\AppData\Local\Temp\cctaKpna.s:3091   .text._Z10switchModev:00000000 _Z10switchModev
C:\Users\Admin\AppData\Local\Temp\cctaKpna.s:3111   .text._Z10switchModev:0000000e $d
C:\Users\Admin\AppData\Local\Temp\cctaKpna.s:3115   .text._Z10switchModev:00000012 $t
C:\Users\Admin\AppData\Local\Temp\cctaKpna.s:3328   .text._Z10switchModev:00000090 $d
  .ARM.extab.text._Z10switchModev:00000000 $d
  .ARM.exidx.text._Z10switchModev:00000000 $d
C:\Users\Admin\AppData\Local\Temp\cctaKpna.s:3340   .text._Z15ChangeModeEventv:00000000 $t
C:\Users\Admin\AppData\Local\Temp\cctaKpna.s:3347   .text._Z15ChangeModeEventv:00000000 _Z15ChangeModeEventv
C:\Users\Admin\AppData\Local\Temp\cctaKpna.s:3392   .text._Z15ChangeModeEventv:00000024 $d
.ARM.extab.text._Z15ChangeModeEventv:00000000 $d
.ARM.exidx.text._Z15ChangeModeEventv:00000000 $d
C:\Users\Admin\AppData\Local\Temp\cctaKpna.s:3398   .text.Error_Handler:00000000 $t
C:\Users\Admin\AppData\Local\Temp\cctaKpna.s:3405   .text.Error_Handler:00000000 Error_Handler
    .ARM.exidx.text.Error_Handler:00000000 $d
C:\Users\Admin\AppData\Local\Temp\cctaKpna.s:3439   .text._Z18SystemClock_Configv:00000000 $t
C:\Users\Admin\AppData\Local\Temp\cctaKpna.s:3446   .text._Z18SystemClock_Configv:00000000 _Z18SystemClock_Configv
.ARM.exidx.text._Z18SystemClock_Configv:00000000 $d
C:\Users\Admin\AppData\Local\Temp\cctaKpna.s:3555   .text._ZL19MX_USART1_UART_Initv:00000000 $t
C:\Users\Admin\AppData\Local\Temp\cctaKpna.s:3561   .text._ZL19MX_USART1_UART_Initv:00000000 _ZL19MX_USART1_UART_Initv
C:\Users\Admin\AppData\Local\Temp\cctaKpna.s:3619   .text._ZL19MX_USART1_UART_Initv:0000002c $d
.ARM.extab.text._ZL19MX_USART1_UART_Initv:00000000 $d
.ARM.exidx.text._ZL19MX_USART1_UART_Initv:00000000 $d
C:\Users\Admin\AppData\Local\Temp\cctaKpna.s:3626   .text.main:00000000 $t
C:\Users\Admin\AppData\Local\Temp\cctaKpna.s:3633   .text.main:00000000 main
C:\Users\Admin\AppData\Local\Temp\cctaKpna.s:3803   .text.main:0000006c $d
             .ARM.extab.text.main:00000000 $d
             .ARM.exidx.text.main:00000000 $d
C:\Users\Admin\AppData\Local\Temp\cctaKpna.s:3813   .text._GLOBAL__sub_I_huart1:00000000 $t
C:\Users\Admin\AppData\Local\Temp\cctaKpna.s:3819   .text._GLOBAL__sub_I_huart1:00000000 _GLOBAL__sub_I_huart1
.ARM.exidx.text._GLOBAL__sub_I_huart1:00000000 $d
C:\Users\Admin\AppData\Local\Temp\cctaKpna.s:3843   .init_array:00000000 $d
C:\Users\Admin\AppData\Local\Temp\cctaKpna.s:4025   .bss.timme:00000000 timme
C:\Users\Admin\AppData\Local\Temp\cctaKpna.s:4032   .bss.timmeTrack:00000000 timmeTrack
C:\Users\Admin\AppData\Local\Temp\cctaKpna.s:4004   .bss.outsideKeyRead:00000000 outsideKeyRead
C:\Users\Admin\AppData\Local\Temp\cctaKpna.s:3964   .bss.insideKeyRead:00000000 insideKeyRead
C:\Users\Admin\AppData\Local\Temp\cctaKpna.s:3991   .bss.outsideButtonPressed:00000000 outsideButtonPressed
C:\Users\Admin\AppData\Local\Temp\cctaKpna.s:3951   .bss.insideButtonPressed:00000000 insideButtonPressed
C:\Users\Admin\AppData\Local\Temp\cctaKpna.s:3998   .bss.outsideGreenLed:00000000 outsideGreenLed
C:\Users\Admin\AppData\Local\Temp\cctaKpna.s:3958   .bss.insideGreenLed:00000000 insideGreenLed
C:\Users\Admin\AppData\Local\Temp\cctaKpna.s:4011   .bss.outsideZumer:00000000 outsideZumer
C:\Users\Admin\AppData\Local\Temp\cctaKpna.s:3971   .bss.insideZumer:00000000 insideZumer
ARM GAS  C:\Users\Admin\AppData\Local\Temp\cctaKpna.s 			page 107


C:\Users\Admin\AppData\Local\Temp\cctaKpna.s:4018   .bss.siren:00000000 siren
C:\Users\Admin\AppData\Local\Temp\cctaKpna.s:3985   .bss.lock:00000000 lock
C:\Users\Admin\AppData\Local\Temp\cctaKpna.s:3938   .bss.door:00000000 door
C:\Users\Admin\AppData\Local\Temp\cctaKpna.s:4051   .data.previousWorkMode:00000000 previousWorkMode
C:\Users\Admin\AppData\Local\Temp\cctaKpna.s:4064   .data.workMode:00000000 workMode
C:\Users\Admin\AppData\Local\Temp\cctaKpna.s:3978   .bss.intercomMode:00000000 intercomMode
C:\Users\Admin\AppData\Local\Temp\cctaKpna.s:4057   .data.wig_flag_inrt:00000000 wig_flag_inrt
C:\Users\Admin\AppData\Local\Temp\cctaKpna.s:3945   .bss.huart1:00000000 huart1
C:\Users\Admin\AppData\Local\Temp\cctaKpna.s:3864   .bss._ZGVZ10AlarmEventvE10alarmTimer:00000000 $d
C:\Users\Admin\AppData\Local\Temp\cctaKpna.s:3868   .bss._ZGVZ10AlarmEventvE10alarmTimer:00000000 _ZGVZ10AlarmEventvE10alarmTimer
C:\Users\Admin\AppData\Local\Temp\cctaKpna.s:3871   .bss._ZGVZ12DenyKeyEventvE9denyTimer:00000000 $d
C:\Users\Admin\AppData\Local\Temp\cctaKpna.s:3875   .bss._ZGVZ12DenyKeyEventvE9denyTimer:00000000 _ZGVZ12DenyKeyEventvE9denyTimer
C:\Users\Admin\AppData\Local\Temp\cctaKpna.s:3878   .bss._ZGVZ14TempAlarmEventvE10sirenTimer:00000000 $d
C:\Users\Admin\AppData\Local\Temp\cctaKpna.s:3882   .bss._ZGVZ14TempAlarmEventvE10sirenTimer:00000000 _ZGVZ14TempAlarmEventvE10sirenTimer
C:\Users\Admin\AppData\Local\Temp\cctaKpna.s:3885   .bss._ZGVZ17TempOpenModeEventvE10zumerTimer:00000000 $d
C:\Users\Admin\AppData\Local\Temp\cctaKpna.s:3889   .bss._ZGVZ17TempOpenModeEventvE10zumerTimer:00000000 _ZGVZ17TempOpenModeEventvE10zumerTimer
C:\Users\Admin\AppData\Local\Temp\cctaKpna.s:3892   .bss._ZGVZ17TempOpenModeEventvE9lockTimer:00000000 $d
C:\Users\Admin\AppData\Local\Temp\cctaKpna.s:3896   .bss._ZGVZ17TempOpenModeEventvE9lockTimer:00000000 _ZGVZ17TempOpenModeEventvE9lockTimer
C:\Users\Admin\AppData\Local\Temp\cctaKpna.s:3899   .bss._ZZ10AlarmEventvE10alarmTimer:00000000 $d
C:\Users\Admin\AppData\Local\Temp\cctaKpna.s:3903   .bss._ZZ10AlarmEventvE10alarmTimer:00000000 _ZZ10AlarmEventvE10alarmTimer
C:\Users\Admin\AppData\Local\Temp\cctaKpna.s:3906   .bss._ZZ12DenyKeyEventvE9denyTimer:00000000 $d
C:\Users\Admin\AppData\Local\Temp\cctaKpna.s:3910   .bss._ZZ12DenyKeyEventvE9denyTimer:00000000 _ZZ12DenyKeyEventvE9denyTimer
C:\Users\Admin\AppData\Local\Temp\cctaKpna.s:3913   .bss._ZZ14TempAlarmEventvE10sirenTimer:00000000 $d
C:\Users\Admin\AppData\Local\Temp\cctaKpna.s:3917   .bss._ZZ14TempAlarmEventvE10sirenTimer:00000000 _ZZ14TempAlarmEventvE10sirenTimer
C:\Users\Admin\AppData\Local\Temp\cctaKpna.s:3920   .bss._ZZ17TempOpenModeEventvE10zumerTimer:00000000 $d
C:\Users\Admin\AppData\Local\Temp\cctaKpna.s:3924   .bss._ZZ17TempOpenModeEventvE10zumerTimer:00000000 _ZZ17TempOpenModeEventvE10zumerTimer
C:\Users\Admin\AppData\Local\Temp\cctaKpna.s:3927   .bss._ZZ17TempOpenModeEventvE9lockTimer:00000000 $d
C:\Users\Admin\AppData\Local\Temp\cctaKpna.s:3931   .bss._ZZ17TempOpenModeEventvE9lockTimer:00000000 _ZZ17TempOpenModeEventvE9lockTimer
C:\Users\Admin\AppData\Local\Temp\cctaKpna.s:3934   .bss.door:00000000 $d
C:\Users\Admin\AppData\Local\Temp\cctaKpna.s:3941   .bss.huart1:00000000 $d
C:\Users\Admin\AppData\Local\Temp\cctaKpna.s:3952   .bss.insideButtonPressed:00000000 $d
C:\Users\Admin\AppData\Local\Temp\cctaKpna.s:3954   .bss.insideGreenLed:00000000 $d
C:\Users\Admin\AppData\Local\Temp\cctaKpna.s:3965   .bss.insideKeyRead:00000000 $d
C:\Users\Admin\AppData\Local\Temp\cctaKpna.s:3967   .bss.insideZumer:00000000 $d
C:\Users\Admin\AppData\Local\Temp\cctaKpna.s:3974   .bss.intercomMode:00000000 $d
C:\Users\Admin\AppData\Local\Temp\cctaKpna.s:3981   .bss.lock:00000000 $d
C:\Users\Admin\AppData\Local\Temp\cctaKpna.s:3992   .bss.outsideButtonPressed:00000000 $d
C:\Users\Admin\AppData\Local\Temp\cctaKpna.s:3994   .bss.outsideGreenLed:00000000 $d
C:\Users\Admin\AppData\Local\Temp\cctaKpna.s:4005   .bss.outsideKeyRead:00000000 $d
C:\Users\Admin\AppData\Local\Temp\cctaKpna.s:4007   .bss.outsideZumer:00000000 $d
C:\Users\Admin\AppData\Local\Temp\cctaKpna.s:4014   .bss.siren:00000000 $d
C:\Users\Admin\AppData\Local\Temp\cctaKpna.s:4021   .bss.timme:00000000 $d
C:\Users\Admin\AppData\Local\Temp\cctaKpna.s:4028   .bss.timmeTrack:00000000 $d
C:\Users\Admin\AppData\Local\Temp\cctaKpna.s:4038   .data._ZZ12DenyKeyEventvE9firstTime:00000000 _ZZ12DenyKeyEventvE9firstTime
C:\Users\Admin\AppData\Local\Temp\cctaKpna.s:4044   .data._ZZ17TempOpenModeEventvE9firstTime:00000000 _ZZ17TempOpenModeEventvE9firstTime
C:\Users\Admin\AppData\Local\Temp\cctaKpna.s:4047   .data.previousWorkMode:00000000 $d
C:\Users\Admin\AppData\Local\Temp\cctaKpna.s:4060   .data.workMode:00000000 $d
                           .group:00000000 _ZN6PinOutC5EP12GPIO_TypeDeft

UNDEFINED SYMBOLS
HAL_GPIO_Init
HAL_NVIC_SetPriority
HAL_NVIC_EnableIRQ
__aeabi_unwind_cpp_pr0
__cxa_guard_acquire
__cxa_guard_release
HAL_GetTick
ARM GAS  C:\Users\Admin\AppData\Local\Temp\cctaKpna.s 			page 108


HAL_GPIO_WritePin
__aeabi_unwind_cpp_pr1
wig_available
HAL_GPIO_ReadPin
ReadD0
ReadD1
vsnprintf
strlen
HAL_UART_Transmit
getCode
memset
HAL_RCC_OscConfig
HAL_RCC_ClockConfig
HAL_UART_Init
HAL_Init
