ARM GAS  C:\Users\Admin\AppData\Local\Temp\ccEsCXkX.s 			page 1


   1              		.cpu cortex-m3
   2              		.eabi_attribute 20, 1
   3              		.eabi_attribute 21, 1
   4              		.eabi_attribute 23, 3
   5              		.eabi_attribute 24, 1
   6              		.eabi_attribute 25, 1
   7              		.eabi_attribute 26, 1
   8              		.eabi_attribute 30, 1
   9              		.eabi_attribute 34, 1
  10              		.eabi_attribute 18, 4
  11              		.file	"main.cpp"
  12              		.text
  13              	.Ltext0:
  14              		.cfi_sections	.debug_frame
  15              		.section	.text._ZL12MX_GPIO_Initv,"ax",%progbits
  16              		.align	1
  17              		.arch armv7-m
  18              		.syntax unified
  19              		.thumb
  20              		.thumb_func
  21              		.fpu softvfp
  23              	_ZL12MX_GPIO_Initv:
  24              		.fnstart
  25              	.LFB105:
  26              		.file 1 "Core/Src/main.cpp"
   1:Core/Src/main.cpp **** /* USER CODE BEGIN Header */
   2:Core/Src/main.cpp **** /**
   3:Core/Src/main.cpp ****   ******************************************************************************
   4:Core/Src/main.cpp ****   * @file           : main.c
   5:Core/Src/main.cpp ****   * @brief          : Main program body
   6:Core/Src/main.cpp ****   ******************************************************************************
   7:Core/Src/main.cpp ****   * @attention
   8:Core/Src/main.cpp ****   *
   9:Core/Src/main.cpp ****   * <h2><center>&copy; Copyright (c) 2021 STMicroelectronics.
  10:Core/Src/main.cpp ****   * All rights reserved.</center></h2>
  11:Core/Src/main.cpp ****   *
  12:Core/Src/main.cpp ****   * This software component is licensed by ST under BSD 3-Clause license,
  13:Core/Src/main.cpp ****   * the "License"; You may not use this file except in compliance with the
  14:Core/Src/main.cpp ****   * License. You may obtain a copy of the License at:
  15:Core/Src/main.cpp ****   *                        opensource.org/licenses/BSD-3-Clause
  16:Core/Src/main.cpp ****   *
  17:Core/Src/main.cpp ****   ******************************************************************************
  18:Core/Src/main.cpp ****   */
  19:Core/Src/main.cpp **** /* USER CODE END Header */
  20:Core/Src/main.cpp **** /* Includes ------------------------------------------------------------------*/
  21:Core/Src/main.cpp **** #include "main.h"
  22:Core/Src/main.cpp **** 
  23:Core/Src/main.cpp **** /* Private includes ----------------------------------------------------------*/
  24:Core/Src/main.cpp **** /* USER CODE BEGIN Includes */
  25:Core/Src/main.cpp **** #include "string.h"
  26:Core/Src/main.cpp **** #include <stdio.h>
  27:Core/Src/main.cpp **** #include "wiegand.h"
  28:Core/Src/main.cpp **** #include <stdarg.h>
  29:Core/Src/main.cpp **** #include "PinIn.h"
  30:Core/Src/main.cpp **** #include "PinOut.h"
  31:Core/Src/main.cpp **** #include "ConstantRelay.h"
  32:Core/Src/main.cpp **** #include "ImpulseRelay.h"
ARM GAS  C:\Users\Admin\AppData\Local\Temp\ccEsCXkX.s 			page 2


  33:Core/Src/main.cpp **** #include "InterruptPin.h"
  34:Core/Src/main.cpp **** #include "Timer.h"
  35:Core/Src/main.cpp **** #include "WorkMode.h"
  36:Core/Src/main.cpp **** #include "IntercomMode.h"
  37:Core/Src/main.cpp **** #include "InvertedPinOut.h"
  38:Core/Src/main.cpp **** 
  39:Core/Src/main.cpp **** /* Private variables ---------------------------------------------------------*/
  40:Core/Src/main.cpp **** UART_HandleTypeDef huart1;
  41:Core/Src/main.cpp **** volatile uint8_t wig_flag_inrt = 1;
  42:Core/Src/main.cpp **** 
  43:Core/Src/main.cpp **** IntercomMode intercomMode = IntercomMode::NormalMode;
  44:Core/Src/main.cpp **** WorkMode workMode = WorkMode::NoMode, previousWorkMode = WorkMode::NoMode;
  45:Core/Src/main.cpp **** 
  46:Core/Src/main.cpp **** /* Private function prototypes -----------------------------------------------*/
  47:Core/Src/main.cpp **** void SystemClock_Config(void);
  48:Core/Src/main.cpp **** static void MX_GPIO_Init(void);
  49:Core/Src/main.cpp **** static void MX_USART1_UART_Init(void);
  50:Core/Src/main.cpp **** 
  51:Core/Src/main.cpp **** /*----> Functions Protoypes <----*/
  52:Core/Src/main.cpp **** 
  53:Core/Src/main.cpp **** /**
  54:Core/Src/main.cpp ****  * @brief Event to track time between modes
  55:Core/Src/main.cpp **** */
  56:Core/Src/main.cpp **** void TimeTrackEvent();
  57:Core/Src/main.cpp **** /**
  58:Core/Src/main.cpp ****  * @brief Event to change work mode every 15 seconds
  59:Core/Src/main.cpp **** */
  60:Core/Src/main.cpp **** void ChangeModeEvent();
  61:Core/Src/main.cpp **** /**
  62:Core/Src/main.cpp ****  * @brief Event to listen for door button to avoid rattling contacts
  63:Core/Src/main.cpp **** */
  64:Core/Src/main.cpp **** void DoorSensorEvent();
  65:Core/Src/main.cpp **** /**
  66:Core/Src/main.cpp ****  * @brief Event to listen for intercoms
  67:Core/Src/main.cpp **** */
  68:Core/Src/main.cpp **** void KeyReadEvent();
  69:Core/Src/main.cpp **** /**
  70:Core/Src/main.cpp ****  * @brief Event to listen for pressed buttons
  71:Core/Src/main.cpp **** */
  72:Core/Src/main.cpp **** void ButtonPressedEvent();
  73:Core/Src/main.cpp **** /**
  74:Core/Src/main.cpp ****  * @brief Event to listen for switching to temporarily opened mode, giving access to enter
  75:Core/Src/main.cpp **** */
  76:Core/Src/main.cpp **** void TempOpenModeEvent();
  77:Core/Src/main.cpp **** /**
  78:Core/Src/main.cpp ****  * @brief Event to handle temporarily alarm, activated when exceeded time to enter
  79:Core/Src/main.cpp **** */
  80:Core/Src/main.cpp **** void TempAlarmEvent();
  81:Core/Src/main.cpp **** /**
  82:Core/Src/main.cpp ****  * @brief Event to handle deny work mode, activated when user is not permitted to enter
  83:Core/Src/main.cpp **** */
  84:Core/Src/main.cpp **** void DenyKeyEvent();
  85:Core/Src/main.cpp **** /**
  86:Core/Src/main.cpp ****  * @brief Event to handle alarm work mode, activated when something is wrong, like unauthorized doo
  87:Core/Src/main.cpp **** */
  88:Core/Src/main.cpp **** void AlarmEvent();
  89:Core/Src/main.cpp **** 
ARM GAS  C:\Users\Admin\AppData\Local\Temp\ccEsCXkX.s 			page 3


  90:Core/Src/main.cpp **** /**
  91:Core/Src/main.cpp ****  * @brief Check if given code is allowed to pass
  92:Core/Src/main.cpp ****  * @retval bool
  93:Core/Src/main.cpp **** */
  94:Core/Src/main.cpp **** bool verifyCode(uint32_t code);
  95:Core/Src/main.cpp **** /**
  96:Core/Src/main.cpp ****  * @brief printf
  97:Core/Src/main.cpp ****  * @retval None
  98:Core/Src/main.cpp **** */
  99:Core/Src/main.cpp **** void UART_Printf(const char *fmt, ...);
 100:Core/Src/main.cpp **** /**
 101:Core/Src/main.cpp ****  * @brief Switch mode depending on the current one
 102:Core/Src/main.cpp ****  * @retval None
 103:Core/Src/main.cpp **** */
 104:Core/Src/main.cpp **** void switchMode();
 105:Core/Src/main.cpp **** 
 106:Core/Src/main.cpp **** /*----------> Objects <----------*/
 107:Core/Src/main.cpp **** 
 108:Core/Src/main.cpp **** /**
 109:Core/Src/main.cpp ****  * @brief Door sensor
 110:Core/Src/main.cpp **** */
 111:Core/Src/main.cpp **** InterruptPin door(Door_GPIO_Port, Door_Pin);
 112:Core/Src/main.cpp **** 
 113:Core/Src/main.cpp **** /**
 114:Core/Src/main.cpp ****  * @brief Door relay
 115:Core/Src/main.cpp **** */
 116:Core/Src/main.cpp **** PinOut lock(Lock_GPIO_Port, Lock_Pin);
 117:Core/Src/main.cpp **** /**
 118:Core/Src/main.cpp ****  * @brief Alarm relay
 119:Core/Src/main.cpp **** */
 120:Core/Src/main.cpp **** PinOut siren(Siren_GPIO_Port, Siren_Pin);
 121:Core/Src/main.cpp **** 
 122:Core/Src/main.cpp **** /**
 123:Core/Src/main.cpp ****  * @brief Inside intercom zumer (#1, right side)
 124:Core/Src/main.cpp **** */
 125:Core/Src/main.cpp **** InvertedPinOut insideZumer(Zumer1_GPIO_Port, Zumer1_Pin);
 126:Core/Src/main.cpp **** /**
 127:Core/Src/main.cpp ****  * @brief Outside intercom zumer (#2, left side)
 128:Core/Src/main.cpp **** */
 129:Core/Src/main.cpp **** InvertedPinOut outsideZumer(Zumer2_GPIO_Port, Zumer2_Pin);
 130:Core/Src/main.cpp **** /**
 131:Core/Src/main.cpp ****  * @brief Inside intercom green led (#1, right side)
 132:Core/Src/main.cpp **** */
 133:Core/Src/main.cpp **** InvertedPinOut insideGreenLed(GreenLed_1_GPIO_Port, GreenLed_1_Pin);
 134:Core/Src/main.cpp **** /**
 135:Core/Src/main.cpp ****  * @brief Outside intercom green led (#2, left side)
 136:Core/Src/main.cpp **** */
 137:Core/Src/main.cpp **** InvertedPinOut outsideGreenLed(GreenLed_2_GPIO_Port, GreenLed_2_Pin);
 138:Core/Src/main.cpp **** 
 139:Core/Src/main.cpp **** Timer doorSensorTimer(0, 0);
 140:Core/Src/main.cpp **** /*----------> Flags <----------*/
 141:Core/Src/main.cpp **** 
 142:Core/Src/main.cpp **** bool
 143:Core/Src/main.cpp ****     insideButtonPressed = false,
 144:Core/Src/main.cpp ****     outsideButtonPressed = false,
 145:Core/Src/main.cpp ****     insideKeyRead = false,
 146:Core/Src/main.cpp ****     outsideKeyRead = false,
ARM GAS  C:\Users\Admin\AppData\Local\Temp\ccEsCXkX.s 			page 4


 147:Core/Src/main.cpp ****     doorSensorFirstTime = true;
 148:Core/Src/main.cpp **** 
 149:Core/Src/main.cpp **** uint32_t
 150:Core/Src/main.cpp ****     timmeTrack = 0,
 151:Core/Src/main.cpp ****     timme = 0;
 152:Core/Src/main.cpp **** 
 153:Core/Src/main.cpp **** /*-------> Init Functions <-------*/
 154:Core/Src/main.cpp **** 
 155:Core/Src/main.cpp **** /**
 156:Core/Src/main.cpp ****   * @brief System Clock Configuration
 157:Core/Src/main.cpp ****   * @retval None
 158:Core/Src/main.cpp ****   */
 159:Core/Src/main.cpp **** void SystemClock_Config(void)
 160:Core/Src/main.cpp **** {
 161:Core/Src/main.cpp ****   RCC_OscInitTypeDef RCC_OscInitStruct = {0};
 162:Core/Src/main.cpp ****   RCC_ClkInitTypeDef RCC_ClkInitStruct = {0};
 163:Core/Src/main.cpp **** 
 164:Core/Src/main.cpp ****   /** Initializes the RCC Oscillators according to the specified parameters
 165:Core/Src/main.cpp ****   * in the RCC_OscInitTypeDef structure.
 166:Core/Src/main.cpp ****   */
 167:Core/Src/main.cpp ****   RCC_OscInitStruct.OscillatorType = RCC_OSCILLATORTYPE_HSI;
 168:Core/Src/main.cpp ****   RCC_OscInitStruct.HSIState = RCC_HSI_ON;
 169:Core/Src/main.cpp ****   RCC_OscInitStruct.HSICalibrationValue = RCC_HSICALIBRATION_DEFAULT;
 170:Core/Src/main.cpp ****   RCC_OscInitStruct.PLL.PLLState = RCC_PLL_ON;
 171:Core/Src/main.cpp ****   RCC_OscInitStruct.PLL.PLLSource = RCC_PLLSOURCE_HSI_DIV2;
 172:Core/Src/main.cpp ****   RCC_OscInitStruct.PLL.PLLMUL = RCC_PLL_MUL9;
 173:Core/Src/main.cpp ****   if (HAL_RCC_OscConfig(&RCC_OscInitStruct) != HAL_OK)
 174:Core/Src/main.cpp ****   {
 175:Core/Src/main.cpp ****     Error_Handler();
 176:Core/Src/main.cpp ****   }
 177:Core/Src/main.cpp ****   /** Initializes the CPU, AHB and APB buses clocks
 178:Core/Src/main.cpp ****   */
 179:Core/Src/main.cpp ****   RCC_ClkInitStruct.ClockType = RCC_CLOCKTYPE_HCLK | RCC_CLOCKTYPE_SYSCLK | RCC_CLOCKTYPE_PCLK1 | R
 180:Core/Src/main.cpp ****   RCC_ClkInitStruct.SYSCLKSource = RCC_SYSCLKSOURCE_PLLCLK;
 181:Core/Src/main.cpp ****   RCC_ClkInitStruct.AHBCLKDivider = RCC_SYSCLK_DIV1;
 182:Core/Src/main.cpp ****   RCC_ClkInitStruct.APB1CLKDivider = RCC_HCLK_DIV2;
 183:Core/Src/main.cpp ****   RCC_ClkInitStruct.APB2CLKDivider = RCC_HCLK_DIV1;
 184:Core/Src/main.cpp **** 
 185:Core/Src/main.cpp ****   if (HAL_RCC_ClockConfig(&RCC_ClkInitStruct, FLASH_LATENCY_1) != HAL_OK)
 186:Core/Src/main.cpp ****   {
 187:Core/Src/main.cpp ****     Error_Handler();
 188:Core/Src/main.cpp ****   }
 189:Core/Src/main.cpp **** }
 190:Core/Src/main.cpp **** 
 191:Core/Src/main.cpp **** /**
 192:Core/Src/main.cpp ****   * @brief USART1 Initialization Function
 193:Core/Src/main.cpp ****   * @param None
 194:Core/Src/main.cpp ****   * @retval None
 195:Core/Src/main.cpp ****   */
 196:Core/Src/main.cpp **** static void MX_USART1_UART_Init(void)
 197:Core/Src/main.cpp **** {
 198:Core/Src/main.cpp **** 
 199:Core/Src/main.cpp ****   /* USER CODE BEGIN USART1_Init 0 */
 200:Core/Src/main.cpp **** 
 201:Core/Src/main.cpp ****   /* USER CODE END USART1_Init 0 */
 202:Core/Src/main.cpp **** 
 203:Core/Src/main.cpp ****   /* USER CODE BEGIN USART1_Init 1 */
ARM GAS  C:\Users\Admin\AppData\Local\Temp\ccEsCXkX.s 			page 5


 204:Core/Src/main.cpp **** 
 205:Core/Src/main.cpp ****   /* USER CODE END USART1_Init 1 */
 206:Core/Src/main.cpp ****   huart1.Instance = USART1;
 207:Core/Src/main.cpp ****   huart1.Init.BaudRate = 115200;
 208:Core/Src/main.cpp ****   huart1.Init.WordLength = UART_WORDLENGTH_8B;
 209:Core/Src/main.cpp ****   huart1.Init.StopBits = UART_STOPBITS_1;
 210:Core/Src/main.cpp ****   huart1.Init.Parity = UART_PARITY_NONE;
 211:Core/Src/main.cpp ****   huart1.Init.Mode = UART_MODE_TX_RX;
 212:Core/Src/main.cpp ****   huart1.Init.HwFlowCtl = UART_HWCONTROL_NONE;
 213:Core/Src/main.cpp ****   huart1.Init.OverSampling = UART_OVERSAMPLING_16;
 214:Core/Src/main.cpp ****   if (HAL_UART_Init(&huart1) != HAL_OK)
 215:Core/Src/main.cpp ****   {
 216:Core/Src/main.cpp ****     Error_Handler();
 217:Core/Src/main.cpp ****   }
 218:Core/Src/main.cpp ****   /* USER CODE BEGIN USART1_Init 2 */
 219:Core/Src/main.cpp **** 
 220:Core/Src/main.cpp ****   /* USER CODE END USART1_Init 2 */
 221:Core/Src/main.cpp **** }
 222:Core/Src/main.cpp **** 
 223:Core/Src/main.cpp **** /**
 224:Core/Src/main.cpp ****   * @brief GPIO Initialization Function
 225:Core/Src/main.cpp ****   * @param None
 226:Core/Src/main.cpp ****   * @retval None
 227:Core/Src/main.cpp ****   */
 228:Core/Src/main.cpp **** static void MX_GPIO_Init(void)
 229:Core/Src/main.cpp **** {
  27              		.loc 1 229 1 view -0
  28              		.cfi_startproc
  29              		@ args = 0, pretend = 0, frame = 32
  30              		@ frame_needed = 0, uses_anonymous_args = 0
  31 0000 30B5     		push	{r4, r5, lr}
  32              		.save {r4, r5, lr}
  33              	.LCFI0:
  34              		.cfi_def_cfa_offset 12
  35              		.cfi_offset 4, -12
  36              		.cfi_offset 5, -8
  37              		.cfi_offset 14, -4
  38              		.pad #36
  39 0002 89B0     		sub	sp, sp, #36
  40              	.LCFI1:
  41              		.cfi_def_cfa_offset 48
 230:Core/Src/main.cpp ****   GPIO_InitTypeDef GPIO_InitStruct = {0};
  42              		.loc 1 230 3 view .LVU1
  43              		.loc 1 230 20 is_stmt 0 view .LVU2
  44 0004 0024     		movs	r4, #0
  45 0006 0494     		str	r4, [sp, #16]
  46 0008 0594     		str	r4, [sp, #20]
  47 000a 0694     		str	r4, [sp, #24]
  48 000c 0794     		str	r4, [sp, #28]
 231:Core/Src/main.cpp **** 
 232:Core/Src/main.cpp ****   /* GPIO Ports Clock Enable */
 233:Core/Src/main.cpp ****   __HAL_RCC_GPIOC_CLK_ENABLE();
  49              		.loc 1 233 3 is_stmt 1 view .LVU3
  50              	.LBB139:
  51              		.loc 1 233 3 view .LVU4
  52              		.loc 1 233 3 view .LVU5
  53 000e 314B     		ldr	r3, .L3
ARM GAS  C:\Users\Admin\AppData\Local\Temp\ccEsCXkX.s 			page 6


  54 0010 9A69     		ldr	r2, [r3, #24]
  55 0012 42F01002 		orr	r2, r2, #16
  56 0016 9A61     		str	r2, [r3, #24]
  57              		.loc 1 233 3 view .LVU6
  58 0018 9A69     		ldr	r2, [r3, #24]
  59 001a 02F01002 		and	r2, r2, #16
  60 001e 0192     		str	r2, [sp, #4]
  61              		.loc 1 233 3 view .LVU7
  62 0020 019A     		ldr	r2, [sp, #4]
  63              	.LBE139:
 234:Core/Src/main.cpp ****   __HAL_RCC_GPIOB_CLK_ENABLE();
  64              		.loc 1 234 3 view .LVU8
  65              	.LBB140:
  66              		.loc 1 234 3 view .LVU9
  67              		.loc 1 234 3 view .LVU10
  68 0022 9A69     		ldr	r2, [r3, #24]
  69 0024 42F00802 		orr	r2, r2, #8
  70 0028 9A61     		str	r2, [r3, #24]
  71              		.loc 1 234 3 view .LVU11
  72 002a 9A69     		ldr	r2, [r3, #24]
  73 002c 02F00802 		and	r2, r2, #8
  74 0030 0292     		str	r2, [sp, #8]
  75              		.loc 1 234 3 view .LVU12
  76 0032 029A     		ldr	r2, [sp, #8]
  77              	.LBE140:
 235:Core/Src/main.cpp ****   __HAL_RCC_GPIOA_CLK_ENABLE();
  78              		.loc 1 235 3 view .LVU13
  79              	.LBB141:
  80              		.loc 1 235 3 view .LVU14
  81              		.loc 1 235 3 view .LVU15
  82 0034 9A69     		ldr	r2, [r3, #24]
  83 0036 42F00402 		orr	r2, r2, #4
  84 003a 9A61     		str	r2, [r3, #24]
  85              		.loc 1 235 3 view .LVU16
  86 003c 9B69     		ldr	r3, [r3, #24]
  87 003e 03F00403 		and	r3, r3, #4
  88 0042 0393     		str	r3, [sp, #12]
  89              		.loc 1 235 3 view .LVU17
  90 0044 039B     		ldr	r3, [sp, #12]
  91              	.LBE141:
 236:Core/Src/main.cpp **** 
 237:Core/Src/main.cpp ****   /*Configure GPIO pins : D_01_Pin D_11_Pin D_02_Pin D_12_Pin */
 238:Core/Src/main.cpp ****   GPIO_InitStruct.Pin = D_01_Pin | D_11_Pin | D_02_Pin | D_12_Pin;
  92              		.loc 1 238 3 view .LVU18
  93              		.loc 1 238 23 is_stmt 0 view .LVU19
  94 0046 C323     		movs	r3, #195
  95 0048 0493     		str	r3, [sp, #16]
 239:Core/Src/main.cpp ****   GPIO_InitStruct.Mode = GPIO_MODE_IT_FALLING;
  96              		.loc 1 239 3 is_stmt 1 view .LVU20
  97              		.loc 1 239 24 is_stmt 0 view .LVU21
  98 004a 234B     		ldr	r3, .L3+4
  99 004c 0593     		str	r3, [sp, #20]
 240:Core/Src/main.cpp ****   GPIO_InitStruct.Pull = GPIO_NOPULL;
 100              		.loc 1 240 3 is_stmt 1 view .LVU22
 241:Core/Src/main.cpp ****   HAL_GPIO_Init(GPIOC, &GPIO_InitStruct);
 101              		.loc 1 241 3 view .LVU23
 102              		.loc 1 241 16 is_stmt 0 view .LVU24
ARM GAS  C:\Users\Admin\AppData\Local\Temp\ccEsCXkX.s 			page 7


 103 004e 234D     		ldr	r5, .L3+8
 104 0050 04A9     		add	r1, sp, #16
 105 0052 2846     		mov	r0, r5
 106 0054 FFF7FEFF 		bl	HAL_GPIO_Init
 107              	.LVL0:
 242:Core/Src/main.cpp **** 
 243:Core/Src/main.cpp ****   /*Configure GPIO pins : BT_0_Pin BT_1_Pin */
 244:Core/Src/main.cpp ****   GPIO_InitStruct.Pin = BT_0_Pin | BT_1_Pin;
 108              		.loc 1 244 3 is_stmt 1 view .LVU25
 109              		.loc 1 244 23 is_stmt 0 view .LVU26
 110 0058 0C23     		movs	r3, #12
 111 005a 0493     		str	r3, [sp, #16]
 245:Core/Src/main.cpp ****   GPIO_InitStruct.Mode = GPIO_MODE_IT_RISING;
 112              		.loc 1 245 3 is_stmt 1 view .LVU27
 113              		.loc 1 245 24 is_stmt 0 view .LVU28
 114 005c 204B     		ldr	r3, .L3+12
 115 005e 0593     		str	r3, [sp, #20]
 246:Core/Src/main.cpp ****   GPIO_InitStruct.Pull = GPIO_NOPULL;
 116              		.loc 1 246 3 is_stmt 1 view .LVU29
 117              		.loc 1 246 24 is_stmt 0 view .LVU30
 118 0060 0694     		str	r4, [sp, #24]
 247:Core/Src/main.cpp ****   HAL_GPIO_Init(GPIOC, &GPIO_InitStruct);
 119              		.loc 1 247 3 is_stmt 1 view .LVU31
 120              		.loc 1 247 16 is_stmt 0 view .LVU32
 121 0062 04A9     		add	r1, sp, #16
 122 0064 2846     		mov	r0, r5
 123 0066 FFF7FEFF 		bl	HAL_GPIO_Init
 124              	.LVL1:
 248:Core/Src/main.cpp **** 
 249:Core/Src/main.cpp ****   /*Configure GPIO pins : Zumer1_Pin Zumer2_Pin GreenLed_1_Pin GreenLed_2_Pin */
 250:Core/Src/main.cpp ****   /*  GPIO_InitStruct.Pin = Zumer1_Pin | Zumer2_Pin | GreenLed_1_Pin | GreenLed_2_Pin;
 251:Core/Src/main.cpp ****   GPIO_InitStruct.Mode = GPIO_MODE_OUTPUT_PP;
 252:Core/Src/main.cpp ****   GPIO_InitStruct.Pull = GPIO_NOPULL;
 253:Core/Src/main.cpp ****   GPIO_InitStruct.Speed = GPIO_SPEED_FREQ_LOW;
 254:Core/Src/main.cpp ****   HAL_GPIO_Init(GPIOB, &GPIO_InitStruct); */
 255:Core/Src/main.cpp **** 
 256:Core/Src/main.cpp ****   /*Configure GPIO pin : Door_Pin */
 257:Core/Src/main.cpp ****   GPIO_InitStruct.Pin = Door_Pin;
 125              		.loc 1 257 3 is_stmt 1 view .LVU33
 126              		.loc 1 257 23 is_stmt 0 view .LVU34
 127 006a 4FF48073 		mov	r3, #256
 128 006e 0493     		str	r3, [sp, #16]
 258:Core/Src/main.cpp ****   GPIO_InitStruct.Mode = GPIO_MODE_IT_RISING_FALLING;
 129              		.loc 1 258 3 is_stmt 1 view .LVU35
 130              		.loc 1 258 24 is_stmt 0 view .LVU36
 131 0070 1C4B     		ldr	r3, .L3+16
 132 0072 0593     		str	r3, [sp, #20]
 259:Core/Src/main.cpp ****   GPIO_InitStruct.Pull = GPIO_NOPULL;
 133              		.loc 1 259 3 is_stmt 1 view .LVU37
 134              		.loc 1 259 24 is_stmt 0 view .LVU38
 135 0074 0694     		str	r4, [sp, #24]
 260:Core/Src/main.cpp ****   HAL_GPIO_Init(Door_GPIO_Port, &GPIO_InitStruct);
 136              		.loc 1 260 3 is_stmt 1 view .LVU39
 137              		.loc 1 260 16 is_stmt 0 view .LVU40
 138 0076 04A9     		add	r1, sp, #16
 139 0078 2846     		mov	r0, r5
 140 007a FFF7FEFF 		bl	HAL_GPIO_Init
ARM GAS  C:\Users\Admin\AppData\Local\Temp\ccEsCXkX.s 			page 8


 141              	.LVL2:
 261:Core/Src/main.cpp **** 
 262:Core/Src/main.cpp ****   /* EXTI interrupt init*/
 263:Core/Src/main.cpp ****   HAL_NVIC_SetPriority(EXTI0_IRQn, 0, 0);
 142              		.loc 1 263 3 is_stmt 1 view .LVU41
 143              		.loc 1 263 23 is_stmt 0 view .LVU42
 144 007e 2246     		mov	r2, r4
 145 0080 2146     		mov	r1, r4
 146 0082 0620     		movs	r0, #6
 147 0084 FFF7FEFF 		bl	HAL_NVIC_SetPriority
 148              	.LVL3:
 264:Core/Src/main.cpp ****   HAL_NVIC_EnableIRQ(EXTI0_IRQn);
 149              		.loc 1 264 3 is_stmt 1 view .LVU43
 150              		.loc 1 264 21 is_stmt 0 view .LVU44
 151 0088 0620     		movs	r0, #6
 152 008a FFF7FEFF 		bl	HAL_NVIC_EnableIRQ
 153              	.LVL4:
 265:Core/Src/main.cpp **** 
 266:Core/Src/main.cpp ****   HAL_NVIC_SetPriority(EXTI1_IRQn, 0, 0);
 154              		.loc 1 266 3 is_stmt 1 view .LVU45
 155              		.loc 1 266 23 is_stmt 0 view .LVU46
 156 008e 2246     		mov	r2, r4
 157 0090 2146     		mov	r1, r4
 158 0092 0720     		movs	r0, #7
 159 0094 FFF7FEFF 		bl	HAL_NVIC_SetPriority
 160              	.LVL5:
 267:Core/Src/main.cpp ****   HAL_NVIC_EnableIRQ(EXTI1_IRQn);
 161              		.loc 1 267 3 is_stmt 1 view .LVU47
 162              		.loc 1 267 21 is_stmt 0 view .LVU48
 163 0098 0720     		movs	r0, #7
 164 009a FFF7FEFF 		bl	HAL_NVIC_EnableIRQ
 165              	.LVL6:
 268:Core/Src/main.cpp **** 
 269:Core/Src/main.cpp ****   HAL_NVIC_SetPriority(EXTI2_IRQn, 0, 0);
 166              		.loc 1 269 3 is_stmt 1 view .LVU49
 167              		.loc 1 269 23 is_stmt 0 view .LVU50
 168 009e 2246     		mov	r2, r4
 169 00a0 2146     		mov	r1, r4
 170 00a2 0820     		movs	r0, #8
 171 00a4 FFF7FEFF 		bl	HAL_NVIC_SetPriority
 172              	.LVL7:
 270:Core/Src/main.cpp ****   HAL_NVIC_EnableIRQ(EXTI2_IRQn);
 173              		.loc 1 270 3 is_stmt 1 view .LVU51
 174              		.loc 1 270 21 is_stmt 0 view .LVU52
 175 00a8 0820     		movs	r0, #8
 176 00aa FFF7FEFF 		bl	HAL_NVIC_EnableIRQ
 177              	.LVL8:
 271:Core/Src/main.cpp **** 
 272:Core/Src/main.cpp ****   HAL_NVIC_SetPriority(EXTI3_IRQn, 0, 0);
 178              		.loc 1 272 3 is_stmt 1 view .LVU53
 179              		.loc 1 272 23 is_stmt 0 view .LVU54
 180 00ae 2246     		mov	r2, r4
 181 00b0 2146     		mov	r1, r4
 182 00b2 0920     		movs	r0, #9
 183 00b4 FFF7FEFF 		bl	HAL_NVIC_SetPriority
 184              	.LVL9:
 273:Core/Src/main.cpp ****   HAL_NVIC_EnableIRQ(EXTI3_IRQn);
ARM GAS  C:\Users\Admin\AppData\Local\Temp\ccEsCXkX.s 			page 9


 185              		.loc 1 273 3 is_stmt 1 view .LVU55
 186              		.loc 1 273 21 is_stmt 0 view .LVU56
 187 00b8 0920     		movs	r0, #9
 188 00ba FFF7FEFF 		bl	HAL_NVIC_EnableIRQ
 189              	.LVL10:
 274:Core/Src/main.cpp **** 
 275:Core/Src/main.cpp ****   HAL_NVIC_SetPriority(EXTI9_5_IRQn, 0, 0);
 190              		.loc 1 275 3 is_stmt 1 view .LVU57
 191              		.loc 1 275 23 is_stmt 0 view .LVU58
 192 00be 2246     		mov	r2, r4
 193 00c0 2146     		mov	r1, r4
 194 00c2 1720     		movs	r0, #23
 195 00c4 FFF7FEFF 		bl	HAL_NVIC_SetPriority
 196              	.LVL11:
 276:Core/Src/main.cpp ****   HAL_NVIC_EnableIRQ(EXTI9_5_IRQn);
 197              		.loc 1 276 3 is_stmt 1 view .LVU59
 198              		.loc 1 276 21 is_stmt 0 view .LVU60
 199 00c8 1720     		movs	r0, #23
 200 00ca FFF7FEFF 		bl	HAL_NVIC_EnableIRQ
 201              	.LVL12:
 277:Core/Src/main.cpp **** }
 202              		.loc 1 277 1 view .LVU61
 203 00ce 09B0     		add	sp, sp, #36
 204              	.LCFI2:
 205              		.cfi_def_cfa_offset 12
 206              		@ sp needed
 207 00d0 30BD     		pop	{r4, r5, pc}
 208              	.L4:
 209 00d2 00BF     		.align	2
 210              	.L3:
 211 00d4 00100240 		.word	1073876992
 212 00d8 00002110 		.word	270598144
 213 00dc 00100140 		.word	1073811456
 214 00e0 00001110 		.word	269549568
 215 00e4 00003110 		.word	271646720
 216              		.cfi_endproc
 217              	.LFE105:
 218              		.fnend
 220              		.section	.text._Z41__static_initialization_and_destruction_0ii,"ax",%progbits
 221              		.align	1
 222              		.syntax unified
 223              		.thumb
 224              		.thumb_func
 225              		.fpu softvfp
 227              	_Z41__static_initialization_and_destruction_0ii:
 228              		.fnstart
 229              	.LVL13:
 230              	.LFB121:
 278:Core/Src/main.cpp **** 
 279:Core/Src/main.cpp **** int main(void)
 280:Core/Src/main.cpp **** {
 281:Core/Src/main.cpp ****   HAL_Init();
 282:Core/Src/main.cpp **** 
 283:Core/Src/main.cpp ****   SystemClock_Config();
 284:Core/Src/main.cpp **** 
 285:Core/Src/main.cpp ****   MX_GPIO_Init();
 286:Core/Src/main.cpp ****   MX_USART1_UART_Init();
ARM GAS  C:\Users\Admin\AppData\Local\Temp\ccEsCXkX.s 			page 10


 287:Core/Src/main.cpp **** 
 288:Core/Src/main.cpp ****   UART_Printf("\nSwitched to Normal mode.\r\n");
 289:Core/Src/main.cpp ****   insideGreenLed.turnOff();
 290:Core/Src/main.cpp ****   outsideGreenLed.turnOff();
 291:Core/Src/main.cpp ****   insideZumer.turnOff();
 292:Core/Src/main.cpp ****   outsideZumer.turnOff();
 293:Core/Src/main.cpp **** 
 294:Core/Src/main.cpp ****   while (1)
 295:Core/Src/main.cpp ****   {
 296:Core/Src/main.cpp ****     TimeTrackEvent();
 297:Core/Src/main.cpp **** 
 298:Core/Src/main.cpp ****     ChangeModeEvent();
 299:Core/Src/main.cpp **** 
 300:Core/Src/main.cpp ****     DoorSensorEvent();
 301:Core/Src/main.cpp **** 
 302:Core/Src/main.cpp ****     KeyReadEvent();
 303:Core/Src/main.cpp **** 
 304:Core/Src/main.cpp ****     ButtonPressedEvent();
 305:Core/Src/main.cpp **** 
 306:Core/Src/main.cpp ****     TempOpenModeEvent();
 307:Core/Src/main.cpp **** 
 308:Core/Src/main.cpp ****     TempAlarmEvent();
 309:Core/Src/main.cpp **** 
 310:Core/Src/main.cpp ****     DenyKeyEvent();
 311:Core/Src/main.cpp **** 
 312:Core/Src/main.cpp ****     AlarmEvent();
 313:Core/Src/main.cpp ****   }
 314:Core/Src/main.cpp **** }
 315:Core/Src/main.cpp **** 
 316:Core/Src/main.cpp **** /* Events */
 317:Core/Src/main.cpp **** 
 318:Core/Src/main.cpp **** void TimeTrackEvent()
 319:Core/Src/main.cpp **** {
 320:Core/Src/main.cpp ****   if ((HAL_GetTick() - timmeTrack) > 5000)
 321:Core/Src/main.cpp ****   {
 322:Core/Src/main.cpp ****     UART_Printf("Time passed: %d%s\r\n", (HAL_GetTick() - timme) / 1000, " sec.");
 323:Core/Src/main.cpp ****     timmeTrack = HAL_GetTick();
 324:Core/Src/main.cpp ****   }
 325:Core/Src/main.cpp **** }
 326:Core/Src/main.cpp **** 
 327:Core/Src/main.cpp **** void ChangeModeEvent()
 328:Core/Src/main.cpp **** {
 329:Core/Src/main.cpp ****   if ((HAL_GetTick() - timme) > 15000)
 330:Core/Src/main.cpp ****   {
 331:Core/Src/main.cpp ****     timme = HAL_GetTick();
 332:Core/Src/main.cpp ****     switchMode();
 333:Core/Src/main.cpp ****   }
 334:Core/Src/main.cpp **** }
 335:Core/Src/main.cpp **** 
 336:Core/Src/main.cpp **** void DoorSensorEvent()
 337:Core/Src/main.cpp **** {
 338:Core/Src/main.cpp ****   if (HAL_GetTick() - doorSensorTimer.getStartTime() > 100 && doorSensorFirstTime == false)
 339:Core/Src/main.cpp ****   {
 340:Core/Src/main.cpp ****     door.setStateChanged();
 341:Core/Src/main.cpp **** 
 342:Core/Src/main.cpp ****     if (door.getState() == State::Off)
 343:Core/Src/main.cpp ****     {
ARM GAS  C:\Users\Admin\AppData\Local\Temp\ccEsCXkX.s 			page 11


 344:Core/Src/main.cpp ****       UART_Printf("Door was closed.\r\n");
 345:Core/Src/main.cpp ****     }
 346:Core/Src/main.cpp ****     else if (door.getState() == State::On)
 347:Core/Src/main.cpp ****     {
 348:Core/Src/main.cpp ****       UART_Printf("Door was opened.\r\n");
 349:Core/Src/main.cpp ****     }
 350:Core/Src/main.cpp **** 
 351:Core/Src/main.cpp ****     if (workMode != WorkMode::TempOpenMode && door.getState() == State::On)
 352:Core/Src/main.cpp ****     {
 353:Core/Src/main.cpp ****       workMode = WorkMode::AlarmMode;
 354:Core/Src/main.cpp ****     }
 355:Core/Src/main.cpp **** 
 356:Core/Src/main.cpp ****     doorSensorFirstTime = true;
 357:Core/Src/main.cpp ****   }
 358:Core/Src/main.cpp **** }
 359:Core/Src/main.cpp **** 
 360:Core/Src/main.cpp **** void KeyReadEvent()
 361:Core/Src/main.cpp **** {
 362:Core/Src/main.cpp ****   if (wig_available() && workMode == WorkMode::NoMode)
 363:Core/Src/main.cpp ****   {
 364:Core/Src/main.cpp ****     if (intercomMode != IntercomMode::ClosedMode && verifyCode(getCode()))
 365:Core/Src/main.cpp ****     {
 366:Core/Src/main.cpp ****       UART_Printf("%s intercom was used. Key id: %d.\r\n", insideKeyRead ? "Inside" : "Outside", ge
 367:Core/Src/main.cpp **** 
 368:Core/Src/main.cpp ****       workMode = WorkMode::TempOpenMode;
 369:Core/Src/main.cpp **** 
 370:Core/Src/main.cpp ****       if (intercomMode == IntercomMode::CondOpenMode)
 371:Core/Src/main.cpp ****       {
 372:Core/Src/main.cpp ****         UART_Printf("Current mode is Conditionally Open. Switching to Open.\r\n");
 373:Core/Src/main.cpp ****         intercomMode = IntercomMode::OpenMode;
 374:Core/Src/main.cpp ****       }
 375:Core/Src/main.cpp ****     }
 376:Core/Src/main.cpp ****     else
 377:Core/Src/main.cpp ****     {
 378:Core/Src/main.cpp ****       (intercomMode == IntercomMode::ClosedMode) ? UART_Printf("Acces denied, door is closed. Key i
 379:Core/Src/main.cpp ****                                                  : UART_Printf("Acces denied. Key is not authorized
 380:Core/Src/main.cpp **** 
 381:Core/Src/main.cpp ****       previousWorkMode = workMode;
 382:Core/Src/main.cpp ****       workMode = WorkMode::DenyMode;
 383:Core/Src/main.cpp ****     }
 384:Core/Src/main.cpp **** 
 385:Core/Src/main.cpp ****     insideKeyRead = false;
 386:Core/Src/main.cpp ****     outsideKeyRead = false;
 387:Core/Src/main.cpp ****   }
 388:Core/Src/main.cpp **** }
 389:Core/Src/main.cpp **** 
 390:Core/Src/main.cpp **** void ButtonPressedEvent()
 391:Core/Src/main.cpp **** {
 392:Core/Src/main.cpp ****   if (insideButtonPressed || outsideButtonPressed)
 393:Core/Src/main.cpp ****   {
 394:Core/Src/main.cpp ****     UART_Printf("%s button was used.\r\n", insideButtonPressed ? "Inside" : "Outside");
 395:Core/Src/main.cpp **** 
 396:Core/Src/main.cpp ****     workMode = WorkMode::TempOpenMode;
 397:Core/Src/main.cpp **** 
 398:Core/Src/main.cpp ****     insideButtonPressed = false;
 399:Core/Src/main.cpp ****     outsideButtonPressed = false;
 400:Core/Src/main.cpp ****   }
ARM GAS  C:\Users\Admin\AppData\Local\Temp\ccEsCXkX.s 			page 12


 401:Core/Src/main.cpp **** }
 402:Core/Src/main.cpp **** 
 403:Core/Src/main.cpp **** void TempOpenModeEvent()
 404:Core/Src/main.cpp **** {
 405:Core/Src/main.cpp ****   static Timer lockTimer(0, 0);
 406:Core/Src/main.cpp ****   static Timer zumerTimer(0, 0);
 407:Core/Src/main.cpp **** 
 408:Core/Src/main.cpp ****   if (workMode == WorkMode::TempOpenMode)
 409:Core/Src/main.cpp ****   {
 410:Core/Src/main.cpp ****     static bool firstTime = true;
 411:Core/Src/main.cpp ****     if (firstTime)
 412:Core/Src/main.cpp ****     {
 413:Core/Src/main.cpp ****       firstTime = false;
 414:Core/Src/main.cpp ****       lock.turnOn();
 415:Core/Src/main.cpp ****       lockTimer.start();
 416:Core/Src/main.cpp ****     }
 417:Core/Src/main.cpp **** 
 418:Core/Src/main.cpp ****     if (HAL_GetTick() - lockTimer.getStartTime() < 5000 && !(door.isStateChanged() && door.getState
 419:Core/Src/main.cpp ****     {
 420:Core/Src/main.cpp ****       if (HAL_GetTick() - zumerTimer.getLastTick() > 250)
 421:Core/Src/main.cpp ****       {
 422:Core/Src/main.cpp ****         zumerTimer.setLastTick();
 423:Core/Src/main.cpp ****         insideZumer.turnOn();
 424:Core/Src/main.cpp ****         outsideZumer.turnOn();
 425:Core/Src/main.cpp ****         insideGreenLed.turnOn();
 426:Core/Src/main.cpp ****         outsideGreenLed.turnOn();
 427:Core/Src/main.cpp ****       }
 428:Core/Src/main.cpp **** 
 429:Core/Src/main.cpp ****       if (HAL_GetTick() - zumerTimer.getLastTick() > 75)
 430:Core/Src/main.cpp ****       {
 431:Core/Src/main.cpp ****         insideZumer.turnOff();
 432:Core/Src/main.cpp ****         outsideZumer.turnOff();
 433:Core/Src/main.cpp ****         insideGreenLed.turnOff();
 434:Core/Src/main.cpp ****         outsideGreenLed.turnOff();
 435:Core/Src/main.cpp ****       }
 436:Core/Src/main.cpp ****     }
 437:Core/Src/main.cpp ****     else if (door.getState() == State::On)
 438:Core/Src/main.cpp ****     {
 439:Core/Src/main.cpp ****       UART_Printf("Door is still opened. Turning on temporarily alarm.\r\n");
 440:Core/Src/main.cpp ****       workMode = WorkMode::TempAlarmMode;
 441:Core/Src/main.cpp ****     }
 442:Core/Src/main.cpp ****     else
 443:Core/Src/main.cpp ****     {
 444:Core/Src/main.cpp ****       if (HAL_GetTick() - lockTimer.getStartTime() >= 5000)
 445:Core/Src/main.cpp ****       {
 446:Core/Src/main.cpp ****         UART_Printf("Door was not opened. Closing the relay.\r\n");
 447:Core/Src/main.cpp ****       }
 448:Core/Src/main.cpp **** 
 449:Core/Src/main.cpp ****       workMode = WorkMode::NoMode;
 450:Core/Src/main.cpp ****       firstTime = true;
 451:Core/Src/main.cpp ****       lock.turnOff();
 452:Core/Src/main.cpp ****       insideZumer.turnOff();
 453:Core/Src/main.cpp ****       outsideZumer.turnOff();
 454:Core/Src/main.cpp ****       insideGreenLed.turnOff();
 455:Core/Src/main.cpp ****       outsideGreenLed.turnOff();
 456:Core/Src/main.cpp ****     }
 457:Core/Src/main.cpp ****   }
ARM GAS  C:\Users\Admin\AppData\Local\Temp\ccEsCXkX.s 			page 13


 458:Core/Src/main.cpp **** }
 459:Core/Src/main.cpp **** 
 460:Core/Src/main.cpp **** void TempAlarmEvent()
 461:Core/Src/main.cpp **** {
 462:Core/Src/main.cpp ****   static Timer sirenTimer(0, 0);
 463:Core/Src/main.cpp **** 
 464:Core/Src/main.cpp ****   if (workMode == WorkMode::TempAlarmMode)
 465:Core/Src/main.cpp ****   {
 466:Core/Src/main.cpp ****     if (HAL_GetTick() - sirenTimer.getLastTick() > 250)
 467:Core/Src/main.cpp ****     {
 468:Core/Src/main.cpp ****       sirenTimer.setLastTick();
 469:Core/Src/main.cpp ****       siren.turnOn();
 470:Core/Src/main.cpp ****     }
 471:Core/Src/main.cpp ****     else if (HAL_GetTick() - sirenTimer.getLastTick() < 250 && HAL_GetTick() - sirenTimer.getLastTi
 472:Core/Src/main.cpp ****     {
 473:Core/Src/main.cpp ****       siren.turnOff();
 474:Core/Src/main.cpp ****     }
 475:Core/Src/main.cpp **** 
 476:Core/Src/main.cpp ****     if (door.isStateChanged() && door.getState() == State::Off)
 477:Core/Src/main.cpp ****     {
 478:Core/Src/main.cpp ****       UART_Printf("Door was closed.\r\n");
 479:Core/Src/main.cpp ****       workMode = WorkMode::NoMode;
 480:Core/Src/main.cpp ****       siren.turnOff();
 481:Core/Src/main.cpp ****     }
 482:Core/Src/main.cpp ****   }
 483:Core/Src/main.cpp **** }
 484:Core/Src/main.cpp **** 
 485:Core/Src/main.cpp **** void DenyKeyEvent()
 486:Core/Src/main.cpp **** {
 487:Core/Src/main.cpp ****   static Timer denyTimer(0, 0);
 488:Core/Src/main.cpp ****   static bool firstTime = true;
 489:Core/Src/main.cpp **** 
 490:Core/Src/main.cpp ****   if (workMode == WorkMode::DenyMode)
 491:Core/Src/main.cpp ****   {
 492:Core/Src/main.cpp ****     if (firstTime)
 493:Core/Src/main.cpp ****     {
 494:Core/Src/main.cpp ****       denyTimer.start();
 495:Core/Src/main.cpp ****       firstTime = false;
 496:Core/Src/main.cpp ****     }
 497:Core/Src/main.cpp **** 
 498:Core/Src/main.cpp ****     if (HAL_GetTick() - denyTimer.getStartTime() < 300)
 499:Core/Src/main.cpp ****     {
 500:Core/Src/main.cpp ****       if (HAL_GetTick() - denyTimer.getLastTick() > 150)
 501:Core/Src/main.cpp ****       {
 502:Core/Src/main.cpp ****         denyTimer.setLastTick();
 503:Core/Src/main.cpp ****         insideZumer.turnOn();
 504:Core/Src/main.cpp ****         outsideZumer.turnOn();
 505:Core/Src/main.cpp ****       }
 506:Core/Src/main.cpp ****       else if (HAL_GetTick() - denyTimer.getLastTick() < 150 && HAL_GetTick() - denyTimer.getLastTi
 507:Core/Src/main.cpp ****       {
 508:Core/Src/main.cpp ****         insideZumer.turnOff();
 509:Core/Src/main.cpp ****         outsideZumer.turnOff();
 510:Core/Src/main.cpp ****       }
 511:Core/Src/main.cpp ****     }
 512:Core/Src/main.cpp ****     else
 513:Core/Src/main.cpp ****     {
 514:Core/Src/main.cpp ****       workMode = previousWorkMode;
ARM GAS  C:\Users\Admin\AppData\Local\Temp\ccEsCXkX.s 			page 14


 515:Core/Src/main.cpp ****       insideZumer.turnOff();
 516:Core/Src/main.cpp ****       outsideZumer.turnOff();
 517:Core/Src/main.cpp ****       firstTime = true;
 518:Core/Src/main.cpp ****     }
 519:Core/Src/main.cpp ****   }
 520:Core/Src/main.cpp **** }
 521:Core/Src/main.cpp **** 
 522:Core/Src/main.cpp **** void AlarmEvent()
 523:Core/Src/main.cpp **** {
 524:Core/Src/main.cpp ****   if (workMode == WorkMode::AlarmMode)
 525:Core/Src/main.cpp ****   {
 526:Core/Src/main.cpp ****     static Timer alarmTimer(0, 0);
 527:Core/Src/main.cpp ****     static bool firstTime = true;
 528:Core/Src/main.cpp **** 
 529:Core/Src/main.cpp ****     if (firstTime)
 530:Core/Src/main.cpp ****     {
 531:Core/Src/main.cpp ****       UART_Printf("Unauthorized access. Triggered alarm.\r\n");
 532:Core/Src/main.cpp ****       alarmTimer.start();
 533:Core/Src/main.cpp ****       firstTime = false;
 534:Core/Src/main.cpp ****     }
 535:Core/Src/main.cpp **** 
 536:Core/Src/main.cpp ****     if (HAL_GetTick() - alarmTimer.getLastTick() > 1000)
 537:Core/Src/main.cpp ****     {
 538:Core/Src/main.cpp ****       alarmTimer.setLastTick();
 539:Core/Src/main.cpp ****       siren.turnOn();
 540:Core/Src/main.cpp ****     }
 541:Core/Src/main.cpp ****     else if (HAL_GetTick() - alarmTimer.getLastTick() < 1000 && HAL_GetTick() - alarmTimer.getLastT
 542:Core/Src/main.cpp ****     {
 543:Core/Src/main.cpp ****       siren.turnOff();
 544:Core/Src/main.cpp ****     }
 545:Core/Src/main.cpp **** 
 546:Core/Src/main.cpp ****     if (HAL_GetTick() - alarmTimer.getStartTime() > 2000 && ((wig_available() && verifyCode(getCode
 547:Core/Src/main.cpp ****     {
 548:Core/Src/main.cpp ****       workMode = WorkMode::TempOpenMode;
 549:Core/Src/main.cpp ****       siren.turnOff();
 550:Core/Src/main.cpp ****       firstTime = true;
 551:Core/Src/main.cpp ****     }
 552:Core/Src/main.cpp ****   }
 553:Core/Src/main.cpp **** }
 554:Core/Src/main.cpp **** 
 555:Core/Src/main.cpp **** /* Aux functions */
 556:Core/Src/main.cpp **** 
 557:Core/Src/main.cpp **** void HAL_GPIO_EXTI_Callback(uint16_t GPIO_Pin)
 558:Core/Src/main.cpp **** {
 559:Core/Src/main.cpp ****   switch (GPIO_Pin)
 560:Core/Src/main.cpp ****   {
 561:Core/Src/main.cpp ****   case BT_0_Pin:
 562:Core/Src/main.cpp ****   {
 563:Core/Src/main.cpp ****     insideButtonPressed = true;
 564:Core/Src/main.cpp ****     break;
 565:Core/Src/main.cpp ****   }
 566:Core/Src/main.cpp ****   case BT_1_Pin:
 567:Core/Src/main.cpp ****   {
 568:Core/Src/main.cpp ****     outsideButtonPressed = true;
 569:Core/Src/main.cpp ****     break;
 570:Core/Src/main.cpp ****   }
 571:Core/Src/main.cpp ****   case Door_Pin:
ARM GAS  C:\Users\Admin\AppData\Local\Temp\ccEsCXkX.s 			page 15


 572:Core/Src/main.cpp ****   {
 573:Core/Src/main.cpp ****     if (doorSensorFirstTime)
 574:Core/Src/main.cpp ****     {
 575:Core/Src/main.cpp ****       doorSensorTimer.start();
 576:Core/Src/main.cpp ****       doorSensorFirstTime = false;
 577:Core/Src/main.cpp ****     }
 578:Core/Src/main.cpp ****     break;
 579:Core/Src/main.cpp ****   }
 580:Core/Src/main.cpp ****   case D_01_Pin:
 581:Core/Src/main.cpp ****   {
 582:Core/Src/main.cpp ****     if (wig_flag_inrt)
 583:Core/Src/main.cpp ****     {
 584:Core/Src/main.cpp ****       ReadD0();
 585:Core/Src/main.cpp ****       insideKeyRead = true;
 586:Core/Src/main.cpp ****     }
 587:Core/Src/main.cpp ****     break;
 588:Core/Src/main.cpp ****   }
 589:Core/Src/main.cpp ****   case D_11_Pin:
 590:Core/Src/main.cpp ****   {
 591:Core/Src/main.cpp ****     if (wig_flag_inrt)
 592:Core/Src/main.cpp ****     {
 593:Core/Src/main.cpp ****       ReadD1();
 594:Core/Src/main.cpp ****       insideKeyRead = true;
 595:Core/Src/main.cpp ****     }
 596:Core/Src/main.cpp ****     break;
 597:Core/Src/main.cpp ****   }
 598:Core/Src/main.cpp ****   case D_02_Pin:
 599:Core/Src/main.cpp ****   {
 600:Core/Src/main.cpp ****     if (wig_flag_inrt)
 601:Core/Src/main.cpp ****     {
 602:Core/Src/main.cpp ****       ReadD0();
 603:Core/Src/main.cpp ****       outsideKeyRead = true;
 604:Core/Src/main.cpp ****     }
 605:Core/Src/main.cpp ****     break;
 606:Core/Src/main.cpp ****   }
 607:Core/Src/main.cpp ****   case D_12_Pin:
 608:Core/Src/main.cpp ****   {
 609:Core/Src/main.cpp ****     if (wig_flag_inrt)
 610:Core/Src/main.cpp ****     {
 611:Core/Src/main.cpp ****       ReadD1();
 612:Core/Src/main.cpp ****       outsideKeyRead = true;
 613:Core/Src/main.cpp ****     }
 614:Core/Src/main.cpp ****     break;
 615:Core/Src/main.cpp ****   }
 616:Core/Src/main.cpp ****   default:
 617:Core/Src/main.cpp ****   {
 618:Core/Src/main.cpp ****     break;
 619:Core/Src/main.cpp ****   }
 620:Core/Src/main.cpp ****   }
 621:Core/Src/main.cpp **** }
 622:Core/Src/main.cpp **** 
 623:Core/Src/main.cpp **** void UART_Printf(const char *fmt, ...)
 624:Core/Src/main.cpp **** {
 625:Core/Src/main.cpp ****   char buff[256];
 626:Core/Src/main.cpp ****   va_list args;
 627:Core/Src/main.cpp ****   va_start(args, fmt);
 628:Core/Src/main.cpp ****   vsnprintf(buff, sizeof(buff), fmt, args);
ARM GAS  C:\Users\Admin\AppData\Local\Temp\ccEsCXkX.s 			page 16


 629:Core/Src/main.cpp ****   HAL_UART_Transmit(&huart1, (uint8_t *)buff, strlen(buff), HAL_MAX_DELAY);
 630:Core/Src/main.cpp ****   va_end(args);
 631:Core/Src/main.cpp **** }
 632:Core/Src/main.cpp **** 
 633:Core/Src/main.cpp **** bool verifyCode(uint32_t code)
 634:Core/Src/main.cpp **** {
 635:Core/Src/main.cpp ****   uint32_t codes[] =
 636:Core/Src/main.cpp ****       {12563593};
 637:Core/Src/main.cpp **** 
 638:Core/Src/main.cpp ****   for (unsigned int i = 0; i < sizeof(codes) / sizeof(codes[0]); i++)
 639:Core/Src/main.cpp ****   {
 640:Core/Src/main.cpp ****     if (code == codes[i])
 641:Core/Src/main.cpp ****       return true;
 642:Core/Src/main.cpp ****   }
 643:Core/Src/main.cpp **** 
 644:Core/Src/main.cpp ****   return false;
 645:Core/Src/main.cpp **** }
 646:Core/Src/main.cpp **** 
 647:Core/Src/main.cpp **** void switchMode()
 648:Core/Src/main.cpp **** {
 649:Core/Src/main.cpp ****   switch (intercomMode)
 650:Core/Src/main.cpp ****   {
 651:Core/Src/main.cpp ****   case IntercomMode::NormalMode:
 652:Core/Src/main.cpp ****   {
 653:Core/Src/main.cpp ****     UART_Printf("\nSwitched to Closed mode.\r\n");
 654:Core/Src/main.cpp ****     intercomMode = IntercomMode::ClosedMode;
 655:Core/Src/main.cpp ****     lock.turnOff();
 656:Core/Src/main.cpp ****     break;
 657:Core/Src/main.cpp ****   }
 658:Core/Src/main.cpp ****   case IntercomMode::ClosedMode:
 659:Core/Src/main.cpp ****   {
 660:Core/Src/main.cpp ****     UART_Printf("\nSwitched to Open mode.\r\n");
 661:Core/Src/main.cpp ****     intercomMode = IntercomMode::OpenMode;
 662:Core/Src/main.cpp ****     lock.turnOn();
 663:Core/Src/main.cpp ****     break;
 664:Core/Src/main.cpp ****   }
 665:Core/Src/main.cpp ****   case IntercomMode::OpenMode:
 666:Core/Src/main.cpp ****   {
 667:Core/Src/main.cpp ****     UART_Printf("\nSwitched to CondOpen mode.\r\n");
 668:Core/Src/main.cpp ****     intercomMode = IntercomMode::CondOpenMode;
 669:Core/Src/main.cpp ****     lock.turnOff();
 670:Core/Src/main.cpp ****     break;
 671:Core/Src/main.cpp ****   }
 672:Core/Src/main.cpp ****   case IntercomMode::CondOpenMode:
 673:Core/Src/main.cpp ****   {
 674:Core/Src/main.cpp ****     UART_Printf("\nSwitched to Normal mode.\r\n");
 675:Core/Src/main.cpp ****     intercomMode = IntercomMode::NormalMode;
 676:Core/Src/main.cpp ****     lock.turnOff();
 677:Core/Src/main.cpp ****     break;
 678:Core/Src/main.cpp ****   }
 679:Core/Src/main.cpp ****   default:
 680:Core/Src/main.cpp ****   {
 681:Core/Src/main.cpp ****     UART_Printf("Unknown mode, switched to normal.\r\n");
 682:Core/Src/main.cpp ****     intercomMode = IntercomMode::NormalMode;
 683:Core/Src/main.cpp ****     lock.turnOff();
 684:Core/Src/main.cpp ****     break;
 685:Core/Src/main.cpp ****   }
ARM GAS  C:\Users\Admin\AppData\Local\Temp\ccEsCXkX.s 			page 17


 686:Core/Src/main.cpp ****   }
 687:Core/Src/main.cpp **** 
 688:Core/Src/main.cpp ****   return;
 689:Core/Src/main.cpp **** }
 690:Core/Src/main.cpp **** 
 691:Core/Src/main.cpp **** /**
 692:Core/Src/main.cpp ****   * @brief  This function is executed in case of error occurrence.
 693:Core/Src/main.cpp ****   * @retval None
 694:Core/Src/main.cpp ****   */
 695:Core/Src/main.cpp **** void Error_Handler(void)
 696:Core/Src/main.cpp **** {
 697:Core/Src/main.cpp ****   /* USER CODE BEGIN Error_Handler_Debug */
 698:Core/Src/main.cpp ****   /* User can add his own implementation to report the HAL error return state */
 699:Core/Src/main.cpp ****   __disable_irq();
 700:Core/Src/main.cpp ****   while (1)
 701:Core/Src/main.cpp ****   {
 702:Core/Src/main.cpp ****   }
 703:Core/Src/main.cpp ****   /* USER CODE END Error_Handler_Debug */
 704:Core/Src/main.cpp **** }
 231              		.loc 1 704 1 is_stmt 1 view -0
 232              		.cfi_startproc
 233              		@ args = 0, pretend = 0, frame = 16
 234              		@ frame_needed = 0, uses_anonymous_args = 0
 235              		.loc 1 704 1 is_stmt 0 view .LVU63
 236 0000 0128     		cmp	r0, #1
 237 0002 00D0     		beq	.L11
 238              	.L8:
 239 0004 7047     		bx	lr
 240              	.L11:
 241              		.loc 1 704 1 discriminator 1 view .LVU64
 242 0006 4FF6FF73 		movw	r3, #65535
 243 000a 9942     		cmp	r1, r3
 244 000c FAD1     		bne	.L8
 245              		.loc 1 704 1 view .LVU65
 246 000e 70B5     		push	{r4, r5, r6, lr}
 247              	.LCFI3:
 248              		.cfi_def_cfa_offset 16
 249              		.cfi_offset 4, -16
 250              		.cfi_offset 5, -12
 251              		.cfi_offset 6, -8
 252              		.cfi_offset 14, -4
 253 0010 84B0     		sub	sp, sp, #16
 254              	.LCFI4:
 255              		.cfi_def_cfa_offset 32
 256              	.LVL14:
 257              	.LBB163:
 258              	.LBI163:
 259              		.file 2 "Core/Inc/InterruptPin.h"
   1:Core/Inc/InterruptPin.h **** #pragma once
   2:Core/Inc/InterruptPin.h **** #include "PinIn.h"
   3:Core/Inc/InterruptPin.h **** #include "stm32f1xx_hal.h"
   4:Core/Inc/InterruptPin.h **** #include "State.h"
   5:Core/Inc/InterruptPin.h **** 
   6:Core/Inc/InterruptPin.h **** class InterruptPin : public PinIn
   7:Core/Inc/InterruptPin.h **** {
   8:Core/Inc/InterruptPin.h **** private:
   9:Core/Inc/InterruptPin.h ****     bool stateChanged;
ARM GAS  C:\Users\Admin\AppData\Local\Temp\ccEsCXkX.s 			page 18


  10:Core/Inc/InterruptPin.h **** 
  11:Core/Inc/InterruptPin.h **** public:
  12:Core/Inc/InterruptPin.h ****     InterruptPin(GPIO_TypeDef *GPIOx, uint16_t GPIO_Pin) : PinIn(GPIOx, GPIO_Pin)
 260              		.loc 2 12 5 is_stmt 1 view .LVU66
 261              	.LBB164:
 262              	.LBB165:
 263              	.LBI165:
 264              		.file 3 "Core/Inc/PinIn.h"
   1:Core/Inc/PinIn.h **** #pragma once
   2:Core/Inc/PinIn.h **** #include "stm32f1xx_hal.h"
   3:Core/Inc/PinIn.h **** #include "State.h"
   4:Core/Inc/PinIn.h **** 
   5:Core/Inc/PinIn.h **** class PinIn
   6:Core/Inc/PinIn.h **** {
   7:Core/Inc/PinIn.h ****     GPIO_TypeDef *GPIOx;
   8:Core/Inc/PinIn.h ****     uint16_t GPIO_Pin;
   9:Core/Inc/PinIn.h **** 
  10:Core/Inc/PinIn.h **** public:
  11:Core/Inc/PinIn.h ****     PinIn(GPIO_TypeDef *GPIOx, uint16_t GPIO_Pin)
 265              		.loc 3 11 5 view .LVU67
 266              	.LBB166:
 267              	.LBB167:
  12:Core/Inc/PinIn.h ****     {
  13:Core/Inc/PinIn.h ****         this->GPIOx = GPIOx;
 268              		.loc 3 13 9 view .LVU68
 269              		.loc 3 13 21 is_stmt 0 view .LVU69
 270 0012 1E4B     		ldr	r3, .L12
 271 0014 1E48     		ldr	r0, .L12+4
 272              	.LVL15:
 273              		.loc 3 13 21 view .LVU70
 274 0016 1860     		str	r0, [r3]
  14:Core/Inc/PinIn.h ****         this->GPIO_Pin = GPIO_Pin;
 275              		.loc 3 14 9 is_stmt 1 view .LVU71
 276              		.loc 3 14 24 is_stmt 0 view .LVU72
 277 0018 4FF48076 		mov	r6, #256
 278 001c 9E80     		strh	r6, [r3, #4]	@ movhi
  15:Core/Inc/PinIn.h **** 
  16:Core/Inc/PinIn.h ****         GPIO_InitTypeDef GPIO_InitStruct = {0};
 279              		.loc 3 16 9 is_stmt 1 view .LVU73
 280              		.loc 3 16 26 is_stmt 0 view .LVU74
 281 001e 0024     		movs	r4, #0
 282 0020 0094     		str	r4, [sp]
 283 0022 0194     		str	r4, [sp, #4]
 284 0024 0294     		str	r4, [sp, #8]
 285 0026 0394     		str	r4, [sp, #12]
  17:Core/Inc/PinIn.h ****         GPIO_InitStruct.Pin = GPIO_Pin;
 286              		.loc 3 17 9 is_stmt 1 view .LVU75
 287              		.loc 3 17 29 is_stmt 0 view .LVU76
 288 0028 0096     		str	r6, [sp]
  18:Core/Inc/PinIn.h ****         GPIO_InitStruct.Mode = GPIO_MODE_OUTPUT_PP;
 289              		.loc 3 18 9 is_stmt 1 view .LVU77
 290              		.loc 3 18 30 is_stmt 0 view .LVU78
 291 002a 0123     		movs	r3, #1
 292 002c 0193     		str	r3, [sp, #4]
  19:Core/Inc/PinIn.h ****         GPIO_InitStruct.Pull = GPIO_NOPULL;
 293              		.loc 3 19 9 is_stmt 1 view .LVU79
  20:Core/Inc/PinIn.h ****         GPIO_InitStruct.Speed = GPIO_SPEED_FREQ_LOW;
ARM GAS  C:\Users\Admin\AppData\Local\Temp\ccEsCXkX.s 			page 19


 294              		.loc 3 20 9 view .LVU80
 295              		.loc 3 20 31 is_stmt 0 view .LVU81
 296 002e 0223     		movs	r3, #2
 297 0030 0393     		str	r3, [sp, #12]
  21:Core/Inc/PinIn.h ****         HAL_GPIO_Init(GPIOx, &GPIO_InitStruct);
 298              		.loc 3 21 9 is_stmt 1 view .LVU82
 299              		.loc 3 21 22 is_stmt 0 view .LVU83
 300 0032 6946     		mov	r1, sp
 301              	.LVL16:
 302              		.loc 3 21 22 view .LVU84
 303 0034 FFF7FEFF 		bl	HAL_GPIO_Init
 304              	.LVL17:
 305              		.loc 3 21 22 view .LVU85
 306              	.LBE167:
 307              	.LBE166:
 308              	.LBE165:
 309              	.LBE164:
 310              	.LBE163:
 116:Core/Src/main.cpp **** /**
 311              		.loc 1 116 37 view .LVU86
 312 0038 164D     		ldr	r5, .L12+8
 313 003a 3246     		mov	r2, r6
 314 003c 2946     		mov	r1, r5
 315 003e 1648     		ldr	r0, .L12+12
 316 0040 FFF7FEFF 		bl	_ZN6PinOutC1EP12GPIO_TypeDeft
 317              	.LVL18:
 120:Core/Src/main.cpp **** 
 318              		.loc 1 120 40 view .LVU87
 319 0044 4FF40072 		mov	r2, #512
 320 0048 2946     		mov	r1, r5
 321 004a 1448     		ldr	r0, .L12+16
 322 004c FFF7FEFF 		bl	_ZN6PinOutC1EP12GPIO_TypeDeft
 323              	.LVL19:
 324              	.LBB168:
 325              	.LBI168:
 326              		.file 4 "Core/Inc/InvertedPinOut.h"
   1:Core/Inc/InvertedPinOut.h **** #pragma once
   2:Core/Inc/InvertedPinOut.h **** #include "stm32f1xx_hal.h"
   3:Core/Inc/InvertedPinOut.h **** #include "PinOut.h"
   4:Core/Inc/InvertedPinOut.h **** 
   5:Core/Inc/InvertedPinOut.h **** class InvertedPinOut : public PinOut
   6:Core/Inc/InvertedPinOut.h **** {
   7:Core/Inc/InvertedPinOut.h **** public:
   8:Core/Inc/InvertedPinOut.h ****     InvertedPinOut(GPIO_TypeDef *GPIOx, uint16_t GPIO_Pin) : PinOut(GPIOx, GPIO_Pin)
 327              		.loc 4 8 5 is_stmt 1 view .LVU88
 328              	.LBB169:
 329              	.LBB170:
 330              		.loc 4 8 84 is_stmt 0 view .LVU89
 331 0050 4FF48062 		mov	r2, #1024
 332 0054 2946     		mov	r1, r5
 333 0056 1248     		ldr	r0, .L12+20
 334 0058 FFF7FEFF 		bl	_ZN6PinOutC2EP12GPIO_TypeDeft
 335              	.LVL20:
 336              		.loc 4 8 84 view .LVU90
 337              	.LBE170:
 338              	.LBE169:
 339              	.LBE168:
ARM GAS  C:\Users\Admin\AppData\Local\Temp\ccEsCXkX.s 			page 20


 340              	.LBB171:
 341              	.LBI171:
 342              		.loc 4 8 5 is_stmt 1 view .LVU91
 343              	.LBB172:
 344              	.LBB173:
 345              		.loc 4 8 84 is_stmt 0 view .LVU92
 346 005c 4FF40062 		mov	r2, #2048
 347 0060 2946     		mov	r1, r5
 348 0062 1048     		ldr	r0, .L12+24
 349 0064 FFF7FEFF 		bl	_ZN6PinOutC2EP12GPIO_TypeDeft
 350              	.LVL21:
 351              		.loc 4 8 84 view .LVU93
 352              	.LBE173:
 353              	.LBE172:
 354              	.LBE171:
 355              	.LBB174:
 356              	.LBI174:
 357              		.loc 4 8 5 is_stmt 1 view .LVU94
 358              	.LBB175:
 359              	.LBB176:
 360              		.loc 4 8 84 is_stmt 0 view .LVU95
 361 0068 4FF48042 		mov	r2, #16384
 362 006c 2946     		mov	r1, r5
 363 006e 0E48     		ldr	r0, .L12+28
 364 0070 FFF7FEFF 		bl	_ZN6PinOutC2EP12GPIO_TypeDeft
 365              	.LVL22:
 366              		.loc 4 8 84 view .LVU96
 367              	.LBE176:
 368              	.LBE175:
 369              	.LBE174:
 370              	.LBB177:
 371              	.LBI177:
 372              		.loc 4 8 5 is_stmt 1 view .LVU97
 373              	.LBB178:
 374              	.LBB179:
 375              		.loc 4 8 84 is_stmt 0 view .LVU98
 376 0074 4FF40042 		mov	r2, #32768
 377 0078 2946     		mov	r1, r5
 378 007a 0C48     		ldr	r0, .L12+32
 379 007c FFF7FEFF 		bl	_ZN6PinOutC2EP12GPIO_TypeDeft
 380              	.LVL23:
 381              		.loc 4 8 84 view .LVU99
 382              	.LBE179:
 383              	.LBE178:
 384              	.LBE177:
 385              	.LBB180:
 386              	.LBI180:
 387              		.file 5 "Core/Inc/Timer.h"
   1:Core/Inc/Timer.h **** #pragma once
   2:Core/Inc/Timer.h **** #include "stm32f1xx_hal.h"
   3:Core/Inc/Timer.h **** #include "State.h"
   4:Core/Inc/Timer.h **** 
   5:Core/Inc/Timer.h **** class Timer
   6:Core/Inc/Timer.h **** {
   7:Core/Inc/Timer.h ****     uint32_t startTime;
   8:Core/Inc/Timer.h ****     uint32_t lastTick;
   9:Core/Inc/Timer.h **** 
ARM GAS  C:\Users\Admin\AppData\Local\Temp\ccEsCXkX.s 			page 21


  10:Core/Inc/Timer.h **** public:
  11:Core/Inc/Timer.h ****     Timer()
  12:Core/Inc/Timer.h ****     {
  13:Core/Inc/Timer.h ****         start();
  14:Core/Inc/Timer.h ****         setLastTick();
  15:Core/Inc/Timer.h ****     }
  16:Core/Inc/Timer.h **** 
  17:Core/Inc/Timer.h ****     Timer(uint32_t startTime, uint32_t lastTick)
 388              		.loc 5 17 5 is_stmt 1 view .LVU100
 389              	.LBB181:
 390              	.LBB182:
  18:Core/Inc/Timer.h ****     {
  19:Core/Inc/Timer.h ****         this->startTime = startTime;
 391              		.loc 5 19 9 view .LVU101
 392              		.loc 5 19 25 is_stmt 0 view .LVU102
 393 0080 0B4B     		ldr	r3, .L12+36
 394 0082 1C60     		str	r4, [r3]
  20:Core/Inc/Timer.h ****         this->lastTick = lastTick;
 395              		.loc 5 20 9 is_stmt 1 view .LVU103
 396              		.loc 5 20 24 is_stmt 0 view .LVU104
 397 0084 5C60     		str	r4, [r3, #4]
 398              	.LVL24:
 399              		.loc 5 20 24 view .LVU105
 400              	.LBE182:
 401              	.LBE181:
 402              	.LBE180:
 403              		.loc 1 704 1 view .LVU106
 404 0086 04B0     		add	sp, sp, #16
 405              	.LCFI5:
 406              		.cfi_def_cfa_offset 16
 407              		@ sp needed
 408 0088 70BD     		pop	{r4, r5, r6, pc}
 409              	.L13:
 410 008a 00BF     		.align	2
 411              	.L12:
 412 008c 00000000 		.word	.LANCHOR0
 413 0090 00100140 		.word	1073811456
 414 0094 000C0140 		.word	1073810432
 415 0098 00000000 		.word	.LANCHOR1
 416 009c 00000000 		.word	.LANCHOR2
 417 00a0 00000000 		.word	.LANCHOR3
 418 00a4 00000000 		.word	.LANCHOR4
 419 00a8 00000000 		.word	.LANCHOR5
 420 00ac 00000000 		.word	.LANCHOR6
 421 00b0 00000000 		.word	.LANCHOR7
 422              		.cfi_endproc
 423              	.LFE121:
 424              		.cantunwind
 425              		.fnend
 427              		.section	.text._Z12DenyKeyEventv,"ax",%progbits
 428              		.align	1
 429              		.global	_Z12DenyKeyEventv
 430              		.syntax unified
 431              		.thumb
 432              		.thumb_func
 433              		.fpu softvfp
 435              	_Z12DenyKeyEventv:
ARM GAS  C:\Users\Admin\AppData\Local\Temp\ccEsCXkX.s 			page 22


 436              		.fnstart
 437              	.LFB114:
 486:Core/Src/main.cpp ****   static Timer denyTimer(0, 0);
 438              		.loc 1 486 1 is_stmt 1 view -0
 439              		.cfi_startproc
 440              		@ args = 0, pretend = 0, frame = 0
 441              		@ frame_needed = 0, uses_anonymous_args = 0
 442 0000 08B5     		push	{r3, lr}
 443              		.save {r3, lr}
 444              	.LCFI6:
 445              		.cfi_def_cfa_offset 8
 446              		.cfi_offset 3, -8
 447              		.cfi_offset 14, -4
 487:Core/Src/main.cpp ****   static bool firstTime = true;
 448              		.loc 1 487 3 view .LVU108
 487:Core/Src/main.cpp ****   static bool firstTime = true;
 449              		.loc 1 487 30 is_stmt 0 view .LVU109
 450 0002 334B     		ldr	r3, .L24
 451 0004 1B78     		ldrb	r3, [r3]	@ zero_extendqisi2
 452 0006 BFF35B8F 		dmb	ish
 453 000a 13F0010F 		tst	r3, #1
 454 000e 04D0     		beq	.L21
 455              	.L15:
 488:Core/Src/main.cpp **** 
 456              		.loc 1 488 3 is_stmt 1 view .LVU110
 490:Core/Src/main.cpp ****   {
 457              		.loc 1 490 3 view .LVU111
 490:Core/Src/main.cpp ****   {
 458              		.loc 1 490 16 is_stmt 0 view .LVU112
 459 0010 304B     		ldr	r3, .L24+4
 460 0012 1B68     		ldr	r3, [r3]
 490:Core/Src/main.cpp ****   {
 461              		.loc 1 490 3 view .LVU113
 462 0014 012B     		cmp	r3, #1
 463 0016 0DD0     		beq	.L22
 464              	.L14:
 520:Core/Src/main.cpp **** 
 465              		.loc 1 520 1 view .LVU114
 466 0018 08BD     		pop	{r3, pc}
 467              	.L21:
 487:Core/Src/main.cpp ****   static bool firstTime = true;
 468              		.loc 1 487 30 discriminator 1 view .LVU115
 469 001a 2D48     		ldr	r0, .L24
 470 001c FFF7FEFF 		bl	__cxa_guard_acquire
 471              	.LVL25:
 472 0020 0028     		cmp	r0, #0
 473 0022 F5D0     		beq	.L15
 474              	.LVL26:
 475              	.LBB183:
 476              	.LBI183:
  17:Core/Inc/Timer.h ****     {
 477              		.loc 5 17 5 is_stmt 1 discriminator 2 view .LVU116
 478              	.LBB184:
 479              	.LBB185:
  19:Core/Inc/Timer.h ****         this->lastTick = lastTick;
 480              		.loc 5 19 9 discriminator 2 view .LVU117
  19:Core/Inc/Timer.h ****         this->lastTick = lastTick;
ARM GAS  C:\Users\Admin\AppData\Local\Temp\ccEsCXkX.s 			page 23


 481              		.loc 5 19 25 is_stmt 0 discriminator 2 view .LVU118
 482 0024 2C4B     		ldr	r3, .L24+8
 483 0026 0022     		movs	r2, #0
 484 0028 1A60     		str	r2, [r3]
 485              		.loc 5 20 9 is_stmt 1 discriminator 2 view .LVU119
 486              		.loc 5 20 24 is_stmt 0 discriminator 2 view .LVU120
 487 002a 5A60     		str	r2, [r3, #4]
 488              	.LVL27:
 489              		.loc 5 20 24 discriminator 2 view .LVU121
 490              	.LBE185:
 491              	.LBE184:
 492              	.LBE183:
 487:Core/Src/main.cpp ****   static bool firstTime = true;
 493              		.loc 1 487 30 discriminator 2 view .LVU122
 494 002c 2848     		ldr	r0, .L24
 495 002e FFF7FEFF 		bl	__cxa_guard_release
 496              	.LVL28:
 497 0032 EDE7     		b	.L15
 498              	.L22:
 492:Core/Src/main.cpp ****     {
 499              		.loc 1 492 5 is_stmt 1 view .LVU123
 500 0034 294B     		ldr	r3, .L24+12
 501 0036 1B78     		ldrb	r3, [r3]	@ zero_extendqisi2
 502 0038 DBB9     		cbnz	r3, .L23
 503              	.L17:
 498:Core/Src/main.cpp ****     {
 504              		.loc 1 498 5 view .LVU124
 498:Core/Src/main.cpp ****     {
 505              		.loc 1 498 20 is_stmt 0 view .LVU125
 506 003a FFF7FEFF 		bl	HAL_GetTick
 507              	.LVL29:
 508              	.LBB186:
 509              	.LBI186:
  21:Core/Inc/Timer.h ****     }
  22:Core/Inc/Timer.h **** 
  23:Core/Inc/Timer.h ****     void start()
  24:Core/Inc/Timer.h ****     {
  25:Core/Inc/Timer.h ****         this->startTime = HAL_GetTick();
  26:Core/Inc/Timer.h ****     }
  27:Core/Inc/Timer.h **** 
  28:Core/Inc/Timer.h ****     uint32_t getStartTime()
 510              		.loc 5 28 14 is_stmt 1 view .LVU126
 511              	.LBB187:
  29:Core/Inc/Timer.h ****     {
  30:Core/Inc/Timer.h ****         return this->startTime;
 512              		.loc 5 30 9 view .LVU127
 513              		.loc 5 30 22 is_stmt 0 view .LVU128
 514 003e 264B     		ldr	r3, .L24+8
 515 0040 1B68     		ldr	r3, [r3]
 516              	.LVL30:
 517              		.loc 5 30 22 view .LVU129
 518              	.LBE187:
 519              	.LBE186:
 498:Core/Src/main.cpp ****     {
 520              		.loc 1 498 23 view .LVU130
 521 0042 C01A     		subs	r0, r0, r3
 498:Core/Src/main.cpp ****     {
ARM GAS  C:\Users\Admin\AppData\Local\Temp\ccEsCXkX.s 			page 24


 522              		.loc 1 498 5 view .LVU131
 523 0044 B0F5967F 		cmp	r0, #300
 524 0048 32D2     		bcs	.L18
 500:Core/Src/main.cpp ****       {
 525              		.loc 1 500 7 is_stmt 1 view .LVU132
 500:Core/Src/main.cpp ****       {
 526              		.loc 1 500 22 is_stmt 0 view .LVU133
 527 004a FFF7FEFF 		bl	HAL_GetTick
 528              	.LVL31:
 529              	.LBB188:
 530              	.LBI188:
  31:Core/Inc/Timer.h ****     }
  32:Core/Inc/Timer.h **** 
  33:Core/Inc/Timer.h ****     void setLastTick()
  34:Core/Inc/Timer.h ****     {
  35:Core/Inc/Timer.h ****         this->lastTick = HAL_GetTick();
  36:Core/Inc/Timer.h ****     }
  37:Core/Inc/Timer.h **** 
  38:Core/Inc/Timer.h ****     uint32_t getLastTick()
 531              		.loc 5 38 14 is_stmt 1 view .LVU134
 532              	.LBB189:
  39:Core/Inc/Timer.h ****     {
  40:Core/Inc/Timer.h ****         return this->lastTick;
 533              		.loc 5 40 9 view .LVU135
 534              		.loc 5 40 22 is_stmt 0 view .LVU136
 535 004e 224B     		ldr	r3, .L24+8
 536 0050 5B68     		ldr	r3, [r3, #4]
 537              	.LVL32:
 538              		.loc 5 40 22 view .LVU137
 539              	.LBE189:
 540              	.LBE188:
 500:Core/Src/main.cpp ****       {
 541              		.loc 1 500 25 view .LVU138
 542 0052 C01A     		subs	r0, r0, r3
 500:Core/Src/main.cpp ****       {
 543              		.loc 1 500 7 view .LVU139
 544 0054 9628     		cmp	r0, #150
 545 0056 14D9     		bls	.L19
 502:Core/Src/main.cpp ****         insideZumer.turnOn();
 546              		.loc 1 502 9 is_stmt 1 view .LVU140
 547              	.LVL33:
 548              	.LBB190:
 549              	.LBI190:
  33:Core/Inc/Timer.h ****     {
 550              		.loc 5 33 10 view .LVU141
 551              	.LBB191:
  35:Core/Inc/Timer.h ****     }
 552              		.loc 5 35 9 view .LVU142
  35:Core/Inc/Timer.h ****     }
 553              		.loc 5 35 37 is_stmt 0 view .LVU143
 554 0058 FFF7FEFF 		bl	HAL_GetTick
 555              	.LVL34:
  35:Core/Inc/Timer.h ****     }
 556              		.loc 5 35 24 view .LVU144
 557 005c 1E4B     		ldr	r3, .L24+8
 558 005e 5860     		str	r0, [r3, #4]
 559              	.LVL35:
ARM GAS  C:\Users\Admin\AppData\Local\Temp\ccEsCXkX.s 			page 25


  35:Core/Inc/Timer.h ****     }
 560              		.loc 5 35 24 view .LVU145
 561              	.LBE191:
 562              	.LBE190:
 503:Core/Src/main.cpp ****         outsideZumer.turnOn();
 563              		.loc 1 503 9 is_stmt 1 view .LVU146
 564              	.LBB192:
 565              	.LBI192:
   9:Core/Inc/InvertedPinOut.h ****     {
  10:Core/Inc/InvertedPinOut.h ****     }
  11:Core/Inc/InvertedPinOut.h **** 
  12:Core/Inc/InvertedPinOut.h ****     void turnOn()
 566              		.loc 4 12 10 view .LVU147
 567              	.LBB193:
  13:Core/Inc/InvertedPinOut.h ****     {
  14:Core/Inc/InvertedPinOut.h ****         setState(State::Off);
 568              		.loc 4 14 9 view .LVU148
 569              		.loc 4 14 17 is_stmt 0 view .LVU149
 570 0060 0021     		movs	r1, #0
 571 0062 1F48     		ldr	r0, .L24+16
 572 0064 FFF7FEFF 		bl	_ZN6PinOut8setStateE5State
 573              	.LVL36:
 574              		.loc 4 14 17 view .LVU150
 575              	.LBE193:
 576              	.LBE192:
 504:Core/Src/main.cpp ****       }
 577              		.loc 1 504 9 is_stmt 1 view .LVU151
 578              	.LBB194:
 579              	.LBI194:
  12:Core/Inc/InvertedPinOut.h ****     {
 580              		.loc 4 12 10 view .LVU152
 581              	.LBB195:
 582              		.loc 4 14 9 view .LVU153
 583              		.loc 4 14 17 is_stmt 0 view .LVU154
 584 0068 0021     		movs	r1, #0
 585 006a 1E48     		ldr	r0, .L24+20
 586 006c FFF7FEFF 		bl	_ZN6PinOut8setStateE5State
 587              	.LVL37:
  15:Core/Inc/InvertedPinOut.h ****     }
 588              		.loc 4 15 5 view .LVU155
 589 0070 D2E7     		b	.L14
 590              	.LVL38:
 591              	.L23:
 592              		.loc 4 15 5 view .LVU156
 593              	.LBE195:
 594              	.LBE194:
 494:Core/Src/main.cpp ****       firstTime = false;
 595              		.loc 1 494 7 is_stmt 1 view .LVU157
 596              	.LBB196:
 597              	.LBI196:
  23:Core/Inc/Timer.h ****     {
 598              		.loc 5 23 10 view .LVU158
 599              	.LBB197:
  25:Core/Inc/Timer.h ****     }
 600              		.loc 5 25 9 view .LVU159
  25:Core/Inc/Timer.h ****     }
 601              		.loc 5 25 38 is_stmt 0 view .LVU160
ARM GAS  C:\Users\Admin\AppData\Local\Temp\ccEsCXkX.s 			page 26


 602 0072 FFF7FEFF 		bl	HAL_GetTick
 603              	.LVL39:
  25:Core/Inc/Timer.h ****     }
 604              		.loc 5 25 25 view .LVU161
 605 0076 184B     		ldr	r3, .L24+8
 606 0078 1860     		str	r0, [r3]
 607              	.LVL40:
  25:Core/Inc/Timer.h ****     }
 608              		.loc 5 25 25 view .LVU162
 609              	.LBE197:
 610              	.LBE196:
 495:Core/Src/main.cpp ****     }
 611              		.loc 1 495 7 is_stmt 1 view .LVU163
 495:Core/Src/main.cpp ****     }
 612              		.loc 1 495 17 is_stmt 0 view .LVU164
 613 007a 184B     		ldr	r3, .L24+12
 614 007c 0022     		movs	r2, #0
 615 007e 1A70     		strb	r2, [r3]
 616 0080 DBE7     		b	.L17
 617              	.L19:
 506:Core/Src/main.cpp ****       {
 618              		.loc 1 506 12 is_stmt 1 view .LVU165
 506:Core/Src/main.cpp ****       {
 619              		.loc 1 506 27 is_stmt 0 view .LVU166
 620 0082 FFF7FEFF 		bl	HAL_GetTick
 621              	.LVL41:
 622              	.LBB198:
 623              	.LBI198:
  38:Core/Inc/Timer.h ****     {
 624              		.loc 5 38 14 is_stmt 1 view .LVU167
 625              	.LBB199:
 626              		.loc 5 40 9 view .LVU168
 627              		.loc 5 40 22 is_stmt 0 view .LVU169
 628 0086 144B     		ldr	r3, .L24+8
 629 0088 5B68     		ldr	r3, [r3, #4]
 630              	.LVL42:
 631              		.loc 5 40 22 view .LVU170
 632              	.LBE199:
 633              	.LBE198:
 506:Core/Src/main.cpp ****       {
 634              		.loc 1 506 30 view .LVU171
 635 008a C01A     		subs	r0, r0, r3
 506:Core/Src/main.cpp ****       {
 636              		.loc 1 506 62 view .LVU172
 637 008c 9528     		cmp	r0, #149
 638 008e C3D8     		bhi	.L14
 506:Core/Src/main.cpp ****       {
 639              		.loc 1 506 76 discriminator 1 view .LVU173
 640 0090 FFF7FEFF 		bl	HAL_GetTick
 641              	.LVL43:
 642              	.LBB200:
 643              	.LBI200:
  38:Core/Inc/Timer.h ****     {
 644              		.loc 5 38 14 is_stmt 1 discriminator 1 view .LVU174
 645              	.LBB201:
 646              		.loc 5 40 9 discriminator 1 view .LVU175
 647              		.loc 5 40 22 is_stmt 0 discriminator 1 view .LVU176
ARM GAS  C:\Users\Admin\AppData\Local\Temp\ccEsCXkX.s 			page 27


 648 0094 104B     		ldr	r3, .L24+8
 649 0096 5B68     		ldr	r3, [r3, #4]
 650              	.LVL44:
 651              		.loc 5 40 22 discriminator 1 view .LVU177
 652              	.LBE201:
 653              	.LBE200:
 506:Core/Src/main.cpp ****       {
 654              		.loc 1 506 79 discriminator 1 view .LVU178
 655 0098 C01A     		subs	r0, r0, r3
 506:Core/Src/main.cpp ****       {
 656              		.loc 1 506 62 discriminator 1 view .LVU179
 657 009a 4B28     		cmp	r0, #75
 658 009c BCD9     		bls	.L14
 508:Core/Src/main.cpp ****         outsideZumer.turnOff();
 659              		.loc 1 508 9 is_stmt 1 view .LVU180
 660              	.LVL45:
 661              	.LBB202:
 662              	.LBI202:
  16:Core/Inc/InvertedPinOut.h **** 
  17:Core/Inc/InvertedPinOut.h ****     void turnOff()
 663              		.loc 4 17 10 view .LVU181
 664              	.LBB203:
  18:Core/Inc/InvertedPinOut.h ****     {
  19:Core/Inc/InvertedPinOut.h ****         setState(State::On);
 665              		.loc 4 19 9 view .LVU182
 666              		.loc 4 19 17 is_stmt 0 view .LVU183
 667 009e 0121     		movs	r1, #1
 668 00a0 0F48     		ldr	r0, .L24+16
 669 00a2 FFF7FEFF 		bl	_ZN6PinOut8setStateE5State
 670              	.LVL46:
 671              		.loc 4 19 17 view .LVU184
 672              	.LBE203:
 673              	.LBE202:
 509:Core/Src/main.cpp ****       }
 674              		.loc 1 509 9 is_stmt 1 view .LVU185
 675              	.LBB204:
 676              	.LBI204:
  17:Core/Inc/InvertedPinOut.h ****     {
 677              		.loc 4 17 10 view .LVU186
 678              	.LBB205:
 679              		.loc 4 19 9 view .LVU187
 680              		.loc 4 19 17 is_stmt 0 view .LVU188
 681 00a6 0121     		movs	r1, #1
 682 00a8 0E48     		ldr	r0, .L24+20
 683 00aa FFF7FEFF 		bl	_ZN6PinOut8setStateE5State
 684              	.LVL47:
  20:Core/Inc/InvertedPinOut.h ****     }
 685              		.loc 4 20 5 view .LVU189
 686 00ae B3E7     		b	.L14
 687              	.LVL48:
 688              	.L18:
 689              		.loc 4 20 5 view .LVU190
 690              	.LBE205:
 691              	.LBE204:
 514:Core/Src/main.cpp ****       insideZumer.turnOff();
 692              		.loc 1 514 7 is_stmt 1 view .LVU191
 514:Core/Src/main.cpp ****       insideZumer.turnOff();
ARM GAS  C:\Users\Admin\AppData\Local\Temp\ccEsCXkX.s 			page 28


 693              		.loc 1 514 16 is_stmt 0 view .LVU192
 694 00b0 0D4B     		ldr	r3, .L24+24
 695 00b2 1A68     		ldr	r2, [r3]
 696 00b4 074B     		ldr	r3, .L24+4
 697 00b6 1A60     		str	r2, [r3]
 515:Core/Src/main.cpp ****       outsideZumer.turnOff();
 698              		.loc 1 515 7 is_stmt 1 view .LVU193
 699              	.LVL49:
 700              	.LBB206:
 701              	.LBI206:
  17:Core/Inc/InvertedPinOut.h ****     {
 702              		.loc 4 17 10 view .LVU194
 703              	.LBB207:
  19:Core/Inc/InvertedPinOut.h ****     }
 704              		.loc 4 19 9 view .LVU195
  19:Core/Inc/InvertedPinOut.h ****     }
 705              		.loc 4 19 17 is_stmt 0 view .LVU196
 706 00b8 0121     		movs	r1, #1
 707 00ba 0948     		ldr	r0, .L24+16
 708 00bc FFF7FEFF 		bl	_ZN6PinOut8setStateE5State
 709              	.LVL50:
  19:Core/Inc/InvertedPinOut.h ****     }
 710              		.loc 4 19 17 view .LVU197
 711              	.LBE207:
 712              	.LBE206:
 516:Core/Src/main.cpp ****       firstTime = true;
 713              		.loc 1 516 7 is_stmt 1 view .LVU198
 714              	.LBB208:
 715              	.LBI208:
  17:Core/Inc/InvertedPinOut.h ****     {
 716              		.loc 4 17 10 view .LVU199
 717              	.LBB209:
  19:Core/Inc/InvertedPinOut.h ****     }
 718              		.loc 4 19 9 view .LVU200
  19:Core/Inc/InvertedPinOut.h ****     }
 719              		.loc 4 19 17 is_stmt 0 view .LVU201
 720 00c0 0121     		movs	r1, #1
 721 00c2 0848     		ldr	r0, .L24+20
 722 00c4 FFF7FEFF 		bl	_ZN6PinOut8setStateE5State
 723              	.LVL51:
  19:Core/Inc/InvertedPinOut.h ****     }
 724              		.loc 4 19 17 view .LVU202
 725              	.LBE209:
 726              	.LBE208:
 517:Core/Src/main.cpp ****     }
 727              		.loc 1 517 7 is_stmt 1 view .LVU203
 517:Core/Src/main.cpp ****     }
 728              		.loc 1 517 17 is_stmt 0 view .LVU204
 729 00c8 044B     		ldr	r3, .L24+12
 730 00ca 0122     		movs	r2, #1
 731 00cc 1A70     		strb	r2, [r3]
 520:Core/Src/main.cpp **** 
 732              		.loc 1 520 1 view .LVU205
 733 00ce A3E7     		b	.L14
 734              	.L25:
 735              		.align	2
 736              	.L24:
ARM GAS  C:\Users\Admin\AppData\Local\Temp\ccEsCXkX.s 			page 29


 737 00d0 00000000 		.word	.LANCHOR8
 738 00d4 00000000 		.word	.LANCHOR10
 739 00d8 00000000 		.word	.LANCHOR9
 740 00dc 00000000 		.word	.LANCHOR11
 741 00e0 00000000 		.word	.LANCHOR3
 742 00e4 00000000 		.word	.LANCHOR4
 743 00e8 00000000 		.word	.LANCHOR12
 744              		.cfi_endproc
 745              	.LFE114:
 746              		.fnend
 748              		.section	.text.HAL_GPIO_EXTI_Callback,"ax",%progbits
 749              		.align	1
 750              		.global	HAL_GPIO_EXTI_Callback
 751              		.syntax unified
 752              		.thumb
 753              		.thumb_func
 754              		.fpu softvfp
 756              	HAL_GPIO_EXTI_Callback:
 757              		.fnstart
 758              	.LVL52:
 759              	.LFB116:
 558:Core/Src/main.cpp ****   switch (GPIO_Pin)
 760              		.loc 1 558 1 is_stmt 1 view -0
 761              		.cfi_startproc
 762              		@ args = 0, pretend = 0, frame = 0
 763              		@ frame_needed = 0, uses_anonymous_args = 0
 558:Core/Src/main.cpp ****   switch (GPIO_Pin)
 764              		.loc 1 558 1 is_stmt 0 view .LVU207
 765 0000 08B5     		push	{r3, lr}
 766              		.save {r3, lr}
 767              	.LCFI7:
 768              		.cfi_def_cfa_offset 8
 769              		.cfi_offset 3, -8
 770              		.cfi_offset 14, -4
 559:Core/Src/main.cpp ****   {
 771              		.loc 1 559 3 is_stmt 1 view .LVU208
 772 0002 0828     		cmp	r0, #8
 773 0004 0AD8     		bhi	.L27
 774 0006 03B2     		sxth	r3, r0
 775 0008 33B3     		cbz	r3, .L26
 776 000a 0138     		subs	r0, r0, #1
 777              	.LVL53:
 559:Core/Src/main.cpp ****   {
 778              		.loc 1 559 3 is_stmt 0 view .LVU209
 779 000c 0728     		cmp	r0, #7
 780 000e 23D8     		bhi	.L26
 781 0010 DFE800F0 		tbb	[pc, r0]
 782              	.LVL54:
 783              	.L30:
 784 0014 27       		.byte	(.L33-.L30)/2
 785 0015 31       		.byte	(.L32-.L30)/2
 786 0016 22       		.byte	(.L26-.L30)/2
 787 0017 1F       		.byte	(.L31-.L30)/2
 788 0018 22       		.byte	(.L26-.L30)/2
 789 0019 22       		.byte	(.L26-.L30)/2
 790 001a 22       		.byte	(.L26-.L30)/2
 791 001b 23       		.byte	(.L29-.L30)/2
ARM GAS  C:\Users\Admin\AppData\Local\Temp\ccEsCXkX.s 			page 30


 792              		.p2align 1
 793              	.L27:
 559:Core/Src/main.cpp ****   {
 794              		.loc 1 559 3 view .LVU210
 795 001c 8028     		cmp	r0, #128
 796 001e 34D0     		beq	.L34
 797 0020 B0F5807F 		cmp	r0, #256
 798 0024 0AD1     		bne	.L38
 571:Core/Src/main.cpp ****   {
 799              		.loc 1 571 3 is_stmt 1 view .LVU211
 572:Core/Src/main.cpp ****     if (doorSensorFirstTime)
 800              		.loc 1 572 3 view .LVU212
 573:Core/Src/main.cpp ****     {
 801              		.loc 1 573 5 view .LVU213
 802 0026 1E4B     		ldr	r3, .L39
 803 0028 1B78     		ldrb	r3, [r3]	@ zero_extendqisi2
 804 002a ABB1     		cbz	r3, .L26
 575:Core/Src/main.cpp ****       doorSensorFirstTime = false;
 805              		.loc 1 575 7 view .LVU214
 806              	.LVL55:
 807              	.LBB210:
 808              	.LBI210:
  23:Core/Inc/Timer.h ****     {
 809              		.loc 5 23 10 view .LVU215
 810              	.LBB211:
  25:Core/Inc/Timer.h ****     }
 811              		.loc 5 25 9 view .LVU216
  25:Core/Inc/Timer.h ****     }
 812              		.loc 5 25 38 is_stmt 0 view .LVU217
 813 002c FFF7FEFF 		bl	HAL_GetTick
 814              	.LVL56:
  25:Core/Inc/Timer.h ****     }
 815              		.loc 5 25 25 view .LVU218
 816 0030 1C4B     		ldr	r3, .L39+4
 817 0032 1860     		str	r0, [r3]
 818              	.LVL57:
  25:Core/Inc/Timer.h ****     }
 819              		.loc 5 25 25 view .LVU219
 820              	.LBE211:
 821              	.LBE210:
 576:Core/Src/main.cpp ****     }
 822              		.loc 1 576 7 is_stmt 1 view .LVU220
 576:Core/Src/main.cpp ****     }
 823              		.loc 1 576 27 is_stmt 0 view .LVU221
 824 0034 1A4B     		ldr	r3, .L39
 825 0036 0022     		movs	r2, #0
 826 0038 1A70     		strb	r2, [r3]
 827 003a 0DE0     		b	.L26
 828              	.LVL58:
 829              	.L38:
 559:Core/Src/main.cpp ****   {
 830              		.loc 1 559 3 view .LVU222
 831 003c 4028     		cmp	r0, #64
 832 003e 0BD1     		bne	.L26
 598:Core/Src/main.cpp ****   {
 833              		.loc 1 598 3 is_stmt 1 view .LVU223
 599:Core/Src/main.cpp ****     if (wig_flag_inrt)
ARM GAS  C:\Users\Admin\AppData\Local\Temp\ccEsCXkX.s 			page 31


 834              		.loc 1 599 3 view .LVU224
 600:Core/Src/main.cpp ****     {
 835              		.loc 1 600 5 view .LVU225
 600:Core/Src/main.cpp ****     {
 836              		.loc 1 600 9 is_stmt 0 view .LVU226
 837 0040 194B     		ldr	r3, .L39+8
 838 0042 1B78     		ldrb	r3, [r3]	@ zero_extendqisi2
 600:Core/Src/main.cpp ****     {
 839              		.loc 1 600 5 view .LVU227
 840 0044 43B1     		cbz	r3, .L26
 602:Core/Src/main.cpp ****       outsideKeyRead = true;
 841              		.loc 1 602 7 is_stmt 1 view .LVU228
 602:Core/Src/main.cpp ****       outsideKeyRead = true;
 842              		.loc 1 602 13 is_stmt 0 view .LVU229
 843 0046 FFF7FEFF 		bl	ReadD0
 844              	.LVL59:
 603:Core/Src/main.cpp ****     }
 845              		.loc 1 603 7 is_stmt 1 view .LVU230
 603:Core/Src/main.cpp ****     }
 846              		.loc 1 603 22 is_stmt 0 view .LVU231
 847 004a 184B     		ldr	r3, .L39+12
 848 004c 0122     		movs	r2, #1
 849 004e 1A70     		strb	r2, [r3]
 850 0050 02E0     		b	.L26
 851              	.L31:
 561:Core/Src/main.cpp ****   {
 852              		.loc 1 561 3 is_stmt 1 view .LVU232
 562:Core/Src/main.cpp ****     insideButtonPressed = true;
 853              		.loc 1 562 3 view .LVU233
 563:Core/Src/main.cpp ****     break;
 854              		.loc 1 563 5 view .LVU234
 563:Core/Src/main.cpp ****     break;
 855              		.loc 1 563 25 is_stmt 0 view .LVU235
 856 0052 174B     		ldr	r3, .L39+16
 857 0054 0122     		movs	r2, #1
 858 0056 1A70     		strb	r2, [r3]
 564:Core/Src/main.cpp ****   }
 859              		.loc 1 564 5 is_stmt 1 view .LVU236
 860              	.L26:
 621:Core/Src/main.cpp **** 
 861              		.loc 1 621 1 is_stmt 0 view .LVU237
 862 0058 08BD     		pop	{r3, pc}
 863              	.L29:
 566:Core/Src/main.cpp ****   {
 864              		.loc 1 566 3 is_stmt 1 view .LVU238
 567:Core/Src/main.cpp ****     outsideButtonPressed = true;
 865              		.loc 1 567 3 view .LVU239
 568:Core/Src/main.cpp ****     break;
 866              		.loc 1 568 5 view .LVU240
 568:Core/Src/main.cpp ****     break;
 867              		.loc 1 568 26 is_stmt 0 view .LVU241
 868 005a 164B     		ldr	r3, .L39+20
 869 005c 0122     		movs	r2, #1
 870 005e 1A70     		strb	r2, [r3]
 569:Core/Src/main.cpp ****   }
 871              		.loc 1 569 5 is_stmt 1 view .LVU242
 872 0060 FAE7     		b	.L26
ARM GAS  C:\Users\Admin\AppData\Local\Temp\ccEsCXkX.s 			page 32


 873              	.L33:
 580:Core/Src/main.cpp ****   {
 874              		.loc 1 580 3 view .LVU243
 581:Core/Src/main.cpp ****     if (wig_flag_inrt)
 875              		.loc 1 581 3 view .LVU244
 582:Core/Src/main.cpp ****     {
 876              		.loc 1 582 5 view .LVU245
 582:Core/Src/main.cpp ****     {
 877              		.loc 1 582 9 is_stmt 0 view .LVU246
 878 0062 114B     		ldr	r3, .L39+8
 879 0064 1B78     		ldrb	r3, [r3]	@ zero_extendqisi2
 582:Core/Src/main.cpp ****     {
 880              		.loc 1 582 5 view .LVU247
 881 0066 002B     		cmp	r3, #0
 882 0068 F6D0     		beq	.L26
 584:Core/Src/main.cpp ****       insideKeyRead = true;
 883              		.loc 1 584 7 is_stmt 1 view .LVU248
 584:Core/Src/main.cpp ****       insideKeyRead = true;
 884              		.loc 1 584 13 is_stmt 0 view .LVU249
 885 006a FFF7FEFF 		bl	ReadD0
 886              	.LVL60:
 585:Core/Src/main.cpp ****     }
 887              		.loc 1 585 7 is_stmt 1 view .LVU250
 585:Core/Src/main.cpp ****     }
 888              		.loc 1 585 21 is_stmt 0 view .LVU251
 889 006e 124B     		ldr	r3, .L39+24
 890 0070 0122     		movs	r2, #1
 891 0072 1A70     		strb	r2, [r3]
 892 0074 F0E7     		b	.L26
 893              	.L32:
 589:Core/Src/main.cpp ****   {
 894              		.loc 1 589 3 is_stmt 1 view .LVU252
 590:Core/Src/main.cpp ****     if (wig_flag_inrt)
 895              		.loc 1 590 3 view .LVU253
 591:Core/Src/main.cpp ****     {
 896              		.loc 1 591 5 view .LVU254
 591:Core/Src/main.cpp ****     {
 897              		.loc 1 591 9 is_stmt 0 view .LVU255
 898 0076 0C4B     		ldr	r3, .L39+8
 899 0078 1B78     		ldrb	r3, [r3]	@ zero_extendqisi2
 591:Core/Src/main.cpp ****     {
 900              		.loc 1 591 5 view .LVU256
 901 007a 002B     		cmp	r3, #0
 902 007c ECD0     		beq	.L26
 593:Core/Src/main.cpp ****       insideKeyRead = true;
 903              		.loc 1 593 7 is_stmt 1 view .LVU257
 593:Core/Src/main.cpp ****       insideKeyRead = true;
 904              		.loc 1 593 13 is_stmt 0 view .LVU258
 905 007e FFF7FEFF 		bl	ReadD1
 906              	.LVL61:
 594:Core/Src/main.cpp ****     }
 907              		.loc 1 594 7 is_stmt 1 view .LVU259
 594:Core/Src/main.cpp ****     }
 908              		.loc 1 594 21 is_stmt 0 view .LVU260
 909 0082 0D4B     		ldr	r3, .L39+24
 910 0084 0122     		movs	r2, #1
 911 0086 1A70     		strb	r2, [r3]
ARM GAS  C:\Users\Admin\AppData\Local\Temp\ccEsCXkX.s 			page 33


 912 0088 E6E7     		b	.L26
 913              	.LVL62:
 914              	.L34:
 607:Core/Src/main.cpp ****   {
 915              		.loc 1 607 3 is_stmt 1 view .LVU261
 608:Core/Src/main.cpp ****     if (wig_flag_inrt)
 916              		.loc 1 608 3 view .LVU262
 609:Core/Src/main.cpp ****     {
 917              		.loc 1 609 5 view .LVU263
 609:Core/Src/main.cpp ****     {
 918              		.loc 1 609 9 is_stmt 0 view .LVU264
 919 008a 074B     		ldr	r3, .L39+8
 920 008c 1B78     		ldrb	r3, [r3]	@ zero_extendqisi2
 609:Core/Src/main.cpp ****     {
 921              		.loc 1 609 5 view .LVU265
 922 008e 002B     		cmp	r3, #0
 923 0090 E2D0     		beq	.L26
 611:Core/Src/main.cpp ****       outsideKeyRead = true;
 924              		.loc 1 611 7 is_stmt 1 view .LVU266
 611:Core/Src/main.cpp ****       outsideKeyRead = true;
 925              		.loc 1 611 13 is_stmt 0 view .LVU267
 926 0092 FFF7FEFF 		bl	ReadD1
 927              	.LVL63:
 612:Core/Src/main.cpp ****     }
 928              		.loc 1 612 7 is_stmt 1 view .LVU268
 612:Core/Src/main.cpp ****     }
 929              		.loc 1 612 22 is_stmt 0 view .LVU269
 930 0096 054B     		ldr	r3, .L39+12
 931 0098 0122     		movs	r2, #1
 932 009a 1A70     		strb	r2, [r3]
 621:Core/Src/main.cpp **** 
 933              		.loc 1 621 1 view .LVU270
 934 009c DCE7     		b	.L26
 935              	.L40:
 936 009e 00BF     		.align	2
 937              	.L39:
 938 00a0 00000000 		.word	.LANCHOR15
 939 00a4 00000000 		.word	.LANCHOR7
 940 00a8 00000000 		.word	.LANCHOR16
 941 00ac 00000000 		.word	.LANCHOR18
 942 00b0 00000000 		.word	.LANCHOR13
 943 00b4 00000000 		.word	.LANCHOR14
 944 00b8 00000000 		.word	.LANCHOR17
 945              		.cfi_endproc
 946              	.LFE116:
 947              		.fnend
 949              		.section	.text._Z11UART_PrintfPKcz,"ax",%progbits
 950              		.align	1
 951              		.global	_Z11UART_PrintfPKcz
 952              		.syntax unified
 953              		.thumb
 954              		.thumb_func
 955              		.fpu softvfp
 957              	_Z11UART_PrintfPKcz:
 958              		.fnstart
 959              	.LVL64:
 960              	.LFB117:
ARM GAS  C:\Users\Admin\AppData\Local\Temp\ccEsCXkX.s 			page 34


 624:Core/Src/main.cpp ****   char buff[256];
 961              		.loc 1 624 1 is_stmt 1 view -0
 962              		.cfi_startproc
 963              		@ args = 4, pretend = 16, frame = 264
 964              		@ frame_needed = 0, uses_anonymous_args = 1
 624:Core/Src/main.cpp ****   char buff[256];
 965              		.loc 1 624 1 is_stmt 0 view .LVU272
 966 0000 0FB4     		push	{r0, r1, r2, r3}
 967              		.save {r0, r1, r2, r3}
 968              	.LCFI8:
 969              		.cfi_def_cfa_offset 16
 970              		.cfi_offset 0, -16
 971              		.cfi_offset 1, -12
 972              		.cfi_offset 2, -8
 973              		.cfi_offset 3, -4
 974 0002 00B5     		push	{lr}
 975              		.save {lr}
 976              	.LCFI9:
 977              		.cfi_def_cfa_offset 20
 978              		.cfi_offset 14, -20
 979              		.pad #268
 980 0004 C3B0     		sub	sp, sp, #268
 981              	.LCFI10:
 982              		.cfi_def_cfa_offset 288
 983 0006 44AB     		add	r3, sp, #272
 984 0008 53F8042B 		ldr	r2, [r3], #4
 625:Core/Src/main.cpp ****   va_list args;
 985              		.loc 1 625 3 is_stmt 1 view .LVU273
 626:Core/Src/main.cpp ****   va_start(args, fmt);
 986              		.loc 1 626 3 view .LVU274
 627:Core/Src/main.cpp ****   vsnprintf(buff, sizeof(buff), fmt, args);
 987              		.loc 1 627 3 view .LVU275
 988 000c 0193     		str	r3, [sp, #4]
 628:Core/Src/main.cpp ****   HAL_UART_Transmit(&huart1, (uint8_t *)buff, strlen(buff), HAL_MAX_DELAY);
 989              		.loc 1 628 3 view .LVU276
 628:Core/Src/main.cpp ****   HAL_UART_Transmit(&huart1, (uint8_t *)buff, strlen(buff), HAL_MAX_DELAY);
 990              		.loc 1 628 12 is_stmt 0 view .LVU277
 991 000e 4FF48071 		mov	r1, #256
 992 0012 02A8     		add	r0, sp, #8
 993 0014 FFF7FEFF 		bl	vsnprintf
 994              	.LVL65:
 629:Core/Src/main.cpp ****   va_end(args);
 995              		.loc 1 629 3 is_stmt 1 view .LVU278
 629:Core/Src/main.cpp ****   va_end(args);
 996              		.loc 1 629 53 is_stmt 0 view .LVU279
 997 0018 02A8     		add	r0, sp, #8
 998 001a FFF7FEFF 		bl	strlen
 999              	.LVL66:
 629:Core/Src/main.cpp ****   va_end(args);
 1000              		.loc 1 629 20 view .LVU280
 1001 001e 4FF0FF33 		mov	r3, #-1
 1002 0022 82B2     		uxth	r2, r0
 1003 0024 02A9     		add	r1, sp, #8
 1004 0026 0448     		ldr	r0, .L43
 1005 0028 FFF7FEFF 		bl	HAL_UART_Transmit
 1006              	.LVL67:
 630:Core/Src/main.cpp **** }
ARM GAS  C:\Users\Admin\AppData\Local\Temp\ccEsCXkX.s 			page 35


 1007              		.loc 1 630 3 is_stmt 1 view .LVU281
 631:Core/Src/main.cpp **** 
 1008              		.loc 1 631 1 is_stmt 0 view .LVU282
 1009 002c 43B0     		add	sp, sp, #268
 1010              	.LCFI11:
 1011              		.cfi_def_cfa_offset 20
 1012              		@ sp needed
 1013 002e 5DF804EB 		ldr	lr, [sp], #4
 1014              	.LCFI12:
 1015              		.cfi_restore 14
 1016              		.cfi_def_cfa_offset 16
 1017 0032 04B0     		add	sp, sp, #16
 1018              	.LCFI13:
 1019              		.cfi_restore 3
 1020              		.cfi_restore 2
 1021              		.cfi_restore 1
 1022              		.cfi_restore 0
 1023              		.cfi_def_cfa_offset 0
 1024 0034 7047     		bx	lr
 1025              	.L44:
 1026 0036 00BF     		.align	2
 1027              	.L43:
 1028 0038 00000000 		.word	.LANCHOR19
 1029              		.cfi_endproc
 1030              	.LFE117:
 1031              		.fnend
 1033              		.section	.rodata._Z14TimeTrackEventv.str1.4,"aMS",%progbits,1
 1034              		.align	2
 1035              	.LC0:
 1036 0000 20736563 		.ascii	" sec.\000"
 1036      2E00
 1037 0006 0000     		.align	2
 1038              	.LC1:
 1039 0008 54696D65 		.ascii	"Time passed: %d%s\015\012\000"
 1039      20706173 
 1039      7365643A 
 1039      20256425 
 1039      730D0A00 
 1040              		.section	.text._Z14TimeTrackEventv,"ax",%progbits
 1041              		.align	1
 1042              		.global	_Z14TimeTrackEventv
 1043              		.syntax unified
 1044              		.thumb
 1045              		.thumb_func
 1046              		.fpu softvfp
 1048              	_Z14TimeTrackEventv:
 1049              		.fnstart
 1050              	.LFB107:
 319:Core/Src/main.cpp ****   if ((HAL_GetTick() - timmeTrack) > 5000)
 1051              		.loc 1 319 1 is_stmt 1 view -0
 1052              		.cfi_startproc
 1053              		@ args = 0, pretend = 0, frame = 0
 1054              		@ frame_needed = 0, uses_anonymous_args = 0
 1055 0000 08B5     		push	{r3, lr}
 1056              		.save {r3, lr}
 1057              	.LCFI14:
 1058              		.cfi_def_cfa_offset 8
ARM GAS  C:\Users\Admin\AppData\Local\Temp\ccEsCXkX.s 			page 36


 1059              		.cfi_offset 3, -8
 1060              		.cfi_offset 14, -4
 320:Core/Src/main.cpp ****   {
 1061              		.loc 1 320 3 view .LVU284
 320:Core/Src/main.cpp ****   {
 1062              		.loc 1 320 19 is_stmt 0 view .LVU285
 1063 0002 FFF7FEFF 		bl	HAL_GetTick
 1064              	.LVL68:
 320:Core/Src/main.cpp ****   {
 1065              		.loc 1 320 22 view .LVU286
 1066 0006 0D4B     		ldr	r3, .L49
 1067 0008 1B68     		ldr	r3, [r3]
 1068 000a C01A     		subs	r0, r0, r3
 320:Core/Src/main.cpp ****   {
 1069              		.loc 1 320 3 view .LVU287
 1070 000c 41F28833 		movw	r3, #5000
 1071 0010 9842     		cmp	r0, r3
 1072 0012 00D8     		bhi	.L48
 1073              	.L45:
 325:Core/Src/main.cpp **** 
 1074              		.loc 1 325 1 view .LVU288
 1075 0014 08BD     		pop	{r3, pc}
 1076              	.L48:
 322:Core/Src/main.cpp ****     timmeTrack = HAL_GetTick();
 1077              		.loc 1 322 5 is_stmt 1 view .LVU289
 322:Core/Src/main.cpp ****     timmeTrack = HAL_GetTick();
 1078              		.loc 1 322 54 is_stmt 0 view .LVU290
 1079 0016 FFF7FEFF 		bl	HAL_GetTick
 1080              	.LVL69:
 322:Core/Src/main.cpp ****     timmeTrack = HAL_GetTick();
 1081              		.loc 1 322 57 view .LVU291
 1082 001a 094B     		ldr	r3, .L49+4
 1083 001c 1968     		ldr	r1, [r3]
 1084 001e 411A     		subs	r1, r0, r1
 322:Core/Src/main.cpp ****     timmeTrack = HAL_GetTick();
 1085              		.loc 1 322 16 view .LVU292
 1086 0020 0848     		ldr	r0, .L49+8
 1087 0022 A0FB0131 		umull	r3, r1, r0, r1
 1088 0026 084A     		ldr	r2, .L49+12
 1089 0028 8909     		lsrs	r1, r1, #6
 1090 002a 0848     		ldr	r0, .L49+16
 1091 002c FFF7FEFF 		bl	_Z11UART_PrintfPKcz
 1092              	.LVL70:
 323:Core/Src/main.cpp ****   }
 1093              		.loc 1 323 5 is_stmt 1 view .LVU293
 323:Core/Src/main.cpp ****   }
 1094              		.loc 1 323 29 is_stmt 0 view .LVU294
 1095 0030 FFF7FEFF 		bl	HAL_GetTick
 1096              	.LVL71:
 323:Core/Src/main.cpp ****   }
 1097              		.loc 1 323 16 view .LVU295
 1098 0034 014B     		ldr	r3, .L49
 1099 0036 1860     		str	r0, [r3]
 325:Core/Src/main.cpp **** 
 1100              		.loc 1 325 1 view .LVU296
 1101 0038 ECE7     		b	.L45
 1102              	.L50:
ARM GAS  C:\Users\Admin\AppData\Local\Temp\ccEsCXkX.s 			page 37


 1103 003a 00BF     		.align	2
 1104              	.L49:
 1105 003c 00000000 		.word	.LANCHOR20
 1106 0040 00000000 		.word	.LANCHOR21
 1107 0044 D34D6210 		.word	274877907
 1108 0048 00000000 		.word	.LC0
 1109 004c 08000000 		.word	.LC1
 1110              		.cfi_endproc
 1111              	.LFE107:
 1112              		.fnend
 1114              		.section	.rodata._Z15DoorSensorEventv.str1.4,"aMS",%progbits,1
 1115              		.align	2
 1116              	.LC2:
 1117 0000 446F6F72 		.ascii	"Door was closed.\015\012\000"
 1117      20776173 
 1117      20636C6F 
 1117      7365642E 
 1117      0D0A00
 1118 0013 00       		.align	2
 1119              	.LC3:
 1120 0014 446F6F72 		.ascii	"Door was opened.\015\012\000"
 1120      20776173 
 1120      206F7065 
 1120      6E65642E 
 1120      0D0A00
 1121              		.section	.text._Z15DoorSensorEventv,"ax",%progbits
 1122              		.align	1
 1123              		.global	_Z15DoorSensorEventv
 1124              		.syntax unified
 1125              		.thumb
 1126              		.thumb_func
 1127              		.fpu softvfp
 1129              	_Z15DoorSensorEventv:
 1130              		.fnstart
 1131              	.LFB109:
 337:Core/Src/main.cpp ****   if (HAL_GetTick() - doorSensorTimer.getStartTime() > 100 && doorSensorFirstTime == false)
 1132              		.loc 1 337 1 is_stmt 1 view -0
 1133              		.cfi_startproc
 1134              		@ args = 0, pretend = 0, frame = 0
 1135              		@ frame_needed = 0, uses_anonymous_args = 0
 1136 0000 10B5     		push	{r4, lr}
 1137              		.save {r4, lr}
 1138              	.LCFI15:
 1139              		.cfi_def_cfa_offset 8
 1140              		.cfi_offset 4, -8
 1141              		.cfi_offset 14, -4
 338:Core/Src/main.cpp ****   {
 1142              		.loc 1 338 3 view .LVU298
 338:Core/Src/main.cpp ****   {
 1143              		.loc 1 338 18 is_stmt 0 view .LVU299
 1144 0002 FFF7FEFF 		bl	HAL_GetTick
 1145              	.LVL72:
 1146              	.LBB222:
 1147              	.LBI222:
  28:Core/Inc/Timer.h ****     {
 1148              		.loc 5 28 14 is_stmt 1 view .LVU300
 1149              	.LBB223:
ARM GAS  C:\Users\Admin\AppData\Local\Temp\ccEsCXkX.s 			page 38


  30:Core/Inc/Timer.h ****     }
 1150              		.loc 5 30 9 view .LVU301
  30:Core/Inc/Timer.h ****     }
 1151              		.loc 5 30 22 is_stmt 0 view .LVU302
 1152 0006 1F4B     		ldr	r3, .L64
 1153 0008 1B68     		ldr	r3, [r3]
 1154              	.LVL73:
  30:Core/Inc/Timer.h ****     }
 1155              		.loc 5 30 22 view .LVU303
 1156              	.LBE223:
 1157              	.LBE222:
 338:Core/Src/main.cpp ****   {
 1158              		.loc 1 338 21 view .LVU304
 1159 000a C01A     		subs	r0, r0, r3
 338:Core/Src/main.cpp ****   {
 1160              		.loc 1 338 60 view .LVU305
 1161 000c 6428     		cmp	r0, #100
 1162 000e 02D9     		bls	.L51
 338:Core/Src/main.cpp ****   {
 1163              		.loc 1 338 83 discriminator 1 view .LVU306
 1164 0010 1D4B     		ldr	r3, .L64+4
 1165 0012 1B78     		ldrb	r3, [r3]	@ zero_extendqisi2
 338:Core/Src/main.cpp ****   {
 1166              		.loc 1 338 60 discriminator 1 view .LVU307
 1167 0014 03B1     		cbz	r3, .L62
 1168              	.L51:
 358:Core/Src/main.cpp **** 
 1169              		.loc 1 358 1 view .LVU308
 1170 0016 10BD     		pop	{r4, pc}
 1171              	.L62:
 340:Core/Src/main.cpp **** 
 1172              		.loc 1 340 5 is_stmt 1 view .LVU309
 1173              	.LVL74:
 1174              	.LBB224:
 1175              	.LBI224:
  13:Core/Inc/InterruptPin.h ****     {
  14:Core/Inc/InterruptPin.h ****     }
  15:Core/Inc/InterruptPin.h **** 
  16:Core/Inc/InterruptPin.h ****     bool isStateChanged()
  17:Core/Inc/InterruptPin.h ****     {
  18:Core/Inc/InterruptPin.h ****         if (this->stateChanged == true)
  19:Core/Inc/InterruptPin.h ****         {
  20:Core/Inc/InterruptPin.h ****             this->stateChanged = false;
  21:Core/Inc/InterruptPin.h ****             return true;
  22:Core/Inc/InterruptPin.h ****         }
  23:Core/Inc/InterruptPin.h **** 
  24:Core/Inc/InterruptPin.h ****         return false;
  25:Core/Inc/InterruptPin.h ****     }
  26:Core/Inc/InterruptPin.h **** 
  27:Core/Inc/InterruptPin.h ****     void setStateChanged()
 1176              		.loc 2 27 10 view .LVU310
 1177              	.LBB225:
  28:Core/Inc/InterruptPin.h ****     {
  29:Core/Inc/InterruptPin.h ****         this->stateChanged = true;
 1178              		.loc 2 29 9 view .LVU311
 1179              		.loc 2 29 28 is_stmt 0 view .LVU312
 1180 0018 1C4B     		ldr	r3, .L64+8
ARM GAS  C:\Users\Admin\AppData\Local\Temp\ccEsCXkX.s 			page 39


 1181 001a 0122     		movs	r2, #1
 1182 001c 9A71     		strb	r2, [r3, #6]
 1183              	.LVL75:
 1184              		.loc 2 29 28 view .LVU313
 1185              	.LBE225:
 1186              	.LBE224:
 342:Core/Src/main.cpp ****     {
 1187              		.loc 1 342 5 is_stmt 1 view .LVU314
 1188              	.LBB226:
 1189              	.LBI226:
  22:Core/Inc/PinIn.h ****     }
  23:Core/Inc/PinIn.h **** 
  24:Core/Inc/PinIn.h ****     State getState()
 1190              		.loc 3 24 11 view .LVU315
 1191              	.LBB227:
  25:Core/Inc/PinIn.h ****     {
  26:Core/Inc/PinIn.h ****         if (HAL_GPIO_ReadPin(GPIOx, GPIO_Pin) == GPIO_PIN_SET)
 1192              		.loc 3 26 9 view .LVU316
 1193              		.loc 3 26 29 is_stmt 0 view .LVU317
 1194 001e 9988     		ldrh	r1, [r3, #4]
 1195 0020 1868     		ldr	r0, [r3]
 1196 0022 FFF7FEFF 		bl	HAL_GPIO_ReadPin
 1197              	.LVL76:
 1198              		.loc 3 26 9 view .LVU318
 1199 0026 0128     		cmp	r0, #1
 1200 0028 0BD0     		beq	.L59
  27:Core/Inc/PinIn.h ****         {
  28:Core/Inc/PinIn.h ****             return State::On;
  29:Core/Inc/PinIn.h ****         }
  30:Core/Inc/PinIn.h **** 
  31:Core/Inc/PinIn.h ****         return State::Off;
 1201              		.loc 3 31 23 view .LVU319
 1202 002a 0024     		movs	r4, #0
 1203              	.L53:
 1204              	.LVL77:
 1205              		.loc 3 31 23 view .LVU320
 1206              	.LBE227:
 1207              	.LBE226:
 342:Core/Src/main.cpp ****     {
 1208              		.loc 1 342 5 view .LVU321
 1209 002c 5CB9     		cbnz	r4, .L54
 344:Core/Src/main.cpp ****     }
 1210              		.loc 1 344 7 is_stmt 1 view .LVU322
 344:Core/Src/main.cpp ****     }
 1211              		.loc 1 344 18 is_stmt 0 view .LVU323
 1212 002e 1848     		ldr	r0, .L64+12
 1213 0030 FFF7FEFF 		bl	_Z11UART_PrintfPKcz
 1214              	.LVL78:
 1215              	.L55:
 351:Core/Src/main.cpp ****     {
 1216              		.loc 1 351 5 is_stmt 1 view .LVU324
 351:Core/Src/main.cpp ****     {
 1217              		.loc 1 351 18 is_stmt 0 view .LVU325
 1218 0034 174B     		ldr	r3, .L64+16
 1219 0036 1B68     		ldr	r3, [r3]
 351:Core/Src/main.cpp ****     {
 1220              		.loc 1 351 44 view .LVU326
ARM GAS  C:\Users\Admin\AppData\Local\Temp\ccEsCXkX.s 			page 40


 1221 0038 9BB9     		cbnz	r3, .L63
 1222              	.L57:
 356:Core/Src/main.cpp ****   }
 1223              		.loc 1 356 5 is_stmt 1 view .LVU327
 356:Core/Src/main.cpp ****   }
 1224              		.loc 1 356 25 is_stmt 0 view .LVU328
 1225 003a 134B     		ldr	r3, .L64+4
 1226 003c 0122     		movs	r2, #1
 1227 003e 1A70     		strb	r2, [r3]
 358:Core/Src/main.cpp **** 
 1228              		.loc 1 358 1 view .LVU329
 1229 0040 E9E7     		b	.L51
 1230              	.LVL79:
 1231              	.L59:
 1232              	.LBB229:
 1233              	.LBB228:
  28:Core/Inc/PinIn.h ****         }
 1234              		.loc 3 28 27 view .LVU330
 1235 0042 0124     		movs	r4, #1
 1236 0044 F2E7     		b	.L53
 1237              	.LVL80:
 1238              	.L54:
  28:Core/Inc/PinIn.h ****         }
 1239              		.loc 3 28 27 view .LVU331
 1240              	.LBE228:
 1241              	.LBE229:
 346:Core/Src/main.cpp ****     {
 1242              		.loc 1 346 10 is_stmt 1 view .LVU332
 1243              	.LBB230:
 1244              	.LBI230:
  24:Core/Inc/PinIn.h ****     {
 1245              		.loc 3 24 11 view .LVU333
 1246              	.LBB231:
  26:Core/Inc/PinIn.h ****         {
 1247              		.loc 3 26 9 view .LVU334
  26:Core/Inc/PinIn.h ****         {
 1248              		.loc 3 26 29 is_stmt 0 view .LVU335
 1249 0046 114B     		ldr	r3, .L64+8
 1250 0048 9988     		ldrh	r1, [r3, #4]
 1251 004a 1868     		ldr	r0, [r3]
 1252 004c FFF7FEFF 		bl	HAL_GPIO_ReadPin
 1253              	.LVL81:
  26:Core/Inc/PinIn.h ****         {
 1254              		.loc 3 26 9 view .LVU336
 1255 0050 0128     		cmp	r0, #1
 1256 0052 00D0     		beq	.L56
 1257              		.loc 3 31 23 view .LVU337
 1258 0054 0024     		movs	r4, #0
 1259              	.L56:
 1260              	.LVL82:
 1261              		.loc 3 31 23 view .LVU338
 1262              	.LBE231:
 1263              	.LBE230:
 346:Core/Src/main.cpp ****     {
 1264              		.loc 1 346 10 view .LVU339
 1265 0056 002C     		cmp	r4, #0
 1266 0058 ECD0     		beq	.L55
ARM GAS  C:\Users\Admin\AppData\Local\Temp\ccEsCXkX.s 			page 41


 348:Core/Src/main.cpp ****     }
 1267              		.loc 1 348 7 is_stmt 1 view .LVU340
 348:Core/Src/main.cpp ****     }
 1268              		.loc 1 348 18 is_stmt 0 view .LVU341
 1269 005a 0F48     		ldr	r0, .L64+20
 1270 005c FFF7FEFF 		bl	_Z11UART_PrintfPKcz
 1271              	.LVL83:
 1272 0060 E8E7     		b	.L55
 1273              	.L63:
 1274              	.LVL84:
 1275              	.LBB232:
 1276              	.LBI232:
  24:Core/Inc/PinIn.h ****     {
 1277              		.loc 3 24 11 is_stmt 1 view .LVU342
 1278              	.LBB233:
  26:Core/Inc/PinIn.h ****         {
 1279              		.loc 3 26 9 view .LVU343
  26:Core/Inc/PinIn.h ****         {
 1280              		.loc 3 26 29 is_stmt 0 view .LVU344
 1281 0062 0A4B     		ldr	r3, .L64+8
 1282 0064 9988     		ldrh	r1, [r3, #4]
 1283 0066 1868     		ldr	r0, [r3]
 1284 0068 FFF7FEFF 		bl	HAL_GPIO_ReadPin
 1285              	.LVL85:
  26:Core/Inc/PinIn.h ****         {
 1286              		.loc 3 26 9 view .LVU345
 1287 006c 0128     		cmp	r0, #1
 1288 006e 06D0     		beq	.L60
 1289              		.loc 3 31 23 view .LVU346
 1290 0070 0023     		movs	r3, #0
 1291              	.L58:
 1292              	.LVL86:
 1293              		.loc 3 31 23 view .LVU347
 1294              	.LBE233:
 1295              	.LBE232:
 351:Core/Src/main.cpp ****     {
 1296              		.loc 1 351 44 view .LVU348
 1297 0072 002B     		cmp	r3, #0
 1298 0074 E1D0     		beq	.L57
 353:Core/Src/main.cpp ****     }
 1299              		.loc 1 353 7 is_stmt 1 view .LVU349
 353:Core/Src/main.cpp ****     }
 1300              		.loc 1 353 16 is_stmt 0 view .LVU350
 1301 0076 074B     		ldr	r3, .L64+16
 1302 0078 0322     		movs	r2, #3
 1303 007a 1A60     		str	r2, [r3]
 1304 007c DDE7     		b	.L57
 1305              	.LVL87:
 1306              	.L60:
 1307              	.LBB235:
 1308              	.LBB234:
  28:Core/Inc/PinIn.h ****         }
 1309              		.loc 3 28 27 view .LVU351
 1310 007e 0123     		movs	r3, #1
 1311 0080 F7E7     		b	.L58
 1312              	.L65:
 1313 0082 00BF     		.align	2
ARM GAS  C:\Users\Admin\AppData\Local\Temp\ccEsCXkX.s 			page 42


 1314              	.L64:
 1315 0084 00000000 		.word	.LANCHOR7
 1316 0088 00000000 		.word	.LANCHOR15
 1317 008c 00000000 		.word	.LANCHOR0
 1318 0090 00000000 		.word	.LC2
 1319 0094 00000000 		.word	.LANCHOR10
 1320 0098 14000000 		.word	.LC3
 1321              	.LBE234:
 1322              	.LBE235:
 1323              		.cfi_endproc
 1324              	.LFE109:
 1325              		.fnend
 1327              		.section	.rodata._Z18ButtonPressedEventv.str1.4,"aMS",%progbits,1
 1328              		.align	2
 1329              	.LC4:
 1330 0000 4F757473 		.ascii	"Outside\000"
 1330      69646500 
 1331              		.align	2
 1332              	.LC5:
 1333 0008 496E7369 		.ascii	"Inside\000"
 1333      646500
 1334 000f 00       		.align	2
 1335              	.LC6:
 1336 0010 25732062 		.ascii	"%s button was used.\015\012\000"
 1336      7574746F 
 1336      6E207761 
 1336      73207573 
 1336      65642E0D 
 1337              		.section	.text._Z18ButtonPressedEventv,"ax",%progbits
 1338              		.align	1
 1339              		.global	_Z18ButtonPressedEventv
 1340              		.syntax unified
 1341              		.thumb
 1342              		.thumb_func
 1343              		.fpu softvfp
 1345              	_Z18ButtonPressedEventv:
 1346              		.fnstart
 1347              	.LFB111:
 391:Core/Src/main.cpp ****   if (insideButtonPressed || outsideButtonPressed)
 1348              		.loc 1 391 1 is_stmt 1 view -0
 1349              		.cfi_startproc
 1350              		@ args = 0, pretend = 0, frame = 0
 1351              		@ frame_needed = 0, uses_anonymous_args = 0
 1352 0000 08B5     		push	{r3, lr}
 1353              		.save {r3, lr}
 1354              	.LCFI16:
 1355              		.cfi_def_cfa_offset 8
 1356              		.cfi_offset 3, -8
 1357              		.cfi_offset 14, -4
 392:Core/Src/main.cpp ****   {
 1358              		.loc 1 392 3 view .LVU353
 1359 0002 0A4B     		ldr	r3, .L72
 1360 0004 1B78     		ldrb	r3, [r3]	@ zero_extendqisi2
 1361 0006 13B9     		cbnz	r3, .L67
 392:Core/Src/main.cpp ****   {
 1362              		.loc 1 392 27 is_stmt 0 discriminator 1 view .LVU354
 1363 0008 094A     		ldr	r2, .L72+4
ARM GAS  C:\Users\Admin\AppData\Local\Temp\ccEsCXkX.s 			page 43


 1364 000a 1278     		ldrb	r2, [r2]	@ zero_extendqisi2
 1365 000c 5AB1     		cbz	r2, .L66
 1366              	.L67:
 394:Core/Src/main.cpp **** 
 1367              		.loc 1 394 5 is_stmt 1 view .LVU355
 394:Core/Src/main.cpp **** 
 1368              		.loc 1 394 16 is_stmt 0 view .LVU356
 1369 000e 5BB1     		cbz	r3, .L70
 1370 0010 0849     		ldr	r1, .L72+8
 1371              	.L69:
 394:Core/Src/main.cpp **** 
 1372              		.loc 1 394 16 discriminator 4 view .LVU357
 1373 0012 0948     		ldr	r0, .L72+12
 1374 0014 FFF7FEFF 		bl	_Z11UART_PrintfPKcz
 1375              	.LVL88:
 396:Core/Src/main.cpp **** 
 1376              		.loc 1 396 5 is_stmt 1 discriminator 4 view .LVU358
 396:Core/Src/main.cpp **** 
 1377              		.loc 1 396 14 is_stmt 0 discriminator 4 view .LVU359
 1378 0018 0023     		movs	r3, #0
 1379 001a 084A     		ldr	r2, .L72+16
 1380 001c 1360     		str	r3, [r2]
 398:Core/Src/main.cpp ****     outsideButtonPressed = false;
 1381              		.loc 1 398 5 is_stmt 1 discriminator 4 view .LVU360
 398:Core/Src/main.cpp ****     outsideButtonPressed = false;
 1382              		.loc 1 398 25 is_stmt 0 discriminator 4 view .LVU361
 1383 001e 034A     		ldr	r2, .L72
 1384 0020 1370     		strb	r3, [r2]
 399:Core/Src/main.cpp ****   }
 1385              		.loc 1 399 5 is_stmt 1 discriminator 4 view .LVU362
 399:Core/Src/main.cpp ****   }
 1386              		.loc 1 399 26 is_stmt 0 discriminator 4 view .LVU363
 1387 0022 034A     		ldr	r2, .L72+4
 1388 0024 1370     		strb	r3, [r2]
 1389              	.L66:
 401:Core/Src/main.cpp **** 
 1390              		.loc 1 401 1 view .LVU364
 1391 0026 08BD     		pop	{r3, pc}
 1392              	.L70:
 394:Core/Src/main.cpp **** 
 1393              		.loc 1 394 16 view .LVU365
 1394 0028 0549     		ldr	r1, .L72+20
 1395 002a F2E7     		b	.L69
 1396              	.L73:
 1397              		.align	2
 1398              	.L72:
 1399 002c 00000000 		.word	.LANCHOR13
 1400 0030 00000000 		.word	.LANCHOR14
 1401 0034 08000000 		.word	.LC5
 1402 0038 10000000 		.word	.LC6
 1403 003c 00000000 		.word	.LANCHOR10
 1404 0040 00000000 		.word	.LC4
 1405              		.cfi_endproc
 1406              	.LFE111:
 1407              		.fnend
 1409              		.section	.rodata._Z17TempOpenModeEventv.str1.4,"aMS",%progbits,1
 1410              		.align	2
ARM GAS  C:\Users\Admin\AppData\Local\Temp\ccEsCXkX.s 			page 44


 1411              	.LC7:
 1412 0000 446F6F72 		.ascii	"Door is still opened. Turning on temporarily alarm."
 1412      20697320 
 1412      7374696C 
 1412      6C206F70 
 1412      656E6564 
 1413 0033 0D0A00   		.ascii	"\015\012\000"
 1414 0036 0000     		.align	2
 1415              	.LC8:
 1416 0038 446F6F72 		.ascii	"Door was not opened. Closing the relay.\015\012\000"
 1416      20776173 
 1416      206E6F74 
 1416      206F7065 
 1416      6E65642E 
 1417              		.section	.text._Z17TempOpenModeEventv,"ax",%progbits
 1418              		.align	1
 1419              		.global	_Z17TempOpenModeEventv
 1420              		.syntax unified
 1421              		.thumb
 1422              		.thumb_func
 1423              		.fpu softvfp
 1425              	_Z17TempOpenModeEventv:
 1426              		.fnstart
 1427              	.LFB112:
 404:Core/Src/main.cpp ****   static Timer lockTimer(0, 0);
 1428              		.loc 1 404 1 is_stmt 1 view -0
 1429              		.cfi_startproc
 1430              		@ args = 0, pretend = 0, frame = 0
 1431              		@ frame_needed = 0, uses_anonymous_args = 0
 1432 0000 10B5     		push	{r4, lr}
 1433              		.save {r4, lr}
 1434              	.LCFI17:
 1435              		.cfi_def_cfa_offset 8
 1436              		.cfi_offset 4, -8
 1437              		.cfi_offset 14, -4
 405:Core/Src/main.cpp ****   static Timer zumerTimer(0, 0);
 1438              		.loc 1 405 3 view .LVU367
 405:Core/Src/main.cpp ****   static Timer zumerTimer(0, 0);
 1439              		.loc 1 405 30 is_stmt 0 view .LVU368
 1440 0002 614B     		ldr	r3, .L101
 1441 0004 1B78     		ldrb	r3, [r3]	@ zero_extendqisi2
 1442 0006 BFF35B8F 		dmb	ish
 1443 000a 13F0010F 		tst	r3, #1
 1444 000e 29D0     		beq	.L92
 1445              	.L75:
 406:Core/Src/main.cpp **** 
 1446              		.loc 1 406 3 is_stmt 1 view .LVU369
 406:Core/Src/main.cpp **** 
 1447              		.loc 1 406 31 is_stmt 0 view .LVU370
 1448 0010 5E4B     		ldr	r3, .L101+4
 1449 0012 1B78     		ldrb	r3, [r3]	@ zero_extendqisi2
 1450 0014 BFF35B8F 		dmb	ish
 1451 0018 13F0010F 		tst	r3, #1
 1452 001c 2FD0     		beq	.L93
 1453              	.L76:
 408:Core/Src/main.cpp ****   {
 1454              		.loc 1 408 3 is_stmt 1 view .LVU371
ARM GAS  C:\Users\Admin\AppData\Local\Temp\ccEsCXkX.s 			page 45


 1455              	.LBB286:
 408:Core/Src/main.cpp ****   {
 1456              		.loc 1 408 16 is_stmt 0 view .LVU372
 1457 001e 5C4B     		ldr	r3, .L101+8
 1458 0020 1C68     		ldr	r4, [r3]
 408:Core/Src/main.cpp ****   {
 1459              		.loc 1 408 3 view .LVU373
 1460 0022 F4B9     		cbnz	r4, .L74
 1461              	.LBB287:
 410:Core/Src/main.cpp ****     if (firstTime)
 1462              		.loc 1 410 5 is_stmt 1 view .LVU374
 411:Core/Src/main.cpp ****     {
 1463              		.loc 1 411 5 view .LVU375
 1464 0024 5B4B     		ldr	r3, .L101+12
 1465 0026 1B78     		ldrb	r3, [r3]	@ zero_extendqisi2
 1466 0028 002B     		cmp	r3, #0
 1467 002a 35D1     		bne	.L94
 1468              	.L78:
 418:Core/Src/main.cpp ****     {
 1469              		.loc 1 418 5 view .LVU376
 418:Core/Src/main.cpp ****     {
 1470              		.loc 1 418 20 is_stmt 0 view .LVU377
 1471 002c FFF7FEFF 		bl	HAL_GetTick
 1472              	.LVL89:
 1473              	.LBB288:
 1474              	.LBI288:
  28:Core/Inc/Timer.h ****     {
 1475              		.loc 5 28 14 is_stmt 1 view .LVU378
 1476              	.LBB289:
  30:Core/Inc/Timer.h ****     }
 1477              		.loc 5 30 9 view .LVU379
  30:Core/Inc/Timer.h ****     }
 1478              		.loc 5 30 22 is_stmt 0 view .LVU380
 1479 0030 594B     		ldr	r3, .L101+16
 1480 0032 1B68     		ldr	r3, [r3]
 1481              	.LVL90:
  30:Core/Inc/Timer.h ****     }
 1482              		.loc 5 30 22 view .LVU381
 1483              	.LBE289:
 1484              	.LBE288:
 418:Core/Src/main.cpp ****     {
 1485              		.loc 1 418 23 view .LVU382
 1486 0034 C01A     		subs	r0, r0, r3
 418:Core/Src/main.cpp ****     {
 1487              		.loc 1 418 57 view .LVU383
 1488 0036 41F28733 		movw	r3, #4999
 1489 003a 9842     		cmp	r0, r3
 1490 003c 43D8     		bhi	.L79
 1491              	.LVL91:
 1492              	.LBB290:
 1493              	.LBI290:
  16:Core/Inc/InterruptPin.h ****     {
 1494              		.loc 2 16 10 is_stmt 1 view .LVU384
 1495              	.LBB291:
  18:Core/Inc/InterruptPin.h ****         {
 1496              		.loc 2 18 9 view .LVU385
  18:Core/Inc/InterruptPin.h ****         {
ARM GAS  C:\Users\Admin\AppData\Local\Temp\ccEsCXkX.s 			page 46


 1497              		.loc 2 18 19 is_stmt 0 view .LVU386
 1498 003e 574B     		ldr	r3, .L101+20
 1499 0040 9B79     		ldrb	r3, [r3, #6]	@ zero_extendqisi2
  18:Core/Inc/InterruptPin.h ****         {
 1500              		.loc 2 18 9 view .LVU387
 1501 0042 002B     		cmp	r3, #0
 1502 0044 33D1     		bne	.L95
 1503              	.LVL92:
 1504              	.L80:
  18:Core/Inc/InterruptPin.h ****         {
 1505              		.loc 2 18 9 view .LVU388
 1506              	.LBE291:
 1507              	.LBE290:
 420:Core/Src/main.cpp ****       {
 1508              		.loc 1 420 7 is_stmt 1 discriminator 5 view .LVU389
 420:Core/Src/main.cpp ****       {
 1509              		.loc 1 420 22 is_stmt 0 discriminator 5 view .LVU390
 1510 0046 FFF7FEFF 		bl	HAL_GetTick
 1511              	.LVL93:
 1512              	.LBB293:
 1513              	.LBI293:
  38:Core/Inc/Timer.h ****     {
 1514              		.loc 5 38 14 is_stmt 1 discriminator 5 view .LVU391
 1515              	.LBB294:
 1516              		.loc 5 40 9 discriminator 5 view .LVU392
 1517              		.loc 5 40 22 is_stmt 0 discriminator 5 view .LVU393
 1518 004a 554B     		ldr	r3, .L101+24
 1519 004c 5B68     		ldr	r3, [r3, #4]
 1520              	.LVL94:
 1521              		.loc 5 40 22 discriminator 5 view .LVU394
 1522              	.LBE294:
 1523              	.LBE293:
 420:Core/Src/main.cpp ****       {
 1524              		.loc 1 420 25 discriminator 5 view .LVU395
 1525 004e C01A     		subs	r0, r0, r3
 420:Core/Src/main.cpp ****       {
 1526              		.loc 1 420 7 discriminator 5 view .LVU396
 1527 0050 FA28     		cmp	r0, #250
 1528 0052 68D8     		bhi	.L96
 1529              	.L83:
 429:Core/Src/main.cpp ****       {
 1530              		.loc 1 429 7 is_stmt 1 view .LVU397
 429:Core/Src/main.cpp ****       {
 1531              		.loc 1 429 22 is_stmt 0 view .LVU398
 1532 0054 FFF7FEFF 		bl	HAL_GetTick
 1533              	.LVL95:
 1534              	.LBB295:
 1535              	.LBI295:
  38:Core/Inc/Timer.h ****     {
 1536              		.loc 5 38 14 is_stmt 1 view .LVU399
 1537              	.LBB296:
 1538              		.loc 5 40 9 view .LVU400
 1539              		.loc 5 40 22 is_stmt 0 view .LVU401
 1540 0058 514B     		ldr	r3, .L101+24
 1541 005a 5B68     		ldr	r3, [r3, #4]
 1542              	.LVL96:
 1543              		.loc 5 40 22 view .LVU402
ARM GAS  C:\Users\Admin\AppData\Local\Temp\ccEsCXkX.s 			page 47


 1544              	.LBE296:
 1545              	.LBE295:
 429:Core/Src/main.cpp ****       {
 1546              		.loc 1 429 25 view .LVU403
 1547 005c C01A     		subs	r0, r0, r3
 429:Core/Src/main.cpp ****       {
 1548              		.loc 1 429 7 view .LVU404
 1549 005e 4B28     		cmp	r0, #75
 1550 0060 76D8     		bhi	.L97
 1551              	.L74:
 1552              	.LBE287:
 1553              	.LBE286:
 458:Core/Src/main.cpp **** 
 1554              		.loc 1 458 1 view .LVU405
 1555 0062 10BD     		pop	{r4, pc}
 1556              	.L92:
 405:Core/Src/main.cpp ****   static Timer zumerTimer(0, 0);
 1557              		.loc 1 405 30 discriminator 1 view .LVU406
 1558 0064 4848     		ldr	r0, .L101
 1559 0066 FFF7FEFF 		bl	__cxa_guard_acquire
 1560              	.LVL97:
 1561 006a 0028     		cmp	r0, #0
 1562 006c D0D0     		beq	.L75
 1563              	.LVL98:
 1564              	.LBB338:
 1565              	.LBI338:
  17:Core/Inc/Timer.h ****     {
 1566              		.loc 5 17 5 is_stmt 1 discriminator 2 view .LVU407
 1567              	.LBB339:
 1568              	.LBB340:
  19:Core/Inc/Timer.h ****         this->lastTick = lastTick;
 1569              		.loc 5 19 9 discriminator 2 view .LVU408
  19:Core/Inc/Timer.h ****         this->lastTick = lastTick;
 1570              		.loc 5 19 25 is_stmt 0 discriminator 2 view .LVU409
 1571 006e 4A4B     		ldr	r3, .L101+16
 1572 0070 0022     		movs	r2, #0
 1573 0072 1A60     		str	r2, [r3]
  20:Core/Inc/Timer.h ****     }
 1574              		.loc 5 20 9 is_stmt 1 discriminator 2 view .LVU410
  20:Core/Inc/Timer.h ****     }
 1575              		.loc 5 20 24 is_stmt 0 discriminator 2 view .LVU411
 1576 0074 5A60     		str	r2, [r3, #4]
 1577              	.LVL99:
  20:Core/Inc/Timer.h ****     }
 1578              		.loc 5 20 24 discriminator 2 view .LVU412
 1579              	.LBE340:
 1580              	.LBE339:
 1581              	.LBE338:
 405:Core/Src/main.cpp ****   static Timer zumerTimer(0, 0);
 1582              		.loc 1 405 30 discriminator 2 view .LVU413
 1583 0076 4448     		ldr	r0, .L101
 1584 0078 FFF7FEFF 		bl	__cxa_guard_release
 1585              	.LVL100:
 1586 007c C8E7     		b	.L75
 1587              	.L93:
 406:Core/Src/main.cpp **** 
 1588              		.loc 1 406 31 discriminator 1 view .LVU414
ARM GAS  C:\Users\Admin\AppData\Local\Temp\ccEsCXkX.s 			page 48


 1589 007e 4348     		ldr	r0, .L101+4
 1590 0080 FFF7FEFF 		bl	__cxa_guard_acquire
 1591              	.LVL101:
 1592 0084 0028     		cmp	r0, #0
 1593 0086 CAD0     		beq	.L76
 1594              	.LVL102:
 1595              	.LBB341:
 1596              	.LBI341:
  17:Core/Inc/Timer.h ****     {
 1597              		.loc 5 17 5 is_stmt 1 discriminator 2 view .LVU415
 1598              	.LBB342:
 1599              	.LBB343:
  19:Core/Inc/Timer.h ****         this->lastTick = lastTick;
 1600              		.loc 5 19 9 discriminator 2 view .LVU416
  19:Core/Inc/Timer.h ****         this->lastTick = lastTick;
 1601              		.loc 5 19 25 is_stmt 0 discriminator 2 view .LVU417
 1602 0088 454B     		ldr	r3, .L101+24
 1603 008a 0022     		movs	r2, #0
 1604 008c 1A60     		str	r2, [r3]
  20:Core/Inc/Timer.h ****     }
 1605              		.loc 5 20 9 is_stmt 1 discriminator 2 view .LVU418
  20:Core/Inc/Timer.h ****     }
 1606              		.loc 5 20 24 is_stmt 0 discriminator 2 view .LVU419
 1607 008e 5A60     		str	r2, [r3, #4]
 1608              	.LVL103:
  20:Core/Inc/Timer.h ****     }
 1609              		.loc 5 20 24 discriminator 2 view .LVU420
 1610              	.LBE343:
 1611              	.LBE342:
 1612              	.LBE341:
 406:Core/Src/main.cpp **** 
 1613              		.loc 1 406 31 discriminator 2 view .LVU421
 1614 0090 3E48     		ldr	r0, .L101+4
 1615 0092 FFF7FEFF 		bl	__cxa_guard_release
 1616              	.LVL104:
 1617 0096 C2E7     		b	.L76
 1618              	.L94:
 1619              	.LBB344:
 1620              	.LBB336:
 413:Core/Src/main.cpp ****       lock.turnOn();
 1621              		.loc 1 413 7 is_stmt 1 view .LVU422
 413:Core/Src/main.cpp ****       lock.turnOn();
 1622              		.loc 1 413 17 is_stmt 0 view .LVU423
 1623 0098 3E4B     		ldr	r3, .L101+12
 1624 009a 0022     		movs	r2, #0
 1625 009c 1A70     		strb	r2, [r3]
 414:Core/Src/main.cpp ****       lockTimer.start();
 1626              		.loc 1 414 7 is_stmt 1 view .LVU424
 414:Core/Src/main.cpp ****       lockTimer.start();
 1627              		.loc 1 414 18 is_stmt 0 view .LVU425
 1628 009e 4148     		ldr	r0, .L101+28
 1629 00a0 FFF7FEFF 		bl	_ZN6PinOut6turnOnEv
 1630              	.LVL105:
 415:Core/Src/main.cpp ****     }
 1631              		.loc 1 415 7 is_stmt 1 view .LVU426
 1632              	.LBB297:
 1633              	.LBI297:
ARM GAS  C:\Users\Admin\AppData\Local\Temp\ccEsCXkX.s 			page 49


  23:Core/Inc/Timer.h ****     {
 1634              		.loc 5 23 10 view .LVU427
 1635              	.LBB298:
  25:Core/Inc/Timer.h ****     }
 1636              		.loc 5 25 9 view .LVU428
  25:Core/Inc/Timer.h ****     }
 1637              		.loc 5 25 38 is_stmt 0 view .LVU429
 1638 00a4 FFF7FEFF 		bl	HAL_GetTick
 1639              	.LVL106:
  25:Core/Inc/Timer.h ****     }
 1640              		.loc 5 25 25 view .LVU430
 1641 00a8 3B4B     		ldr	r3, .L101+16
 1642 00aa 1860     		str	r0, [r3]
  26:Core/Inc/Timer.h **** 
 1643              		.loc 5 26 5 view .LVU431
 1644 00ac BEE7     		b	.L78
 1645              	.LVL107:
 1646              	.L95:
  26:Core/Inc/Timer.h **** 
 1647              		.loc 5 26 5 view .LVU432
 1648              	.LBE298:
 1649              	.LBE297:
 1650              	.LBB299:
 1651              	.LBB292:
  20:Core/Inc/InterruptPin.h ****             return true;
 1652              		.loc 2 20 13 is_stmt 1 view .LVU433
  20:Core/Inc/InterruptPin.h ****             return true;
 1653              		.loc 2 20 32 is_stmt 0 view .LVU434
 1654 00ae 3B4B     		ldr	r3, .L101+20
 1655 00b0 0022     		movs	r2, #0
 1656 00b2 9A71     		strb	r2, [r3, #6]
  21:Core/Inc/InterruptPin.h ****         }
 1657              		.loc 2 21 13 is_stmt 1 view .LVU435
 1658              	.LVL108:
  21:Core/Inc/InterruptPin.h ****         }
 1659              		.loc 2 21 13 is_stmt 0 view .LVU436
 1660              	.LBE292:
 1661              	.LBE299:
 1662              	.LBB300:
 1663              	.LBI300:
  24:Core/Inc/PinIn.h ****     {
 1664              		.loc 3 24 11 is_stmt 1 view .LVU437
 1665              	.LBB301:
  26:Core/Inc/PinIn.h ****         {
 1666              		.loc 3 26 9 view .LVU438
  26:Core/Inc/PinIn.h ****         {
 1667              		.loc 3 26 29 is_stmt 0 view .LVU439
 1668 00b4 9988     		ldrh	r1, [r3, #4]
 1669 00b6 1868     		ldr	r0, [r3]
 1670 00b8 FFF7FEFF 		bl	HAL_GPIO_ReadPin
 1671              	.LVL109:
  26:Core/Inc/PinIn.h ****         {
 1672              		.loc 3 26 9 view .LVU440
 1673 00bc 0128     		cmp	r0, #1
 1674 00be 2ED0     		beq	.L88
 1675              		.loc 3 31 23 view .LVU441
 1676 00c0 2346     		mov	r3, r4
ARM GAS  C:\Users\Admin\AppData\Local\Temp\ccEsCXkX.s 			page 50


 1677              	.L81:
 1678              	.LVL110:
 1679              		.loc 3 31 23 view .LVU442
 1680              	.LBE301:
 1681              	.LBE300:
 418:Core/Src/main.cpp ****     {
 1682              		.loc 1 418 60 view .LVU443
 1683 00c2 002B     		cmp	r3, #0
 1684 00c4 BFD1     		bne	.L80
 1685              	.L79:
 437:Core/Src/main.cpp ****     {
 1686              		.loc 1 437 10 is_stmt 1 discriminator 6 view .LVU444
 1687              	.LVL111:
 1688              	.LBB303:
 1689              	.LBI303:
  24:Core/Inc/PinIn.h ****     {
 1690              		.loc 3 24 11 discriminator 6 view .LVU445
 1691              	.LBB304:
  26:Core/Inc/PinIn.h ****         {
 1692              		.loc 3 26 9 discriminator 6 view .LVU446
  26:Core/Inc/PinIn.h ****         {
 1693              		.loc 3 26 29 is_stmt 0 discriminator 6 view .LVU447
 1694 00c6 354B     		ldr	r3, .L101+20
 1695 00c8 9988     		ldrh	r1, [r3, #4]
 1696 00ca 1868     		ldr	r0, [r3]
 1697 00cc FFF7FEFF 		bl	HAL_GPIO_ReadPin
 1698              	.LVL112:
  26:Core/Inc/PinIn.h ****         {
 1699              		.loc 3 26 9 discriminator 6 view .LVU448
 1700 00d0 0128     		cmp	r0, #1
 1701 00d2 26D0     		beq	.L98
 1702              	.L84:
 1703              	.LVL113:
  26:Core/Inc/PinIn.h ****         {
 1704              		.loc 3 26 9 discriminator 6 view .LVU449
 1705              	.LBE304:
 1706              	.LBE303:
 437:Core/Src/main.cpp ****     {
 1707              		.loc 1 437 10 view .LVU450
 1708 00d4 012C     		cmp	r4, #1
 1709 00d6 4CD0     		beq	.L99
 444:Core/Src/main.cpp ****       {
 1710              		.loc 1 444 7 is_stmt 1 view .LVU451
 444:Core/Src/main.cpp ****       {
 1711              		.loc 1 444 22 is_stmt 0 view .LVU452
 1712 00d8 FFF7FEFF 		bl	HAL_GetTick
 1713              	.LVL114:
 1714              	.LBB306:
 1715              	.LBI306:
  28:Core/Inc/Timer.h ****     {
 1716              		.loc 5 28 14 is_stmt 1 view .LVU453
 1717              	.LBB307:
  30:Core/Inc/Timer.h ****     }
 1718              		.loc 5 30 9 view .LVU454
  30:Core/Inc/Timer.h ****     }
 1719              		.loc 5 30 22 is_stmt 0 view .LVU455
 1720 00dc 2E4B     		ldr	r3, .L101+16
ARM GAS  C:\Users\Admin\AppData\Local\Temp\ccEsCXkX.s 			page 51


 1721 00de 1B68     		ldr	r3, [r3]
 1722              	.LVL115:
  30:Core/Inc/Timer.h ****     }
 1723              		.loc 5 30 22 view .LVU456
 1724              	.LBE307:
 1725              	.LBE306:
 444:Core/Src/main.cpp ****       {
 1726              		.loc 1 444 25 view .LVU457
 1727 00e0 C01A     		subs	r0, r0, r3
 444:Core/Src/main.cpp ****       {
 1728              		.loc 1 444 7 view .LVU458
 1729 00e2 41F28733 		movw	r3, #4999
 1730 00e6 9842     		cmp	r0, r3
 1731 00e8 4AD8     		bhi	.L100
 1732              	.L87:
 449:Core/Src/main.cpp ****       firstTime = true;
 1733              		.loc 1 449 7 is_stmt 1 view .LVU459
 449:Core/Src/main.cpp ****       firstTime = true;
 1734              		.loc 1 449 16 is_stmt 0 view .LVU460
 1735 00ea 294B     		ldr	r3, .L101+8
 1736 00ec 0422     		movs	r2, #4
 1737 00ee 1A60     		str	r2, [r3]
 450:Core/Src/main.cpp ****       lock.turnOff();
 1738              		.loc 1 450 7 is_stmt 1 view .LVU461
 450:Core/Src/main.cpp ****       lock.turnOff();
 1739              		.loc 1 450 17 is_stmt 0 view .LVU462
 1740 00f0 0124     		movs	r4, #1
 1741 00f2 284B     		ldr	r3, .L101+12
 1742 00f4 1C70     		strb	r4, [r3]
 451:Core/Src/main.cpp ****       insideZumer.turnOff();
 1743              		.loc 1 451 7 is_stmt 1 view .LVU463
 451:Core/Src/main.cpp ****       insideZumer.turnOff();
 1744              		.loc 1 451 19 is_stmt 0 view .LVU464
 1745 00f6 2B48     		ldr	r0, .L101+28
 1746 00f8 FFF7FEFF 		bl	_ZN6PinOut7turnOffEv
 1747              	.LVL116:
 452:Core/Src/main.cpp ****       outsideZumer.turnOff();
 1748              		.loc 1 452 7 is_stmt 1 view .LVU465
 1749              	.LBB308:
 1750              	.LBI308:
  17:Core/Inc/InvertedPinOut.h ****     {
 1751              		.loc 4 17 10 view .LVU466
 1752              	.LBB309:
  19:Core/Inc/InvertedPinOut.h ****     }
 1753              		.loc 4 19 9 view .LVU467
  19:Core/Inc/InvertedPinOut.h ****     }
 1754              		.loc 4 19 17 is_stmt 0 view .LVU468
 1755 00fc 2146     		mov	r1, r4
 1756 00fe 2A48     		ldr	r0, .L101+32
 1757 0100 FFF7FEFF 		bl	_ZN6PinOut8setStateE5State
 1758              	.LVL117:
  19:Core/Inc/InvertedPinOut.h ****     }
 1759              		.loc 4 19 17 view .LVU469
 1760              	.LBE309:
 1761              	.LBE308:
 453:Core/Src/main.cpp ****       insideGreenLed.turnOff();
 1762              		.loc 1 453 7 is_stmt 1 view .LVU470
ARM GAS  C:\Users\Admin\AppData\Local\Temp\ccEsCXkX.s 			page 52


 1763              	.LBB310:
 1764              	.LBI310:
  17:Core/Inc/InvertedPinOut.h ****     {
 1765              		.loc 4 17 10 view .LVU471
 1766              	.LBB311:
  19:Core/Inc/InvertedPinOut.h ****     }
 1767              		.loc 4 19 9 view .LVU472
  19:Core/Inc/InvertedPinOut.h ****     }
 1768              		.loc 4 19 17 is_stmt 0 view .LVU473
 1769 0104 2146     		mov	r1, r4
 1770 0106 2948     		ldr	r0, .L101+36
 1771 0108 FFF7FEFF 		bl	_ZN6PinOut8setStateE5State
 1772              	.LVL118:
  19:Core/Inc/InvertedPinOut.h ****     }
 1773              		.loc 4 19 17 view .LVU474
 1774              	.LBE311:
 1775              	.LBE310:
 454:Core/Src/main.cpp ****       outsideGreenLed.turnOff();
 1776              		.loc 1 454 7 is_stmt 1 view .LVU475
 1777              	.LBB312:
 1778              	.LBI312:
  17:Core/Inc/InvertedPinOut.h ****     {
 1779              		.loc 4 17 10 view .LVU476
 1780              	.LBB313:
  19:Core/Inc/InvertedPinOut.h ****     }
 1781              		.loc 4 19 9 view .LVU477
  19:Core/Inc/InvertedPinOut.h ****     }
 1782              		.loc 4 19 17 is_stmt 0 view .LVU478
 1783 010c 2146     		mov	r1, r4
 1784 010e 2848     		ldr	r0, .L101+40
 1785 0110 FFF7FEFF 		bl	_ZN6PinOut8setStateE5State
 1786              	.LVL119:
  19:Core/Inc/InvertedPinOut.h ****     }
 1787              		.loc 4 19 17 view .LVU479
 1788              	.LBE313:
 1789              	.LBE312:
 455:Core/Src/main.cpp ****     }
 1790              		.loc 1 455 7 is_stmt 1 view .LVU480
 1791              	.LBB314:
 1792              	.LBI314:
  17:Core/Inc/InvertedPinOut.h ****     {
 1793              		.loc 4 17 10 view .LVU481
 1794              	.LBB315:
  19:Core/Inc/InvertedPinOut.h ****     }
 1795              		.loc 4 19 9 view .LVU482
  19:Core/Inc/InvertedPinOut.h ****     }
 1796              		.loc 4 19 17 is_stmt 0 view .LVU483
 1797 0114 2146     		mov	r1, r4
 1798 0116 2748     		ldr	r0, .L101+44
 1799 0118 FFF7FEFF 		bl	_ZN6PinOut8setStateE5State
 1800              	.LVL120:
  19:Core/Inc/InvertedPinOut.h ****     }
 1801              		.loc 4 19 17 view .LVU484
 1802              	.LBE315:
 1803              	.LBE314:
 1804              	.LBE336:
 1805              	.LBE344:
ARM GAS  C:\Users\Admin\AppData\Local\Temp\ccEsCXkX.s 			page 53


 458:Core/Src/main.cpp **** 
 1806              		.loc 1 458 1 view .LVU485
 1807 011c A1E7     		b	.L74
 1808              	.LVL121:
 1809              	.L88:
 1810              	.LBB345:
 1811              	.LBB337:
 1812              	.LBB316:
 1813              	.LBB302:
  28:Core/Inc/PinIn.h ****         }
 1814              		.loc 3 28 27 view .LVU486
 1815 011e 0123     		movs	r3, #1
 1816 0120 CFE7     		b	.L81
 1817              	.LVL122:
 1818              	.L98:
  28:Core/Inc/PinIn.h ****         }
 1819              		.loc 3 28 27 view .LVU487
 1820              	.LBE302:
 1821              	.LBE316:
 1822              	.LBB317:
 1823              	.LBB305:
 1824 0122 0124     		movs	r4, #1
 1825 0124 D6E7     		b	.L84
 1826              	.LVL123:
 1827              	.L96:
  28:Core/Inc/PinIn.h ****         }
 1828              		.loc 3 28 27 view .LVU488
 1829              	.LBE305:
 1830              	.LBE317:
 422:Core/Src/main.cpp ****         insideZumer.turnOn();
 1831              		.loc 1 422 9 is_stmt 1 view .LVU489
 1832              	.LBB318:
 1833              	.LBI318:
  33:Core/Inc/Timer.h ****     {
 1834              		.loc 5 33 10 view .LVU490
 1835              	.LBB319:
  35:Core/Inc/Timer.h ****     }
 1836              		.loc 5 35 9 view .LVU491
  35:Core/Inc/Timer.h ****     }
 1837              		.loc 5 35 37 is_stmt 0 view .LVU492
 1838 0126 FFF7FEFF 		bl	HAL_GetTick
 1839              	.LVL124:
  35:Core/Inc/Timer.h ****     }
 1840              		.loc 5 35 24 view .LVU493
 1841 012a 1D4B     		ldr	r3, .L101+24
 1842 012c 5860     		str	r0, [r3, #4]
 1843              	.LVL125:
  35:Core/Inc/Timer.h ****     }
 1844              		.loc 5 35 24 view .LVU494
 1845              	.LBE319:
 1846              	.LBE318:
 423:Core/Src/main.cpp ****         outsideZumer.turnOn();
 1847              		.loc 1 423 9 is_stmt 1 view .LVU495
 1848              	.LBB320:
 1849              	.LBI320:
  12:Core/Inc/InvertedPinOut.h ****     {
 1850              		.loc 4 12 10 view .LVU496
ARM GAS  C:\Users\Admin\AppData\Local\Temp\ccEsCXkX.s 			page 54


 1851              	.LBB321:
  14:Core/Inc/InvertedPinOut.h ****     }
 1852              		.loc 4 14 9 view .LVU497
  14:Core/Inc/InvertedPinOut.h ****     }
 1853              		.loc 4 14 17 is_stmt 0 view .LVU498
 1854 012e 0021     		movs	r1, #0
 1855 0130 1D48     		ldr	r0, .L101+32
 1856 0132 FFF7FEFF 		bl	_ZN6PinOut8setStateE5State
 1857              	.LVL126:
  14:Core/Inc/InvertedPinOut.h ****     }
 1858              		.loc 4 14 17 view .LVU499
 1859              	.LBE321:
 1860              	.LBE320:
 424:Core/Src/main.cpp ****         insideGreenLed.turnOn();
 1861              		.loc 1 424 9 is_stmt 1 view .LVU500
 1862              	.LBB322:
 1863              	.LBI322:
  12:Core/Inc/InvertedPinOut.h ****     {
 1864              		.loc 4 12 10 view .LVU501
 1865              	.LBB323:
  14:Core/Inc/InvertedPinOut.h ****     }
 1866              		.loc 4 14 9 view .LVU502
  14:Core/Inc/InvertedPinOut.h ****     }
 1867              		.loc 4 14 17 is_stmt 0 view .LVU503
 1868 0136 0021     		movs	r1, #0
 1869 0138 1C48     		ldr	r0, .L101+36
 1870 013a FFF7FEFF 		bl	_ZN6PinOut8setStateE5State
 1871              	.LVL127:
  14:Core/Inc/InvertedPinOut.h ****     }
 1872              		.loc 4 14 17 view .LVU504
 1873              	.LBE323:
 1874              	.LBE322:
 425:Core/Src/main.cpp ****         outsideGreenLed.turnOn();
 1875              		.loc 1 425 9 is_stmt 1 view .LVU505
 1876              	.LBB324:
 1877              	.LBI324:
  12:Core/Inc/InvertedPinOut.h ****     {
 1878              		.loc 4 12 10 view .LVU506
 1879              	.LBB325:
  14:Core/Inc/InvertedPinOut.h ****     }
 1880              		.loc 4 14 9 view .LVU507
  14:Core/Inc/InvertedPinOut.h ****     }
 1881              		.loc 4 14 17 is_stmt 0 view .LVU508
 1882 013e 0021     		movs	r1, #0
 1883 0140 1B48     		ldr	r0, .L101+40
 1884 0142 FFF7FEFF 		bl	_ZN6PinOut8setStateE5State
 1885              	.LVL128:
  14:Core/Inc/InvertedPinOut.h ****     }
 1886              		.loc 4 14 17 view .LVU509
 1887              	.LBE325:
 1888              	.LBE324:
 426:Core/Src/main.cpp ****       }
 1889              		.loc 1 426 9 is_stmt 1 view .LVU510
 1890              	.LBB326:
 1891              	.LBI326:
  12:Core/Inc/InvertedPinOut.h ****     {
 1892              		.loc 4 12 10 view .LVU511
ARM GAS  C:\Users\Admin\AppData\Local\Temp\ccEsCXkX.s 			page 55


 1893              	.LBB327:
  14:Core/Inc/InvertedPinOut.h ****     }
 1894              		.loc 4 14 9 view .LVU512
  14:Core/Inc/InvertedPinOut.h ****     }
 1895              		.loc 4 14 17 is_stmt 0 view .LVU513
 1896 0146 0021     		movs	r1, #0
 1897 0148 1A48     		ldr	r0, .L101+44
 1898 014a FFF7FEFF 		bl	_ZN6PinOut8setStateE5State
 1899              	.LVL129:
  15:Core/Inc/InvertedPinOut.h **** 
 1900              		.loc 4 15 5 view .LVU514
 1901 014e 81E7     		b	.L83
 1902              	.LVL130:
 1903              	.L97:
  15:Core/Inc/InvertedPinOut.h **** 
 1904              		.loc 4 15 5 view .LVU515
 1905              	.LBE327:
 1906              	.LBE326:
 431:Core/Src/main.cpp ****         outsideZumer.turnOff();
 1907              		.loc 1 431 9 is_stmt 1 view .LVU516
 1908              	.LBB328:
 1909              	.LBI328:
  17:Core/Inc/InvertedPinOut.h ****     {
 1910              		.loc 4 17 10 view .LVU517
 1911              	.LBB329:
  19:Core/Inc/InvertedPinOut.h ****     }
 1912              		.loc 4 19 9 view .LVU518
  19:Core/Inc/InvertedPinOut.h ****     }
 1913              		.loc 4 19 17 is_stmt 0 view .LVU519
 1914 0150 0121     		movs	r1, #1
 1915 0152 1548     		ldr	r0, .L101+32
 1916 0154 FFF7FEFF 		bl	_ZN6PinOut8setStateE5State
 1917              	.LVL131:
  19:Core/Inc/InvertedPinOut.h ****     }
 1918              		.loc 4 19 17 view .LVU520
 1919              	.LBE329:
 1920              	.LBE328:
 432:Core/Src/main.cpp ****         insideGreenLed.turnOff();
 1921              		.loc 1 432 9 is_stmt 1 view .LVU521
 1922              	.LBB330:
 1923              	.LBI330:
  17:Core/Inc/InvertedPinOut.h ****     {
 1924              		.loc 4 17 10 view .LVU522
 1925              	.LBB331:
  19:Core/Inc/InvertedPinOut.h ****     }
 1926              		.loc 4 19 9 view .LVU523
  19:Core/Inc/InvertedPinOut.h ****     }
 1927              		.loc 4 19 17 is_stmt 0 view .LVU524
 1928 0158 0121     		movs	r1, #1
 1929 015a 1448     		ldr	r0, .L101+36
 1930 015c FFF7FEFF 		bl	_ZN6PinOut8setStateE5State
 1931              	.LVL132:
  19:Core/Inc/InvertedPinOut.h ****     }
 1932              		.loc 4 19 17 view .LVU525
 1933              	.LBE331:
 1934              	.LBE330:
 433:Core/Src/main.cpp ****         outsideGreenLed.turnOff();
ARM GAS  C:\Users\Admin\AppData\Local\Temp\ccEsCXkX.s 			page 56


 1935              		.loc 1 433 9 is_stmt 1 view .LVU526
 1936              	.LBB332:
 1937              	.LBI332:
  17:Core/Inc/InvertedPinOut.h ****     {
 1938              		.loc 4 17 10 view .LVU527
 1939              	.LBB333:
  19:Core/Inc/InvertedPinOut.h ****     }
 1940              		.loc 4 19 9 view .LVU528
  19:Core/Inc/InvertedPinOut.h ****     }
 1941              		.loc 4 19 17 is_stmt 0 view .LVU529
 1942 0160 0121     		movs	r1, #1
 1943 0162 1348     		ldr	r0, .L101+40
 1944 0164 FFF7FEFF 		bl	_ZN6PinOut8setStateE5State
 1945              	.LVL133:
  19:Core/Inc/InvertedPinOut.h ****     }
 1946              		.loc 4 19 17 view .LVU530
 1947              	.LBE333:
 1948              	.LBE332:
 434:Core/Src/main.cpp ****       }
 1949              		.loc 1 434 9 is_stmt 1 view .LVU531
 1950              	.LBB334:
 1951              	.LBI334:
  17:Core/Inc/InvertedPinOut.h ****     {
 1952              		.loc 4 17 10 view .LVU532
 1953              	.LBB335:
  19:Core/Inc/InvertedPinOut.h ****     }
 1954              		.loc 4 19 9 view .LVU533
  19:Core/Inc/InvertedPinOut.h ****     }
 1955              		.loc 4 19 17 is_stmt 0 view .LVU534
 1956 0168 0121     		movs	r1, #1
 1957 016a 1248     		ldr	r0, .L101+44
 1958 016c FFF7FEFF 		bl	_ZN6PinOut8setStateE5State
 1959              	.LVL134:
 1960              		.loc 4 20 5 view .LVU535
 1961 0170 77E7     		b	.L74
 1962              	.LVL135:
 1963              	.L99:
 1964              		.loc 4 20 5 view .LVU536
 1965              	.LBE335:
 1966              	.LBE334:
 439:Core/Src/main.cpp ****       workMode = WorkMode::TempAlarmMode;
 1967              		.loc 1 439 7 is_stmt 1 view .LVU537
 439:Core/Src/main.cpp ****       workMode = WorkMode::TempAlarmMode;
 1968              		.loc 1 439 18 is_stmt 0 view .LVU538
 1969 0172 1148     		ldr	r0, .L101+48
 1970 0174 FFF7FEFF 		bl	_Z11UART_PrintfPKcz
 1971              	.LVL136:
 440:Core/Src/main.cpp ****     }
 1972              		.loc 1 440 7 is_stmt 1 view .LVU539
 440:Core/Src/main.cpp ****     }
 1973              		.loc 1 440 16 is_stmt 0 view .LVU540
 1974 0178 054B     		ldr	r3, .L101+8
 1975 017a 0222     		movs	r2, #2
 1976 017c 1A60     		str	r2, [r3]
 1977 017e 70E7     		b	.L74
 1978              	.L100:
 446:Core/Src/main.cpp ****       }
ARM GAS  C:\Users\Admin\AppData\Local\Temp\ccEsCXkX.s 			page 57


 1979              		.loc 1 446 9 is_stmt 1 view .LVU541
 446:Core/Src/main.cpp ****       }
 1980              		.loc 1 446 20 is_stmt 0 view .LVU542
 1981 0180 0E48     		ldr	r0, .L101+52
 1982 0182 FFF7FEFF 		bl	_Z11UART_PrintfPKcz
 1983              	.LVL137:
 1984 0186 B0E7     		b	.L87
 1985              	.L102:
 1986              		.align	2
 1987              	.L101:
 1988 0188 00000000 		.word	.LANCHOR22
 1989 018c 00000000 		.word	.LANCHOR24
 1990 0190 00000000 		.word	.LANCHOR10
 1991 0194 00000000 		.word	.LANCHOR26
 1992 0198 00000000 		.word	.LANCHOR23
 1993 019c 00000000 		.word	.LANCHOR0
 1994 01a0 00000000 		.word	.LANCHOR25
 1995 01a4 00000000 		.word	.LANCHOR1
 1996 01a8 00000000 		.word	.LANCHOR3
 1997 01ac 00000000 		.word	.LANCHOR4
 1998 01b0 00000000 		.word	.LANCHOR5
 1999 01b4 00000000 		.word	.LANCHOR6
 2000 01b8 00000000 		.word	.LC7
 2001 01bc 38000000 		.word	.LC8
 2002              	.LBE337:
 2003              	.LBE345:
 2004              		.cfi_endproc
 2005              	.LFE112:
 2006              		.fnend
 2008              		.section	.text._Z14TempAlarmEventv,"ax",%progbits
 2009              		.align	1
 2010              		.global	_Z14TempAlarmEventv
 2011              		.syntax unified
 2012              		.thumb
 2013              		.thumb_func
 2014              		.fpu softvfp
 2016              	_Z14TempAlarmEventv:
 2017              		.fnstart
 2018              	.LFB113:
 461:Core/Src/main.cpp ****   static Timer sirenTimer(0, 0);
 2019              		.loc 1 461 1 is_stmt 1 view -0
 2020              		.cfi_startproc
 2021              		@ args = 0, pretend = 0, frame = 0
 2022              		@ frame_needed = 0, uses_anonymous_args = 0
 2023 0000 08B5     		push	{r3, lr}
 2024              		.save {r3, lr}
 2025              	.LCFI18:
 2026              		.cfi_def_cfa_offset 8
 2027              		.cfi_offset 3, -8
 2028              		.cfi_offset 14, -4
 462:Core/Src/main.cpp **** 
 2029              		.loc 1 462 3 view .LVU544
 462:Core/Src/main.cpp **** 
 2030              		.loc 1 462 31 is_stmt 0 view .LVU545
 2031 0002 2A4B     		ldr	r3, .L113
 2032 0004 1B78     		ldrb	r3, [r3]	@ zero_extendqisi2
 2033 0006 BFF35B8F 		dmb	ish
ARM GAS  C:\Users\Admin\AppData\Local\Temp\ccEsCXkX.s 			page 58


 2034 000a 13F0010F 		tst	r3, #1
 2035 000e 04D0     		beq	.L111
 2036              	.L104:
 464:Core/Src/main.cpp ****   {
 2037              		.loc 1 464 3 is_stmt 1 view .LVU546
 464:Core/Src/main.cpp ****   {
 2038              		.loc 1 464 16 is_stmt 0 view .LVU547
 2039 0010 274B     		ldr	r3, .L113+4
 2040 0012 1B68     		ldr	r3, [r3]
 464:Core/Src/main.cpp ****   {
 2041              		.loc 1 464 3 view .LVU548
 2042 0014 022B     		cmp	r3, #2
 2043 0016 0DD0     		beq	.L112
 2044              	.L103:
 483:Core/Src/main.cpp **** 
 2045              		.loc 1 483 1 view .LVU549
 2046 0018 08BD     		pop	{r3, pc}
 2047              	.L111:
 462:Core/Src/main.cpp **** 
 2048              		.loc 1 462 31 discriminator 1 view .LVU550
 2049 001a 2448     		ldr	r0, .L113
 2050 001c FFF7FEFF 		bl	__cxa_guard_acquire
 2051              	.LVL138:
 2052 0020 0028     		cmp	r0, #0
 2053 0022 F5D0     		beq	.L104
 2054              	.LVL139:
 2055              	.LBB361:
 2056              	.LBI361:
  17:Core/Inc/Timer.h ****     {
 2057              		.loc 5 17 5 is_stmt 1 discriminator 2 view .LVU551
 2058              	.LBB362:
 2059              	.LBB363:
  19:Core/Inc/Timer.h ****         this->lastTick = lastTick;
 2060              		.loc 5 19 9 discriminator 2 view .LVU552
  19:Core/Inc/Timer.h ****         this->lastTick = lastTick;
 2061              		.loc 5 19 25 is_stmt 0 discriminator 2 view .LVU553
 2062 0024 234B     		ldr	r3, .L113+8
 2063 0026 0022     		movs	r2, #0
 2064 0028 1A60     		str	r2, [r3]
  20:Core/Inc/Timer.h ****     }
 2065              		.loc 5 20 9 is_stmt 1 discriminator 2 view .LVU554
  20:Core/Inc/Timer.h ****     }
 2066              		.loc 5 20 24 is_stmt 0 discriminator 2 view .LVU555
 2067 002a 5A60     		str	r2, [r3, #4]
 2068              	.LVL140:
  20:Core/Inc/Timer.h ****     }
 2069              		.loc 5 20 24 discriminator 2 view .LVU556
 2070              	.LBE363:
 2071              	.LBE362:
 2072              	.LBE361:
 462:Core/Src/main.cpp **** 
 2073              		.loc 1 462 31 discriminator 2 view .LVU557
 2074 002c 1F48     		ldr	r0, .L113
 2075 002e FFF7FEFF 		bl	__cxa_guard_release
 2076              	.LVL141:
 2077 0032 EDE7     		b	.L104
 2078              	.L112:
ARM GAS  C:\Users\Admin\AppData\Local\Temp\ccEsCXkX.s 			page 59


 466:Core/Src/main.cpp ****     {
 2079              		.loc 1 466 5 is_stmt 1 view .LVU558
 466:Core/Src/main.cpp ****     {
 2080              		.loc 1 466 20 is_stmt 0 view .LVU559
 2081 0034 FFF7FEFF 		bl	HAL_GetTick
 2082              	.LVL142:
 2083              	.LBB364:
 2084              	.LBI364:
  38:Core/Inc/Timer.h ****     {
 2085              		.loc 5 38 14 is_stmt 1 view .LVU560
 2086              	.LBB365:
 2087              		.loc 5 40 9 view .LVU561
 2088              		.loc 5 40 22 is_stmt 0 view .LVU562
 2089 0038 1E4B     		ldr	r3, .L113+8
 2090 003a 5B68     		ldr	r3, [r3, #4]
 2091              	.LVL143:
 2092              		.loc 5 40 22 view .LVU563
 2093              	.LBE365:
 2094              	.LBE364:
 466:Core/Src/main.cpp ****     {
 2095              		.loc 1 466 23 view .LVU564
 2096 003c C01A     		subs	r0, r0, r3
 466:Core/Src/main.cpp ****     {
 2097              		.loc 1 466 5 view .LVU565
 2098 003e FA28     		cmp	r0, #250
 2099 0040 20D9     		bls	.L106
 468:Core/Src/main.cpp ****       siren.turnOn();
 2100              		.loc 1 468 7 is_stmt 1 view .LVU566
 2101              	.LVL144:
 2102              	.LBB366:
 2103              	.LBI366:
  33:Core/Inc/Timer.h ****     {
 2104              		.loc 5 33 10 view .LVU567
 2105              	.LBB367:
  35:Core/Inc/Timer.h ****     }
 2106              		.loc 5 35 9 view .LVU568
  35:Core/Inc/Timer.h ****     }
 2107              		.loc 5 35 37 is_stmt 0 view .LVU569
 2108 0042 FFF7FEFF 		bl	HAL_GetTick
 2109              	.LVL145:
  35:Core/Inc/Timer.h ****     }
 2110              		.loc 5 35 24 view .LVU570
 2111 0046 1B4B     		ldr	r3, .L113+8
 2112 0048 5860     		str	r0, [r3, #4]
 2113              	.LVL146:
  35:Core/Inc/Timer.h ****     }
 2114              		.loc 5 35 24 view .LVU571
 2115              	.LBE367:
 2116              	.LBE366:
 469:Core/Src/main.cpp ****     }
 2117              		.loc 1 469 7 is_stmt 1 view .LVU572
 469:Core/Src/main.cpp ****     }
 2118              		.loc 1 469 19 is_stmt 0 view .LVU573
 2119 004a 1B48     		ldr	r0, .L113+12
 2120 004c FFF7FEFF 		bl	_ZN6PinOut6turnOnEv
 2121              	.LVL147:
 2122              	.L107:
ARM GAS  C:\Users\Admin\AppData\Local\Temp\ccEsCXkX.s 			page 60


 476:Core/Src/main.cpp ****     {
 2123              		.loc 1 476 5 is_stmt 1 view .LVU574
 2124              	.LBB368:
 2125              	.LBI368:
  16:Core/Inc/InterruptPin.h ****     {
 2126              		.loc 2 16 10 view .LVU575
 2127              	.LBB369:
  18:Core/Inc/InterruptPin.h ****         {
 2128              		.loc 2 18 9 view .LVU576
  18:Core/Inc/InterruptPin.h ****         {
 2129              		.loc 2 18 19 is_stmt 0 view .LVU577
 2130 0050 1A4B     		ldr	r3, .L113+16
 2131 0052 9B79     		ldrb	r3, [r3, #6]	@ zero_extendqisi2
  18:Core/Inc/InterruptPin.h ****         {
 2132              		.loc 2 18 9 view .LVU578
 2133 0054 002B     		cmp	r3, #0
 2134 0056 DFD0     		beq	.L103
  20:Core/Inc/InterruptPin.h ****             return true;
 2135              		.loc 2 20 13 is_stmt 1 view .LVU579
  20:Core/Inc/InterruptPin.h ****             return true;
 2136              		.loc 2 20 32 is_stmt 0 view .LVU580
 2137 0058 184B     		ldr	r3, .L113+16
 2138 005a 0022     		movs	r2, #0
 2139 005c 9A71     		strb	r2, [r3, #6]
  21:Core/Inc/InterruptPin.h ****         }
 2140              		.loc 2 21 13 is_stmt 1 view .LVU581
 2141              	.LVL148:
  21:Core/Inc/InterruptPin.h ****         }
 2142              		.loc 2 21 13 is_stmt 0 view .LVU582
 2143              	.LBE369:
 2144              	.LBE368:
 2145              	.LBB370:
 2146              	.LBI370:
  24:Core/Inc/PinIn.h ****     {
 2147              		.loc 3 24 11 is_stmt 1 view .LVU583
 2148              	.LBB371:
  26:Core/Inc/PinIn.h ****         {
 2149              		.loc 3 26 9 view .LVU584
  26:Core/Inc/PinIn.h ****         {
 2150              		.loc 3 26 29 is_stmt 0 view .LVU585
 2151 005e 9988     		ldrh	r1, [r3, #4]
 2152 0060 1868     		ldr	r0, [r3]
 2153 0062 FFF7FEFF 		bl	HAL_GPIO_ReadPin
 2154              	.LVL149:
  26:Core/Inc/PinIn.h ****         {
 2155              		.loc 3 26 9 view .LVU586
 2156 0066 0128     		cmp	r0, #1
 2157 0068 1ED0     		beq	.L109
 2158              		.loc 3 31 23 view .LVU587
 2159 006a 0023     		movs	r3, #0
 2160              	.L108:
 2161              	.LVL150:
 2162              		.loc 3 31 23 view .LVU588
 2163              	.LBE371:
 2164              	.LBE370:
 476:Core/Src/main.cpp ****     {
 2165              		.loc 1 476 31 view .LVU589
ARM GAS  C:\Users\Admin\AppData\Local\Temp\ccEsCXkX.s 			page 61


 2166 006c 002B     		cmp	r3, #0
 2167 006e D3D1     		bne	.L103
 478:Core/Src/main.cpp ****       workMode = WorkMode::NoMode;
 2168              		.loc 1 478 7 is_stmt 1 view .LVU590
 478:Core/Src/main.cpp ****       workMode = WorkMode::NoMode;
 2169              		.loc 1 478 18 is_stmt 0 view .LVU591
 2170 0070 1348     		ldr	r0, .L113+20
 2171 0072 FFF7FEFF 		bl	_Z11UART_PrintfPKcz
 2172              	.LVL151:
 479:Core/Src/main.cpp ****       siren.turnOff();
 2173              		.loc 1 479 7 is_stmt 1 view .LVU592
 479:Core/Src/main.cpp ****       siren.turnOff();
 2174              		.loc 1 479 16 is_stmt 0 view .LVU593
 2175 0076 0E4B     		ldr	r3, .L113+4
 2176 0078 0422     		movs	r2, #4
 2177 007a 1A60     		str	r2, [r3]
 480:Core/Src/main.cpp ****     }
 2178              		.loc 1 480 7 is_stmt 1 view .LVU594
 480:Core/Src/main.cpp ****     }
 2179              		.loc 1 480 20 is_stmt 0 view .LVU595
 2180 007c 0E48     		ldr	r0, .L113+12
 2181 007e FFF7FEFF 		bl	_ZN6PinOut7turnOffEv
 2182              	.LVL152:
 483:Core/Src/main.cpp **** 
 2183              		.loc 1 483 1 view .LVU596
 2184 0082 C9E7     		b	.L103
 2185              	.L106:
 471:Core/Src/main.cpp ****     {
 2186              		.loc 1 471 10 is_stmt 1 view .LVU597
 471:Core/Src/main.cpp ****     {
 2187              		.loc 1 471 25 is_stmt 0 view .LVU598
 2188 0084 FFF7FEFF 		bl	HAL_GetTick
 2189              	.LVL153:
 2190              	.LBB373:
 2191              	.LBI373:
  38:Core/Inc/Timer.h ****     {
 2192              		.loc 5 38 14 is_stmt 1 view .LVU599
 2193              	.LBB374:
 2194              		.loc 5 40 9 view .LVU600
 2195              		.loc 5 40 22 is_stmt 0 view .LVU601
 2196 0088 0A4B     		ldr	r3, .L113+8
 2197 008a 5B68     		ldr	r3, [r3, #4]
 2198              	.LVL154:
 2199              		.loc 5 40 22 view .LVU602
 2200              	.LBE374:
 2201              	.LBE373:
 471:Core/Src/main.cpp ****     {
 2202              		.loc 1 471 28 view .LVU603
 2203 008c C01A     		subs	r0, r0, r3
 471:Core/Src/main.cpp ****     {
 2204              		.loc 1 471 61 view .LVU604
 2205 008e F928     		cmp	r0, #249
 2206 0090 DED8     		bhi	.L107
 471:Core/Src/main.cpp ****     {
 2207              		.loc 1 471 75 discriminator 1 view .LVU605
 2208 0092 FFF7FEFF 		bl	HAL_GetTick
 2209              	.LVL155:
ARM GAS  C:\Users\Admin\AppData\Local\Temp\ccEsCXkX.s 			page 62


 2210              	.LBB375:
 2211              	.LBI375:
  38:Core/Inc/Timer.h ****     {
 2212              		.loc 5 38 14 is_stmt 1 discriminator 1 view .LVU606
 2213              	.LBB376:
 2214              		.loc 5 40 9 discriminator 1 view .LVU607
 2215              		.loc 5 40 22 is_stmt 0 discriminator 1 view .LVU608
 2216 0096 074B     		ldr	r3, .L113+8
 2217 0098 5B68     		ldr	r3, [r3, #4]
 2218              	.LVL156:
 2219              		.loc 5 40 22 discriminator 1 view .LVU609
 2220              	.LBE376:
 2221              	.LBE375:
 471:Core/Src/main.cpp ****     {
 2222              		.loc 1 471 78 discriminator 1 view .LVU610
 2223 009a C01A     		subs	r0, r0, r3
 471:Core/Src/main.cpp ****     {
 2224              		.loc 1 471 61 discriminator 1 view .LVU611
 2225 009c 9628     		cmp	r0, #150
 2226 009e D7D9     		bls	.L107
 473:Core/Src/main.cpp ****     }
 2227              		.loc 1 473 7 is_stmt 1 view .LVU612
 473:Core/Src/main.cpp ****     }
 2228              		.loc 1 473 20 is_stmt 0 view .LVU613
 2229 00a0 0548     		ldr	r0, .L113+12
 2230 00a2 FFF7FEFF 		bl	_ZN6PinOut7turnOffEv
 2231              	.LVL157:
 2232 00a6 D3E7     		b	.L107
 2233              	.LVL158:
 2234              	.L109:
 2235              	.LBB377:
 2236              	.LBB372:
  28:Core/Inc/PinIn.h ****         }
 2237              		.loc 3 28 27 view .LVU614
 2238 00a8 0123     		movs	r3, #1
 2239 00aa DFE7     		b	.L108
 2240              	.L114:
 2241              		.align	2
 2242              	.L113:
 2243 00ac 00000000 		.word	.LANCHOR27
 2244 00b0 00000000 		.word	.LANCHOR10
 2245 00b4 00000000 		.word	.LANCHOR28
 2246 00b8 00000000 		.word	.LANCHOR2
 2247 00bc 00000000 		.word	.LANCHOR0
 2248 00c0 00000000 		.word	.LC2
 2249              	.LBE372:
 2250              	.LBE377:
 2251              		.cfi_endproc
 2252              	.LFE113:
 2253              		.fnend
 2255              		.section	.text._Z10verifyCodem,"ax",%progbits
 2256              		.align	1
 2257              		.global	_Z10verifyCodem
 2258              		.syntax unified
 2259              		.thumb
 2260              		.thumb_func
 2261              		.fpu softvfp
ARM GAS  C:\Users\Admin\AppData\Local\Temp\ccEsCXkX.s 			page 63


 2263              	_Z10verifyCodem:
 2264              		.fnstart
 2265              	.LVL159:
 2266              	.LFB118:
 634:Core/Src/main.cpp ****   uint32_t codes[] =
 2267              		.loc 1 634 1 is_stmt 1 view -0
 2268              		.cfi_startproc
 2269              		@ args = 0, pretend = 0, frame = 0
 2270              		@ frame_needed = 0, uses_anonymous_args = 0
 2271              		@ link register save eliminated.
 635:Core/Src/main.cpp ****       {12563593};
 2272              		.loc 1 635 3 view .LVU616
 638:Core/Src/main.cpp ****   {
 2273              		.loc 1 638 3 view .LVU617
 2274              	.LBB378:
 638:Core/Src/main.cpp ****   {
 2275              		.loc 1 638 21 is_stmt 0 view .LVU618
 2276 0000 0023     		movs	r3, #0
 2277              	.LVL160:
 2278              	.L117:
 638:Core/Src/main.cpp ****   {
 2279              		.loc 1 638 30 is_stmt 1 discriminator 1 view .LVU619
 2280 0002 23B9     		cbnz	r3, .L118
 640:Core/Src/main.cpp ****       return true;
 2281              		.loc 1 640 5 view .LVU620
 2282 0004 044A     		ldr	r2, .L120
 2283 0006 9042     		cmp	r0, r2
 2284 0008 03D0     		beq	.L119
 638:Core/Src/main.cpp ****   {
 2285              		.loc 1 638 3 discriminator 2 view .LVU621
 2286 000a 0133     		adds	r3, r3, #1
 2287              	.LVL161:
 638:Core/Src/main.cpp ****   {
 2288              		.loc 1 638 3 is_stmt 0 discriminator 2 view .LVU622
 2289 000c F9E7     		b	.L117
 2290              	.L118:
 638:Core/Src/main.cpp ****   {
 2291              		.loc 1 638 3 discriminator 2 view .LVU623
 2292              	.LBE378:
 644:Core/Src/main.cpp **** }
 2293              		.loc 1 644 10 view .LVU624
 2294 000e 0020     		movs	r0, #0
 2295              	.LVL162:
 644:Core/Src/main.cpp **** }
 2296              		.loc 1 644 10 view .LVU625
 2297 0010 7047     		bx	lr
 2298              	.LVL163:
 2299              	.L119:
 2300              	.LBB379:
 641:Core/Src/main.cpp ****   }
 2301              		.loc 1 641 14 view .LVU626
 2302 0012 0120     		movs	r0, #1
 2303              	.LVL164:
 641:Core/Src/main.cpp ****   }
 2304              		.loc 1 641 14 view .LVU627
 2305              	.LBE379:
 645:Core/Src/main.cpp **** 
ARM GAS  C:\Users\Admin\AppData\Local\Temp\ccEsCXkX.s 			page 64


 2306              		.loc 1 645 1 view .LVU628
 2307 0014 7047     		bx	lr
 2308              	.L121:
 2309 0016 00BF     		.align	2
 2310              	.L120:
 2311 0018 89B4BF00 		.word	12563593
 2312              		.cfi_endproc
 2313              	.LFE118:
 2314              		.cantunwind
 2315              		.fnend
 2317              		.section	.rodata._Z12KeyReadEventv.str1.4,"aMS",%progbits,1
 2318              		.align	2
 2319              	.LC9:
 2320 0000 25732069 		.ascii	"%s intercom was used. Key id: %d.\015\012\000"
 2320      6E746572 
 2320      636F6D20 
 2320      77617320 
 2320      75736564 
 2321              		.align	2
 2322              	.LC10:
 2323 0024 43757272 		.ascii	"Current mode is Conditionally Open. Switching to Op"
 2323      656E7420 
 2323      6D6F6465 
 2323      20697320 
 2323      436F6E64 
 2324 0057 656E2E0D 		.ascii	"en.\015\012\000"
 2324      0A00
 2325 005d 000000   		.align	2
 2326              	.LC11:
 2327 0060 41636365 		.ascii	"Acces denied, door is closed. Key id: %d.\015\012\000"
 2327      73206465 
 2327      6E696564 
 2327      2C20646F 
 2327      6F722069 
 2328              		.align	2
 2329              	.LC12:
 2330 008c 41636365 		.ascii	"Acces denied. Key is not authorized to enter. Key i"
 2330      73206465 
 2330      6E696564 
 2330      2E204B65 
 2330      79206973 
 2331 00bf 643A2025 		.ascii	"d: %d.\015\012\000"
 2331      642E0D0A 
 2331      00
 2332              		.section	.text._Z12KeyReadEventv,"ax",%progbits
 2333              		.align	1
 2334              		.global	_Z12KeyReadEventv
 2335              		.syntax unified
 2336              		.thumb
 2337              		.thumb_func
 2338              		.fpu softvfp
 2340              	_Z12KeyReadEventv:
 2341              		.fnstart
 2342              	.LFB110:
 361:Core/Src/main.cpp ****   if (wig_available() && workMode == WorkMode::NoMode)
 2343              		.loc 1 361 1 is_stmt 1 view -0
 2344              		.cfi_startproc
ARM GAS  C:\Users\Admin\AppData\Local\Temp\ccEsCXkX.s 			page 65


 2345              		@ args = 0, pretend = 0, frame = 0
 2346              		@ frame_needed = 0, uses_anonymous_args = 0
 2347 0000 10B5     		push	{r4, lr}
 2348              		.save {r4, lr}
 2349              	.LCFI19:
 2350              		.cfi_def_cfa_offset 8
 2351              		.cfi_offset 4, -8
 2352              		.cfi_offset 14, -4
 362:Core/Src/main.cpp ****   {
 2353              		.loc 1 362 3 view .LVU630
 362:Core/Src/main.cpp ****   {
 2354              		.loc 1 362 20 is_stmt 0 view .LVU631
 2355 0002 FFF7FEFF 		bl	wig_available
 2356              	.LVL165:
 362:Core/Src/main.cpp ****   {
 2357              		.loc 1 362 23 view .LVU632
 2358 0006 18B1     		cbz	r0, .L122
 362:Core/Src/main.cpp ****   {
 2359              		.loc 1 362 35 discriminator 1 view .LVU633
 2360 0008 234B     		ldr	r3, .L137
 2361 000a 1B68     		ldr	r3, [r3]
 362:Core/Src/main.cpp ****   {
 2362              		.loc 1 362 23 discriminator 1 view .LVU634
 2363 000c 042B     		cmp	r3, #4
 2364 000e 00D0     		beq	.L134
 2365              	.L122:
 388:Core/Src/main.cpp **** 
 2366              		.loc 1 388 1 view .LVU635
 2367 0010 10BD     		pop	{r4, pc}
 2368              	.L134:
 364:Core/Src/main.cpp ****     {
 2369              		.loc 1 364 5 is_stmt 1 view .LVU636
 364:Core/Src/main.cpp ****     {
 2370              		.loc 1 364 22 is_stmt 0 view .LVU637
 2371 0012 224B     		ldr	r3, .L137+4
 2372 0014 1B68     		ldr	r3, [r3]
 364:Core/Src/main.cpp ****     {
 2373              		.loc 1 364 50 view .LVU638
 2374 0016 012B     		cmp	r3, #1
 2375 0018 15D1     		bne	.L135
 2376              	.L124:
 378:Core/Src/main.cpp ****                                                  : UART_Printf("Acces denied. Key is not authorized
 2377              		.loc 1 378 7 is_stmt 1 discriminator 4 view .LVU639
 378:Core/Src/main.cpp ****                                                  : UART_Printf("Acces denied. Key is not authorized
 2378              		.loc 1 378 21 is_stmt 0 discriminator 4 view .LVU640
 2379 001a 204B     		ldr	r3, .L137+4
 2380 001c 1B68     		ldr	r3, [r3]
 378:Core/Src/main.cpp ****                                                  : UART_Printf("Acces denied. Key is not authorized
 2381              		.loc 1 378 50 discriminator 4 view .LVU641
 2382 001e 012B     		cmp	r3, #1
 2383 0020 32D0     		beq	.L136
 379:Core/Src/main.cpp **** 
 2384              		.loc 1 379 63 view .LVU642
 2385 0022 FFF7FEFF 		bl	getCode
 2386              	.LVL166:
 2387 0026 0146     		mov	r1, r0
 2388 0028 1D48     		ldr	r0, .L137+8
ARM GAS  C:\Users\Admin\AppData\Local\Temp\ccEsCXkX.s 			page 66


 2389 002a FFF7FEFF 		bl	_Z11UART_PrintfPKcz
 2390              	.LVL167:
 2391              	.L130:
 381:Core/Src/main.cpp ****       workMode = WorkMode::DenyMode;
 2392              		.loc 1 381 7 is_stmt 1 view .LVU643
 381:Core/Src/main.cpp ****       workMode = WorkMode::DenyMode;
 2393              		.loc 1 381 24 is_stmt 0 view .LVU644
 2394 002e 1A4B     		ldr	r3, .L137
 2395 0030 1968     		ldr	r1, [r3]
 2396 0032 1C4A     		ldr	r2, .L137+12
 2397 0034 1160     		str	r1, [r2]
 382:Core/Src/main.cpp ****     }
 2398              		.loc 1 382 7 is_stmt 1 view .LVU645
 382:Core/Src/main.cpp ****     }
 2399              		.loc 1 382 16 is_stmt 0 view .LVU646
 2400 0036 0122     		movs	r2, #1
 2401 0038 1A60     		str	r2, [r3]
 2402              	.L129:
 385:Core/Src/main.cpp ****     outsideKeyRead = false;
 2403              		.loc 1 385 5 is_stmt 1 view .LVU647
 385:Core/Src/main.cpp ****     outsideKeyRead = false;
 2404              		.loc 1 385 19 is_stmt 0 view .LVU648
 2405 003a 0023     		movs	r3, #0
 2406 003c 1A4A     		ldr	r2, .L137+16
 2407 003e 1370     		strb	r3, [r2]
 386:Core/Src/main.cpp ****   }
 2408              		.loc 1 386 5 is_stmt 1 view .LVU649
 386:Core/Src/main.cpp ****   }
 2409              		.loc 1 386 20 is_stmt 0 view .LVU650
 2410 0040 1A4A     		ldr	r2, .L137+20
 2411 0042 1370     		strb	r3, [r2]
 388:Core/Src/main.cpp **** 
 2412              		.loc 1 388 1 view .LVU651
 2413 0044 E4E7     		b	.L122
 2414              	.L135:
 364:Core/Src/main.cpp ****     {
 2415              		.loc 1 364 63 discriminator 1 view .LVU652
 2416 0046 FFF7FEFF 		bl	getCode
 2417              	.LVL168:
 2418 004a FFF7FEFF 		bl	_Z10verifyCodem
 2419              	.LVL169:
 364:Core/Src/main.cpp ****     {
 2420              		.loc 1 364 50 discriminator 1 view .LVU653
 2421 004e 0028     		cmp	r0, #0
 2422 0050 E3D0     		beq	.L124
 366:Core/Src/main.cpp **** 
 2423              		.loc 1 366 7 is_stmt 1 view .LVU654
 366:Core/Src/main.cpp **** 
 2424              		.loc 1 366 18 is_stmt 0 view .LVU655
 2425 0052 154B     		ldr	r3, .L137+16
 2426 0054 1B78     		ldrb	r3, [r3]	@ zero_extendqisi2
 2427 0056 ABB1     		cbz	r3, .L131
 2428 0058 154C     		ldr	r4, .L137+24
 2429              	.L128:
 366:Core/Src/main.cpp **** 
 2430              		.loc 1 366 18 discriminator 4 view .LVU656
 2431 005a FFF7FEFF 		bl	getCode
ARM GAS  C:\Users\Admin\AppData\Local\Temp\ccEsCXkX.s 			page 67


 2432              	.LVL170:
 2433 005e 0246     		mov	r2, r0
 2434 0060 2146     		mov	r1, r4
 2435 0062 1448     		ldr	r0, .L137+28
 2436 0064 FFF7FEFF 		bl	_Z11UART_PrintfPKcz
 2437              	.LVL171:
 368:Core/Src/main.cpp **** 
 2438              		.loc 1 368 7 is_stmt 1 discriminator 4 view .LVU657
 368:Core/Src/main.cpp **** 
 2439              		.loc 1 368 16 is_stmt 0 discriminator 4 view .LVU658
 2440 0068 0B4B     		ldr	r3, .L137
 2441 006a 0022     		movs	r2, #0
 2442 006c 1A60     		str	r2, [r3]
 370:Core/Src/main.cpp ****       {
 2443              		.loc 1 370 7 is_stmt 1 discriminator 4 view .LVU659
 370:Core/Src/main.cpp ****       {
 2444              		.loc 1 370 24 is_stmt 0 discriminator 4 view .LVU660
 2445 006e 0B4B     		ldr	r3, .L137+4
 2446 0070 1B68     		ldr	r3, [r3]
 370:Core/Src/main.cpp ****       {
 2447              		.loc 1 370 7 discriminator 4 view .LVU661
 2448 0072 032B     		cmp	r3, #3
 2449 0074 E1D1     		bne	.L129
 372:Core/Src/main.cpp ****         intercomMode = IntercomMode::OpenMode;
 2450              		.loc 1 372 9 is_stmt 1 view .LVU662
 372:Core/Src/main.cpp ****         intercomMode = IntercomMode::OpenMode;
 2451              		.loc 1 372 20 is_stmt 0 view .LVU663
 2452 0076 1048     		ldr	r0, .L137+32
 2453 0078 FFF7FEFF 		bl	_Z11UART_PrintfPKcz
 2454              	.LVL172:
 373:Core/Src/main.cpp ****       }
 2455              		.loc 1 373 9 is_stmt 1 view .LVU664
 373:Core/Src/main.cpp ****       }
 2456              		.loc 1 373 22 is_stmt 0 view .LVU665
 2457 007c 074B     		ldr	r3, .L137+4
 2458 007e 0222     		movs	r2, #2
 2459 0080 1A60     		str	r2, [r3]
 2460 0082 DAE7     		b	.L129
 2461              	.L131:
 366:Core/Src/main.cpp **** 
 2462              		.loc 1 366 18 view .LVU666
 2463 0084 0D4C     		ldr	r4, .L137+36
 2464 0086 E8E7     		b	.L128
 2465              	.L136:
 378:Core/Src/main.cpp ****                                                  : UART_Printf("Acces denied. Key is not authorized
 2466              		.loc 1 378 63 discriminator 1 view .LVU667
 2467 0088 FFF7FEFF 		bl	getCode
 2468              	.LVL173:
 2469 008c 0146     		mov	r1, r0
 2470 008e 0C48     		ldr	r0, .L137+40
 2471 0090 FFF7FEFF 		bl	_Z11UART_PrintfPKcz
 2472              	.LVL174:
 2473 0094 CBE7     		b	.L130
 2474              	.L138:
 2475 0096 00BF     		.align	2
 2476              	.L137:
 2477 0098 00000000 		.word	.LANCHOR10
ARM GAS  C:\Users\Admin\AppData\Local\Temp\ccEsCXkX.s 			page 68


 2478 009c 00000000 		.word	.LANCHOR29
 2479 00a0 8C000000 		.word	.LC12
 2480 00a4 00000000 		.word	.LANCHOR12
 2481 00a8 00000000 		.word	.LANCHOR17
 2482 00ac 00000000 		.word	.LANCHOR18
 2483 00b0 08000000 		.word	.LC5
 2484 00b4 00000000 		.word	.LC9
 2485 00b8 24000000 		.word	.LC10
 2486 00bc 00000000 		.word	.LC4
 2487 00c0 60000000 		.word	.LC11
 2488              		.cfi_endproc
 2489              	.LFE110:
 2490              		.fnend
 2492              		.section	.rodata._Z10AlarmEventv.str1.4,"aMS",%progbits,1
 2493              		.align	2
 2494              	.LC13:
 2495 0000 556E6175 		.ascii	"Unauthorized access. Triggered alarm.\015\012\000"
 2495      74686F72 
 2495      697A6564 
 2495      20616363 
 2495      6573732E 
 2496              		.section	.text._Z10AlarmEventv,"ax",%progbits
 2497              		.align	1
 2498              		.global	_Z10AlarmEventv
 2499              		.syntax unified
 2500              		.thumb
 2501              		.thumb_func
 2502              		.fpu softvfp
 2504              	_Z10AlarmEventv:
 2505              		.fnstart
 2506              	.LFB115:
 523:Core/Src/main.cpp ****   if (workMode == WorkMode::AlarmMode)
 2507              		.loc 1 523 1 is_stmt 1 view -0
 2508              		.cfi_startproc
 2509              		@ args = 0, pretend = 0, frame = 0
 2510              		@ frame_needed = 0, uses_anonymous_args = 0
 2511 0000 08B5     		push	{r3, lr}
 2512              		.save {r3, lr}
 2513              	.LCFI20:
 2514              		.cfi_def_cfa_offset 8
 2515              		.cfi_offset 3, -8
 2516              		.cfi_offset 14, -4
 524:Core/Src/main.cpp ****   {
 2517              		.loc 1 524 3 view .LVU669
 2518              	.LBB380:
 524:Core/Src/main.cpp ****   {
 2519              		.loc 1 524 16 is_stmt 0 view .LVU670
 2520 0002 344B     		ldr	r3, .L149
 2521 0004 1B68     		ldr	r3, [r3]
 524:Core/Src/main.cpp ****   {
 2522              		.loc 1 524 3 view .LVU671
 2523 0006 032B     		cmp	r3, #3
 2524 0008 00D0     		beq	.L146
 2525              	.L139:
 2526              	.LBE380:
 553:Core/Src/main.cpp **** 
 2527              		.loc 1 553 1 view .LVU672
ARM GAS  C:\Users\Admin\AppData\Local\Temp\ccEsCXkX.s 			page 69


 2528 000a 08BD     		pop	{r3, pc}
 2529              	.L146:
 2530              	.LBB398:
 2531              	.LBB381:
 526:Core/Src/main.cpp ****     static bool firstTime = true;
 2532              		.loc 1 526 5 is_stmt 1 view .LVU673
 526:Core/Src/main.cpp ****     static bool firstTime = true;
 2533              		.loc 1 526 33 is_stmt 0 view .LVU674
 2534 000c 324B     		ldr	r3, .L149+4
 2535 000e 1B78     		ldrb	r3, [r3]	@ zero_extendqisi2
 2536 0010 BFF35B8F 		dmb	ish
 2537 0014 13F0010F 		tst	r3, #1
 2538 0018 2ED0     		beq	.L147
 2539              	.L141:
 527:Core/Src/main.cpp **** 
 2540              		.loc 1 527 5 is_stmt 1 view .LVU675
 529:Core/Src/main.cpp ****     {
 2541              		.loc 1 529 5 view .LVU676
 2542 001a 304B     		ldr	r3, .L149+8
 2543 001c 1B78     		ldrb	r3, [r3]	@ zero_extendqisi2
 2544 001e 002B     		cmp	r3, #0
 2545 0020 37D1     		bne	.L148
 2546              	.L142:
 536:Core/Src/main.cpp ****     {
 2547              		.loc 1 536 5 view .LVU677
 536:Core/Src/main.cpp ****     {
 2548              		.loc 1 536 20 is_stmt 0 view .LVU678
 2549 0022 FFF7FEFF 		bl	HAL_GetTick
 2550              	.LVL175:
 2551              	.LBB382:
 2552              	.LBI382:
  38:Core/Inc/Timer.h ****     {
 2553              		.loc 5 38 14 is_stmt 1 view .LVU679
 2554              	.LBB383:
 2555              		.loc 5 40 9 view .LVU680
 2556              		.loc 5 40 22 is_stmt 0 view .LVU681
 2557 0026 2E4B     		ldr	r3, .L149+12
 2558 0028 5B68     		ldr	r3, [r3, #4]
 2559              	.LVL176:
 2560              		.loc 5 40 22 view .LVU682
 2561              	.LBE383:
 2562              	.LBE382:
 536:Core/Src/main.cpp ****     {
 2563              		.loc 1 536 23 view .LVU683
 2564 002a C01A     		subs	r0, r0, r3
 536:Core/Src/main.cpp ****     {
 2565              		.loc 1 536 5 view .LVU684
 2566 002c B0F57A7F 		cmp	r0, #1000
 2567 0030 3AD9     		bls	.L143
 538:Core/Src/main.cpp ****       siren.turnOn();
 2568              		.loc 1 538 7 is_stmt 1 view .LVU685
 2569              	.LVL177:
 2570              	.LBB384:
 2571              	.LBI384:
  33:Core/Inc/Timer.h ****     {
 2572              		.loc 5 33 10 view .LVU686
 2573              	.LBB385:
ARM GAS  C:\Users\Admin\AppData\Local\Temp\ccEsCXkX.s 			page 70


  35:Core/Inc/Timer.h ****     }
 2574              		.loc 5 35 9 view .LVU687
  35:Core/Inc/Timer.h ****     }
 2575              		.loc 5 35 37 is_stmt 0 view .LVU688
 2576 0032 FFF7FEFF 		bl	HAL_GetTick
 2577              	.LVL178:
  35:Core/Inc/Timer.h ****     }
 2578              		.loc 5 35 24 view .LVU689
 2579 0036 2A4B     		ldr	r3, .L149+12
 2580 0038 5860     		str	r0, [r3, #4]
 2581              	.LVL179:
  35:Core/Inc/Timer.h ****     }
 2582              		.loc 5 35 24 view .LVU690
 2583              	.LBE385:
 2584              	.LBE384:
 539:Core/Src/main.cpp ****     }
 2585              		.loc 1 539 7 is_stmt 1 view .LVU691
 539:Core/Src/main.cpp ****     }
 2586              		.loc 1 539 19 is_stmt 0 view .LVU692
 2587 003a 2A48     		ldr	r0, .L149+16
 2588 003c FFF7FEFF 		bl	_ZN6PinOut6turnOnEv
 2589              	.LVL180:
 2590              	.L144:
 546:Core/Src/main.cpp ****     {
 2591              		.loc 1 546 5 is_stmt 1 view .LVU693
 546:Core/Src/main.cpp ****     {
 2592              		.loc 1 546 20 is_stmt 0 view .LVU694
 2593 0040 FFF7FEFF 		bl	HAL_GetTick
 2594              	.LVL181:
 2595              	.LBB386:
 2596              	.LBI386:
  28:Core/Inc/Timer.h ****     {
 2597              		.loc 5 28 14 is_stmt 1 view .LVU695
 2598              	.LBB387:
  30:Core/Inc/Timer.h ****     }
 2599              		.loc 5 30 9 view .LVU696
  30:Core/Inc/Timer.h ****     }
 2600              		.loc 5 30 22 is_stmt 0 view .LVU697
 2601 0044 264B     		ldr	r3, .L149+12
 2602 0046 1B68     		ldr	r3, [r3]
 2603              	.LVL182:
  30:Core/Inc/Timer.h ****     }
 2604              		.loc 5 30 22 view .LVU698
 2605              	.LBE387:
 2606              	.LBE386:
 546:Core/Src/main.cpp ****     {
 2607              		.loc 1 546 23 view .LVU699
 2608 0048 C01A     		subs	r0, r0, r3
 546:Core/Src/main.cpp ****     {
 2609              		.loc 1 546 58 view .LVU700
 2610 004a B0F5FA6F 		cmp	r0, #2000
 2611 004e DCD9     		bls	.L139
 546:Core/Src/main.cpp ****     {
 2612              		.loc 1 546 76 discriminator 1 view .LVU701
 2613 0050 FFF7FEFF 		bl	wig_available
 2614              	.LVL183:
 546:Core/Src/main.cpp ****     {
ARM GAS  C:\Users\Admin\AppData\Local\Temp\ccEsCXkX.s 			page 71


 2615              		.loc 1 546 58 discriminator 1 view .LVU702
 2616 0054 0028     		cmp	r0, #0
 2617 0056 D8D0     		beq	.L139
 546:Core/Src/main.cpp ****     {
 2618              		.loc 1 546 92 discriminator 3 view .LVU703
 2619 0058 FFF7FEFF 		bl	getCode
 2620              	.LVL184:
 2621 005c FFF7FEFF 		bl	_Z10verifyCodem
 2622              	.LVL185:
 546:Core/Src/main.cpp ****     {
 2623              		.loc 1 546 79 discriminator 3 view .LVU704
 2624 0060 0028     		cmp	r0, #0
 2625 0062 D2D0     		beq	.L139
 548:Core/Src/main.cpp ****       siren.turnOff();
 2626              		.loc 1 548 7 is_stmt 1 view .LVU705
 548:Core/Src/main.cpp ****       siren.turnOff();
 2627              		.loc 1 548 16 is_stmt 0 view .LVU706
 2628 0064 1B4B     		ldr	r3, .L149
 2629 0066 0022     		movs	r2, #0
 2630 0068 1A60     		str	r2, [r3]
 549:Core/Src/main.cpp ****       firstTime = true;
 2631              		.loc 1 549 7 is_stmt 1 view .LVU707
 549:Core/Src/main.cpp ****       firstTime = true;
 2632              		.loc 1 549 20 is_stmt 0 view .LVU708
 2633 006a 1E48     		ldr	r0, .L149+16
 2634 006c FFF7FEFF 		bl	_ZN6PinOut7turnOffEv
 2635              	.LVL186:
 550:Core/Src/main.cpp ****     }
 2636              		.loc 1 550 7 is_stmt 1 view .LVU709
 550:Core/Src/main.cpp ****     }
 2637              		.loc 1 550 17 is_stmt 0 view .LVU710
 2638 0070 1A4B     		ldr	r3, .L149+8
 2639 0072 0122     		movs	r2, #1
 2640 0074 1A70     		strb	r2, [r3]
 2641              	.LBE381:
 2642              	.LBE398:
 553:Core/Src/main.cpp **** 
 2643              		.loc 1 553 1 view .LVU711
 2644 0076 C8E7     		b	.L139
 2645              	.L147:
 2646              	.LBB399:
 2647              	.LBB397:
 526:Core/Src/main.cpp ****     static bool firstTime = true;
 2648              		.loc 1 526 33 discriminator 1 view .LVU712
 2649 0078 1748     		ldr	r0, .L149+4
 2650 007a FFF7FEFF 		bl	__cxa_guard_acquire
 2651              	.LVL187:
 2652 007e 0028     		cmp	r0, #0
 2653 0080 CBD0     		beq	.L141
 2654              	.LVL188:
 2655              	.LBB388:
 2656              	.LBI388:
  17:Core/Inc/Timer.h ****     {
 2657              		.loc 5 17 5 is_stmt 1 discriminator 2 view .LVU713
 2658              	.LBB389:
 2659              	.LBB390:
  19:Core/Inc/Timer.h ****         this->lastTick = lastTick;
ARM GAS  C:\Users\Admin\AppData\Local\Temp\ccEsCXkX.s 			page 72


 2660              		.loc 5 19 9 discriminator 2 view .LVU714
  19:Core/Inc/Timer.h ****         this->lastTick = lastTick;
 2661              		.loc 5 19 25 is_stmt 0 discriminator 2 view .LVU715
 2662 0082 174B     		ldr	r3, .L149+12
 2663 0084 0022     		movs	r2, #0
 2664 0086 1A60     		str	r2, [r3]
  20:Core/Inc/Timer.h ****     }
 2665              		.loc 5 20 9 is_stmt 1 discriminator 2 view .LVU716
  20:Core/Inc/Timer.h ****     }
 2666              		.loc 5 20 24 is_stmt 0 discriminator 2 view .LVU717
 2667 0088 5A60     		str	r2, [r3, #4]
 2668              	.LVL189:
  20:Core/Inc/Timer.h ****     }
 2669              		.loc 5 20 24 discriminator 2 view .LVU718
 2670              	.LBE390:
 2671              	.LBE389:
 2672              	.LBE388:
 526:Core/Src/main.cpp ****     static bool firstTime = true;
 2673              		.loc 1 526 33 discriminator 2 view .LVU719
 2674 008a 1348     		ldr	r0, .L149+4
 2675 008c FFF7FEFF 		bl	__cxa_guard_release
 2676              	.LVL190:
 2677 0090 C3E7     		b	.L141
 2678              	.L148:
 531:Core/Src/main.cpp ****       alarmTimer.start();
 2679              		.loc 1 531 7 is_stmt 1 view .LVU720
 531:Core/Src/main.cpp ****       alarmTimer.start();
 2680              		.loc 1 531 18 is_stmt 0 view .LVU721
 2681 0092 1548     		ldr	r0, .L149+20
 2682 0094 FFF7FEFF 		bl	_Z11UART_PrintfPKcz
 2683              	.LVL191:
 532:Core/Src/main.cpp ****       firstTime = false;
 2684              		.loc 1 532 7 is_stmt 1 view .LVU722
 2685              	.LBB391:
 2686              	.LBI391:
  23:Core/Inc/Timer.h ****     {
 2687              		.loc 5 23 10 view .LVU723
 2688              	.LBB392:
  25:Core/Inc/Timer.h ****     }
 2689              		.loc 5 25 9 view .LVU724
  25:Core/Inc/Timer.h ****     }
 2690              		.loc 5 25 38 is_stmt 0 view .LVU725
 2691 0098 FFF7FEFF 		bl	HAL_GetTick
 2692              	.LVL192:
  25:Core/Inc/Timer.h ****     }
 2693              		.loc 5 25 25 view .LVU726
 2694 009c 104B     		ldr	r3, .L149+12
 2695 009e 1860     		str	r0, [r3]
 2696              	.LVL193:
  25:Core/Inc/Timer.h ****     }
 2697              		.loc 5 25 25 view .LVU727
 2698              	.LBE392:
 2699              	.LBE391:
 533:Core/Src/main.cpp ****     }
 2700              		.loc 1 533 7 is_stmt 1 view .LVU728
 533:Core/Src/main.cpp ****     }
 2701              		.loc 1 533 17 is_stmt 0 view .LVU729
ARM GAS  C:\Users\Admin\AppData\Local\Temp\ccEsCXkX.s 			page 73


 2702 00a0 0E4B     		ldr	r3, .L149+8
 2703 00a2 0022     		movs	r2, #0
 2704 00a4 1A70     		strb	r2, [r3]
 2705 00a6 BCE7     		b	.L142
 2706              	.L143:
 541:Core/Src/main.cpp ****     {
 2707              		.loc 1 541 10 is_stmt 1 view .LVU730
 541:Core/Src/main.cpp ****     {
 2708              		.loc 1 541 25 is_stmt 0 view .LVU731
 2709 00a8 FFF7FEFF 		bl	HAL_GetTick
 2710              	.LVL194:
 2711              	.LBB393:
 2712              	.LBI393:
  38:Core/Inc/Timer.h ****     {
 2713              		.loc 5 38 14 is_stmt 1 view .LVU732
 2714              	.LBB394:
 2715              		.loc 5 40 9 view .LVU733
 2716              		.loc 5 40 22 is_stmt 0 view .LVU734
 2717 00ac 0C4B     		ldr	r3, .L149+12
 2718 00ae 5B68     		ldr	r3, [r3, #4]
 2719              	.LVL195:
 2720              		.loc 5 40 22 view .LVU735
 2721              	.LBE394:
 2722              	.LBE393:
 541:Core/Src/main.cpp ****     {
 2723              		.loc 1 541 28 view .LVU736
 2724 00b0 C01A     		subs	r0, r0, r3
 541:Core/Src/main.cpp ****     {
 2725              		.loc 1 541 62 view .LVU737
 2726 00b2 B0F57A7F 		cmp	r0, #1000
 2727 00b6 C3D2     		bcs	.L144
 541:Core/Src/main.cpp ****     {
 2728              		.loc 1 541 76 discriminator 1 view .LVU738
 2729 00b8 FFF7FEFF 		bl	HAL_GetTick
 2730              	.LVL196:
 2731              	.LBB395:
 2732              	.LBI395:
  38:Core/Inc/Timer.h ****     {
 2733              		.loc 5 38 14 is_stmt 1 discriminator 1 view .LVU739
 2734              	.LBB396:
 2735              		.loc 5 40 9 discriminator 1 view .LVU740
 2736              		.loc 5 40 22 is_stmt 0 discriminator 1 view .LVU741
 2737 00bc 084B     		ldr	r3, .L149+12
 2738 00be 5B68     		ldr	r3, [r3, #4]
 2739              	.LVL197:
 2740              		.loc 5 40 22 discriminator 1 view .LVU742
 2741              	.LBE396:
 2742              	.LBE395:
 541:Core/Src/main.cpp ****     {
 2743              		.loc 1 541 79 discriminator 1 view .LVU743
 2744 00c0 C01A     		subs	r0, r0, r3
 541:Core/Src/main.cpp ****     {
 2745              		.loc 1 541 62 discriminator 1 view .LVU744
 2746 00c2 40F2EE23 		movw	r3, #750
 2747 00c6 9842     		cmp	r0, r3
 2748 00c8 BAD9     		bls	.L144
 543:Core/Src/main.cpp ****     }
ARM GAS  C:\Users\Admin\AppData\Local\Temp\ccEsCXkX.s 			page 74


 2749              		.loc 1 543 7 is_stmt 1 view .LVU745
 543:Core/Src/main.cpp ****     }
 2750              		.loc 1 543 20 is_stmt 0 view .LVU746
 2751 00ca 0648     		ldr	r0, .L149+16
 2752 00cc FFF7FEFF 		bl	_ZN6PinOut7turnOffEv
 2753              	.LVL198:
 2754 00d0 B6E7     		b	.L144
 2755              	.L150:
 2756 00d2 00BF     		.align	2
 2757              	.L149:
 2758 00d4 00000000 		.word	.LANCHOR10
 2759 00d8 00000000 		.word	.LANCHOR30
 2760 00dc 00000000 		.word	.LANCHOR32
 2761 00e0 00000000 		.word	.LANCHOR31
 2762 00e4 00000000 		.word	.LANCHOR2
 2763 00e8 00000000 		.word	.LC13
 2764              	.LBE397:
 2765              	.LBE399:
 2766              		.cfi_endproc
 2767              	.LFE115:
 2768              		.fnend
 2770              		.section	.rodata._Z10switchModev.str1.4,"aMS",%progbits,1
 2771              		.align	2
 2772              	.LC14:
 2773 0000 0A537769 		.ascii	"\012Switched to Closed mode.\015\012\000"
 2773      74636865 
 2773      6420746F 
 2773      20436C6F 
 2773      73656420 
 2774              		.align	2
 2775              	.LC15:
 2776 001c 0A537769 		.ascii	"\012Switched to Open mode.\015\012\000"
 2776      74636865 
 2776      6420746F 
 2776      204F7065 
 2776      6E206D6F 
 2777 0036 0000     		.align	2
 2778              	.LC16:
 2779 0038 0A537769 		.ascii	"\012Switched to CondOpen mode.\015\012\000"
 2779      74636865 
 2779      6420746F 
 2779      20436F6E 
 2779      644F7065 
 2780 0056 0000     		.align	2
 2781              	.LC17:
 2782 0058 0A537769 		.ascii	"\012Switched to Normal mode.\015\012\000"
 2782      74636865 
 2782      6420746F 
 2782      204E6F72 
 2782      6D616C20 
 2783              		.align	2
 2784              	.LC18:
 2785 0074 556E6B6E 		.ascii	"Unknown mode, switched to normal.\015\012\000"
 2785      6F776E20 
 2785      6D6F6465 
 2785      2C207377 
 2785      69746368 
ARM GAS  C:\Users\Admin\AppData\Local\Temp\ccEsCXkX.s 			page 75


 2786              		.section	.text._Z10switchModev,"ax",%progbits
 2787              		.align	1
 2788              		.global	_Z10switchModev
 2789              		.syntax unified
 2790              		.thumb
 2791              		.thumb_func
 2792              		.fpu softvfp
 2794              	_Z10switchModev:
 2795              		.fnstart
 2796              	.LFB119:
 648:Core/Src/main.cpp ****   switch (intercomMode)
 2797              		.loc 1 648 1 is_stmt 1 view -0
 2798              		.cfi_startproc
 2799              		@ args = 0, pretend = 0, frame = 0
 2800              		@ frame_needed = 0, uses_anonymous_args = 0
 2801 0000 08B5     		push	{r3, lr}
 2802              		.save {r3, lr}
 2803              	.LCFI21:
 2804              		.cfi_def_cfa_offset 8
 2805              		.cfi_offset 3, -8
 2806              		.cfi_offset 14, -4
 649:Core/Src/main.cpp ****   {
 2807              		.loc 1 649 3 view .LVU748
 2808 0002 1D4B     		ldr	r3, .L160
 2809 0004 1B68     		ldr	r3, [r3]
 2810 0006 032B     		cmp	r3, #3
 2811 0008 2BD8     		bhi	.L152
 2812 000a DFE803F0 		tbb	[pc, r3]
 2813              	.L154:
 2814 000e 02       		.byte	(.L157-.L154)/2
 2815 000f 0C       		.byte	(.L156-.L154)/2
 2816 0010 16       		.byte	(.L155-.L154)/2
 2817 0011 20       		.byte	(.L153-.L154)/2
 2818              		.p2align 1
 2819              	.L157:
 651:Core/Src/main.cpp ****   {
 2820              		.loc 1 651 3 view .LVU749
 652:Core/Src/main.cpp ****     UART_Printf("\nSwitched to Closed mode.\r\n");
 2821              		.loc 1 652 3 view .LVU750
 653:Core/Src/main.cpp ****     intercomMode = IntercomMode::ClosedMode;
 2822              		.loc 1 653 5 view .LVU751
 653:Core/Src/main.cpp ****     intercomMode = IntercomMode::ClosedMode;
 2823              		.loc 1 653 16 is_stmt 0 view .LVU752
 2824 0012 1A48     		ldr	r0, .L160+4
 2825 0014 FFF7FEFF 		bl	_Z11UART_PrintfPKcz
 2826              	.LVL199:
 654:Core/Src/main.cpp ****     lock.turnOff();
 2827              		.loc 1 654 5 is_stmt 1 view .LVU753
 654:Core/Src/main.cpp ****     lock.turnOff();
 2828              		.loc 1 654 18 is_stmt 0 view .LVU754
 2829 0018 174B     		ldr	r3, .L160
 2830 001a 0122     		movs	r2, #1
 2831 001c 1A60     		str	r2, [r3]
 655:Core/Src/main.cpp ****     break;
 2832              		.loc 1 655 5 is_stmt 1 view .LVU755
 655:Core/Src/main.cpp ****     break;
 2833              		.loc 1 655 17 is_stmt 0 view .LVU756
ARM GAS  C:\Users\Admin\AppData\Local\Temp\ccEsCXkX.s 			page 76


 2834 001e 1848     		ldr	r0, .L160+8
 2835 0020 FFF7FEFF 		bl	_ZN6PinOut7turnOffEv
 2836              	.LVL200:
 656:Core/Src/main.cpp ****   }
 2837              		.loc 1 656 5 is_stmt 1 view .LVU757
 2838              	.L151:
 689:Core/Src/main.cpp **** 
 2839              		.loc 1 689 1 is_stmt 0 view .LVU758
 2840 0024 08BD     		pop	{r3, pc}
 2841              	.L156:
 658:Core/Src/main.cpp ****   {
 2842              		.loc 1 658 3 is_stmt 1 view .LVU759
 659:Core/Src/main.cpp ****     UART_Printf("\nSwitched to Open mode.\r\n");
 2843              		.loc 1 659 3 view .LVU760
 660:Core/Src/main.cpp ****     intercomMode = IntercomMode::OpenMode;
 2844              		.loc 1 660 5 view .LVU761
 660:Core/Src/main.cpp ****     intercomMode = IntercomMode::OpenMode;
 2845              		.loc 1 660 16 is_stmt 0 view .LVU762
 2846 0026 1748     		ldr	r0, .L160+12
 2847 0028 FFF7FEFF 		bl	_Z11UART_PrintfPKcz
 2848              	.LVL201:
 661:Core/Src/main.cpp ****     lock.turnOn();
 2849              		.loc 1 661 5 is_stmt 1 view .LVU763
 661:Core/Src/main.cpp ****     lock.turnOn();
 2850              		.loc 1 661 18 is_stmt 0 view .LVU764
 2851 002c 124B     		ldr	r3, .L160
 2852 002e 0222     		movs	r2, #2
 2853 0030 1A60     		str	r2, [r3]
 662:Core/Src/main.cpp ****     break;
 2854              		.loc 1 662 5 is_stmt 1 view .LVU765
 662:Core/Src/main.cpp ****     break;
 2855              		.loc 1 662 16 is_stmt 0 view .LVU766
 2856 0032 1348     		ldr	r0, .L160+8
 2857 0034 FFF7FEFF 		bl	_ZN6PinOut6turnOnEv
 2858              	.LVL202:
 663:Core/Src/main.cpp ****   }
 2859              		.loc 1 663 5 is_stmt 1 view .LVU767
 2860 0038 F4E7     		b	.L151
 2861              	.L155:
 665:Core/Src/main.cpp ****   {
 2862              		.loc 1 665 3 view .LVU768
 666:Core/Src/main.cpp ****     UART_Printf("\nSwitched to CondOpen mode.\r\n");
 2863              		.loc 1 666 3 view .LVU769
 667:Core/Src/main.cpp ****     intercomMode = IntercomMode::CondOpenMode;
 2864              		.loc 1 667 5 view .LVU770
 667:Core/Src/main.cpp ****     intercomMode = IntercomMode::CondOpenMode;
 2865              		.loc 1 667 16 is_stmt 0 view .LVU771
 2866 003a 1348     		ldr	r0, .L160+16
 2867 003c FFF7FEFF 		bl	_Z11UART_PrintfPKcz
 2868              	.LVL203:
 668:Core/Src/main.cpp ****     lock.turnOff();
 2869              		.loc 1 668 5 is_stmt 1 view .LVU772
 668:Core/Src/main.cpp ****     lock.turnOff();
 2870              		.loc 1 668 18 is_stmt 0 view .LVU773
 2871 0040 0D4B     		ldr	r3, .L160
 2872 0042 0322     		movs	r2, #3
 2873 0044 1A60     		str	r2, [r3]
ARM GAS  C:\Users\Admin\AppData\Local\Temp\ccEsCXkX.s 			page 77


 669:Core/Src/main.cpp ****     break;
 2874              		.loc 1 669 5 is_stmt 1 view .LVU774
 669:Core/Src/main.cpp ****     break;
 2875              		.loc 1 669 17 is_stmt 0 view .LVU775
 2876 0046 0E48     		ldr	r0, .L160+8
 2877 0048 FFF7FEFF 		bl	_ZN6PinOut7turnOffEv
 2878              	.LVL204:
 670:Core/Src/main.cpp ****   }
 2879              		.loc 1 670 5 is_stmt 1 view .LVU776
 2880 004c EAE7     		b	.L151
 2881              	.L153:
 672:Core/Src/main.cpp ****   {
 2882              		.loc 1 672 3 view .LVU777
 673:Core/Src/main.cpp ****     UART_Printf("\nSwitched to Normal mode.\r\n");
 2883              		.loc 1 673 3 view .LVU778
 674:Core/Src/main.cpp ****     intercomMode = IntercomMode::NormalMode;
 2884              		.loc 1 674 5 view .LVU779
 674:Core/Src/main.cpp ****     intercomMode = IntercomMode::NormalMode;
 2885              		.loc 1 674 16 is_stmt 0 view .LVU780
 2886 004e 0F48     		ldr	r0, .L160+20
 2887 0050 FFF7FEFF 		bl	_Z11UART_PrintfPKcz
 2888              	.LVL205:
 675:Core/Src/main.cpp ****     lock.turnOff();
 2889              		.loc 1 675 5 is_stmt 1 view .LVU781
 675:Core/Src/main.cpp ****     lock.turnOff();
 2890              		.loc 1 675 18 is_stmt 0 view .LVU782
 2891 0054 084B     		ldr	r3, .L160
 2892 0056 0022     		movs	r2, #0
 2893 0058 1A60     		str	r2, [r3]
 676:Core/Src/main.cpp ****     break;
 2894              		.loc 1 676 5 is_stmt 1 view .LVU783
 676:Core/Src/main.cpp ****     break;
 2895              		.loc 1 676 17 is_stmt 0 view .LVU784
 2896 005a 0948     		ldr	r0, .L160+8
 2897 005c FFF7FEFF 		bl	_ZN6PinOut7turnOffEv
 2898              	.LVL206:
 677:Core/Src/main.cpp ****   }
 2899              		.loc 1 677 5 is_stmt 1 view .LVU785
 2900 0060 E0E7     		b	.L151
 2901              	.L152:
 679:Core/Src/main.cpp ****   {
 2902              		.loc 1 679 3 view .LVU786
 680:Core/Src/main.cpp ****     UART_Printf("Unknown mode, switched to normal.\r\n");
 2903              		.loc 1 680 3 view .LVU787
 681:Core/Src/main.cpp ****     intercomMode = IntercomMode::NormalMode;
 2904              		.loc 1 681 5 view .LVU788
 681:Core/Src/main.cpp ****     intercomMode = IntercomMode::NormalMode;
 2905              		.loc 1 681 16 is_stmt 0 view .LVU789
 2906 0062 0B48     		ldr	r0, .L160+24
 2907 0064 FFF7FEFF 		bl	_Z11UART_PrintfPKcz
 2908              	.LVL207:
 682:Core/Src/main.cpp ****     lock.turnOff();
 2909              		.loc 1 682 5 is_stmt 1 view .LVU790
 682:Core/Src/main.cpp ****     lock.turnOff();
 2910              		.loc 1 682 18 is_stmt 0 view .LVU791
 2911 0068 034B     		ldr	r3, .L160
 2912 006a 0022     		movs	r2, #0
ARM GAS  C:\Users\Admin\AppData\Local\Temp\ccEsCXkX.s 			page 78


 2913 006c 1A60     		str	r2, [r3]
 683:Core/Src/main.cpp ****     break;
 2914              		.loc 1 683 5 is_stmt 1 view .LVU792
 683:Core/Src/main.cpp ****     break;
 2915              		.loc 1 683 17 is_stmt 0 view .LVU793
 2916 006e 0448     		ldr	r0, .L160+8
 2917 0070 FFF7FEFF 		bl	_ZN6PinOut7turnOffEv
 2918              	.LVL208:
 684:Core/Src/main.cpp ****   }
 2919              		.loc 1 684 5 is_stmt 1 view .LVU794
 688:Core/Src/main.cpp **** }
 2920              		.loc 1 688 3 view .LVU795
 2921 0074 D6E7     		b	.L151
 2922              	.L161:
 2923 0076 00BF     		.align	2
 2924              	.L160:
 2925 0078 00000000 		.word	.LANCHOR29
 2926 007c 00000000 		.word	.LC14
 2927 0080 00000000 		.word	.LANCHOR1
 2928 0084 1C000000 		.word	.LC15
 2929 0088 38000000 		.word	.LC16
 2930 008c 58000000 		.word	.LC17
 2931 0090 74000000 		.word	.LC18
 2932              		.cfi_endproc
 2933              	.LFE119:
 2934              		.fnend
 2936              		.section	.text._Z15ChangeModeEventv,"ax",%progbits
 2937              		.align	1
 2938              		.global	_Z15ChangeModeEventv
 2939              		.syntax unified
 2940              		.thumb
 2941              		.thumb_func
 2942              		.fpu softvfp
 2944              	_Z15ChangeModeEventv:
 2945              		.fnstart
 2946              	.LFB108:
 328:Core/Src/main.cpp ****   if ((HAL_GetTick() - timme) > 15000)
 2947              		.loc 1 328 1 view -0
 2948              		.cfi_startproc
 2949              		@ args = 0, pretend = 0, frame = 0
 2950              		@ frame_needed = 0, uses_anonymous_args = 0
 2951 0000 08B5     		push	{r3, lr}
 2952              		.save {r3, lr}
 2953              	.LCFI22:
 2954              		.cfi_def_cfa_offset 8
 2955              		.cfi_offset 3, -8
 2956              		.cfi_offset 14, -4
 329:Core/Src/main.cpp ****   {
 2957              		.loc 1 329 3 view .LVU797
 329:Core/Src/main.cpp ****   {
 2958              		.loc 1 329 19 is_stmt 0 view .LVU798
 2959 0002 FFF7FEFF 		bl	HAL_GetTick
 2960              	.LVL209:
 329:Core/Src/main.cpp ****   {
 2961              		.loc 1 329 22 view .LVU799
 2962 0006 074B     		ldr	r3, .L166
 2963 0008 1B68     		ldr	r3, [r3]
ARM GAS  C:\Users\Admin\AppData\Local\Temp\ccEsCXkX.s 			page 79


 2964 000a C01A     		subs	r0, r0, r3
 329:Core/Src/main.cpp ****   {
 2965              		.loc 1 329 3 view .LVU800
 2966 000c 43F69823 		movw	r3, #15000
 2967 0010 9842     		cmp	r0, r3
 2968 0012 00D8     		bhi	.L165
 2969              	.L162:
 334:Core/Src/main.cpp **** 
 2970              		.loc 1 334 1 view .LVU801
 2971 0014 08BD     		pop	{r3, pc}
 2972              	.L165:
 331:Core/Src/main.cpp ****     switchMode();
 2973              		.loc 1 331 5 is_stmt 1 view .LVU802
 331:Core/Src/main.cpp ****     switchMode();
 2974              		.loc 1 331 24 is_stmt 0 view .LVU803
 2975 0016 FFF7FEFF 		bl	HAL_GetTick
 2976              	.LVL210:
 331:Core/Src/main.cpp ****     switchMode();
 2977              		.loc 1 331 11 view .LVU804
 2978 001a 024B     		ldr	r3, .L166
 2979 001c 1860     		str	r0, [r3]
 332:Core/Src/main.cpp ****   }
 2980              		.loc 1 332 5 is_stmt 1 view .LVU805
 332:Core/Src/main.cpp ****   }
 2981              		.loc 1 332 15 is_stmt 0 view .LVU806
 2982 001e FFF7FEFF 		bl	_Z10switchModev
 2983              	.LVL211:
 334:Core/Src/main.cpp **** 
 2984              		.loc 1 334 1 view .LVU807
 2985 0022 F7E7     		b	.L162
 2986              	.L167:
 2987              		.align	2
 2988              	.L166:
 2989 0024 00000000 		.word	.LANCHOR21
 2990              		.cfi_endproc
 2991              	.LFE108:
 2992              		.fnend
 2994              		.section	.text.Error_Handler,"ax",%progbits
 2995              		.align	1
 2996              		.global	Error_Handler
 2997              		.syntax unified
 2998              		.thumb
 2999              		.thumb_func
 3000              		.fpu softvfp
 3002              	Error_Handler:
 3003              		.fnstart
 3004              	.LFB120:
 696:Core/Src/main.cpp ****   /* USER CODE BEGIN Error_Handler_Debug */
 3005              		.loc 1 696 1 is_stmt 1 view -0
 3006              		.cfi_startproc
 3007              		@ Volatile: function does not return.
 3008              		@ args = 0, pretend = 0, frame = 0
 3009              		@ frame_needed = 0, uses_anonymous_args = 0
 3010              		@ link register save eliminated.
 699:Core/Src/main.cpp ****   while (1)
 3011              		.loc 1 699 3 view .LVU809
 3012              	.LBB400:
ARM GAS  C:\Users\Admin\AppData\Local\Temp\ccEsCXkX.s 			page 80


 3013              	.LBI400:
 3014              		.file 6 "Drivers/CMSIS/Include/cmsis_gcc.h"
   1:Drivers/CMSIS/Include/cmsis_gcc.h **** /**************************************************************************//**
   2:Drivers/CMSIS/Include/cmsis_gcc.h ****  * @file     cmsis_gcc.h
   3:Drivers/CMSIS/Include/cmsis_gcc.h ****  * @brief    CMSIS compiler GCC header file
   4:Drivers/CMSIS/Include/cmsis_gcc.h ****  * @version  V5.0.4
   5:Drivers/CMSIS/Include/cmsis_gcc.h ****  * @date     09. April 2018
   6:Drivers/CMSIS/Include/cmsis_gcc.h ****  ******************************************************************************/
   7:Drivers/CMSIS/Include/cmsis_gcc.h **** /*
   8:Drivers/CMSIS/Include/cmsis_gcc.h ****  * Copyright (c) 2009-2018 Arm Limited. All rights reserved.
   9:Drivers/CMSIS/Include/cmsis_gcc.h ****  *
  10:Drivers/CMSIS/Include/cmsis_gcc.h ****  * SPDX-License-Identifier: Apache-2.0
  11:Drivers/CMSIS/Include/cmsis_gcc.h ****  *
  12:Drivers/CMSIS/Include/cmsis_gcc.h ****  * Licensed under the Apache License, Version 2.0 (the License); you may
  13:Drivers/CMSIS/Include/cmsis_gcc.h ****  * not use this file except in compliance with the License.
  14:Drivers/CMSIS/Include/cmsis_gcc.h ****  * You may obtain a copy of the License at
  15:Drivers/CMSIS/Include/cmsis_gcc.h ****  *
  16:Drivers/CMSIS/Include/cmsis_gcc.h ****  * www.apache.org/licenses/LICENSE-2.0
  17:Drivers/CMSIS/Include/cmsis_gcc.h ****  *
  18:Drivers/CMSIS/Include/cmsis_gcc.h ****  * Unless required by applicable law or agreed to in writing, software
  19:Drivers/CMSIS/Include/cmsis_gcc.h ****  * distributed under the License is distributed on an AS IS BASIS, WITHOUT
  20:Drivers/CMSIS/Include/cmsis_gcc.h ****  * WARRANTIES OR CONDITIONS OF ANY KIND, either express or implied.
  21:Drivers/CMSIS/Include/cmsis_gcc.h ****  * See the License for the specific language governing permissions and
  22:Drivers/CMSIS/Include/cmsis_gcc.h ****  * limitations under the License.
  23:Drivers/CMSIS/Include/cmsis_gcc.h ****  */
  24:Drivers/CMSIS/Include/cmsis_gcc.h **** 
  25:Drivers/CMSIS/Include/cmsis_gcc.h **** #ifndef __CMSIS_GCC_H
  26:Drivers/CMSIS/Include/cmsis_gcc.h **** #define __CMSIS_GCC_H
  27:Drivers/CMSIS/Include/cmsis_gcc.h **** 
  28:Drivers/CMSIS/Include/cmsis_gcc.h **** /* ignore some GCC warnings */
  29:Drivers/CMSIS/Include/cmsis_gcc.h **** #pragma GCC diagnostic push
  30:Drivers/CMSIS/Include/cmsis_gcc.h **** #pragma GCC diagnostic ignored "-Wsign-conversion"
  31:Drivers/CMSIS/Include/cmsis_gcc.h **** #pragma GCC diagnostic ignored "-Wconversion"
  32:Drivers/CMSIS/Include/cmsis_gcc.h **** #pragma GCC diagnostic ignored "-Wunused-parameter"
  33:Drivers/CMSIS/Include/cmsis_gcc.h **** 
  34:Drivers/CMSIS/Include/cmsis_gcc.h **** /* Fallback for __has_builtin */
  35:Drivers/CMSIS/Include/cmsis_gcc.h **** #ifndef __has_builtin
  36:Drivers/CMSIS/Include/cmsis_gcc.h ****   #define __has_builtin(x) (0)
  37:Drivers/CMSIS/Include/cmsis_gcc.h **** #endif
  38:Drivers/CMSIS/Include/cmsis_gcc.h **** 
  39:Drivers/CMSIS/Include/cmsis_gcc.h **** /* CMSIS compiler specific defines */
  40:Drivers/CMSIS/Include/cmsis_gcc.h **** #ifndef   __ASM
  41:Drivers/CMSIS/Include/cmsis_gcc.h ****   #define __ASM                                  __asm
  42:Drivers/CMSIS/Include/cmsis_gcc.h **** #endif
  43:Drivers/CMSIS/Include/cmsis_gcc.h **** #ifndef   __INLINE
  44:Drivers/CMSIS/Include/cmsis_gcc.h ****   #define __INLINE                               inline
  45:Drivers/CMSIS/Include/cmsis_gcc.h **** #endif
  46:Drivers/CMSIS/Include/cmsis_gcc.h **** #ifndef   __STATIC_INLINE
  47:Drivers/CMSIS/Include/cmsis_gcc.h ****   #define __STATIC_INLINE                        static inline
  48:Drivers/CMSIS/Include/cmsis_gcc.h **** #endif
  49:Drivers/CMSIS/Include/cmsis_gcc.h **** #ifndef   __STATIC_FORCEINLINE                 
  50:Drivers/CMSIS/Include/cmsis_gcc.h ****   #define __STATIC_FORCEINLINE                   __attribute__((always_inline)) static inline
  51:Drivers/CMSIS/Include/cmsis_gcc.h **** #endif                                           
  52:Drivers/CMSIS/Include/cmsis_gcc.h **** #ifndef   __NO_RETURN
  53:Drivers/CMSIS/Include/cmsis_gcc.h ****   #define __NO_RETURN                            __attribute__((__noreturn__))
  54:Drivers/CMSIS/Include/cmsis_gcc.h **** #endif
  55:Drivers/CMSIS/Include/cmsis_gcc.h **** #ifndef   __USED
ARM GAS  C:\Users\Admin\AppData\Local\Temp\ccEsCXkX.s 			page 81


  56:Drivers/CMSIS/Include/cmsis_gcc.h ****   #define __USED                                 __attribute__((used))
  57:Drivers/CMSIS/Include/cmsis_gcc.h **** #endif
  58:Drivers/CMSIS/Include/cmsis_gcc.h **** #ifndef   __WEAK
  59:Drivers/CMSIS/Include/cmsis_gcc.h ****   #define __WEAK                                 __attribute__((weak))
  60:Drivers/CMSIS/Include/cmsis_gcc.h **** #endif
  61:Drivers/CMSIS/Include/cmsis_gcc.h **** #ifndef   __PACKED
  62:Drivers/CMSIS/Include/cmsis_gcc.h ****   #define __PACKED                               __attribute__((packed, aligned(1)))
  63:Drivers/CMSIS/Include/cmsis_gcc.h **** #endif
  64:Drivers/CMSIS/Include/cmsis_gcc.h **** #ifndef   __PACKED_STRUCT
  65:Drivers/CMSIS/Include/cmsis_gcc.h ****   #define __PACKED_STRUCT                        struct __attribute__((packed, aligned(1)))
  66:Drivers/CMSIS/Include/cmsis_gcc.h **** #endif
  67:Drivers/CMSIS/Include/cmsis_gcc.h **** #ifndef   __PACKED_UNION
  68:Drivers/CMSIS/Include/cmsis_gcc.h ****   #define __PACKED_UNION                         union __attribute__((packed, aligned(1)))
  69:Drivers/CMSIS/Include/cmsis_gcc.h **** #endif
  70:Drivers/CMSIS/Include/cmsis_gcc.h **** #ifndef   __UNALIGNED_UINT32        /* deprecated */
  71:Drivers/CMSIS/Include/cmsis_gcc.h ****   #pragma GCC diagnostic push
  72:Drivers/CMSIS/Include/cmsis_gcc.h ****   #pragma GCC diagnostic ignored "-Wpacked"
  73:Drivers/CMSIS/Include/cmsis_gcc.h ****   #pragma GCC diagnostic ignored "-Wattributes"
  74:Drivers/CMSIS/Include/cmsis_gcc.h ****   struct __attribute__((packed)) T_UINT32 { uint32_t v; };
  75:Drivers/CMSIS/Include/cmsis_gcc.h ****   #pragma GCC diagnostic pop
  76:Drivers/CMSIS/Include/cmsis_gcc.h ****   #define __UNALIGNED_UINT32(x)                  (((struct T_UINT32 *)(x))->v)
  77:Drivers/CMSIS/Include/cmsis_gcc.h **** #endif
  78:Drivers/CMSIS/Include/cmsis_gcc.h **** #ifndef   __UNALIGNED_UINT16_WRITE
  79:Drivers/CMSIS/Include/cmsis_gcc.h ****   #pragma GCC diagnostic push
  80:Drivers/CMSIS/Include/cmsis_gcc.h ****   #pragma GCC diagnostic ignored "-Wpacked"
  81:Drivers/CMSIS/Include/cmsis_gcc.h ****   #pragma GCC diagnostic ignored "-Wattributes"
  82:Drivers/CMSIS/Include/cmsis_gcc.h ****   __PACKED_STRUCT T_UINT16_WRITE { uint16_t v; };
  83:Drivers/CMSIS/Include/cmsis_gcc.h ****   #pragma GCC diagnostic pop
  84:Drivers/CMSIS/Include/cmsis_gcc.h ****   #define __UNALIGNED_UINT16_WRITE(addr, val)    (void)((((struct T_UINT16_WRITE *)(void *)(addr))-
  85:Drivers/CMSIS/Include/cmsis_gcc.h **** #endif
  86:Drivers/CMSIS/Include/cmsis_gcc.h **** #ifndef   __UNALIGNED_UINT16_READ
  87:Drivers/CMSIS/Include/cmsis_gcc.h ****   #pragma GCC diagnostic push
  88:Drivers/CMSIS/Include/cmsis_gcc.h ****   #pragma GCC diagnostic ignored "-Wpacked"
  89:Drivers/CMSIS/Include/cmsis_gcc.h ****   #pragma GCC diagnostic ignored "-Wattributes"
  90:Drivers/CMSIS/Include/cmsis_gcc.h ****   __PACKED_STRUCT T_UINT16_READ { uint16_t v; };
  91:Drivers/CMSIS/Include/cmsis_gcc.h ****   #pragma GCC diagnostic pop
  92:Drivers/CMSIS/Include/cmsis_gcc.h ****   #define __UNALIGNED_UINT16_READ(addr)          (((const struct T_UINT16_READ *)(const void *)(add
  93:Drivers/CMSIS/Include/cmsis_gcc.h **** #endif
  94:Drivers/CMSIS/Include/cmsis_gcc.h **** #ifndef   __UNALIGNED_UINT32_WRITE
  95:Drivers/CMSIS/Include/cmsis_gcc.h ****   #pragma GCC diagnostic push
  96:Drivers/CMSIS/Include/cmsis_gcc.h ****   #pragma GCC diagnostic ignored "-Wpacked"
  97:Drivers/CMSIS/Include/cmsis_gcc.h ****   #pragma GCC diagnostic ignored "-Wattributes"
  98:Drivers/CMSIS/Include/cmsis_gcc.h ****   __PACKED_STRUCT T_UINT32_WRITE { uint32_t v; };
  99:Drivers/CMSIS/Include/cmsis_gcc.h ****   #pragma GCC diagnostic pop
 100:Drivers/CMSIS/Include/cmsis_gcc.h ****   #define __UNALIGNED_UINT32_WRITE(addr, val)    (void)((((struct T_UINT32_WRITE *)(void *)(addr))-
 101:Drivers/CMSIS/Include/cmsis_gcc.h **** #endif
 102:Drivers/CMSIS/Include/cmsis_gcc.h **** #ifndef   __UNALIGNED_UINT32_READ
 103:Drivers/CMSIS/Include/cmsis_gcc.h ****   #pragma GCC diagnostic push
 104:Drivers/CMSIS/Include/cmsis_gcc.h ****   #pragma GCC diagnostic ignored "-Wpacked"
 105:Drivers/CMSIS/Include/cmsis_gcc.h ****   #pragma GCC diagnostic ignored "-Wattributes"
 106:Drivers/CMSIS/Include/cmsis_gcc.h ****   __PACKED_STRUCT T_UINT32_READ { uint32_t v; };
 107:Drivers/CMSIS/Include/cmsis_gcc.h ****   #pragma GCC diagnostic pop
 108:Drivers/CMSIS/Include/cmsis_gcc.h ****   #define __UNALIGNED_UINT32_READ(addr)          (((const struct T_UINT32_READ *)(const void *)(add
 109:Drivers/CMSIS/Include/cmsis_gcc.h **** #endif
 110:Drivers/CMSIS/Include/cmsis_gcc.h **** #ifndef   __ALIGNED
 111:Drivers/CMSIS/Include/cmsis_gcc.h ****   #define __ALIGNED(x)                           __attribute__((aligned(x)))
 112:Drivers/CMSIS/Include/cmsis_gcc.h **** #endif
ARM GAS  C:\Users\Admin\AppData\Local\Temp\ccEsCXkX.s 			page 82


 113:Drivers/CMSIS/Include/cmsis_gcc.h **** #ifndef   __RESTRICT
 114:Drivers/CMSIS/Include/cmsis_gcc.h ****   #define __RESTRICT                             __restrict
 115:Drivers/CMSIS/Include/cmsis_gcc.h **** #endif
 116:Drivers/CMSIS/Include/cmsis_gcc.h **** 
 117:Drivers/CMSIS/Include/cmsis_gcc.h **** 
 118:Drivers/CMSIS/Include/cmsis_gcc.h **** /* ###########################  Core Function Access  ########################### */
 119:Drivers/CMSIS/Include/cmsis_gcc.h **** /** \ingroup  CMSIS_Core_FunctionInterface
 120:Drivers/CMSIS/Include/cmsis_gcc.h ****     \defgroup CMSIS_Core_RegAccFunctions CMSIS Core Register Access Functions
 121:Drivers/CMSIS/Include/cmsis_gcc.h ****   @{
 122:Drivers/CMSIS/Include/cmsis_gcc.h ****  */
 123:Drivers/CMSIS/Include/cmsis_gcc.h **** 
 124:Drivers/CMSIS/Include/cmsis_gcc.h **** /**
 125:Drivers/CMSIS/Include/cmsis_gcc.h ****   \brief   Enable IRQ Interrupts
 126:Drivers/CMSIS/Include/cmsis_gcc.h ****   \details Enables IRQ interrupts by clearing the I-bit in the CPSR.
 127:Drivers/CMSIS/Include/cmsis_gcc.h ****            Can only be executed in Privileged modes.
 128:Drivers/CMSIS/Include/cmsis_gcc.h ****  */
 129:Drivers/CMSIS/Include/cmsis_gcc.h **** __STATIC_FORCEINLINE void __enable_irq(void)
 130:Drivers/CMSIS/Include/cmsis_gcc.h **** {
 131:Drivers/CMSIS/Include/cmsis_gcc.h ****   __ASM volatile ("cpsie i" : : : "memory");
 132:Drivers/CMSIS/Include/cmsis_gcc.h **** }
 133:Drivers/CMSIS/Include/cmsis_gcc.h **** 
 134:Drivers/CMSIS/Include/cmsis_gcc.h **** 
 135:Drivers/CMSIS/Include/cmsis_gcc.h **** /**
 136:Drivers/CMSIS/Include/cmsis_gcc.h ****   \brief   Disable IRQ Interrupts
 137:Drivers/CMSIS/Include/cmsis_gcc.h ****   \details Disables IRQ interrupts by setting the I-bit in the CPSR.
 138:Drivers/CMSIS/Include/cmsis_gcc.h ****            Can only be executed in Privileged modes.
 139:Drivers/CMSIS/Include/cmsis_gcc.h ****  */
 140:Drivers/CMSIS/Include/cmsis_gcc.h **** __STATIC_FORCEINLINE void __disable_irq(void)
 3015              		.loc 6 140 27 view .LVU810
 3016              	.LBB401:
 141:Drivers/CMSIS/Include/cmsis_gcc.h **** {
 142:Drivers/CMSIS/Include/cmsis_gcc.h ****   __ASM volatile ("cpsid i" : : : "memory");
 3017              		.loc 6 142 3 view .LVU811
 3018              		.syntax unified
 3019              	@ 142 "Drivers/CMSIS/Include/cmsis_gcc.h" 1
 3020 0000 72B6     		cpsid i
 3021              	@ 0 "" 2
 3022              		.thumb
 3023              		.syntax unified
 3024              	.L169:
 3025              	.LBE401:
 3026              	.LBE400:
 700:Core/Src/main.cpp ****   {
 3027              		.loc 1 700 3 discriminator 1 view .LVU812
 700:Core/Src/main.cpp ****   {
 3028              		.loc 1 700 3 discriminator 1 view .LVU813
 3029 0002 FEE7     		b	.L169
 3030              		.cfi_endproc
 3031              	.LFE120:
 3032              		.cantunwind
 3033              		.fnend
 3035              		.section	.text._Z18SystemClock_Configv,"ax",%progbits
 3036              		.align	1
 3037              		.global	_Z18SystemClock_Configv
 3038              		.syntax unified
 3039              		.thumb
 3040              		.thumb_func
ARM GAS  C:\Users\Admin\AppData\Local\Temp\ccEsCXkX.s 			page 83


 3041              		.fpu softvfp
 3043              	_Z18SystemClock_Configv:
 3044              		.fnstart
 3045              	.LFB103:
 160:Core/Src/main.cpp ****   RCC_OscInitTypeDef RCC_OscInitStruct = {0};
 3046              		.loc 1 160 1 view -0
 3047              		.cfi_startproc
 3048              		@ args = 0, pretend = 0, frame = 64
 3049              		@ frame_needed = 0, uses_anonymous_args = 0
 3050 0000 00B5     		push	{lr}
 3051              		.save {lr}
 3052              	.LCFI23:
 3053              		.cfi_def_cfa_offset 4
 3054              		.cfi_offset 14, -4
 3055              		.pad #68
 3056 0002 91B0     		sub	sp, sp, #68
 3057              	.LCFI24:
 3058              		.cfi_def_cfa_offset 72
 161:Core/Src/main.cpp ****   RCC_ClkInitTypeDef RCC_ClkInitStruct = {0};
 3059              		.loc 1 161 3 view .LVU815
 161:Core/Src/main.cpp ****   RCC_ClkInitTypeDef RCC_ClkInitStruct = {0};
 3060              		.loc 1 161 22 is_stmt 0 view .LVU816
 3061 0004 2822     		movs	r2, #40
 3062 0006 0021     		movs	r1, #0
 3063 0008 06A8     		add	r0, sp, #24
 3064 000a FFF7FEFF 		bl	memset
 3065              	.LVL212:
 162:Core/Src/main.cpp **** 
 3066              		.loc 1 162 3 is_stmt 1 view .LVU817
 162:Core/Src/main.cpp **** 
 3067              		.loc 1 162 22 is_stmt 0 view .LVU818
 3068 000e 0023     		movs	r3, #0
 3069 0010 0193     		str	r3, [sp, #4]
 3070 0012 0293     		str	r3, [sp, #8]
 3071 0014 0393     		str	r3, [sp, #12]
 3072 0016 0493     		str	r3, [sp, #16]
 3073 0018 0593     		str	r3, [sp, #20]
 167:Core/Src/main.cpp ****   RCC_OscInitStruct.HSIState = RCC_HSI_ON;
 3074              		.loc 1 167 3 is_stmt 1 view .LVU819
 167:Core/Src/main.cpp ****   RCC_OscInitStruct.HSIState = RCC_HSI_ON;
 3075              		.loc 1 167 36 is_stmt 0 view .LVU820
 3076 001a 0223     		movs	r3, #2
 3077 001c 0693     		str	r3, [sp, #24]
 168:Core/Src/main.cpp ****   RCC_OscInitStruct.HSICalibrationValue = RCC_HSICALIBRATION_DEFAULT;
 3078              		.loc 1 168 3 is_stmt 1 view .LVU821
 168:Core/Src/main.cpp ****   RCC_OscInitStruct.HSICalibrationValue = RCC_HSICALIBRATION_DEFAULT;
 3079              		.loc 1 168 30 is_stmt 0 view .LVU822
 3080 001e 0122     		movs	r2, #1
 3081 0020 0A92     		str	r2, [sp, #40]
 169:Core/Src/main.cpp ****   RCC_OscInitStruct.PLL.PLLState = RCC_PLL_ON;
 3082              		.loc 1 169 3 is_stmt 1 view .LVU823
 169:Core/Src/main.cpp ****   RCC_OscInitStruct.PLL.PLLState = RCC_PLL_ON;
 3083              		.loc 1 169 41 is_stmt 0 view .LVU824
 3084 0022 1022     		movs	r2, #16
 3085 0024 0B92     		str	r2, [sp, #44]
 170:Core/Src/main.cpp ****   RCC_OscInitStruct.PLL.PLLSource = RCC_PLLSOURCE_HSI_DIV2;
 3086              		.loc 1 170 3 is_stmt 1 view .LVU825
ARM GAS  C:\Users\Admin\AppData\Local\Temp\ccEsCXkX.s 			page 84


 170:Core/Src/main.cpp ****   RCC_OscInitStruct.PLL.PLLSource = RCC_PLLSOURCE_HSI_DIV2;
 3087              		.loc 1 170 34 is_stmt 0 view .LVU826
 3088 0026 0D93     		str	r3, [sp, #52]
 171:Core/Src/main.cpp ****   RCC_OscInitStruct.PLL.PLLMUL = RCC_PLL_MUL9;
 3089              		.loc 1 171 3 is_stmt 1 view .LVU827
 172:Core/Src/main.cpp ****   if (HAL_RCC_OscConfig(&RCC_OscInitStruct) != HAL_OK)
 3090              		.loc 1 172 3 view .LVU828
 172:Core/Src/main.cpp ****   if (HAL_RCC_OscConfig(&RCC_OscInitStruct) != HAL_OK)
 3091              		.loc 1 172 32 is_stmt 0 view .LVU829
 3092 0028 4FF4E013 		mov	r3, #1835008
 3093 002c 0F93     		str	r3, [sp, #60]
 173:Core/Src/main.cpp ****   {
 3094              		.loc 1 173 3 is_stmt 1 view .LVU830
 173:Core/Src/main.cpp ****   {
 3095              		.loc 1 173 24 is_stmt 0 view .LVU831
 3096 002e 06A8     		add	r0, sp, #24
 3097 0030 FFF7FEFF 		bl	HAL_RCC_OscConfig
 3098              	.LVL213:
 173:Core/Src/main.cpp ****   {
 3099              		.loc 1 173 3 view .LVU832
 3100 0034 88B9     		cbnz	r0, .L174
 179:Core/Src/main.cpp ****   RCC_ClkInitStruct.SYSCLKSource = RCC_SYSCLKSOURCE_PLLCLK;
 3101              		.loc 1 179 3 is_stmt 1 view .LVU833
 179:Core/Src/main.cpp ****   RCC_ClkInitStruct.SYSCLKSource = RCC_SYSCLKSOURCE_PLLCLK;
 3102              		.loc 1 179 31 is_stmt 0 view .LVU834
 3103 0036 0F23     		movs	r3, #15
 3104 0038 0193     		str	r3, [sp, #4]
 180:Core/Src/main.cpp ****   RCC_ClkInitStruct.AHBCLKDivider = RCC_SYSCLK_DIV1;
 3105              		.loc 1 180 3 is_stmt 1 view .LVU835
 180:Core/Src/main.cpp ****   RCC_ClkInitStruct.AHBCLKDivider = RCC_SYSCLK_DIV1;
 3106              		.loc 1 180 34 is_stmt 0 view .LVU836
 3107 003a 0223     		movs	r3, #2
 3108 003c 0293     		str	r3, [sp, #8]
 181:Core/Src/main.cpp ****   RCC_ClkInitStruct.APB1CLKDivider = RCC_HCLK_DIV2;
 3109              		.loc 1 181 3 is_stmt 1 view .LVU837
 181:Core/Src/main.cpp ****   RCC_ClkInitStruct.APB1CLKDivider = RCC_HCLK_DIV2;
 3110              		.loc 1 181 35 is_stmt 0 view .LVU838
 3111 003e 0023     		movs	r3, #0
 3112 0040 0393     		str	r3, [sp, #12]
 182:Core/Src/main.cpp ****   RCC_ClkInitStruct.APB2CLKDivider = RCC_HCLK_DIV1;
 3113              		.loc 1 182 3 is_stmt 1 view .LVU839
 182:Core/Src/main.cpp ****   RCC_ClkInitStruct.APB2CLKDivider = RCC_HCLK_DIV1;
 3114              		.loc 1 182 36 is_stmt 0 view .LVU840
 3115 0042 4FF48062 		mov	r2, #1024
 3116 0046 0492     		str	r2, [sp, #16]
 183:Core/Src/main.cpp **** 
 3117              		.loc 1 183 3 is_stmt 1 view .LVU841
 183:Core/Src/main.cpp **** 
 3118              		.loc 1 183 36 is_stmt 0 view .LVU842
 3119 0048 0593     		str	r3, [sp, #20]
 185:Core/Src/main.cpp ****   {
 3120              		.loc 1 185 3 is_stmt 1 view .LVU843
 185:Core/Src/main.cpp ****   {
 3121              		.loc 1 185 26 is_stmt 0 view .LVU844
 3122 004a 0121     		movs	r1, #1
 3123 004c 01A8     		add	r0, sp, #4
 3124 004e FFF7FEFF 		bl	HAL_RCC_ClockConfig
ARM GAS  C:\Users\Admin\AppData\Local\Temp\ccEsCXkX.s 			page 85


 3125              	.LVL214:
 185:Core/Src/main.cpp ****   {
 3126              		.loc 1 185 3 view .LVU845
 3127 0052 20B9     		cbnz	r0, .L175
 189:Core/Src/main.cpp **** 
 3128              		.loc 1 189 1 view .LVU846
 3129 0054 11B0     		add	sp, sp, #68
 3130              	.LCFI25:
 3131              		.cfi_remember_state
 3132              		.cfi_def_cfa_offset 4
 3133              		@ sp needed
 3134 0056 5DF804FB 		ldr	pc, [sp], #4
 3135              	.L174:
 3136              	.LCFI26:
 3137              		.cfi_restore_state
 175:Core/Src/main.cpp ****   }
 3138              		.loc 1 175 5 is_stmt 1 view .LVU847
 175:Core/Src/main.cpp ****   }
 3139              		.loc 1 175 18 is_stmt 0 view .LVU848
 3140 005a FFF7FEFF 		bl	Error_Handler
 3141              	.LVL215:
 3142              	.L175:
 187:Core/Src/main.cpp ****   }
 3143              		.loc 1 187 5 is_stmt 1 view .LVU849
 187:Core/Src/main.cpp ****   }
 3144              		.loc 1 187 18 is_stmt 0 view .LVU850
 3145 005e FFF7FEFF 		bl	Error_Handler
 3146              	.LVL216:
 3147              		.cfi_endproc
 3148              	.LFE103:
 3149              		.fnend
 3151              		.section	.text._ZL19MX_USART1_UART_Initv,"ax",%progbits
 3152              		.align	1
 3153              		.syntax unified
 3154              		.thumb
 3155              		.thumb_func
 3156              		.fpu softvfp
 3158              	_ZL19MX_USART1_UART_Initv:
 3159              		.fnstart
 3160              	.LFB104:
 197:Core/Src/main.cpp **** 
 3161              		.loc 1 197 1 is_stmt 1 view -0
 3162              		.cfi_startproc
 3163              		@ args = 0, pretend = 0, frame = 0
 3164              		@ frame_needed = 0, uses_anonymous_args = 0
 3165 0000 08B5     		push	{r3, lr}
 3166              		.save {r3, lr}
 3167              	.LCFI27:
 3168              		.cfi_def_cfa_offset 8
 3169              		.cfi_offset 3, -8
 3170              		.cfi_offset 14, -4
 206:Core/Src/main.cpp ****   huart1.Init.BaudRate = 115200;
 3171              		.loc 1 206 3 view .LVU852
 206:Core/Src/main.cpp ****   huart1.Init.BaudRate = 115200;
 3172              		.loc 1 206 19 is_stmt 0 view .LVU853
 3173 0002 0A48     		ldr	r0, .L180
 3174 0004 0A4B     		ldr	r3, .L180+4
ARM GAS  C:\Users\Admin\AppData\Local\Temp\ccEsCXkX.s 			page 86


 3175 0006 0360     		str	r3, [r0]
 207:Core/Src/main.cpp ****   huart1.Init.WordLength = UART_WORDLENGTH_8B;
 3176              		.loc 1 207 3 is_stmt 1 view .LVU854
 207:Core/Src/main.cpp ****   huart1.Init.WordLength = UART_WORDLENGTH_8B;
 3177              		.loc 1 207 24 is_stmt 0 view .LVU855
 3178 0008 4FF4E133 		mov	r3, #115200
 3179 000c 4360     		str	r3, [r0, #4]
 208:Core/Src/main.cpp ****   huart1.Init.StopBits = UART_STOPBITS_1;
 3180              		.loc 1 208 3 is_stmt 1 view .LVU856
 208:Core/Src/main.cpp ****   huart1.Init.StopBits = UART_STOPBITS_1;
 3181              		.loc 1 208 26 is_stmt 0 view .LVU857
 3182 000e 0023     		movs	r3, #0
 3183 0010 8360     		str	r3, [r0, #8]
 209:Core/Src/main.cpp ****   huart1.Init.Parity = UART_PARITY_NONE;
 3184              		.loc 1 209 3 is_stmt 1 view .LVU858
 209:Core/Src/main.cpp ****   huart1.Init.Parity = UART_PARITY_NONE;
 3185              		.loc 1 209 24 is_stmt 0 view .LVU859
 3186 0012 C360     		str	r3, [r0, #12]
 210:Core/Src/main.cpp ****   huart1.Init.Mode = UART_MODE_TX_RX;
 3187              		.loc 1 210 3 is_stmt 1 view .LVU860
 210:Core/Src/main.cpp ****   huart1.Init.Mode = UART_MODE_TX_RX;
 3188              		.loc 1 210 22 is_stmt 0 view .LVU861
 3189 0014 0361     		str	r3, [r0, #16]
 211:Core/Src/main.cpp ****   huart1.Init.HwFlowCtl = UART_HWCONTROL_NONE;
 3190              		.loc 1 211 3 is_stmt 1 view .LVU862
 211:Core/Src/main.cpp ****   huart1.Init.HwFlowCtl = UART_HWCONTROL_NONE;
 3191              		.loc 1 211 20 is_stmt 0 view .LVU863
 3192 0016 0C22     		movs	r2, #12
 3193 0018 4261     		str	r2, [r0, #20]
 212:Core/Src/main.cpp ****   huart1.Init.OverSampling = UART_OVERSAMPLING_16;
 3194              		.loc 1 212 3 is_stmt 1 view .LVU864
 212:Core/Src/main.cpp ****   huart1.Init.OverSampling = UART_OVERSAMPLING_16;
 3195              		.loc 1 212 25 is_stmt 0 view .LVU865
 3196 001a 8361     		str	r3, [r0, #24]
 213:Core/Src/main.cpp ****   if (HAL_UART_Init(&huart1) != HAL_OK)
 3197              		.loc 1 213 3 is_stmt 1 view .LVU866
 213:Core/Src/main.cpp ****   if (HAL_UART_Init(&huart1) != HAL_OK)
 3198              		.loc 1 213 28 is_stmt 0 view .LVU867
 3199 001c C361     		str	r3, [r0, #28]
 214:Core/Src/main.cpp ****   {
 3200              		.loc 1 214 3 is_stmt 1 view .LVU868
 214:Core/Src/main.cpp ****   {
 3201              		.loc 1 214 20 is_stmt 0 view .LVU869
 3202 001e FFF7FEFF 		bl	HAL_UART_Init
 3203              	.LVL217:
 214:Core/Src/main.cpp ****   {
 3204              		.loc 1 214 3 view .LVU870
 3205 0022 00B9     		cbnz	r0, .L179
 221:Core/Src/main.cpp **** 
 3206              		.loc 1 221 1 view .LVU871
 3207 0024 08BD     		pop	{r3, pc}
 3208              	.L179:
 216:Core/Src/main.cpp ****   }
 3209              		.loc 1 216 5 is_stmt 1 view .LVU872
 216:Core/Src/main.cpp ****   }
 3210              		.loc 1 216 18 is_stmt 0 view .LVU873
 3211 0026 FFF7FEFF 		bl	Error_Handler
ARM GAS  C:\Users\Admin\AppData\Local\Temp\ccEsCXkX.s 			page 87


 3212              	.LVL218:
 3213              	.L181:
 3214 002a 00BF     		.align	2
 3215              	.L180:
 3216 002c 00000000 		.word	.LANCHOR19
 3217 0030 00380140 		.word	1073821696
 3218              		.cfi_endproc
 3219              	.LFE104:
 3220              		.fnend
 3222              		.section	.text.main,"ax",%progbits
 3223              		.align	1
 3224              		.global	main
 3225              		.syntax unified
 3226              		.thumb
 3227              		.thumb_func
 3228              		.fpu softvfp
 3230              	main:
 3231              		.fnstart
 3232              	.LFB106:
 280:Core/Src/main.cpp ****   HAL_Init();
 3233              		.loc 1 280 1 is_stmt 1 view -0
 3234              		.cfi_startproc
 3235              		@ args = 0, pretend = 0, frame = 0
 3236              		@ frame_needed = 0, uses_anonymous_args = 0
 3237 0000 08B5     		push	{r3, lr}
 3238              		.save {r3, lr}
 3239              	.LCFI28:
 3240              		.cfi_def_cfa_offset 8
 3241              		.cfi_offset 3, -8
 3242              		.cfi_offset 14, -4
 281:Core/Src/main.cpp **** 
 3243              		.loc 1 281 3 view .LVU875
 281:Core/Src/main.cpp **** 
 3244              		.loc 1 281 11 is_stmt 0 view .LVU876
 3245 0002 FFF7FEFF 		bl	HAL_Init
 3246              	.LVL219:
 283:Core/Src/main.cpp **** 
 3247              		.loc 1 283 3 is_stmt 1 view .LVU877
 283:Core/Src/main.cpp **** 
 3248              		.loc 1 283 21 is_stmt 0 view .LVU878
 3249 0006 FFF7FEFF 		bl	_Z18SystemClock_Configv
 3250              	.LVL220:
 285:Core/Src/main.cpp ****   MX_USART1_UART_Init();
 3251              		.loc 1 285 3 is_stmt 1 view .LVU879
 285:Core/Src/main.cpp ****   MX_USART1_UART_Init();
 3252              		.loc 1 285 15 is_stmt 0 view .LVU880
 3253 000a FFF7FEFF 		bl	_ZL12MX_GPIO_Initv
 3254              	.LVL221:
 286:Core/Src/main.cpp **** 
 3255              		.loc 1 286 3 is_stmt 1 view .LVU881
 286:Core/Src/main.cpp **** 
 3256              		.loc 1 286 22 is_stmt 0 view .LVU882
 3257 000e FFF7FEFF 		bl	_ZL19MX_USART1_UART_Initv
 3258              	.LVL222:
 288:Core/Src/main.cpp ****   insideGreenLed.turnOff();
 3259              		.loc 1 288 3 is_stmt 1 view .LVU883
 288:Core/Src/main.cpp ****   insideGreenLed.turnOff();
ARM GAS  C:\Users\Admin\AppData\Local\Temp\ccEsCXkX.s 			page 88


 3260              		.loc 1 288 14 is_stmt 0 view .LVU884
 3261 0012 1348     		ldr	r0, .L185
 3262 0014 FFF7FEFF 		bl	_Z11UART_PrintfPKcz
 3263              	.LVL223:
 289:Core/Src/main.cpp ****   outsideGreenLed.turnOff();
 3264              		.loc 1 289 3 is_stmt 1 view .LVU885
 3265              	.LBB402:
 3266              	.LBI402:
  17:Core/Inc/InvertedPinOut.h ****     {
 3267              		.loc 4 17 10 view .LVU886
 3268              	.LBB403:
  19:Core/Inc/InvertedPinOut.h ****     }
 3269              		.loc 4 19 9 view .LVU887
  19:Core/Inc/InvertedPinOut.h ****     }
 3270              		.loc 4 19 17 is_stmt 0 view .LVU888
 3271 0018 0121     		movs	r1, #1
 3272 001a 1248     		ldr	r0, .L185+4
 3273 001c FFF7FEFF 		bl	_ZN6PinOut8setStateE5State
 3274              	.LVL224:
  19:Core/Inc/InvertedPinOut.h ****     }
 3275              		.loc 4 19 17 view .LVU889
 3276              	.LBE403:
 3277              	.LBE402:
 290:Core/Src/main.cpp ****   insideZumer.turnOff();
 3278              		.loc 1 290 3 is_stmt 1 view .LVU890
 3279              	.LBB404:
 3280              	.LBI404:
  17:Core/Inc/InvertedPinOut.h ****     {
 3281              		.loc 4 17 10 view .LVU891
 3282              	.LBB405:
  19:Core/Inc/InvertedPinOut.h ****     }
 3283              		.loc 4 19 9 view .LVU892
  19:Core/Inc/InvertedPinOut.h ****     }
 3284              		.loc 4 19 17 is_stmt 0 view .LVU893
 3285 0020 0121     		movs	r1, #1
 3286 0022 1148     		ldr	r0, .L185+8
 3287 0024 FFF7FEFF 		bl	_ZN6PinOut8setStateE5State
 3288              	.LVL225:
  19:Core/Inc/InvertedPinOut.h ****     }
 3289              		.loc 4 19 17 view .LVU894
 3290              	.LBE405:
 3291              	.LBE404:
 291:Core/Src/main.cpp ****   outsideZumer.turnOff();
 3292              		.loc 1 291 3 is_stmt 1 view .LVU895
 3293              	.LBB406:
 3294              	.LBI406:
  17:Core/Inc/InvertedPinOut.h ****     {
 3295              		.loc 4 17 10 view .LVU896
 3296              	.LBB407:
  19:Core/Inc/InvertedPinOut.h ****     }
 3297              		.loc 4 19 9 view .LVU897
  19:Core/Inc/InvertedPinOut.h ****     }
 3298              		.loc 4 19 17 is_stmt 0 view .LVU898
 3299 0028 0121     		movs	r1, #1
 3300 002a 1048     		ldr	r0, .L185+12
 3301 002c FFF7FEFF 		bl	_ZN6PinOut8setStateE5State
 3302              	.LVL226:
ARM GAS  C:\Users\Admin\AppData\Local\Temp\ccEsCXkX.s 			page 89


  19:Core/Inc/InvertedPinOut.h ****     }
 3303              		.loc 4 19 17 view .LVU899
 3304              	.LBE407:
 3305              	.LBE406:
 292:Core/Src/main.cpp **** 
 3306              		.loc 1 292 3 is_stmt 1 view .LVU900
 3307              	.LBB408:
 3308              	.LBI408:
  17:Core/Inc/InvertedPinOut.h ****     {
 3309              		.loc 4 17 10 view .LVU901
 3310              	.LBB409:
  19:Core/Inc/InvertedPinOut.h ****     }
 3311              		.loc 4 19 9 view .LVU902
  19:Core/Inc/InvertedPinOut.h ****     }
 3312              		.loc 4 19 17 is_stmt 0 view .LVU903
 3313 0030 0121     		movs	r1, #1
 3314 0032 0F48     		ldr	r0, .L185+16
 3315 0034 FFF7FEFF 		bl	_ZN6PinOut8setStateE5State
 3316              	.LVL227:
 3317              	.L183:
  19:Core/Inc/InvertedPinOut.h ****     }
 3318              		.loc 4 19 17 view .LVU904
 3319              	.LBE409:
 3320              	.LBE408:
 294:Core/Src/main.cpp ****   {
 3321              		.loc 1 294 3 is_stmt 1 discriminator 1 view .LVU905
 296:Core/Src/main.cpp **** 
 3322              		.loc 1 296 5 discriminator 1 view .LVU906
 296:Core/Src/main.cpp **** 
 3323              		.loc 1 296 19 is_stmt 0 discriminator 1 view .LVU907
 3324 0038 FFF7FEFF 		bl	_Z14TimeTrackEventv
 3325              	.LVL228:
 298:Core/Src/main.cpp **** 
 3326              		.loc 1 298 5 is_stmt 1 discriminator 1 view .LVU908
 298:Core/Src/main.cpp **** 
 3327              		.loc 1 298 20 is_stmt 0 discriminator 1 view .LVU909
 3328 003c FFF7FEFF 		bl	_Z15ChangeModeEventv
 3329              	.LVL229:
 300:Core/Src/main.cpp **** 
 3330              		.loc 1 300 5 is_stmt 1 discriminator 1 view .LVU910
 300:Core/Src/main.cpp **** 
 3331              		.loc 1 300 20 is_stmt 0 discriminator 1 view .LVU911
 3332 0040 FFF7FEFF 		bl	_Z15DoorSensorEventv
 3333              	.LVL230:
 302:Core/Src/main.cpp **** 
 3334              		.loc 1 302 5 is_stmt 1 discriminator 1 view .LVU912
 302:Core/Src/main.cpp **** 
 3335              		.loc 1 302 17 is_stmt 0 discriminator 1 view .LVU913
 3336 0044 FFF7FEFF 		bl	_Z12KeyReadEventv
 3337              	.LVL231:
 304:Core/Src/main.cpp **** 
 3338              		.loc 1 304 5 is_stmt 1 discriminator 1 view .LVU914
 304:Core/Src/main.cpp **** 
 3339              		.loc 1 304 23 is_stmt 0 discriminator 1 view .LVU915
 3340 0048 FFF7FEFF 		bl	_Z18ButtonPressedEventv
 3341              	.LVL232:
 306:Core/Src/main.cpp **** 
ARM GAS  C:\Users\Admin\AppData\Local\Temp\ccEsCXkX.s 			page 90


 3342              		.loc 1 306 5 is_stmt 1 discriminator 1 view .LVU916
 306:Core/Src/main.cpp **** 
 3343              		.loc 1 306 22 is_stmt 0 discriminator 1 view .LVU917
 3344 004c FFF7FEFF 		bl	_Z17TempOpenModeEventv
 3345              	.LVL233:
 308:Core/Src/main.cpp **** 
 3346              		.loc 1 308 5 is_stmt 1 discriminator 1 view .LVU918
 308:Core/Src/main.cpp **** 
 3347              		.loc 1 308 19 is_stmt 0 discriminator 1 view .LVU919
 3348 0050 FFF7FEFF 		bl	_Z14TempAlarmEventv
 3349              	.LVL234:
 310:Core/Src/main.cpp **** 
 3350              		.loc 1 310 5 is_stmt 1 discriminator 1 view .LVU920
 310:Core/Src/main.cpp **** 
 3351              		.loc 1 310 17 is_stmt 0 discriminator 1 view .LVU921
 3352 0054 FFF7FEFF 		bl	_Z12DenyKeyEventv
 3353              	.LVL235:
 312:Core/Src/main.cpp ****   }
 3354              		.loc 1 312 5 is_stmt 1 discriminator 1 view .LVU922
 312:Core/Src/main.cpp ****   }
 3355              		.loc 1 312 15 is_stmt 0 discriminator 1 view .LVU923
 3356 0058 FFF7FEFF 		bl	_Z10AlarmEventv
 3357              	.LVL236:
 294:Core/Src/main.cpp ****   {
 3358              		.loc 1 294 3 is_stmt 1 discriminator 1 view .LVU924
 3359 005c ECE7     		b	.L183
 3360              	.L186:
 3361 005e 00BF     		.align	2
 3362              	.L185:
 3363 0060 58000000 		.word	.LC17
 3364 0064 00000000 		.word	.LANCHOR5
 3365 0068 00000000 		.word	.LANCHOR6
 3366 006c 00000000 		.word	.LANCHOR3
 3367 0070 00000000 		.word	.LANCHOR4
 3368              		.cfi_endproc
 3369              	.LFE106:
 3370              		.fnend
 3372              		.section	.text._GLOBAL__sub_I_huart1,"ax",%progbits
 3373              		.align	1
 3374              		.syntax unified
 3375              		.thumb
 3376              		.thumb_func
 3377              		.fpu softvfp
 3379              	_GLOBAL__sub_I_huart1:
 3380              		.fnstart
 3381              	.LFB122:
 3382              		.loc 1 704 1 view -0
 3383              		.cfi_startproc
 3384              		@ args = 0, pretend = 0, frame = 0
 3385              		@ frame_needed = 0, uses_anonymous_args = 0
 3386 0000 08B5     		push	{r3, lr}
 3387              	.LCFI29:
 3388              		.cfi_def_cfa_offset 8
 3389              		.cfi_offset 3, -8
 3390              		.cfi_offset 14, -4
 3391              		.loc 1 704 1 is_stmt 0 view .LVU926
 3392 0002 4FF6FF71 		movw	r1, #65535
ARM GAS  C:\Users\Admin\AppData\Local\Temp\ccEsCXkX.s 			page 91


 3393 0006 0120     		movs	r0, #1
 3394 0008 FFF7FEFF 		bl	_Z41__static_initialization_and_destruction_0ii
 3395              	.LVL237:
 3396 000c 08BD     		pop	{r3, pc}
 3397              		.cfi_endproc
 3398              	.LFE122:
 3399              		.cantunwind
 3400              		.fnend
 3402              		.section	.init_array,"aw",%init_array
 3403              		.align	2
 3404 0000 00000000 		.word	_GLOBAL__sub_I_huart1(target1)
 3405              		.global	timme
 3406              		.global	timmeTrack
 3407              		.global	doorSensorFirstTime
 3408              		.global	outsideKeyRead
 3409              		.global	insideKeyRead
 3410              		.global	outsideButtonPressed
 3411              		.global	insideButtonPressed
 3412              		.global	doorSensorTimer
 3413              		.global	outsideGreenLed
 3414              		.global	insideGreenLed
 3415              		.global	outsideZumer
 3416              		.global	insideZumer
 3417              		.global	siren
 3418              		.global	lock
 3419              		.global	door
 3420              		.global	previousWorkMode
 3421              		.global	workMode
 3422              		.global	intercomMode
 3423              		.global	wig_flag_inrt
 3424              		.global	huart1
 3425              		.section	.bss._ZGVZ10AlarmEventvE10alarmTimer,"aw",%nobits
 3426              		.align	2
 3427              		.set	.LANCHOR30,. + 0
 3430              	_ZGVZ10AlarmEventvE10alarmTimer:
 3431 0000 00000000 		.space	4
 3432              		.section	.bss._ZGVZ12DenyKeyEventvE9denyTimer,"aw",%nobits
 3433              		.align	2
 3434              		.set	.LANCHOR8,. + 0
 3437              	_ZGVZ12DenyKeyEventvE9denyTimer:
 3438 0000 00000000 		.space	4
 3439              		.section	.bss._ZGVZ14TempAlarmEventvE10sirenTimer,"aw",%nobits
 3440              		.align	2
 3441              		.set	.LANCHOR27,. + 0
 3444              	_ZGVZ14TempAlarmEventvE10sirenTimer:
 3445 0000 00000000 		.space	4
 3446              		.section	.bss._ZGVZ17TempOpenModeEventvE10zumerTimer,"aw",%nobits
 3447              		.align	2
 3448              		.set	.LANCHOR24,. + 0
 3451              	_ZGVZ17TempOpenModeEventvE10zumerTimer:
 3452 0000 00000000 		.space	4
 3453              		.section	.bss._ZGVZ17TempOpenModeEventvE9lockTimer,"aw",%nobits
 3454              		.align	2
 3455              		.set	.LANCHOR22,. + 0
 3458              	_ZGVZ17TempOpenModeEventvE9lockTimer:
 3459 0000 00000000 		.space	4
 3460              		.section	.bss._ZZ10AlarmEventvE10alarmTimer,"aw",%nobits
ARM GAS  C:\Users\Admin\AppData\Local\Temp\ccEsCXkX.s 			page 92


 3461              		.align	2
 3462              		.set	.LANCHOR31,. + 0
 3465              	_ZZ10AlarmEventvE10alarmTimer:
 3466 0000 00000000 		.space	8
 3466      00000000 
 3467              		.section	.bss._ZZ12DenyKeyEventvE9denyTimer,"aw",%nobits
 3468              		.align	2
 3469              		.set	.LANCHOR9,. + 0
 3472              	_ZZ12DenyKeyEventvE9denyTimer:
 3473 0000 00000000 		.space	8
 3473      00000000 
 3474              		.section	.bss._ZZ14TempAlarmEventvE10sirenTimer,"aw",%nobits
 3475              		.align	2
 3476              		.set	.LANCHOR28,. + 0
 3479              	_ZZ14TempAlarmEventvE10sirenTimer:
 3480 0000 00000000 		.space	8
 3480      00000000 
 3481              		.section	.bss._ZZ17TempOpenModeEventvE10zumerTimer,"aw",%nobits
 3482              		.align	2
 3483              		.set	.LANCHOR25,. + 0
 3486              	_ZZ17TempOpenModeEventvE10zumerTimer:
 3487 0000 00000000 		.space	8
 3487      00000000 
 3488              		.section	.bss._ZZ17TempOpenModeEventvE9lockTimer,"aw",%nobits
 3489              		.align	2
 3490              		.set	.LANCHOR23,. + 0
 3493              	_ZZ17TempOpenModeEventvE9lockTimer:
 3494 0000 00000000 		.space	8
 3494      00000000 
 3495              		.section	.bss.door,"aw",%nobits
 3496              		.align	2
 3497              		.set	.LANCHOR0,. + 0
 3500              	door:
 3501 0000 00000000 		.space	8
 3501      00000000 
 3502              		.section	.bss.doorSensorTimer,"aw",%nobits
 3503              		.align	2
 3504              		.set	.LANCHOR7,. + 0
 3507              	doorSensorTimer:
 3508 0000 00000000 		.space	8
 3508      00000000 
 3509              		.section	.bss.huart1,"aw",%nobits
 3510              		.align	2
 3511              		.set	.LANCHOR19,. + 0
 3514              	huart1:
 3515 0000 00000000 		.space	64
 3515      00000000 
 3515      00000000 
 3515      00000000 
 3515      00000000 
 3516              		.section	.bss.insideButtonPressed,"aw",%nobits
 3517              		.set	.LANCHOR13,. + 0
 3520              	insideButtonPressed:
 3521 0000 00       		.space	1
 3522              		.section	.bss.insideGreenLed,"aw",%nobits
 3523              		.align	2
 3524              		.set	.LANCHOR5,. + 0
ARM GAS  C:\Users\Admin\AppData\Local\Temp\ccEsCXkX.s 			page 93


 3527              	insideGreenLed:
 3528 0000 00000000 		.space	8
 3528      00000000 
 3529              		.section	.bss.insideKeyRead,"aw",%nobits
 3530              		.set	.LANCHOR17,. + 0
 3533              	insideKeyRead:
 3534 0000 00       		.space	1
 3535              		.section	.bss.insideZumer,"aw",%nobits
 3536              		.align	2
 3537              		.set	.LANCHOR3,. + 0
 3540              	insideZumer:
 3541 0000 00000000 		.space	8
 3541      00000000 
 3542              		.section	.bss.intercomMode,"aw",%nobits
 3543              		.align	2
 3544              		.set	.LANCHOR29,. + 0
 3547              	intercomMode:
 3548 0000 00000000 		.space	4
 3549              		.section	.bss.lock,"aw",%nobits
 3550              		.align	2
 3551              		.set	.LANCHOR1,. + 0
 3554              	lock:
 3555 0000 00000000 		.space	8
 3555      00000000 
 3556              		.section	.bss.outsideButtonPressed,"aw",%nobits
 3557              		.set	.LANCHOR14,. + 0
 3560              	outsideButtonPressed:
 3561 0000 00       		.space	1
 3562              		.section	.bss.outsideGreenLed,"aw",%nobits
 3563              		.align	2
 3564              		.set	.LANCHOR6,. + 0
 3567              	outsideGreenLed:
 3568 0000 00000000 		.space	8
 3568      00000000 
 3569              		.section	.bss.outsideKeyRead,"aw",%nobits
 3570              		.set	.LANCHOR18,. + 0
 3573              	outsideKeyRead:
 3574 0000 00       		.space	1
 3575              		.section	.bss.outsideZumer,"aw",%nobits
 3576              		.align	2
 3577              		.set	.LANCHOR4,. + 0
 3580              	outsideZumer:
 3581 0000 00000000 		.space	8
 3581      00000000 
 3582              		.section	.bss.siren,"aw",%nobits
 3583              		.align	2
 3584              		.set	.LANCHOR2,. + 0
 3587              	siren:
 3588 0000 00000000 		.space	8
 3588      00000000 
 3589              		.section	.bss.timme,"aw",%nobits
 3590              		.align	2
 3591              		.set	.LANCHOR21,. + 0
 3594              	timme:
 3595 0000 00000000 		.space	4
 3596              		.section	.bss.timmeTrack,"aw",%nobits
 3597              		.align	2
ARM GAS  C:\Users\Admin\AppData\Local\Temp\ccEsCXkX.s 			page 94


 3598              		.set	.LANCHOR20,. + 0
 3601              	timmeTrack:
 3602 0000 00000000 		.space	4
 3603              		.section	.data._ZZ10AlarmEventvE9firstTime,"aw"
 3604              		.set	.LANCHOR32,. + 0
 3607              	_ZZ10AlarmEventvE9firstTime:
 3608 0000 01       		.byte	1
 3609              		.section	.data._ZZ12DenyKeyEventvE9firstTime,"aw"
 3610              		.set	.LANCHOR11,. + 0
 3613              	_ZZ12DenyKeyEventvE9firstTime:
 3614 0000 01       		.byte	1
 3615              		.section	.data._ZZ17TempOpenModeEventvE9firstTime,"aw"
 3616              		.set	.LANCHOR26,. + 0
 3619              	_ZZ17TempOpenModeEventvE9firstTime:
 3620 0000 01       		.byte	1
 3621              		.section	.data.doorSensorFirstTime,"aw"
 3622              		.set	.LANCHOR15,. + 0
 3625              	doorSensorFirstTime:
 3626 0000 01       		.byte	1
 3627              		.section	.data.previousWorkMode,"aw"
 3628              		.align	2
 3629              		.set	.LANCHOR12,. + 0
 3632              	previousWorkMode:
 3633 0000 04000000 		.word	4
 3634              		.section	.data.wig_flag_inrt,"aw"
 3635              		.set	.LANCHOR16,. + 0
 3638              	wig_flag_inrt:
 3639 0000 01       		.byte	1
 3640              		.section	.data.workMode,"aw"
 3641              		.align	2
 3642              		.set	.LANCHOR10,. + 0
 3645              	workMode:
 3646 0000 04000000 		.word	4
 3647              		.text
 3648              	.Letext0:
 3649              		.file 7 "Drivers/CMSIS/Device/ST/STM32F1xx/Include/stm32f103xg.h"
 3650              		.file 8 "e:\\dev\\tools\\gcc-arm-none-eabi-10-2020-q4-major\\arm-none-eabi\\include\\machine\\_def
 3651              		.file 9 "e:\\dev\\tools\\gcc-arm-none-eabi-10-2020-q4-major\\arm-none-eabi\\include\\sys\\_stdint.
 3652              		.file 10 "Drivers/CMSIS/Device/ST/STM32F1xx/Include/stm32f1xx.h"
 3653              		.file 11 "Drivers/STM32F1xx_HAL_Driver/Inc/stm32f1xx_hal_def.h"
 3654              		.file 12 "Drivers/STM32F1xx_HAL_Driver/Inc/stm32f1xx_hal_rcc.h"
 3655              		.file 13 "Drivers/STM32F1xx_HAL_Driver/Inc/stm32f1xx_hal_rcc_ex.h"
 3656              		.file 14 "Drivers/STM32F1xx_HAL_Driver/Inc/stm32f1xx_hal_gpio.h"
 3657              		.file 15 "Drivers/STM32F1xx_HAL_Driver/Inc/stm32f1xx_hal_dma.h"
 3658              		.file 16 "Drivers/STM32F1xx_HAL_Driver/Inc/stm32f1xx_hal_uart.h"
 3659              		.file 17 "Drivers/STM32F1xx_HAL_Driver/Inc/stm32f1xx_hal.h"
 3660              		.file 18 "e:\\dev\\tools\\gcc-arm-none-eabi-10-2020-q4-major\\lib\\gcc\\arm-none-eabi\\10.2.1\\inc
 3661              		.file 19 "e:\\dev\\tools\\gcc-arm-none-eabi-10-2020-q4-major\\arm-none-eabi\\include\\stdio.h"
 3662              		.file 20 "Core/Inc/PinOut.h"
 3663              		.file 21 "Core/Inc/State.h"
 3664              		.file 22 "Core/Inc/WorkMode.h"
 3665              		.file 23 "Core/Inc/IntercomMode.h"
 3666              		.file 24 "e:\\dev\\tools\\gcc-arm-none-eabi-10-2020-q4-major\\arm-none-eabi\\include\\string.h"
 3667              		.file 25 "Core/Inc/wiegand.h"
 3668              		.file 26 "Drivers/STM32F1xx_HAL_Driver/Inc/stm32f1xx_hal_cortex.h"
 3669              		.file 27 "<built-in>"
ARM GAS  C:\Users\Admin\AppData\Local\Temp\ccEsCXkX.s 			page 95


DEFINED SYMBOLS
                            *ABS*:00000000 main.cpp
C:\Users\Admin\AppData\Local\Temp\ccEsCXkX.s:16     .text._ZL12MX_GPIO_Initv:00000000 $t
C:\Users\Admin\AppData\Local\Temp\ccEsCXkX.s:23     .text._ZL12MX_GPIO_Initv:00000000 _ZL12MX_GPIO_Initv
C:\Users\Admin\AppData\Local\Temp\ccEsCXkX.s:211    .text._ZL12MX_GPIO_Initv:000000d4 $d
.ARM.exidx.text._ZL12MX_GPIO_Initv:00000000 $d
C:\Users\Admin\AppData\Local\Temp\ccEsCXkX.s:221    .text._Z41__static_initialization_and_destruction_0ii:00000000 $t
C:\Users\Admin\AppData\Local\Temp\ccEsCXkX.s:227    .text._Z41__static_initialization_and_destruction_0ii:00000000 _Z41__static_initialization_and_destruction_0ii
C:\Users\Admin\AppData\Local\Temp\ccEsCXkX.s:412    .text._Z41__static_initialization_and_destruction_0ii:0000008c $d
.ARM.exidx.text._Z41__static_initialization_and_destruction_0ii:00000000 $d
C:\Users\Admin\AppData\Local\Temp\ccEsCXkX.s:428    .text._Z12DenyKeyEventv:00000000 $t
C:\Users\Admin\AppData\Local\Temp\ccEsCXkX.s:435    .text._Z12DenyKeyEventv:00000000 _Z12DenyKeyEventv
C:\Users\Admin\AppData\Local\Temp\ccEsCXkX.s:737    .text._Z12DenyKeyEventv:000000d0 $d
.ARM.extab.text._Z12DenyKeyEventv:00000000 $d
.ARM.exidx.text._Z12DenyKeyEventv:00000000 $d
C:\Users\Admin\AppData\Local\Temp\ccEsCXkX.s:749    .text.HAL_GPIO_EXTI_Callback:00000000 $t
C:\Users\Admin\AppData\Local\Temp\ccEsCXkX.s:756    .text.HAL_GPIO_EXTI_Callback:00000000 HAL_GPIO_EXTI_Callback
C:\Users\Admin\AppData\Local\Temp\ccEsCXkX.s:784    .text.HAL_GPIO_EXTI_Callback:00000014 $d
C:\Users\Admin\AppData\Local\Temp\ccEsCXkX.s:792    .text.HAL_GPIO_EXTI_Callback:0000001c $t
C:\Users\Admin\AppData\Local\Temp\ccEsCXkX.s:938    .text.HAL_GPIO_EXTI_Callback:000000a0 $d
.ARM.extab.text.HAL_GPIO_EXTI_Callback:00000000 $d
.ARM.exidx.text.HAL_GPIO_EXTI_Callback:00000000 $d
C:\Users\Admin\AppData\Local\Temp\ccEsCXkX.s:950    .text._Z11UART_PrintfPKcz:00000000 $t
C:\Users\Admin\AppData\Local\Temp\ccEsCXkX.s:957    .text._Z11UART_PrintfPKcz:00000000 _Z11UART_PrintfPKcz
C:\Users\Admin\AppData\Local\Temp\ccEsCXkX.s:1028   .text._Z11UART_PrintfPKcz:00000038 $d
.ARM.extab.text._Z11UART_PrintfPKcz:00000000 $d
.ARM.exidx.text._Z11UART_PrintfPKcz:00000000 $d
C:\Users\Admin\AppData\Local\Temp\ccEsCXkX.s:1034   .rodata._Z14TimeTrackEventv.str1.4:00000000 $d
C:\Users\Admin\AppData\Local\Temp\ccEsCXkX.s:1041   .text._Z14TimeTrackEventv:00000000 $t
C:\Users\Admin\AppData\Local\Temp\ccEsCXkX.s:1048   .text._Z14TimeTrackEventv:00000000 _Z14TimeTrackEventv
C:\Users\Admin\AppData\Local\Temp\ccEsCXkX.s:1105   .text._Z14TimeTrackEventv:0000003c $d
.ARM.extab.text._Z14TimeTrackEventv:00000000 $d
.ARM.exidx.text._Z14TimeTrackEventv:00000000 $d
C:\Users\Admin\AppData\Local\Temp\ccEsCXkX.s:1115   .rodata._Z15DoorSensorEventv.str1.4:00000000 $d
C:\Users\Admin\AppData\Local\Temp\ccEsCXkX.s:1122   .text._Z15DoorSensorEventv:00000000 $t
C:\Users\Admin\AppData\Local\Temp\ccEsCXkX.s:1129   .text._Z15DoorSensorEventv:00000000 _Z15DoorSensorEventv
C:\Users\Admin\AppData\Local\Temp\ccEsCXkX.s:1315   .text._Z15DoorSensorEventv:00000084 $d
.ARM.exidx.text._Z15DoorSensorEventv:00000000 $d
C:\Users\Admin\AppData\Local\Temp\ccEsCXkX.s:1328   .rodata._Z18ButtonPressedEventv.str1.4:00000000 $d
C:\Users\Admin\AppData\Local\Temp\ccEsCXkX.s:1338   .text._Z18ButtonPressedEventv:00000000 $t
C:\Users\Admin\AppData\Local\Temp\ccEsCXkX.s:1345   .text._Z18ButtonPressedEventv:00000000 _Z18ButtonPressedEventv
C:\Users\Admin\AppData\Local\Temp\ccEsCXkX.s:1399   .text._Z18ButtonPressedEventv:0000002c $d
.ARM.extab.text._Z18ButtonPressedEventv:00000000 $d
.ARM.exidx.text._Z18ButtonPressedEventv:00000000 $d
C:\Users\Admin\AppData\Local\Temp\ccEsCXkX.s:1410   .rodata._Z17TempOpenModeEventv.str1.4:00000000 $d
C:\Users\Admin\AppData\Local\Temp\ccEsCXkX.s:1418   .text._Z17TempOpenModeEventv:00000000 $t
C:\Users\Admin\AppData\Local\Temp\ccEsCXkX.s:1425   .text._Z17TempOpenModeEventv:00000000 _Z17TempOpenModeEventv
C:\Users\Admin\AppData\Local\Temp\ccEsCXkX.s:1988   .text._Z17TempOpenModeEventv:00000188 $d
.ARM.exidx.text._Z17TempOpenModeEventv:00000000 $d
C:\Users\Admin\AppData\Local\Temp\ccEsCXkX.s:2009   .text._Z14TempAlarmEventv:00000000 $t
C:\Users\Admin\AppData\Local\Temp\ccEsCXkX.s:2016   .text._Z14TempAlarmEventv:00000000 _Z14TempAlarmEventv
C:\Users\Admin\AppData\Local\Temp\ccEsCXkX.s:2243   .text._Z14TempAlarmEventv:000000ac $d
.ARM.extab.text._Z14TempAlarmEventv:00000000 $d
.ARM.exidx.text._Z14TempAlarmEventv:00000000 $d
C:\Users\Admin\AppData\Local\Temp\ccEsCXkX.s:2256   .text._Z10verifyCodem:00000000 $t
C:\Users\Admin\AppData\Local\Temp\ccEsCXkX.s:2263   .text._Z10verifyCodem:00000000 _Z10verifyCodem
C:\Users\Admin\AppData\Local\Temp\ccEsCXkX.s:2311   .text._Z10verifyCodem:00000018 $d
ARM GAS  C:\Users\Admin\AppData\Local\Temp\ccEsCXkX.s 			page 96


  .ARM.exidx.text._Z10verifyCodem:00000000 $d
C:\Users\Admin\AppData\Local\Temp\ccEsCXkX.s:2318   .rodata._Z12KeyReadEventv.str1.4:00000000 $d
C:\Users\Admin\AppData\Local\Temp\ccEsCXkX.s:2333   .text._Z12KeyReadEventv:00000000 $t
C:\Users\Admin\AppData\Local\Temp\ccEsCXkX.s:2340   .text._Z12KeyReadEventv:00000000 _Z12KeyReadEventv
C:\Users\Admin\AppData\Local\Temp\ccEsCXkX.s:2477   .text._Z12KeyReadEventv:00000098 $d
.ARM.exidx.text._Z12KeyReadEventv:00000000 $d
C:\Users\Admin\AppData\Local\Temp\ccEsCXkX.s:2493   .rodata._Z10AlarmEventv.str1.4:00000000 $d
C:\Users\Admin\AppData\Local\Temp\ccEsCXkX.s:2497   .text._Z10AlarmEventv:00000000 $t
C:\Users\Admin\AppData\Local\Temp\ccEsCXkX.s:2504   .text._Z10AlarmEventv:00000000 _Z10AlarmEventv
C:\Users\Admin\AppData\Local\Temp\ccEsCXkX.s:2758   .text._Z10AlarmEventv:000000d4 $d
  .ARM.extab.text._Z10AlarmEventv:00000000 $d
  .ARM.exidx.text._Z10AlarmEventv:00000000 $d
C:\Users\Admin\AppData\Local\Temp\ccEsCXkX.s:2771   .rodata._Z10switchModev.str1.4:00000000 $d
C:\Users\Admin\AppData\Local\Temp\ccEsCXkX.s:2787   .text._Z10switchModev:00000000 $t
C:\Users\Admin\AppData\Local\Temp\ccEsCXkX.s:2794   .text._Z10switchModev:00000000 _Z10switchModev
C:\Users\Admin\AppData\Local\Temp\ccEsCXkX.s:2814   .text._Z10switchModev:0000000e $d
C:\Users\Admin\AppData\Local\Temp\ccEsCXkX.s:2818   .text._Z10switchModev:00000012 $t
C:\Users\Admin\AppData\Local\Temp\ccEsCXkX.s:2925   .text._Z10switchModev:00000078 $d
  .ARM.extab.text._Z10switchModev:00000000 $d
  .ARM.exidx.text._Z10switchModev:00000000 $d
C:\Users\Admin\AppData\Local\Temp\ccEsCXkX.s:2937   .text._Z15ChangeModeEventv:00000000 $t
C:\Users\Admin\AppData\Local\Temp\ccEsCXkX.s:2944   .text._Z15ChangeModeEventv:00000000 _Z15ChangeModeEventv
C:\Users\Admin\AppData\Local\Temp\ccEsCXkX.s:2989   .text._Z15ChangeModeEventv:00000024 $d
.ARM.extab.text._Z15ChangeModeEventv:00000000 $d
.ARM.exidx.text._Z15ChangeModeEventv:00000000 $d
C:\Users\Admin\AppData\Local\Temp\ccEsCXkX.s:2995   .text.Error_Handler:00000000 $t
C:\Users\Admin\AppData\Local\Temp\ccEsCXkX.s:3002   .text.Error_Handler:00000000 Error_Handler
    .ARM.exidx.text.Error_Handler:00000000 $d
C:\Users\Admin\AppData\Local\Temp\ccEsCXkX.s:3036   .text._Z18SystemClock_Configv:00000000 $t
C:\Users\Admin\AppData\Local\Temp\ccEsCXkX.s:3043   .text._Z18SystemClock_Configv:00000000 _Z18SystemClock_Configv
.ARM.exidx.text._Z18SystemClock_Configv:00000000 $d
C:\Users\Admin\AppData\Local\Temp\ccEsCXkX.s:3152   .text._ZL19MX_USART1_UART_Initv:00000000 $t
C:\Users\Admin\AppData\Local\Temp\ccEsCXkX.s:3158   .text._ZL19MX_USART1_UART_Initv:00000000 _ZL19MX_USART1_UART_Initv
C:\Users\Admin\AppData\Local\Temp\ccEsCXkX.s:3216   .text._ZL19MX_USART1_UART_Initv:0000002c $d
.ARM.extab.text._ZL19MX_USART1_UART_Initv:00000000 $d
.ARM.exidx.text._ZL19MX_USART1_UART_Initv:00000000 $d
C:\Users\Admin\AppData\Local\Temp\ccEsCXkX.s:3223   .text.main:00000000 $t
C:\Users\Admin\AppData\Local\Temp\ccEsCXkX.s:3230   .text.main:00000000 main
C:\Users\Admin\AppData\Local\Temp\ccEsCXkX.s:3363   .text.main:00000060 $d
             .ARM.extab.text.main:00000000 $d
             .ARM.exidx.text.main:00000000 $d
C:\Users\Admin\AppData\Local\Temp\ccEsCXkX.s:3373   .text._GLOBAL__sub_I_huart1:00000000 $t
C:\Users\Admin\AppData\Local\Temp\ccEsCXkX.s:3379   .text._GLOBAL__sub_I_huart1:00000000 _GLOBAL__sub_I_huart1
.ARM.exidx.text._GLOBAL__sub_I_huart1:00000000 $d
C:\Users\Admin\AppData\Local\Temp\ccEsCXkX.s:3403   .init_array:00000000 $d
C:\Users\Admin\AppData\Local\Temp\ccEsCXkX.s:3594   .bss.timme:00000000 timme
C:\Users\Admin\AppData\Local\Temp\ccEsCXkX.s:3601   .bss.timmeTrack:00000000 timmeTrack
C:\Users\Admin\AppData\Local\Temp\ccEsCXkX.s:3625   .data.doorSensorFirstTime:00000000 doorSensorFirstTime
C:\Users\Admin\AppData\Local\Temp\ccEsCXkX.s:3573   .bss.outsideKeyRead:00000000 outsideKeyRead
C:\Users\Admin\AppData\Local\Temp\ccEsCXkX.s:3533   .bss.insideKeyRead:00000000 insideKeyRead
C:\Users\Admin\AppData\Local\Temp\ccEsCXkX.s:3560   .bss.outsideButtonPressed:00000000 outsideButtonPressed
C:\Users\Admin\AppData\Local\Temp\ccEsCXkX.s:3520   .bss.insideButtonPressed:00000000 insideButtonPressed
C:\Users\Admin\AppData\Local\Temp\ccEsCXkX.s:3507   .bss.doorSensorTimer:00000000 doorSensorTimer
C:\Users\Admin\AppData\Local\Temp\ccEsCXkX.s:3567   .bss.outsideGreenLed:00000000 outsideGreenLed
C:\Users\Admin\AppData\Local\Temp\ccEsCXkX.s:3527   .bss.insideGreenLed:00000000 insideGreenLed
C:\Users\Admin\AppData\Local\Temp\ccEsCXkX.s:3580   .bss.outsideZumer:00000000 outsideZumer
C:\Users\Admin\AppData\Local\Temp\ccEsCXkX.s:3540   .bss.insideZumer:00000000 insideZumer
ARM GAS  C:\Users\Admin\AppData\Local\Temp\ccEsCXkX.s 			page 97


C:\Users\Admin\AppData\Local\Temp\ccEsCXkX.s:3587   .bss.siren:00000000 siren
C:\Users\Admin\AppData\Local\Temp\ccEsCXkX.s:3554   .bss.lock:00000000 lock
C:\Users\Admin\AppData\Local\Temp\ccEsCXkX.s:3500   .bss.door:00000000 door
C:\Users\Admin\AppData\Local\Temp\ccEsCXkX.s:3632   .data.previousWorkMode:00000000 previousWorkMode
C:\Users\Admin\AppData\Local\Temp\ccEsCXkX.s:3645   .data.workMode:00000000 workMode
C:\Users\Admin\AppData\Local\Temp\ccEsCXkX.s:3547   .bss.intercomMode:00000000 intercomMode
C:\Users\Admin\AppData\Local\Temp\ccEsCXkX.s:3638   .data.wig_flag_inrt:00000000 wig_flag_inrt
C:\Users\Admin\AppData\Local\Temp\ccEsCXkX.s:3514   .bss.huart1:00000000 huart1
C:\Users\Admin\AppData\Local\Temp\ccEsCXkX.s:3426   .bss._ZGVZ10AlarmEventvE10alarmTimer:00000000 $d
C:\Users\Admin\AppData\Local\Temp\ccEsCXkX.s:3430   .bss._ZGVZ10AlarmEventvE10alarmTimer:00000000 _ZGVZ10AlarmEventvE10alarmTimer
C:\Users\Admin\AppData\Local\Temp\ccEsCXkX.s:3433   .bss._ZGVZ12DenyKeyEventvE9denyTimer:00000000 $d
C:\Users\Admin\AppData\Local\Temp\ccEsCXkX.s:3437   .bss._ZGVZ12DenyKeyEventvE9denyTimer:00000000 _ZGVZ12DenyKeyEventvE9denyTimer
C:\Users\Admin\AppData\Local\Temp\ccEsCXkX.s:3440   .bss._ZGVZ14TempAlarmEventvE10sirenTimer:00000000 $d
C:\Users\Admin\AppData\Local\Temp\ccEsCXkX.s:3444   .bss._ZGVZ14TempAlarmEventvE10sirenTimer:00000000 _ZGVZ14TempAlarmEventvE10sirenTimer
C:\Users\Admin\AppData\Local\Temp\ccEsCXkX.s:3447   .bss._ZGVZ17TempOpenModeEventvE10zumerTimer:00000000 $d
C:\Users\Admin\AppData\Local\Temp\ccEsCXkX.s:3451   .bss._ZGVZ17TempOpenModeEventvE10zumerTimer:00000000 _ZGVZ17TempOpenModeEventvE10zumerTimer
C:\Users\Admin\AppData\Local\Temp\ccEsCXkX.s:3454   .bss._ZGVZ17TempOpenModeEventvE9lockTimer:00000000 $d
C:\Users\Admin\AppData\Local\Temp\ccEsCXkX.s:3458   .bss._ZGVZ17TempOpenModeEventvE9lockTimer:00000000 _ZGVZ17TempOpenModeEventvE9lockTimer
C:\Users\Admin\AppData\Local\Temp\ccEsCXkX.s:3461   .bss._ZZ10AlarmEventvE10alarmTimer:00000000 $d
C:\Users\Admin\AppData\Local\Temp\ccEsCXkX.s:3465   .bss._ZZ10AlarmEventvE10alarmTimer:00000000 _ZZ10AlarmEventvE10alarmTimer
C:\Users\Admin\AppData\Local\Temp\ccEsCXkX.s:3468   .bss._ZZ12DenyKeyEventvE9denyTimer:00000000 $d
C:\Users\Admin\AppData\Local\Temp\ccEsCXkX.s:3472   .bss._ZZ12DenyKeyEventvE9denyTimer:00000000 _ZZ12DenyKeyEventvE9denyTimer
C:\Users\Admin\AppData\Local\Temp\ccEsCXkX.s:3475   .bss._ZZ14TempAlarmEventvE10sirenTimer:00000000 $d
C:\Users\Admin\AppData\Local\Temp\ccEsCXkX.s:3479   .bss._ZZ14TempAlarmEventvE10sirenTimer:00000000 _ZZ14TempAlarmEventvE10sirenTimer
C:\Users\Admin\AppData\Local\Temp\ccEsCXkX.s:3482   .bss._ZZ17TempOpenModeEventvE10zumerTimer:00000000 $d
C:\Users\Admin\AppData\Local\Temp\ccEsCXkX.s:3486   .bss._ZZ17TempOpenModeEventvE10zumerTimer:00000000 _ZZ17TempOpenModeEventvE10zumerTimer
C:\Users\Admin\AppData\Local\Temp\ccEsCXkX.s:3489   .bss._ZZ17TempOpenModeEventvE9lockTimer:00000000 $d
C:\Users\Admin\AppData\Local\Temp\ccEsCXkX.s:3493   .bss._ZZ17TempOpenModeEventvE9lockTimer:00000000 _ZZ17TempOpenModeEventvE9lockTimer
C:\Users\Admin\AppData\Local\Temp\ccEsCXkX.s:3496   .bss.door:00000000 $d
C:\Users\Admin\AppData\Local\Temp\ccEsCXkX.s:3503   .bss.doorSensorTimer:00000000 $d
C:\Users\Admin\AppData\Local\Temp\ccEsCXkX.s:3510   .bss.huart1:00000000 $d
C:\Users\Admin\AppData\Local\Temp\ccEsCXkX.s:3521   .bss.insideButtonPressed:00000000 $d
C:\Users\Admin\AppData\Local\Temp\ccEsCXkX.s:3523   .bss.insideGreenLed:00000000 $d
C:\Users\Admin\AppData\Local\Temp\ccEsCXkX.s:3534   .bss.insideKeyRead:00000000 $d
C:\Users\Admin\AppData\Local\Temp\ccEsCXkX.s:3536   .bss.insideZumer:00000000 $d
C:\Users\Admin\AppData\Local\Temp\ccEsCXkX.s:3543   .bss.intercomMode:00000000 $d
C:\Users\Admin\AppData\Local\Temp\ccEsCXkX.s:3550   .bss.lock:00000000 $d
C:\Users\Admin\AppData\Local\Temp\ccEsCXkX.s:3561   .bss.outsideButtonPressed:00000000 $d
C:\Users\Admin\AppData\Local\Temp\ccEsCXkX.s:3563   .bss.outsideGreenLed:00000000 $d
C:\Users\Admin\AppData\Local\Temp\ccEsCXkX.s:3574   .bss.outsideKeyRead:00000000 $d
C:\Users\Admin\AppData\Local\Temp\ccEsCXkX.s:3576   .bss.outsideZumer:00000000 $d
C:\Users\Admin\AppData\Local\Temp\ccEsCXkX.s:3583   .bss.siren:00000000 $d
C:\Users\Admin\AppData\Local\Temp\ccEsCXkX.s:3590   .bss.timme:00000000 $d
C:\Users\Admin\AppData\Local\Temp\ccEsCXkX.s:3597   .bss.timmeTrack:00000000 $d
C:\Users\Admin\AppData\Local\Temp\ccEsCXkX.s:3607   .data._ZZ10AlarmEventvE9firstTime:00000000 _ZZ10AlarmEventvE9firstTime
C:\Users\Admin\AppData\Local\Temp\ccEsCXkX.s:3613   .data._ZZ12DenyKeyEventvE9firstTime:00000000 _ZZ12DenyKeyEventvE9firstTime
C:\Users\Admin\AppData\Local\Temp\ccEsCXkX.s:3619   .data._ZZ17TempOpenModeEventvE9firstTime:00000000 _ZZ17TempOpenModeEventvE9firstTime
C:\Users\Admin\AppData\Local\Temp\ccEsCXkX.s:3628   .data.previousWorkMode:00000000 $d
C:\Users\Admin\AppData\Local\Temp\ccEsCXkX.s:3641   .data.workMode:00000000 $d

UNDEFINED SYMBOLS
HAL_GPIO_Init
HAL_NVIC_SetPriority
HAL_NVIC_EnableIRQ
__aeabi_unwind_cpp_pr0
_ZN6PinOutC1EP12GPIO_TypeDeft
_ZN6PinOutC2EP12GPIO_TypeDeft
ARM GAS  C:\Users\Admin\AppData\Local\Temp\ccEsCXkX.s 			page 98


__cxa_guard_acquire
__cxa_guard_release
HAL_GetTick
_ZN6PinOut8setStateE5State
__aeabi_unwind_cpp_pr1
ReadD0
ReadD1
vsnprintf
strlen
HAL_UART_Transmit
HAL_GPIO_ReadPin
_ZN6PinOut6turnOnEv
_ZN6PinOut7turnOffEv
wig_available
getCode
memset
HAL_RCC_OscConfig
HAL_RCC_ClockConfig
HAL_UART_Init
HAL_Init
