ARM GAS  C:\Users\Admin\AppData\Local\Temp\cc8l8Vwd.s 			page 1


   1              		.cpu cortex-m3
   2              		.eabi_attribute 20, 1
   3              		.eabi_attribute 21, 1
   4              		.eabi_attribute 23, 3
   5              		.eabi_attribute 24, 1
   6              		.eabi_attribute 25, 1
   7              		.eabi_attribute 26, 1
   8              		.eabi_attribute 30, 1
   9              		.eabi_attribute 34, 1
  10              		.eabi_attribute 18, 4
  11              		.file	"main.cpp"
  12              		.text
  13              	.Ltext0:
  14              		.cfi_sections	.debug_frame
  15              		.section	.text._Z41__static_initialization_and_destruction_0ii,"ax",%progbits
  16              		.align	1
  17              		.arch armv7-m
  18              		.syntax unified
  19              		.thumb
  20              		.thumb_func
  21              		.fpu softvfp
  23              	_Z41__static_initialization_and_destruction_0ii:
  24              		.fnstart
  25              	.LVL0:
  26              	.LFB123:
  27              		.file 1 "Core/Src/main.cpp"
   1:Core/Src/main.cpp **** /* USER CODE BEGIN Header */
   2:Core/Src/main.cpp **** /**
   3:Core/Src/main.cpp ****   ******************************************************************************
   4:Core/Src/main.cpp ****   * @file           : main.c
   5:Core/Src/main.cpp ****   * @brief          : Main program body
   6:Core/Src/main.cpp ****   ******************************************************************************
   7:Core/Src/main.cpp ****   * @attention
   8:Core/Src/main.cpp ****   *
   9:Core/Src/main.cpp ****   * <h2><center>&copy; Copyright (c) 2021 STMicroelectronics.
  10:Core/Src/main.cpp ****   * All rights reserved.</center></h2>
  11:Core/Src/main.cpp ****   *
  12:Core/Src/main.cpp ****   * This software component is licensed by ST under BSD 3-Clause license,
  13:Core/Src/main.cpp ****   * the "License"; You may not use this file except in compliance with the
  14:Core/Src/main.cpp ****   * License. You may obtain a copy of the License at:
  15:Core/Src/main.cpp ****   *                        opensource.org/licenses/BSD-3-Clause
  16:Core/Src/main.cpp ****   *
  17:Core/Src/main.cpp ****   ******************************************************************************
  18:Core/Src/main.cpp ****   */
  19:Core/Src/main.cpp **** /* USER CODE END Header */
  20:Core/Src/main.cpp **** /* Includes ------------------------------------------------------------------*/
  21:Core/Src/main.cpp **** #include "main.h"
  22:Core/Src/main.cpp **** 
  23:Core/Src/main.cpp **** /* Private includes ----------------------------------------------------------*/
  24:Core/Src/main.cpp **** /* USER CODE BEGIN Includes */
  25:Core/Src/main.cpp **** #include "string.h"
  26:Core/Src/main.cpp **** #include <stdio.h>
  27:Core/Src/main.cpp **** #include "wiegand.h"
  28:Core/Src/main.cpp **** #include <stdarg.h>
  29:Core/Src/main.cpp **** // #include <stdbool.h>
  30:Core/Src/main.cpp **** /* USER CODE END Includes */
  31:Core/Src/main.cpp **** 
ARM GAS  C:\Users\Admin\AppData\Local\Temp\cc8l8Vwd.s 			page 2


  32:Core/Src/main.cpp **** /* Private typedef -----------------------------------------------------------*/
  33:Core/Src/main.cpp **** /* USER CODE BEGIN PTD */
  34:Core/Src/main.cpp **** 
  35:Core/Src/main.cpp **** /* USER CODE END PTD */
  36:Core/Src/main.cpp **** 
  37:Core/Src/main.cpp **** /* Private define ------------------------------------------------------------*/
  38:Core/Src/main.cpp **** /* USER CODE BEGIN PD */
  39:Core/Src/main.cpp **** /* USER CODE END PD */
  40:Core/Src/main.cpp **** 
  41:Core/Src/main.cpp **** /* Private macro -------------------------------------------------------------*/
  42:Core/Src/main.cpp **** /* USER CODE BEGIN PM */
  43:Core/Src/main.cpp **** /* USER CODE END PM */
  44:Core/Src/main.cpp **** 
  45:Core/Src/main.cpp **** /* Private variables ---------------------------------------------------------*/
  46:Core/Src/main.cpp **** UART_HandleTypeDef huart1;
  47:Core/Src/main.cpp **** 
  48:Core/Src/main.cpp **** /* USER CODE BEGIN PV */
  49:Core/Src/main.cpp **** 
  50:Core/Src/main.cpp **** volatile uint8_t wig_flag_inrt = 1;
  51:Core/Src/main.cpp **** 
  52:Core/Src/main.cpp **** /* USER CODE END PV */
  53:Core/Src/main.cpp **** 
  54:Core/Src/main.cpp **** /* Private function prototypes -----------------------------------------------*/
  55:Core/Src/main.cpp **** void SystemClock_Config(void);
  56:Core/Src/main.cpp **** static void MX_GPIO_Init(void);
  57:Core/Src/main.cpp **** static void MX_USART1_UART_Init(void);
  58:Core/Src/main.cpp **** 
  59:Core/Src/main.cpp **** /* Private user code ---------------------------------------------------------*/
  60:Core/Src/main.cpp **** /* USER CODE BEGIN 0 */
  61:Core/Src/main.cpp **** 
  62:Core/Src/main.cpp **** enum WorkMode
  63:Core/Src/main.cpp **** {
  64:Core/Src/main.cpp ****   NormalMode,
  65:Core/Src/main.cpp ****   ClosedMode,
  66:Core/Src/main.cpp ****   OpenMode,
  67:Core/Src/main.cpp ****   CondOpenMode,
  68:Core/Src/main.cpp ****   TempOpenMode,
  69:Core/Src/main.cpp ****   AlarmMode,
  70:Core/Src/main.cpp ****   NoMode
  71:Core/Src/main.cpp **** };
  72:Core/Src/main.cpp **** /**
  73:Core/Src/main.cpp ****    * NormalMode,
  74:Core/Src/main.cpp ****    * ClosedMode,
  75:Core/Src/main.cpp ****    * OpenMode,
  76:Core/Src/main.cpp ****    * CondOpenMode,
  77:Core/Src/main.cpp ****    * TempOpenMode,
  78:Core/Src/main.cpp ****    * AlarmMode
  79:Core/Src/main.cpp ****   */
  80:Core/Src/main.cpp **** WorkMode workMode = NormalMode, previousWorkMode = NormalMode;
  81:Core/Src/main.cpp **** 
  82:Core/Src/main.cpp **** enum State
  83:Core/Src/main.cpp **** {
  84:Core/Src/main.cpp ****   OpenedState,
  85:Core/Src/main.cpp ****   ClosedState,
  86:Core/Src/main.cpp ****   NullState
  87:Core/Src/main.cpp **** };
  88:Core/Src/main.cpp **** 
ARM GAS  C:\Users\Admin\AppData\Local\Temp\cc8l8Vwd.s 			page 3


  89:Core/Src/main.cpp **** enum BeepState
  90:Core/Src/main.cpp **** {
  91:Core/Src/main.cpp ****   Off,
  92:Core/Src/main.cpp ****   On
  93:Core/Src/main.cpp **** };
  94:Core/Src/main.cpp **** 
  95:Core/Src/main.cpp **** enum RelayType
  96:Core/Src/main.cpp **** {
  97:Core/Src/main.cpp ****   Constant,
  98:Core/Src/main.cpp ****   Impulse,
  99:Core/Src/main.cpp ****   ConstantSwitch,
 100:Core/Src/main.cpp ****   Valve,
 101:Core/Src/main.cpp ****   Null
 102:Core/Src/main.cpp **** };
 103:Core/Src/main.cpp **** 
 104:Core/Src/main.cpp **** enum AlarmCause
 105:Core/Src/main.cpp **** {
 106:Core/Src/main.cpp ****   OpenedDoor,
 107:Core/Src/main.cpp ****   None
 108:Core/Src/main.cpp **** };
 109:Core/Src/main.cpp **** AlarmCause alarmCause = None;
 110:Core/Src/main.cpp **** /* USER CODE BEGIN PFP */
 111:Core/Src/main.cpp **** 
 112:Core/Src/main.cpp **** /*----> Functions Declaration Start <----*/
 113:Core/Src/main.cpp **** 
 114:Core/Src/main.cpp **** /**
 115:Core/Src/main.cpp ****  * @brief Event to track time between modes
 116:Core/Src/main.cpp ****  * @retval None
 117:Core/Src/main.cpp **** */
 118:Core/Src/main.cpp **** void timeTrackEvent();
 119:Core/Src/main.cpp **** /**
 120:Core/Src/main.cpp ****  * @brief Event to change work mode every 15 seconds
 121:Core/Src/main.cpp ****  * @retval None
 122:Core/Src/main.cpp **** */
 123:Core/Src/main.cpp **** void changeModeEvent();
 124:Core/Src/main.cpp **** /**
 125:Core/Src/main.cpp ****  * @brief Event to check if door was [opened]/[closed] and [print]/[close relay and print]
 126:Core/Src/main.cpp ****  * @retval None
 127:Core/Src/main.cpp **** */
 128:Core/Src/main.cpp **** void doorChangedStateEvent();
 129:Core/Src/main.cpp **** /**
 130:Core/Src/main.cpp ****  * @brief Event to check the intercom key reader
 131:Core/Src/main.cpp ****  * @retval None
 132:Core/Src/main.cpp **** */
 133:Core/Src/main.cpp **** void intercomKeyEvent();
 134:Core/Src/main.cpp **** /**
 135:Core/Src/main.cpp ****  * @brief Event to check if buttons were pressed
 136:Core/Src/main.cpp ****  * @retval None
 137:Core/Src/main.cpp **** */
 138:Core/Src/main.cpp **** void buttonPressedEvent();
 139:Core/Src/main.cpp **** /**
 140:Core/Src/main.cpp ****  * @brief Event to check if door [is not closed]/[closed and relay is opened] and [enable alarm]/[c
 141:Core/Src/main.cpp ****  * @retval None
 142:Core/Src/main.cpp **** */
 143:Core/Src/main.cpp **** void doorCheckEvent();
 144:Core/Src/main.cpp **** /**
 145:Core/Src/main.cpp ****  * @brief Event to check relay state and enable/disable green light on intercoms
ARM GAS  C:\Users\Admin\AppData\Local\Temp\cc8l8Vwd.s 			page 4


 146:Core/Src/main.cpp ****  * @retval None
 147:Core/Src/main.cpp **** */
 148:Core/Src/main.cpp **** void greenLightEvent();
 149:Core/Src/main.cpp **** /**
 150:Core/Src/main.cpp ****  * @brief Event to ring the bell when work mode is TempOpenMode
 151:Core/Src/main.cpp ****  * @retval None
 152:Core/Src/main.cpp **** */
 153:Core/Src/main.cpp **** void bellEvent();
 154:Core/Src/main.cpp **** // not implemented yet
 155:Core/Src/main.cpp **** void alarmEvent();
 156:Core/Src/main.cpp **** 
 157:Core/Src/main.cpp **** /**
 158:Core/Src/main.cpp ****  * @brief Check if given code is allowed to pass
 159:Core/Src/main.cpp ****  * @retval bool
 160:Core/Src/main.cpp **** */
 161:Core/Src/main.cpp **** bool verifyCode(uint32_t code);
 162:Core/Src/main.cpp **** /**
 163:Core/Src/main.cpp ****  * @brief printf
 164:Core/Src/main.cpp ****  * @retval None
 165:Core/Src/main.cpp **** */
 166:Core/Src/main.cpp **** void UART_Printf(const char *fmt, ...);
 167:Core/Src/main.cpp **** /**
 168:Core/Src/main.cpp ****  * @brief Switch mode depending on the current one
 169:Core/Src/main.cpp ****  * @retval None
 170:Core/Src/main.cpp **** */
 171:Core/Src/main.cpp **** void switchMode();
 172:Core/Src/main.cpp **** 
 173:Core/Src/main.cpp **** /*----> Functions Declaration End <----*/
 174:Core/Src/main.cpp **** 
 175:Core/Src/main.cpp **** /* USER CODE END PFP */
 176:Core/Src/main.cpp **** 
 177:Core/Src/main.cpp **** class Door
 178:Core/Src/main.cpp **** {
 179:Core/Src/main.cpp ****   private:
 180:Core/Src/main.cpp ****     State doorState;
 181:Core/Src/main.cpp ****     bool doorStateChanged;
 182:Core/Src/main.cpp **** 
 183:Core/Src/main.cpp ****   public:
 184:Core/Src/main.cpp ****     Door();
 185:Core/Src/main.cpp **** 
 186:Core/Src/main.cpp ****     Door(State doorState)
 187:Core/Src/main.cpp ****     {
 188:Core/Src/main.cpp ****       this->doorState = doorState;
 189:Core/Src/main.cpp ****     }
 190:Core/Src/main.cpp **** 
 191:Core/Src/main.cpp ****     State getDoorState()
 192:Core/Src/main.cpp ****     {
 193:Core/Src/main.cpp ****       return doorState;
 194:Core/Src/main.cpp ****     }
 195:Core/Src/main.cpp **** 
 196:Core/Src/main.cpp ****     void setDoorState(State doorState)
 197:Core/Src/main.cpp ****     {
 198:Core/Src/main.cpp ****       this->doorState = doorState;
 199:Core/Src/main.cpp ****       this->doorStateChanged = true;
 200:Core/Src/main.cpp ****     }
 201:Core/Src/main.cpp **** 
 202:Core/Src/main.cpp ****     bool isDoorStateChanged()
ARM GAS  C:\Users\Admin\AppData\Local\Temp\cc8l8Vwd.s 			page 5


 203:Core/Src/main.cpp ****     {
 204:Core/Src/main.cpp ****       return this ->doorStateChanged;
 205:Core/Src/main.cpp ****     }
 206:Core/Src/main.cpp **** 
 207:Core/Src/main.cpp ****     void setDoorStateChanged(bool doorStateChanged)
 208:Core/Src/main.cpp ****     {
 209:Core/Src/main.cpp ****       this ->doorStateChanged = doorStateChanged;
 210:Core/Src/main.cpp ****     }
 211:Core/Src/main.cpp **** };
 212:Core/Src/main.cpp **** 
 213:Core/Src/main.cpp **** Door door = Door(ClosedState);
 214:Core/Src/main.cpp **** 
 215:Core/Src/main.cpp **** class Relay
 216:Core/Src/main.cpp **** {
 217:Core/Src/main.cpp ****   private:
 218:Core/Src/main.cpp ****     RelayType relayType;
 219:Core/Src/main.cpp ****     State relayState;
 220:Core/Src/main.cpp ****     uint32_t relayOpenTime;
 221:Core/Src/main.cpp **** 
 222:Core/Src/main.cpp ****   public:
 223:Core/Src/main.cpp ****     Relay()
 224:Core/Src/main.cpp ****     {
 225:Core/Src/main.cpp **** 
 226:Core/Src/main.cpp ****     }
 227:Core/Src/main.cpp **** 
 228:Core/Src/main.cpp ****     Relay(RelayType relayType, State relayState, uint32_t relayOpenTime)
 229:Core/Src/main.cpp ****     {
 230:Core/Src/main.cpp ****       this->relayType = relayType;
 231:Core/Src/main.cpp ****       this->relayState = relayState;
 232:Core/Src/main.cpp ****       this->relayOpenTime = relayOpenTime;
 233:Core/Src/main.cpp ****     }
 234:Core/Src/main.cpp ****     
 235:Core/Src/main.cpp ****     RelayType getRelayType()
 236:Core/Src/main.cpp ****     {
 237:Core/Src/main.cpp ****       return this->relayType;
 238:Core/Src/main.cpp ****     }
 239:Core/Src/main.cpp **** 
 240:Core/Src/main.cpp ****     void setRelayType(RelayType relayType)
 241:Core/Src/main.cpp ****     {
 242:Core/Src/main.cpp ****       this->relayType = relayType;
 243:Core/Src/main.cpp ****     }
 244:Core/Src/main.cpp **** 
 245:Core/Src/main.cpp ****     State getRelayState()
 246:Core/Src/main.cpp ****     {
 247:Core/Src/main.cpp ****       return this->relayState;
 248:Core/Src/main.cpp ****     }
 249:Core/Src/main.cpp **** 
 250:Core/Src/main.cpp ****     void setRelayState(State relayState)
 251:Core/Src/main.cpp ****     {
 252:Core/Src/main.cpp ****       if(relayState == ClosedState)
 253:Core/Src/main.cpp ****       {
 254:Core/Src/main.cpp ****         if(door.getDoorState() == ClosedState)
 255:Core/Src/main.cpp ****         {
 256:Core/Src/main.cpp ****           UART_Printf("Relay was closed.\r\n");
 257:Core/Src/main.cpp ****           // implement relay closing mechanics
 258:Core/Src/main.cpp ****           this->relayState = relayState;
 259:Core/Src/main.cpp ****         }
ARM GAS  C:\Users\Admin\AppData\Local\Temp\cc8l8Vwd.s 			page 6


 260:Core/Src/main.cpp ****         else
 261:Core/Src/main.cpp ****         {
 262:Core/Src/main.cpp ****           UART_Printf("Error. Door is not closed.\r\n");
 263:Core/Src/main.cpp ****           // implement alarm mechanics
 264:Core/Src/main.cpp ****         }
 265:Core/Src/main.cpp ****       }
 266:Core/Src/main.cpp ****       else if(relayState == OpenedState)
 267:Core/Src/main.cpp ****       {
 268:Core/Src/main.cpp ****         // implement relay opening mechanics
 269:Core/Src/main.cpp ****         this->relayState = relayState;
 270:Core/Src/main.cpp ****       }
 271:Core/Src/main.cpp ****     }
 272:Core/Src/main.cpp **** 
 273:Core/Src/main.cpp ****     uint32_t getRelayOpenTime()
 274:Core/Src/main.cpp ****     {
 275:Core/Src/main.cpp ****       return this ->relayOpenTime;
 276:Core/Src/main.cpp ****     }
 277:Core/Src/main.cpp **** 
 278:Core/Src/main.cpp ****     void setRelayOpenTime(uint32_t relayOpenTime)
 279:Core/Src/main.cpp ****     {
 280:Core/Src/main.cpp ****       this->relayOpenTime = relayOpenTime;
 281:Core/Src/main.cpp ****     }
 282:Core/Src/main.cpp **** };
 283:Core/Src/main.cpp **** 
 284:Core/Src/main.cpp **** class Bell
 285:Core/Src/main.cpp **** {
 286:Core/Src/main.cpp ****   private:
 287:Core/Src/main.cpp ****     BeepState bellState;
 288:Core/Src/main.cpp ****     uint32_t lastBeepTime;
 289:Core/Src/main.cpp ****     uint32_t beepStartTime;
 290:Core/Src/main.cpp **** 
 291:Core/Src/main.cpp ****   public:
 292:Core/Src/main.cpp ****     Bell()
 293:Core/Src/main.cpp ****     {
 294:Core/Src/main.cpp **** 
 295:Core/Src/main.cpp ****     }
 296:Core/Src/main.cpp **** 
 297:Core/Src/main.cpp ****     Bell(BeepState bellState, uint32_t lastBeepTime, uint32_t beepStartTime)
 298:Core/Src/main.cpp ****     {
 299:Core/Src/main.cpp ****       this->bellState = bellState;
 300:Core/Src/main.cpp ****       this->lastBeepTime = lastBeepTime;
 301:Core/Src/main.cpp ****       this->beepStartTime = beepStartTime;
 302:Core/Src/main.cpp ****     }
 303:Core/Src/main.cpp **** 
 304:Core/Src/main.cpp ****     BeepState getBellState() {
 305:Core/Src/main.cpp ****       return this->bellState;
 306:Core/Src/main.cpp ****     }
 307:Core/Src/main.cpp **** 
 308:Core/Src/main.cpp ****     void setBellState(BeepState bellState) {
 309:Core/Src/main.cpp ****       this->bellState = bellState;
 310:Core/Src/main.cpp **** 
 311:Core/Src/main.cpp ****       if(bellState == On)
 312:Core/Src/main.cpp ****       {
 313:Core/Src/main.cpp ****         HAL_GPIO_WritePin(Zumer1_GPIO_Port, Zumer1_Pin, GPIO_PIN_RESET);
 314:Core/Src/main.cpp ****         HAL_GPIO_WritePin(Zumer2_GPIO_Port, Zumer2_Pin, GPIO_PIN_RESET);
 315:Core/Src/main.cpp ****       }
 316:Core/Src/main.cpp ****       else if(bellState == Off)
ARM GAS  C:\Users\Admin\AppData\Local\Temp\cc8l8Vwd.s 			page 7


 317:Core/Src/main.cpp ****       {
 318:Core/Src/main.cpp ****         HAL_GPIO_WritePin(Zumer1_GPIO_Port, Zumer1_Pin, GPIO_PIN_SET);
 319:Core/Src/main.cpp ****         HAL_GPIO_WritePin(Zumer2_GPIO_Port, Zumer2_Pin, GPIO_PIN_SET);
 320:Core/Src/main.cpp ****       }
 321:Core/Src/main.cpp ****     }
 322:Core/Src/main.cpp **** 
 323:Core/Src/main.cpp ****     uint32_t getLastBeepTime() {
 324:Core/Src/main.cpp ****       return this->lastBeepTime;
 325:Core/Src/main.cpp ****     }
 326:Core/Src/main.cpp **** 
 327:Core/Src/main.cpp ****     void setLastBeepTime(uint32_t lastBeepTime) {
 328:Core/Src/main.cpp ****       this->lastBeepTime = lastBeepTime;
 329:Core/Src/main.cpp ****     }
 330:Core/Src/main.cpp **** 
 331:Core/Src/main.cpp ****     uint32_t getBeepStartTime() {
 332:Core/Src/main.cpp ****       return this->beepStartTime;
 333:Core/Src/main.cpp ****     }
 334:Core/Src/main.cpp **** 
 335:Core/Src/main.cpp ****     void setBeepStartTime(uint32_t beepStartTime) {
 336:Core/Src/main.cpp ****       this->beepStartTime = beepStartTime;
 337:Core/Src/main.cpp ****     }
 338:Core/Src/main.cpp **** };
 339:Core/Src/main.cpp **** 
 340:Core/Src/main.cpp **** bool
 341:Core/Src/main.cpp ****   insideButtonPressed = false,
 342:Core/Src/main.cpp ****   outsideButtonPressed = false,
 343:Core/Src/main.cpp ****   insideKeyRead = false,
 344:Core/Src/main.cpp ****   outsideKeyRead = false;
 345:Core/Src/main.cpp **** 
 346:Core/Src/main.cpp **** uint32_t
 347:Core/Src/main.cpp ****   timmeTrack = 0,
 348:Core/Src/main.cpp ****   timme = 0;
 349:Core/Src/main.cpp **** 
 350:Core/Src/main.cpp **** /* OBJECTS START */
 351:Core/Src/main.cpp **** 
 352:Core/Src/main.cpp **** Relay relay = Relay(Constant, ClosedState, 0);
 353:Core/Src/main.cpp **** 
 354:Core/Src/main.cpp **** Bell bell = Bell(Off, 0, 0);
 355:Core/Src/main.cpp **** 
 356:Core/Src/main.cpp **** /* OBJECTS END */
 357:Core/Src/main.cpp **** 
 358:Core/Src/main.cpp **** /* USER CODE END 0 */
 359:Core/Src/main.cpp **** 
 360:Core/Src/main.cpp **** /* DEFAULT INITS START */
 361:Core/Src/main.cpp **** 
 362:Core/Src/main.cpp **** /**
 363:Core/Src/main.cpp ****   * @brief System Clock Configuration
 364:Core/Src/main.cpp ****   * @retval None
 365:Core/Src/main.cpp ****   */
 366:Core/Src/main.cpp **** void SystemClock_Config(void)
 367:Core/Src/main.cpp **** {
 368:Core/Src/main.cpp ****   RCC_OscInitTypeDef RCC_OscInitStruct = {0};
 369:Core/Src/main.cpp ****   RCC_ClkInitTypeDef RCC_ClkInitStruct = {0};
 370:Core/Src/main.cpp **** 
 371:Core/Src/main.cpp ****   /** Initializes the RCC Oscillators according to the specified parameters
 372:Core/Src/main.cpp ****   * in the RCC_OscInitTypeDef structure.
 373:Core/Src/main.cpp ****   */
ARM GAS  C:\Users\Admin\AppData\Local\Temp\cc8l8Vwd.s 			page 8


 374:Core/Src/main.cpp ****   RCC_OscInitStruct.OscillatorType = RCC_OSCILLATORTYPE_HSI;
 375:Core/Src/main.cpp ****   RCC_OscInitStruct.HSIState = RCC_HSI_ON;
 376:Core/Src/main.cpp ****   RCC_OscInitStruct.HSICalibrationValue = RCC_HSICALIBRATION_DEFAULT;
 377:Core/Src/main.cpp ****   RCC_OscInitStruct.PLL.PLLState = RCC_PLL_ON;
 378:Core/Src/main.cpp ****   RCC_OscInitStruct.PLL.PLLSource = RCC_PLLSOURCE_HSI_DIV2;
 379:Core/Src/main.cpp ****   RCC_OscInitStruct.PLL.PLLMUL = RCC_PLL_MUL9;
 380:Core/Src/main.cpp ****   if (HAL_RCC_OscConfig(&RCC_OscInitStruct) != HAL_OK)
 381:Core/Src/main.cpp ****   {
 382:Core/Src/main.cpp ****     Error_Handler();
 383:Core/Src/main.cpp ****   }
 384:Core/Src/main.cpp ****   /** Initializes the CPU, AHB and APB buses clocks
 385:Core/Src/main.cpp ****   */
 386:Core/Src/main.cpp ****   RCC_ClkInitStruct.ClockType = RCC_CLOCKTYPE_HCLK | RCC_CLOCKTYPE_SYSCLK | RCC_CLOCKTYPE_PCLK1 | R
 387:Core/Src/main.cpp ****   RCC_ClkInitStruct.SYSCLKSource = RCC_SYSCLKSOURCE_PLLCLK;
 388:Core/Src/main.cpp ****   RCC_ClkInitStruct.AHBCLKDivider = RCC_SYSCLK_DIV1;
 389:Core/Src/main.cpp ****   RCC_ClkInitStruct.APB1CLKDivider = RCC_HCLK_DIV2;
 390:Core/Src/main.cpp ****   RCC_ClkInitStruct.APB2CLKDivider = RCC_HCLK_DIV1;
 391:Core/Src/main.cpp **** 
 392:Core/Src/main.cpp ****   if (HAL_RCC_ClockConfig(&RCC_ClkInitStruct, FLASH_LATENCY_1) != HAL_OK)
 393:Core/Src/main.cpp ****   {
 394:Core/Src/main.cpp ****     Error_Handler();
 395:Core/Src/main.cpp ****   }
 396:Core/Src/main.cpp **** }
 397:Core/Src/main.cpp **** 
 398:Core/Src/main.cpp **** /**
 399:Core/Src/main.cpp ****   * @brief USART1 Initialization Function
 400:Core/Src/main.cpp ****   * @param None
 401:Core/Src/main.cpp ****   * @retval None
 402:Core/Src/main.cpp ****   */
 403:Core/Src/main.cpp **** static void MX_USART1_UART_Init(void)
 404:Core/Src/main.cpp **** {
 405:Core/Src/main.cpp **** 
 406:Core/Src/main.cpp ****   /* USER CODE BEGIN USART1_Init 0 */
 407:Core/Src/main.cpp **** 
 408:Core/Src/main.cpp ****   /* USER CODE END USART1_Init 0 */
 409:Core/Src/main.cpp **** 
 410:Core/Src/main.cpp ****   /* USER CODE BEGIN USART1_Init 1 */
 411:Core/Src/main.cpp **** 
 412:Core/Src/main.cpp ****   /* USER CODE END USART1_Init 1 */
 413:Core/Src/main.cpp ****   huart1.Instance = USART1;
 414:Core/Src/main.cpp ****   huart1.Init.BaudRate = 115200;
 415:Core/Src/main.cpp ****   huart1.Init.WordLength = UART_WORDLENGTH_8B;
 416:Core/Src/main.cpp ****   huart1.Init.StopBits = UART_STOPBITS_1;
 417:Core/Src/main.cpp ****   huart1.Init.Parity = UART_PARITY_NONE;
 418:Core/Src/main.cpp ****   huart1.Init.Mode = UART_MODE_TX_RX;
 419:Core/Src/main.cpp ****   huart1.Init.HwFlowCtl = UART_HWCONTROL_NONE;
 420:Core/Src/main.cpp ****   huart1.Init.OverSampling = UART_OVERSAMPLING_16;
 421:Core/Src/main.cpp ****   if (HAL_UART_Init(&huart1) != HAL_OK)
 422:Core/Src/main.cpp ****   {
 423:Core/Src/main.cpp ****     Error_Handler();
 424:Core/Src/main.cpp ****   }
 425:Core/Src/main.cpp ****   /* USER CODE BEGIN USART1_Init 2 */
 426:Core/Src/main.cpp **** 
 427:Core/Src/main.cpp ****   /* USER CODE END USART1_Init 2 */
 428:Core/Src/main.cpp **** }
 429:Core/Src/main.cpp **** 
 430:Core/Src/main.cpp **** /**
ARM GAS  C:\Users\Admin\AppData\Local\Temp\cc8l8Vwd.s 			page 9


 431:Core/Src/main.cpp ****   * @brief GPIO Initialization Function
 432:Core/Src/main.cpp ****   * @param None
 433:Core/Src/main.cpp ****   * @retval None
 434:Core/Src/main.cpp ****   */
 435:Core/Src/main.cpp **** static void MX_GPIO_Init(void)
 436:Core/Src/main.cpp **** {
 437:Core/Src/main.cpp ****   GPIO_InitTypeDef GPIO_InitStruct = {0};
 438:Core/Src/main.cpp **** 
 439:Core/Src/main.cpp ****   /* GPIO Ports Clock Enable */
 440:Core/Src/main.cpp ****   __HAL_RCC_GPIOC_CLK_ENABLE();
 441:Core/Src/main.cpp ****   __HAL_RCC_GPIOB_CLK_ENABLE();
 442:Core/Src/main.cpp ****   __HAL_RCC_GPIOA_CLK_ENABLE();
 443:Core/Src/main.cpp **** 
 444:Core/Src/main.cpp ****   /*Configure GPIO pin Output Level */
 445:Core/Src/main.cpp ****   HAL_GPIO_WritePin(GPIOB, Zumer1_Pin | Zumer2_Pin | GreenLed_1_Pin | GreenLed_2_Pin, GPIO_PIN_SET)
 446:Core/Src/main.cpp **** 
 447:Core/Src/main.cpp ****   /*Configure GPIO pins : D_01_Pin D_11_Pin D_02_Pin D_12_Pin */
 448:Core/Src/main.cpp ****   GPIO_InitStruct.Pin = D_01_Pin | D_11_Pin | D_02_Pin | D_12_Pin;
 449:Core/Src/main.cpp ****   GPIO_InitStruct.Mode = GPIO_MODE_IT_FALLING;
 450:Core/Src/main.cpp ****   GPIO_InitStruct.Pull = GPIO_NOPULL;
 451:Core/Src/main.cpp ****   HAL_GPIO_Init(GPIOC, &GPIO_InitStruct);
 452:Core/Src/main.cpp **** 
 453:Core/Src/main.cpp ****   /*Configure GPIO pins : BT_0_Pin BT_1_Pin */
 454:Core/Src/main.cpp ****   GPIO_InitStruct.Pin = BT_0_Pin | BT_1_Pin;
 455:Core/Src/main.cpp ****   GPIO_InitStruct.Mode = GPIO_MODE_IT_RISING;
 456:Core/Src/main.cpp ****   GPIO_InitStruct.Pull = GPIO_NOPULL;
 457:Core/Src/main.cpp ****   HAL_GPIO_Init(GPIOC, &GPIO_InitStruct);
 458:Core/Src/main.cpp **** 
 459:Core/Src/main.cpp ****   /*Configure GPIO pins : Zumer1_Pin Zumer2_Pin GreenLed_1_Pin GreenLed_2_Pin */
 460:Core/Src/main.cpp ****   GPIO_InitStruct.Pin = Zumer1_Pin | Zumer2_Pin | GreenLed_1_Pin | GreenLed_2_Pin;
 461:Core/Src/main.cpp ****   GPIO_InitStruct.Mode = GPIO_MODE_OUTPUT_PP;
 462:Core/Src/main.cpp ****   GPIO_InitStruct.Pull = GPIO_NOPULL;
 463:Core/Src/main.cpp ****   GPIO_InitStruct.Speed = GPIO_SPEED_FREQ_LOW;
 464:Core/Src/main.cpp ****   HAL_GPIO_Init(GPIOB, &GPIO_InitStruct);
 465:Core/Src/main.cpp **** 
 466:Core/Src/main.cpp ****   /*Configure GPIO pin : Door_Pin */
 467:Core/Src/main.cpp ****   GPIO_InitStruct.Pin = Door_Pin;
 468:Core/Src/main.cpp ****   GPIO_InitStruct.Mode = GPIO_MODE_IT_RISING_FALLING;
 469:Core/Src/main.cpp ****   GPIO_InitStruct.Pull = GPIO_NOPULL;
 470:Core/Src/main.cpp ****   HAL_GPIO_Init(Door_GPIO_Port, &GPIO_InitStruct);
 471:Core/Src/main.cpp **** 
 472:Core/Src/main.cpp ****   /* EXTI interrupt init*/
 473:Core/Src/main.cpp ****   HAL_NVIC_SetPriority(EXTI0_IRQn, 0, 0);
 474:Core/Src/main.cpp ****   HAL_NVIC_EnableIRQ(EXTI0_IRQn);
 475:Core/Src/main.cpp **** 
 476:Core/Src/main.cpp ****   HAL_NVIC_SetPriority(EXTI1_IRQn, 0, 0);
 477:Core/Src/main.cpp ****   HAL_NVIC_EnableIRQ(EXTI1_IRQn);
 478:Core/Src/main.cpp **** 
 479:Core/Src/main.cpp ****   HAL_NVIC_SetPriority(EXTI2_IRQn, 0, 0);
 480:Core/Src/main.cpp ****   HAL_NVIC_EnableIRQ(EXTI2_IRQn);
 481:Core/Src/main.cpp **** 
 482:Core/Src/main.cpp ****   HAL_NVIC_SetPriority(EXTI3_IRQn, 0, 0);
 483:Core/Src/main.cpp ****   HAL_NVIC_EnableIRQ(EXTI3_IRQn);
 484:Core/Src/main.cpp **** 
 485:Core/Src/main.cpp ****   HAL_NVIC_SetPriority(EXTI9_5_IRQn, 0, 0);
 486:Core/Src/main.cpp ****   HAL_NVIC_EnableIRQ(EXTI9_5_IRQn);
 487:Core/Src/main.cpp **** }
ARM GAS  C:\Users\Admin\AppData\Local\Temp\cc8l8Vwd.s 			page 10


 488:Core/Src/main.cpp **** 
 489:Core/Src/main.cpp **** /* DEFAULT INITS END */
 490:Core/Src/main.cpp **** 
 491:Core/Src/main.cpp **** /**
 492:Core/Src/main.cpp ****   * @brief  The application entry point.
 493:Core/Src/main.cpp ****   * @retval int
 494:Core/Src/main.cpp ****   */
 495:Core/Src/main.cpp **** int main(void)
 496:Core/Src/main.cpp **** {
 497:Core/Src/main.cpp ****   /* USER CODE BEGIN 1 */
 498:Core/Src/main.cpp ****   /* USER CODE END 1 */
 499:Core/Src/main.cpp **** 
 500:Core/Src/main.cpp ****   /* MCU Configuration--------------------------------------------------------*/
 501:Core/Src/main.cpp **** 
 502:Core/Src/main.cpp ****   /* Reset of all peripherals, Initializes the Flash interface and the Systick. */
 503:Core/Src/main.cpp ****   HAL_Init();
 504:Core/Src/main.cpp **** 
 505:Core/Src/main.cpp ****   /* USER CODE BEGIN Init */
 506:Core/Src/main.cpp **** 
 507:Core/Src/main.cpp ****   /* USER CODE END Init */
 508:Core/Src/main.cpp **** 
 509:Core/Src/main.cpp ****   /* Configure the system clock */
 510:Core/Src/main.cpp ****   SystemClock_Config();
 511:Core/Src/main.cpp **** 
 512:Core/Src/main.cpp ****   /* USER CODE BEGIN SysInit */
 513:Core/Src/main.cpp **** 
 514:Core/Src/main.cpp ****   /* USER CODE END SysInit */
 515:Core/Src/main.cpp **** 
 516:Core/Src/main.cpp ****   /* Initialize all configured peripherals */
 517:Core/Src/main.cpp ****   MX_GPIO_Init();
 518:Core/Src/main.cpp ****   MX_USART1_UART_Init();
 519:Core/Src/main.cpp ****   /* USER CODE BEGIN 2 */
 520:Core/Src/main.cpp ****   
 521:Core/Src/main.cpp ****   UART_Printf("\nSwitched to Normal mode.\r\n");
 522:Core/Src/main.cpp **** 
 523:Core/Src/main.cpp ****   /* USER CODE END 2 */
 524:Core/Src/main.cpp **** 
 525:Core/Src/main.cpp ****   /* Infinite loop */
 526:Core/Src/main.cpp ****   /* USER CODE BEGIN WHILE */
 527:Core/Src/main.cpp ****   while (1)
 528:Core/Src/main.cpp ****   {
 529:Core/Src/main.cpp ****     timeTrackEvent();
 530:Core/Src/main.cpp **** 
 531:Core/Src/main.cpp ****     changeModeEvent();
 532:Core/Src/main.cpp **** 
 533:Core/Src/main.cpp ****     doorChangedStateEvent();
 534:Core/Src/main.cpp **** 
 535:Core/Src/main.cpp ****     intercomKeyEvent();
 536:Core/Src/main.cpp **** 
 537:Core/Src/main.cpp ****     buttonPressedEvent();
 538:Core/Src/main.cpp **** 
 539:Core/Src/main.cpp ****     doorCheckEvent();
 540:Core/Src/main.cpp **** 
 541:Core/Src/main.cpp ****     greenLightEvent();
 542:Core/Src/main.cpp **** 
 543:Core/Src/main.cpp ****     bellEvent();
 544:Core/Src/main.cpp **** 
ARM GAS  C:\Users\Admin\AppData\Local\Temp\cc8l8Vwd.s 			page 11


 545:Core/Src/main.cpp ****     alarmEvent();
 546:Core/Src/main.cpp ****     /* USER CODE END WHILE */
 547:Core/Src/main.cpp **** 
 548:Core/Src/main.cpp ****     /* USER CODE BEGIN 3 */
 549:Core/Src/main.cpp ****   }
 550:Core/Src/main.cpp ****   /* USER CODE END 3 */
 551:Core/Src/main.cpp **** }
 552:Core/Src/main.cpp **** 
 553:Core/Src/main.cpp **** /* USER CODE BEGIN 4 */
 554:Core/Src/main.cpp **** 
 555:Core/Src/main.cpp **** /* Events */
 556:Core/Src/main.cpp **** 
 557:Core/Src/main.cpp **** void timeTrackEvent()
 558:Core/Src/main.cpp **** {
 559:Core/Src/main.cpp ****   if ((HAL_GetTick() - timmeTrack) > 5000)
 560:Core/Src/main.cpp ****   {
 561:Core/Src/main.cpp ****     UART_Printf("Time passed: %d%s\r\n", (HAL_GetTick() - timme) / 1000, " sec.");
 562:Core/Src/main.cpp ****     timmeTrack = HAL_GetTick();
 563:Core/Src/main.cpp ****   }
 564:Core/Src/main.cpp **** }
 565:Core/Src/main.cpp **** 
 566:Core/Src/main.cpp **** void changeModeEvent()
 567:Core/Src/main.cpp **** {
 568:Core/Src/main.cpp ****   if ((HAL_GetTick() - timme) > 15000)
 569:Core/Src/main.cpp ****   {
 570:Core/Src/main.cpp ****     timme = HAL_GetTick();
 571:Core/Src/main.cpp ****     switchMode();
 572:Core/Src/main.cpp ****     UART_Printf("Work mode: %d\r\n", workMode);
 573:Core/Src/main.cpp ****   }
 574:Core/Src/main.cpp **** }
 575:Core/Src/main.cpp **** 
 576:Core/Src/main.cpp **** void blinkEvent()
 577:Core/Src/main.cpp **** {
 578:Core/Src/main.cpp ****   // if (toBlink && (HAL_GetTick() - blinkStart) > blinkTime)
 579:Core/Src/main.cpp ****   // {
 580:Core/Src/main.cpp ****   //   HAL_GPIO_WritePin(GreenLed_1_GPIO_Port, GreenLed_1_Pin, GPIO_PIN_SET);
 581:Core/Src/main.cpp ****   //   HAL_GPIO_WritePin(GreenLed_2_GPIO_Port, GreenLed_2_Pin, GPIO_PIN_SET);
 582:Core/Src/main.cpp ****   //   toBlink = false;
 583:Core/Src/main.cpp ****   // }
 584:Core/Src/main.cpp **** }
 585:Core/Src/main.cpp **** 
 586:Core/Src/main.cpp **** void doorChangedStateEvent()
 587:Core/Src/main.cpp **** {
 588:Core/Src/main.cpp ****   if(door.isDoorStateChanged())
 589:Core/Src/main.cpp ****   {
 590:Core/Src/main.cpp ****     switch(door.getDoorState())
 591:Core/Src/main.cpp ****     {
 592:Core/Src/main.cpp ****       case OpenedState:
 593:Core/Src/main.cpp ****       {
 594:Core/Src/main.cpp ****         UART_Printf("Door was opened.\r\n");
 595:Core/Src/main.cpp ****         break;
 596:Core/Src/main.cpp ****       }
 597:Core/Src/main.cpp ****       case ClosedState:
 598:Core/Src/main.cpp ****       {
 599:Core/Src/main.cpp ****         if(workMode == TempOpenMode)
 600:Core/Src/main.cpp ****         {
 601:Core/Src/main.cpp ****           workMode = previousWorkMode;
ARM GAS  C:\Users\Admin\AppData\Local\Temp\cc8l8Vwd.s 			page 12


 602:Core/Src/main.cpp ****           relay.setRelayState(ClosedState);
 603:Core/Src/main.cpp ****         }
 604:Core/Src/main.cpp ****         UART_Printf("Door was closed.\r\n");
 605:Core/Src/main.cpp ****         break;
 606:Core/Src/main.cpp ****       }
 607:Core/Src/main.cpp ****       default:
 608:Core/Src/main.cpp ****       {
 609:Core/Src/main.cpp ****         break;
 610:Core/Src/main.cpp ****       }
 611:Core/Src/main.cpp ****     }
 612:Core/Src/main.cpp ****       
 613:Core/Src/main.cpp ****     door.setDoorStateChanged(false);
 614:Core/Src/main.cpp ****   }
 615:Core/Src/main.cpp **** }
 616:Core/Src/main.cpp **** 
 617:Core/Src/main.cpp **** void intercomKeyEvent()
 618:Core/Src/main.cpp **** {
 619:Core/Src/main.cpp ****   if(wig_available() && verifyCode(getCode()))
 620:Core/Src/main.cpp ****   {
 621:Core/Src/main.cpp ****     if (insideKeyRead)
 622:Core/Src/main.cpp ****       UART_Printf("Inside key reader has been used.\r\n");
 623:Core/Src/main.cpp **** 
 624:Core/Src/main.cpp ****     if (outsideKeyRead)
 625:Core/Src/main.cpp ****       UART_Printf("Outside key reader has been used.\r\n");
 626:Core/Src/main.cpp **** 
 627:Core/Src/main.cpp ****     switch (workMode)
 628:Core/Src/main.cpp ****     {
 629:Core/Src/main.cpp ****       case NormalMode:
 630:Core/Src/main.cpp ****       {
 631:Core/Src/main.cpp ****         UART_Printf("Key id: %d\r\n", getCode());
 632:Core/Src/main.cpp ****         relay.setRelayState(OpenedState);
 633:Core/Src/main.cpp ****         relay.setRelayOpenTime(HAL_GetTick());
 634:Core/Src/main.cpp ****         previousWorkMode = workMode;
 635:Core/Src/main.cpp ****         workMode = TempOpenMode;
 636:Core/Src/main.cpp ****         break;
 637:Core/Src/main.cpp ****       }
 638:Core/Src/main.cpp ****       case ClosedMode:  
 639:Core/Src/main.cpp ****       {
 640:Core/Src/main.cpp ****         UART_Printf("Door is locked.\r\n");
 641:Core/Src/main.cpp ****         // blink mechanics to implement
 642:Core/Src/main.cpp ****         break;
 643:Core/Src/main.cpp ****       }
 644:Core/Src/main.cpp ****       case OpenMode:
 645:Core/Src/main.cpp ****       case TempOpenMode:
 646:Core/Src/main.cpp ****       {
 647:Core/Src/main.cpp ****         break;
 648:Core/Src/main.cpp ****       }
 649:Core/Src/main.cpp ****       case CondOpenMode:
 650:Core/Src/main.cpp ****       {
 651:Core/Src/main.cpp ****         UART_Printf("Switched to Open mode.\r\n");
 652:Core/Src/main.cpp ****         workMode = OpenMode;
 653:Core/Src/main.cpp ****         relay.setRelayState(OpenedState);
 654:Core/Src/main.cpp ****         break;
 655:Core/Src/main.cpp ****       }
 656:Core/Src/main.cpp ****       default:
 657:Core/Src/main.cpp ****       {
 658:Core/Src/main.cpp ****         break;  
ARM GAS  C:\Users\Admin\AppData\Local\Temp\cc8l8Vwd.s 			page 13


 659:Core/Src/main.cpp ****       }
 660:Core/Src/main.cpp ****     }
 661:Core/Src/main.cpp ****   insideKeyRead = false;
 662:Core/Src/main.cpp ****   outsideKeyRead = false;
 663:Core/Src/main.cpp ****   }
 664:Core/Src/main.cpp **** }
 665:Core/Src/main.cpp **** 
 666:Core/Src/main.cpp **** void buttonPressedEvent()
 667:Core/Src/main.cpp **** {
 668:Core/Src/main.cpp ****   if (insideButtonPressed)
 669:Core/Src/main.cpp ****     UART_Printf("Inside button was pressed.\r\n");
 670:Core/Src/main.cpp **** 
 671:Core/Src/main.cpp ****   if (outsideButtonPressed)
 672:Core/Src/main.cpp ****     UART_Printf("Outside button was pressed.\r\n");
 673:Core/Src/main.cpp **** 
 674:Core/Src/main.cpp ****   if (outsideButtonPressed || insideButtonPressed)
 675:Core/Src/main.cpp ****   {
 676:Core/Src/main.cpp ****     switch (workMode)
 677:Core/Src/main.cpp ****     {
 678:Core/Src/main.cpp ****       case NormalMode:
 679:Core/Src/main.cpp ****       case ClosedMode:
 680:Core/Src/main.cpp ****       {
 681:Core/Src/main.cpp ****         UART_Printf("Door has been unlocked\r\n");
 682:Core/Src/main.cpp ****         relay.setRelayState(OpenedState);
 683:Core/Src/main.cpp ****         relay.setRelayOpenTime(HAL_GetTick());
 684:Core/Src/main.cpp ****         bell.setLastBeepTime(HAL_GetTick());
 685:Core/Src/main.cpp ****         previousWorkMode = workMode;
 686:Core/Src/main.cpp ****         workMode = TempOpenMode;
 687:Core/Src/main.cpp ****         break;
 688:Core/Src/main.cpp ****       }
 689:Core/Src/main.cpp ****       case OpenMode:
 690:Core/Src/main.cpp ****       case TempOpenMode:
 691:Core/Src/main.cpp ****       {
 692:Core/Src/main.cpp ****         break;
 693:Core/Src/main.cpp ****       }
 694:Core/Src/main.cpp ****       case CondOpenMode:
 695:Core/Src/main.cpp ****       {
 696:Core/Src/main.cpp ****         UART_Printf("Switched to Open mode.\r\n");
 697:Core/Src/main.cpp ****         workMode = OpenMode;
 698:Core/Src/main.cpp ****         relay.setRelayState(OpenedState);
 699:Core/Src/main.cpp ****         break;
 700:Core/Src/main.cpp ****       }
 701:Core/Src/main.cpp ****       default:
 702:Core/Src/main.cpp ****       {
 703:Core/Src/main.cpp ****         break;  
 704:Core/Src/main.cpp ****       }
 705:Core/Src/main.cpp ****     }
 706:Core/Src/main.cpp ****     outsideButtonPressed = false;
 707:Core/Src/main.cpp ****     insideButtonPressed = false;
 708:Core/Src/main.cpp ****   }
 709:Core/Src/main.cpp **** }
 710:Core/Src/main.cpp **** 
 711:Core/Src/main.cpp **** void doorCheckEvent()
 712:Core/Src/main.cpp **** {
 713:Core/Src/main.cpp ****   if( (HAL_GetTick() - relay.getRelayOpenTime()) > 5000 && door.getDoorState() == OpenedState)
 714:Core/Src/main.cpp ****   {
 715:Core/Src/main.cpp ****     // trigger alarm
ARM GAS  C:\Users\Admin\AppData\Local\Temp\cc8l8Vwd.s 			page 14


 716:Core/Src/main.cpp ****     UART_Printf("Alarm triggered.\r\n");
 717:Core/Src/main.cpp ****     // workMode = AlarmMode;
 718:Core/Src/main.cpp ****   }
 719:Core/Src/main.cpp ****   else if((HAL_GetTick() - relay.getRelayOpenTime()) > 5000 && door.getDoorState() == ClosedState &
 720:Core/Src/main.cpp ****   {
 721:Core/Src/main.cpp ****     relay.setRelayState(ClosedState);
 722:Core/Src/main.cpp ****     workMode = previousWorkMode;
 723:Core/Src/main.cpp ****   }
 724:Core/Src/main.cpp **** }
 725:Core/Src/main.cpp **** 
 726:Core/Src/main.cpp **** void greenLightEvent()
 727:Core/Src/main.cpp **** {
 728:Core/Src/main.cpp ****   switch (relay.getRelayState())
 729:Core/Src/main.cpp ****   {
 730:Core/Src/main.cpp ****     case ClosedState:
 731:Core/Src/main.cpp ****     {
 732:Core/Src/main.cpp ****       HAL_GPIO_WritePin(GreenLed_1_GPIO_Port, GreenLed_1_Pin, GPIO_PIN_SET);
 733:Core/Src/main.cpp ****       HAL_GPIO_WritePin(GreenLed_2_GPIO_Port, GreenLed_2_Pin, GPIO_PIN_SET);
 734:Core/Src/main.cpp ****       break;
 735:Core/Src/main.cpp ****     }
 736:Core/Src/main.cpp ****     case OpenedState:
 737:Core/Src/main.cpp ****     {
 738:Core/Src/main.cpp ****       HAL_GPIO_WritePin(GreenLed_1_GPIO_Port, GreenLed_1_Pin, GPIO_PIN_RESET);
 739:Core/Src/main.cpp ****       HAL_GPIO_WritePin(GreenLed_2_GPIO_Port, GreenLed_2_Pin, GPIO_PIN_RESET);
 740:Core/Src/main.cpp ****       break;
 741:Core/Src/main.cpp ****     }
 742:Core/Src/main.cpp ****     default:
 743:Core/Src/main.cpp ****     {
 744:Core/Src/main.cpp ****       HAL_GPIO_WritePin(GreenLed_1_GPIO_Port, GreenLed_1_Pin, GPIO_PIN_SET);
 745:Core/Src/main.cpp ****       HAL_GPIO_WritePin(GreenLed_2_GPIO_Port, GreenLed_2_Pin, GPIO_PIN_SET);
 746:Core/Src/main.cpp ****       break;
 747:Core/Src/main.cpp ****     }
 748:Core/Src/main.cpp ****   }
 749:Core/Src/main.cpp **** }
 750:Core/Src/main.cpp **** 
 751:Core/Src/main.cpp **** void bellEvent()
 752:Core/Src/main.cpp **** {
 753:Core/Src/main.cpp ****   if(HAL_GetTick()-relay.getRelayOpenTime() < 5000 && workMode == TempOpenMode)
 754:Core/Src/main.cpp ****   {
 755:Core/Src/main.cpp ****     if(HAL_GetTick()-bell.getLastBeepTime() > 250)
 756:Core/Src/main.cpp ****     {
 757:Core/Src/main.cpp ****       bell.setLastBeepTime(HAL_GetTick());
 758:Core/Src/main.cpp ****       bell.setBellState(On);
 759:Core/Src/main.cpp ****     }
 760:Core/Src/main.cpp ****     
 761:Core/Src/main.cpp ****     if(HAL_GetTick()-bell.getLastBeepTime() < 250 && HAL_GetTick()-bell.getLastBeepTime() > 75)
 762:Core/Src/main.cpp ****     {
 763:Core/Src/main.cpp ****       bell.setBellState(Off);
 764:Core/Src/main.cpp ****     }
 765:Core/Src/main.cpp ****   }
 766:Core/Src/main.cpp **** }
 767:Core/Src/main.cpp **** 
 768:Core/Src/main.cpp **** void alarmEvent()
 769:Core/Src/main.cpp **** {
 770:Core/Src/main.cpp **** }
 771:Core/Src/main.cpp **** 
 772:Core/Src/main.cpp **** /* Aux functions */
ARM GAS  C:\Users\Admin\AppData\Local\Temp\cc8l8Vwd.s 			page 15


 773:Core/Src/main.cpp **** 
 774:Core/Src/main.cpp **** void HAL_GPIO_EXTI_Callback(uint16_t GPIO_Pin)
 775:Core/Src/main.cpp **** {
 776:Core/Src/main.cpp ****   switch (GPIO_Pin)
 777:Core/Src/main.cpp ****   {
 778:Core/Src/main.cpp ****     case BT_0_Pin:
 779:Core/Src/main.cpp ****     {
 780:Core/Src/main.cpp ****       insideButtonPressed = true;
 781:Core/Src/main.cpp ****       break;
 782:Core/Src/main.cpp ****     }
 783:Core/Src/main.cpp ****     case BT_1_Pin:
 784:Core/Src/main.cpp ****     {
 785:Core/Src/main.cpp ****       outsideButtonPressed = true;
 786:Core/Src/main.cpp ****       break;
 787:Core/Src/main.cpp ****     }
 788:Core/Src/main.cpp ****     case Door_Pin:
 789:Core/Src/main.cpp ****     {
 790:Core/Src/main.cpp ****       if (HAL_GPIO_ReadPin(Door_GPIO_Port, Door_Pin) == 0)
 791:Core/Src/main.cpp ****       {
 792:Core/Src/main.cpp ****         door.setDoorState(ClosedState);
 793:Core/Src/main.cpp ****       }
 794:Core/Src/main.cpp ****       else if (HAL_GPIO_ReadPin(Door_GPIO_Port, Door_Pin) == 1)
 795:Core/Src/main.cpp ****       {
 796:Core/Src/main.cpp ****         door.setDoorState(OpenedState);
 797:Core/Src/main.cpp ****       }
 798:Core/Src/main.cpp ****       break;
 799:Core/Src/main.cpp ****     }
 800:Core/Src/main.cpp ****     case D_01_Pin:
 801:Core/Src/main.cpp ****     {
 802:Core/Src/main.cpp ****       if (wig_flag_inrt)
 803:Core/Src/main.cpp ****       {
 804:Core/Src/main.cpp ****         ReadD0();
 805:Core/Src/main.cpp ****         insideKeyRead = true;
 806:Core/Src/main.cpp ****       }
 807:Core/Src/main.cpp ****       break;
 808:Core/Src/main.cpp ****     }    
 809:Core/Src/main.cpp ****     case D_11_Pin:
 810:Core/Src/main.cpp ****     {
 811:Core/Src/main.cpp ****       if (wig_flag_inrt)
 812:Core/Src/main.cpp ****       {
 813:Core/Src/main.cpp ****         ReadD1();
 814:Core/Src/main.cpp ****         insideKeyRead = true;
 815:Core/Src/main.cpp ****       }
 816:Core/Src/main.cpp ****       break;
 817:Core/Src/main.cpp ****     }
 818:Core/Src/main.cpp ****     case D_02_Pin:
 819:Core/Src/main.cpp ****     {
 820:Core/Src/main.cpp ****       if (wig_flag_inrt)
 821:Core/Src/main.cpp ****       {
 822:Core/Src/main.cpp ****         ReadD0();
 823:Core/Src/main.cpp ****         outsideKeyRead = true;
 824:Core/Src/main.cpp ****       }
 825:Core/Src/main.cpp ****       break;
 826:Core/Src/main.cpp ****     }
 827:Core/Src/main.cpp ****     case D_12_Pin:
 828:Core/Src/main.cpp ****     {
 829:Core/Src/main.cpp ****       if (wig_flag_inrt)
ARM GAS  C:\Users\Admin\AppData\Local\Temp\cc8l8Vwd.s 			page 16


 830:Core/Src/main.cpp ****       {
 831:Core/Src/main.cpp ****         ReadD1();
 832:Core/Src/main.cpp ****         outsideKeyRead = true;
 833:Core/Src/main.cpp ****       }
 834:Core/Src/main.cpp ****       break;
 835:Core/Src/main.cpp ****     }
 836:Core/Src/main.cpp ****     default:
 837:Core/Src/main.cpp ****     {
 838:Core/Src/main.cpp ****       break;
 839:Core/Src/main.cpp ****     }
 840:Core/Src/main.cpp ****   }
 841:Core/Src/main.cpp **** }
 842:Core/Src/main.cpp **** 
 843:Core/Src/main.cpp **** void UART_Printf(const char *fmt, ...)
 844:Core/Src/main.cpp **** {
 845:Core/Src/main.cpp ****   char buff[256];
 846:Core/Src/main.cpp ****   va_list args;
 847:Core/Src/main.cpp ****   va_start(args, fmt);
 848:Core/Src/main.cpp ****   vsnprintf(buff, sizeof(buff), fmt, args);
 849:Core/Src/main.cpp ****   HAL_UART_Transmit(&huart1, (uint8_t *)buff, strlen(buff), HAL_MAX_DELAY);
 850:Core/Src/main.cpp ****   va_end(args);
 851:Core/Src/main.cpp **** }
 852:Core/Src/main.cpp **** 
 853:Core/Src/main.cpp **** bool verifyCode(uint32_t code)
 854:Core/Src/main.cpp **** {
 855:Core/Src/main.cpp ****   uint32_t codes[] =
 856:Core/Src/main.cpp ****       {12563593};
 857:Core/Src/main.cpp **** 
 858:Core/Src/main.cpp ****   for (int i = 0; i < sizeof(codes) / sizeof(codes[0]); i++)
 859:Core/Src/main.cpp ****   {
 860:Core/Src/main.cpp ****     if (code == codes[i])
 861:Core/Src/main.cpp ****       return true;
 862:Core/Src/main.cpp ****   }
 863:Core/Src/main.cpp **** 
 864:Core/Src/main.cpp ****   return false;
 865:Core/Src/main.cpp **** }
 866:Core/Src/main.cpp **** 
 867:Core/Src/main.cpp **** void switchMode()
 868:Core/Src/main.cpp **** {
 869:Core/Src/main.cpp ****   switch(workMode)
 870:Core/Src/main.cpp ****   {
 871:Core/Src/main.cpp ****     case NormalMode:
 872:Core/Src/main.cpp ****     {
 873:Core/Src/main.cpp ****       UART_Printf("\nSwitched to Closed mode.\r\n");
 874:Core/Src/main.cpp ****       workMode = ClosedMode;
 875:Core/Src/main.cpp ****       relay.setRelayState(ClosedState);
 876:Core/Src/main.cpp ****       break;
 877:Core/Src/main.cpp ****     }
 878:Core/Src/main.cpp ****     case ClosedMode:
 879:Core/Src/main.cpp ****     {
 880:Core/Src/main.cpp ****       UART_Printf("\nSwitched to Open mode.\r\n");
 881:Core/Src/main.cpp ****       workMode = OpenMode;
 882:Core/Src/main.cpp ****       relay.setRelayState(OpenedState);
 883:Core/Src/main.cpp ****       break;
 884:Core/Src/main.cpp ****     }
 885:Core/Src/main.cpp ****     case OpenMode:
 886:Core/Src/main.cpp ****     {
ARM GAS  C:\Users\Admin\AppData\Local\Temp\cc8l8Vwd.s 			page 17


 887:Core/Src/main.cpp ****       UART_Printf("\nSwitched to CondOpen mode.\r\n");
 888:Core/Src/main.cpp ****       workMode = CondOpenMode;
 889:Core/Src/main.cpp ****       relay.setRelayState(ClosedState);
 890:Core/Src/main.cpp ****       break;
 891:Core/Src/main.cpp ****     }
 892:Core/Src/main.cpp ****     case CondOpenMode:
 893:Core/Src/main.cpp ****     {
 894:Core/Src/main.cpp ****       UART_Printf("\nSwitched to Normal mode.\r\n");
 895:Core/Src/main.cpp ****       workMode = NormalMode;
 896:Core/Src/main.cpp ****       relay.setRelayState(ClosedState);
 897:Core/Src/main.cpp ****       break;
 898:Core/Src/main.cpp ****     }
 899:Core/Src/main.cpp ****     default:
 900:Core/Src/main.cpp ****     {
 901:Core/Src/main.cpp ****       UART_Printf("Unknown mode, switched to normal.\r\n");
 902:Core/Src/main.cpp ****       workMode = NormalMode;
 903:Core/Src/main.cpp ****       relay.setRelayState(ClosedState);
 904:Core/Src/main.cpp ****       break;
 905:Core/Src/main.cpp ****     }
 906:Core/Src/main.cpp ****   }
 907:Core/Src/main.cpp **** 
 908:Core/Src/main.cpp ****   return;
 909:Core/Src/main.cpp **** }
 910:Core/Src/main.cpp **** 
 911:Core/Src/main.cpp **** // void blink(uint16_t blinkDurration)
 912:Core/Src/main.cpp **** // {
 913:Core/Src/main.cpp **** //   toBlink = true;
 914:Core/Src/main.cpp **** //   blinkTime = blinkDurration;
 915:Core/Src/main.cpp **** //   blinkStart = HAL_GetTick();
 916:Core/Src/main.cpp **** //   HAL_GPIO_WritePin(GreenLed_1_GPIO_Port, GreenLed_1_Pin, RESET);
 917:Core/Src/main.cpp **** //   HAL_GPIO_WritePin(GreenLed_2_GPIO_Port, GreenLed_2_Pin, RESET);
 918:Core/Src/main.cpp **** // }
 919:Core/Src/main.cpp **** 
 920:Core/Src/main.cpp **** /* USER CODE END 4 */
 921:Core/Src/main.cpp **** 
 922:Core/Src/main.cpp **** /**
 923:Core/Src/main.cpp ****   * @brief  This function is executed in case of error occurrence.
 924:Core/Src/main.cpp ****   * @retval None
 925:Core/Src/main.cpp ****   */
 926:Core/Src/main.cpp **** void Error_Handler(void)
 927:Core/Src/main.cpp **** {
 928:Core/Src/main.cpp ****   /* USER CODE BEGIN Error_Handler_Debug */
 929:Core/Src/main.cpp ****   /* User can add his own implementation to report the HAL error return state */
 930:Core/Src/main.cpp ****   __disable_irq();
 931:Core/Src/main.cpp ****   while (1)
 932:Core/Src/main.cpp ****   {
 933:Core/Src/main.cpp ****   }
 934:Core/Src/main.cpp ****   /* USER CODE END Error_Handler_Debug */
 935:Core/Src/main.cpp **** }
  28              		.loc 1 935 1 view -0
  29              		.cfi_startproc
  30              		@ args = 0, pretend = 0, frame = 0
  31              		@ frame_needed = 0, uses_anonymous_args = 0
  32              		@ link register save eliminated.
  33              		.loc 1 935 1 is_stmt 0 view .LVU1
  34 0000 0128     		cmp	r0, #1
  35 0002 00D0     		beq	.L3
ARM GAS  C:\Users\Admin\AppData\Local\Temp\cc8l8Vwd.s 			page 18


  36              	.LVL1:
  37              	.L1:
  38              		.loc 1 935 1 view .LVU2
  39 0004 7047     		bx	lr
  40              	.LVL2:
  41              	.L3:
  42              		.loc 1 935 1 discriminator 1 view .LVU3
  43 0006 4FF6FF73 		movw	r3, #65535
  44 000a 9942     		cmp	r1, r3
  45 000c FAD1     		bne	.L1
  46              	.LVL3:
  47              	.LBB71:
  48              	.LBI71:
 186:Core/Src/main.cpp ****     {
  49              		.loc 1 186 5 is_stmt 1 view .LVU4
  50              	.LBB72:
  51              	.LBB73:
 188:Core/Src/main.cpp ****     }
  52              		.loc 1 188 7 view .LVU5
 188:Core/Src/main.cpp ****     }
  53              		.loc 1 188 23 is_stmt 0 view .LVU6
  54 000e 0121     		movs	r1, #1
  55              	.LVL4:
 188:Core/Src/main.cpp ****     }
  56              		.loc 1 188 23 view .LVU7
  57 0010 054B     		ldr	r3, .L4
  58 0012 1970     		strb	r1, [r3]
  59              	.LVL5:
 188:Core/Src/main.cpp ****     }
  60              		.loc 1 188 23 view .LVU8
  61              	.LBE73:
  62              	.LBE72:
  63              	.LBE71:
  64              	.LBB74:
  65              	.LBI74:
 228:Core/Src/main.cpp ****     {
  66              		.loc 1 228 5 is_stmt 1 view .LVU9
  67              	.LBB75:
  68              	.LBB76:
 230:Core/Src/main.cpp ****       this->relayState = relayState;
  69              		.loc 1 230 7 view .LVU10
 230:Core/Src/main.cpp ****       this->relayState = relayState;
  70              		.loc 1 230 23 is_stmt 0 view .LVU11
  71 0014 054A     		ldr	r2, .L4+4
  72 0016 0023     		movs	r3, #0
  73 0018 1370     		strb	r3, [r2]
 231:Core/Src/main.cpp ****       this->relayOpenTime = relayOpenTime;
  74              		.loc 1 231 7 is_stmt 1 view .LVU12
 231:Core/Src/main.cpp ****       this->relayOpenTime = relayOpenTime;
  75              		.loc 1 231 24 is_stmt 0 view .LVU13
  76 001a 5170     		strb	r1, [r2, #1]
 232:Core/Src/main.cpp ****     }
  77              		.loc 1 232 7 is_stmt 1 view .LVU14
 232:Core/Src/main.cpp ****     }
  78              		.loc 1 232 27 is_stmt 0 view .LVU15
  79 001c 5360     		str	r3, [r2, #4]
  80              	.LVL6:
ARM GAS  C:\Users\Admin\AppData\Local\Temp\cc8l8Vwd.s 			page 19


 232:Core/Src/main.cpp ****     }
  81              		.loc 1 232 27 view .LVU16
  82              	.LBE76:
  83              	.LBE75:
  84              	.LBE74:
  85              	.LBB77:
  86              	.LBI77:
 297:Core/Src/main.cpp ****     {
  87              		.loc 1 297 5 is_stmt 1 view .LVU17
  88              	.LBB78:
  89              	.LBB79:
 299:Core/Src/main.cpp ****       this->lastBeepTime = lastBeepTime;
  90              		.loc 1 299 7 view .LVU18
 299:Core/Src/main.cpp ****       this->lastBeepTime = lastBeepTime;
  91              		.loc 1 299 23 is_stmt 0 view .LVU19
  92 001e 044A     		ldr	r2, .L4+8
  93 0020 1370     		strb	r3, [r2]
 300:Core/Src/main.cpp ****       this->beepStartTime = beepStartTime;
  94              		.loc 1 300 7 is_stmt 1 view .LVU20
 300:Core/Src/main.cpp ****       this->beepStartTime = beepStartTime;
  95              		.loc 1 300 26 is_stmt 0 view .LVU21
  96 0022 5360     		str	r3, [r2, #4]
 301:Core/Src/main.cpp ****     }
  97              		.loc 1 301 7 is_stmt 1 view .LVU22
 301:Core/Src/main.cpp ****     }
  98              		.loc 1 301 27 is_stmt 0 view .LVU23
  99 0024 9360     		str	r3, [r2, #8]
 100              	.LVL7:
 301:Core/Src/main.cpp ****     }
 101              		.loc 1 301 27 view .LVU24
 102              	.LBE79:
 103              	.LBE78:
 104              	.LBE77:
 105              		.loc 1 935 1 view .LVU25
 106 0026 EDE7     		b	.L1
 107              	.L5:
 108              		.align	2
 109              	.L4:
 110 0028 00000000 		.word	.LANCHOR0
 111 002c 00000000 		.word	.LANCHOR1
 112 0030 00000000 		.word	.LANCHOR2
 113              		.cfi_endproc
 114              	.LFE123:
 115              		.cantunwind
 116              		.fnend
 118              		.section	.text._ZL12MX_GPIO_Initv,"ax",%progbits
 119              		.align	1
 120              		.syntax unified
 121              		.thumb
 122              		.thumb_func
 123              		.fpu softvfp
 125              	_ZL12MX_GPIO_Initv:
 126              		.fnstart
 127              	.LFB106:
 436:Core/Src/main.cpp ****   GPIO_InitTypeDef GPIO_InitStruct = {0};
 128              		.loc 1 436 1 is_stmt 1 view -0
 129              		.cfi_startproc
ARM GAS  C:\Users\Admin\AppData\Local\Temp\cc8l8Vwd.s 			page 20


 130              		@ args = 0, pretend = 0, frame = 32
 131              		@ frame_needed = 0, uses_anonymous_args = 0
 132 0000 70B5     		push	{r4, r5, r6, lr}
 133              		.save {r4, r5, r6, lr}
 134              	.LCFI0:
 135              		.cfi_def_cfa_offset 16
 136              		.cfi_offset 4, -16
 137              		.cfi_offset 5, -12
 138              		.cfi_offset 6, -8
 139              		.cfi_offset 14, -4
 140              		.pad #32
 141 0002 88B0     		sub	sp, sp, #32
 142              	.LCFI1:
 143              		.cfi_def_cfa_offset 48
 437:Core/Src/main.cpp **** 
 144              		.loc 1 437 3 view .LVU27
 437:Core/Src/main.cpp **** 
 145              		.loc 1 437 20 is_stmt 0 view .LVU28
 146 0004 0024     		movs	r4, #0
 147 0006 0494     		str	r4, [sp, #16]
 148 0008 0594     		str	r4, [sp, #20]
 149 000a 0694     		str	r4, [sp, #24]
 150 000c 0794     		str	r4, [sp, #28]
 440:Core/Src/main.cpp ****   __HAL_RCC_GPIOB_CLK_ENABLE();
 151              		.loc 1 440 3 is_stmt 1 view .LVU29
 152              	.LBB80:
 440:Core/Src/main.cpp ****   __HAL_RCC_GPIOB_CLK_ENABLE();
 153              		.loc 1 440 3 view .LVU30
 440:Core/Src/main.cpp ****   __HAL_RCC_GPIOB_CLK_ENABLE();
 154              		.loc 1 440 3 view .LVU31
 155 000e 3B4B     		ldr	r3, .L8
 156 0010 9A69     		ldr	r2, [r3, #24]
 157 0012 42F01002 		orr	r2, r2, #16
 158 0016 9A61     		str	r2, [r3, #24]
 440:Core/Src/main.cpp ****   __HAL_RCC_GPIOB_CLK_ENABLE();
 159              		.loc 1 440 3 view .LVU32
 160 0018 9A69     		ldr	r2, [r3, #24]
 161 001a 02F01002 		and	r2, r2, #16
 162 001e 0192     		str	r2, [sp, #4]
 440:Core/Src/main.cpp ****   __HAL_RCC_GPIOB_CLK_ENABLE();
 163              		.loc 1 440 3 view .LVU33
 164 0020 019A     		ldr	r2, [sp, #4]
 165              	.LBE80:
 441:Core/Src/main.cpp ****   __HAL_RCC_GPIOA_CLK_ENABLE();
 166              		.loc 1 441 3 view .LVU34
 167              	.LBB81:
 441:Core/Src/main.cpp ****   __HAL_RCC_GPIOA_CLK_ENABLE();
 168              		.loc 1 441 3 view .LVU35
 441:Core/Src/main.cpp ****   __HAL_RCC_GPIOA_CLK_ENABLE();
 169              		.loc 1 441 3 view .LVU36
 170 0022 9A69     		ldr	r2, [r3, #24]
 171 0024 42F00802 		orr	r2, r2, #8
 172 0028 9A61     		str	r2, [r3, #24]
 441:Core/Src/main.cpp ****   __HAL_RCC_GPIOA_CLK_ENABLE();
 173              		.loc 1 441 3 view .LVU37
 174 002a 9A69     		ldr	r2, [r3, #24]
 175 002c 02F00802 		and	r2, r2, #8
ARM GAS  C:\Users\Admin\AppData\Local\Temp\cc8l8Vwd.s 			page 21


 176 0030 0292     		str	r2, [sp, #8]
 441:Core/Src/main.cpp ****   __HAL_RCC_GPIOA_CLK_ENABLE();
 177              		.loc 1 441 3 view .LVU38
 178 0032 029A     		ldr	r2, [sp, #8]
 179              	.LBE81:
 442:Core/Src/main.cpp **** 
 180              		.loc 1 442 3 view .LVU39
 181              	.LBB82:
 442:Core/Src/main.cpp **** 
 182              		.loc 1 442 3 view .LVU40
 442:Core/Src/main.cpp **** 
 183              		.loc 1 442 3 view .LVU41
 184 0034 9A69     		ldr	r2, [r3, #24]
 185 0036 42F00402 		orr	r2, r2, #4
 186 003a 9A61     		str	r2, [r3, #24]
 442:Core/Src/main.cpp **** 
 187              		.loc 1 442 3 view .LVU42
 188 003c 9B69     		ldr	r3, [r3, #24]
 189 003e 03F00403 		and	r3, r3, #4
 190 0042 0393     		str	r3, [sp, #12]
 442:Core/Src/main.cpp **** 
 191              		.loc 1 442 3 view .LVU43
 192 0044 039B     		ldr	r3, [sp, #12]
 193              	.LBE82:
 445:Core/Src/main.cpp **** 
 194              		.loc 1 445 3 view .LVU44
 445:Core/Src/main.cpp **** 
 195              		.loc 1 445 20 is_stmt 0 view .LVU45
 196 0046 2E4E     		ldr	r6, .L8+4
 197 0048 0122     		movs	r2, #1
 198 004a 4FF44C41 		mov	r1, #52224
 199 004e 3046     		mov	r0, r6
 200 0050 FFF7FEFF 		bl	HAL_GPIO_WritePin
 201              	.LVL8:
 448:Core/Src/main.cpp ****   GPIO_InitStruct.Mode = GPIO_MODE_IT_FALLING;
 202              		.loc 1 448 3 is_stmt 1 view .LVU46
 448:Core/Src/main.cpp ****   GPIO_InitStruct.Mode = GPIO_MODE_IT_FALLING;
 203              		.loc 1 448 23 is_stmt 0 view .LVU47
 204 0054 C323     		movs	r3, #195
 205 0056 0493     		str	r3, [sp, #16]
 449:Core/Src/main.cpp ****   GPIO_InitStruct.Pull = GPIO_NOPULL;
 206              		.loc 1 449 3 is_stmt 1 view .LVU48
 449:Core/Src/main.cpp ****   GPIO_InitStruct.Pull = GPIO_NOPULL;
 207              		.loc 1 449 24 is_stmt 0 view .LVU49
 208 0058 2A4B     		ldr	r3, .L8+8
 209 005a 0593     		str	r3, [sp, #20]
 450:Core/Src/main.cpp ****   HAL_GPIO_Init(GPIOC, &GPIO_InitStruct);
 210              		.loc 1 450 3 is_stmt 1 view .LVU50
 450:Core/Src/main.cpp ****   HAL_GPIO_Init(GPIOC, &GPIO_InitStruct);
 211              		.loc 1 450 24 is_stmt 0 view .LVU51
 212 005c 0694     		str	r4, [sp, #24]
 451:Core/Src/main.cpp **** 
 213              		.loc 1 451 3 is_stmt 1 view .LVU52
 451:Core/Src/main.cpp **** 
 214              		.loc 1 451 16 is_stmt 0 view .LVU53
 215 005e 2A4D     		ldr	r5, .L8+12
 216 0060 04A9     		add	r1, sp, #16
ARM GAS  C:\Users\Admin\AppData\Local\Temp\cc8l8Vwd.s 			page 22


 217 0062 2846     		mov	r0, r5
 218 0064 FFF7FEFF 		bl	HAL_GPIO_Init
 219              	.LVL9:
 454:Core/Src/main.cpp ****   GPIO_InitStruct.Mode = GPIO_MODE_IT_RISING;
 220              		.loc 1 454 3 is_stmt 1 view .LVU54
 454:Core/Src/main.cpp ****   GPIO_InitStruct.Mode = GPIO_MODE_IT_RISING;
 221              		.loc 1 454 23 is_stmt 0 view .LVU55
 222 0068 0C23     		movs	r3, #12
 223 006a 0493     		str	r3, [sp, #16]
 455:Core/Src/main.cpp ****   GPIO_InitStruct.Pull = GPIO_NOPULL;
 224              		.loc 1 455 3 is_stmt 1 view .LVU56
 455:Core/Src/main.cpp ****   GPIO_InitStruct.Pull = GPIO_NOPULL;
 225              		.loc 1 455 24 is_stmt 0 view .LVU57
 226 006c 274B     		ldr	r3, .L8+16
 227 006e 0593     		str	r3, [sp, #20]
 456:Core/Src/main.cpp ****   HAL_GPIO_Init(GPIOC, &GPIO_InitStruct);
 228              		.loc 1 456 3 is_stmt 1 view .LVU58
 456:Core/Src/main.cpp ****   HAL_GPIO_Init(GPIOC, &GPIO_InitStruct);
 229              		.loc 1 456 24 is_stmt 0 view .LVU59
 230 0070 0694     		str	r4, [sp, #24]
 457:Core/Src/main.cpp **** 
 231              		.loc 1 457 3 is_stmt 1 view .LVU60
 457:Core/Src/main.cpp **** 
 232              		.loc 1 457 16 is_stmt 0 view .LVU61
 233 0072 04A9     		add	r1, sp, #16
 234 0074 2846     		mov	r0, r5
 235 0076 FFF7FEFF 		bl	HAL_GPIO_Init
 236              	.LVL10:
 460:Core/Src/main.cpp ****   GPIO_InitStruct.Mode = GPIO_MODE_OUTPUT_PP;
 237              		.loc 1 460 3 is_stmt 1 view .LVU62
 460:Core/Src/main.cpp ****   GPIO_InitStruct.Mode = GPIO_MODE_OUTPUT_PP;
 238              		.loc 1 460 23 is_stmt 0 view .LVU63
 239 007a 4FF44C43 		mov	r3, #52224
 240 007e 0493     		str	r3, [sp, #16]
 461:Core/Src/main.cpp ****   GPIO_InitStruct.Pull = GPIO_NOPULL;
 241              		.loc 1 461 3 is_stmt 1 view .LVU64
 461:Core/Src/main.cpp ****   GPIO_InitStruct.Pull = GPIO_NOPULL;
 242              		.loc 1 461 24 is_stmt 0 view .LVU65
 243 0080 0123     		movs	r3, #1
 244 0082 0593     		str	r3, [sp, #20]
 462:Core/Src/main.cpp ****   GPIO_InitStruct.Speed = GPIO_SPEED_FREQ_LOW;
 245              		.loc 1 462 3 is_stmt 1 view .LVU66
 462:Core/Src/main.cpp ****   GPIO_InitStruct.Speed = GPIO_SPEED_FREQ_LOW;
 246              		.loc 1 462 24 is_stmt 0 view .LVU67
 247 0084 0694     		str	r4, [sp, #24]
 463:Core/Src/main.cpp ****   HAL_GPIO_Init(GPIOB, &GPIO_InitStruct);
 248              		.loc 1 463 3 is_stmt 1 view .LVU68
 463:Core/Src/main.cpp ****   HAL_GPIO_Init(GPIOB, &GPIO_InitStruct);
 249              		.loc 1 463 25 is_stmt 0 view .LVU69
 250 0086 0223     		movs	r3, #2
 251 0088 0793     		str	r3, [sp, #28]
 464:Core/Src/main.cpp **** 
 252              		.loc 1 464 3 is_stmt 1 view .LVU70
 464:Core/Src/main.cpp **** 
 253              		.loc 1 464 16 is_stmt 0 view .LVU71
 254 008a 04A9     		add	r1, sp, #16
 255 008c 3046     		mov	r0, r6
ARM GAS  C:\Users\Admin\AppData\Local\Temp\cc8l8Vwd.s 			page 23


 256 008e FFF7FEFF 		bl	HAL_GPIO_Init
 257              	.LVL11:
 467:Core/Src/main.cpp ****   GPIO_InitStruct.Mode = GPIO_MODE_IT_RISING_FALLING;
 258              		.loc 1 467 3 is_stmt 1 view .LVU72
 467:Core/Src/main.cpp ****   GPIO_InitStruct.Mode = GPIO_MODE_IT_RISING_FALLING;
 259              		.loc 1 467 23 is_stmt 0 view .LVU73
 260 0092 4FF48073 		mov	r3, #256
 261 0096 0493     		str	r3, [sp, #16]
 468:Core/Src/main.cpp ****   GPIO_InitStruct.Pull = GPIO_NOPULL;
 262              		.loc 1 468 3 is_stmt 1 view .LVU74
 468:Core/Src/main.cpp ****   GPIO_InitStruct.Pull = GPIO_NOPULL;
 263              		.loc 1 468 24 is_stmt 0 view .LVU75
 264 0098 1D4B     		ldr	r3, .L8+20
 265 009a 0593     		str	r3, [sp, #20]
 469:Core/Src/main.cpp ****   HAL_GPIO_Init(Door_GPIO_Port, &GPIO_InitStruct);
 266              		.loc 1 469 3 is_stmt 1 view .LVU76
 469:Core/Src/main.cpp ****   HAL_GPIO_Init(Door_GPIO_Port, &GPIO_InitStruct);
 267              		.loc 1 469 24 is_stmt 0 view .LVU77
 268 009c 0694     		str	r4, [sp, #24]
 470:Core/Src/main.cpp **** 
 269              		.loc 1 470 3 is_stmt 1 view .LVU78
 470:Core/Src/main.cpp **** 
 270              		.loc 1 470 16 is_stmt 0 view .LVU79
 271 009e 04A9     		add	r1, sp, #16
 272 00a0 2846     		mov	r0, r5
 273 00a2 FFF7FEFF 		bl	HAL_GPIO_Init
 274              	.LVL12:
 473:Core/Src/main.cpp ****   HAL_NVIC_EnableIRQ(EXTI0_IRQn);
 275              		.loc 1 473 3 is_stmt 1 view .LVU80
 473:Core/Src/main.cpp ****   HAL_NVIC_EnableIRQ(EXTI0_IRQn);
 276              		.loc 1 473 23 is_stmt 0 view .LVU81
 277 00a6 2246     		mov	r2, r4
 278 00a8 2146     		mov	r1, r4
 279 00aa 0620     		movs	r0, #6
 280 00ac FFF7FEFF 		bl	HAL_NVIC_SetPriority
 281              	.LVL13:
 474:Core/Src/main.cpp **** 
 282              		.loc 1 474 3 is_stmt 1 view .LVU82
 474:Core/Src/main.cpp **** 
 283              		.loc 1 474 21 is_stmt 0 view .LVU83
 284 00b0 0620     		movs	r0, #6
 285 00b2 FFF7FEFF 		bl	HAL_NVIC_EnableIRQ
 286              	.LVL14:
 476:Core/Src/main.cpp ****   HAL_NVIC_EnableIRQ(EXTI1_IRQn);
 287              		.loc 1 476 3 is_stmt 1 view .LVU84
 476:Core/Src/main.cpp ****   HAL_NVIC_EnableIRQ(EXTI1_IRQn);
 288              		.loc 1 476 23 is_stmt 0 view .LVU85
 289 00b6 2246     		mov	r2, r4
 290 00b8 2146     		mov	r1, r4
 291 00ba 0720     		movs	r0, #7
 292 00bc FFF7FEFF 		bl	HAL_NVIC_SetPriority
 293              	.LVL15:
 477:Core/Src/main.cpp **** 
 294              		.loc 1 477 3 is_stmt 1 view .LVU86
 477:Core/Src/main.cpp **** 
 295              		.loc 1 477 21 is_stmt 0 view .LVU87
 296 00c0 0720     		movs	r0, #7
ARM GAS  C:\Users\Admin\AppData\Local\Temp\cc8l8Vwd.s 			page 24


 297 00c2 FFF7FEFF 		bl	HAL_NVIC_EnableIRQ
 298              	.LVL16:
 479:Core/Src/main.cpp ****   HAL_NVIC_EnableIRQ(EXTI2_IRQn);
 299              		.loc 1 479 3 is_stmt 1 view .LVU88
 479:Core/Src/main.cpp ****   HAL_NVIC_EnableIRQ(EXTI2_IRQn);
 300              		.loc 1 479 23 is_stmt 0 view .LVU89
 301 00c6 2246     		mov	r2, r4
 302 00c8 2146     		mov	r1, r4
 303 00ca 0820     		movs	r0, #8
 304 00cc FFF7FEFF 		bl	HAL_NVIC_SetPriority
 305              	.LVL17:
 480:Core/Src/main.cpp **** 
 306              		.loc 1 480 3 is_stmt 1 view .LVU90
 480:Core/Src/main.cpp **** 
 307              		.loc 1 480 21 is_stmt 0 view .LVU91
 308 00d0 0820     		movs	r0, #8
 309 00d2 FFF7FEFF 		bl	HAL_NVIC_EnableIRQ
 310              	.LVL18:
 482:Core/Src/main.cpp ****   HAL_NVIC_EnableIRQ(EXTI3_IRQn);
 311              		.loc 1 482 3 is_stmt 1 view .LVU92
 482:Core/Src/main.cpp ****   HAL_NVIC_EnableIRQ(EXTI3_IRQn);
 312              		.loc 1 482 23 is_stmt 0 view .LVU93
 313 00d6 2246     		mov	r2, r4
 314 00d8 2146     		mov	r1, r4
 315 00da 0920     		movs	r0, #9
 316 00dc FFF7FEFF 		bl	HAL_NVIC_SetPriority
 317              	.LVL19:
 483:Core/Src/main.cpp **** 
 318              		.loc 1 483 3 is_stmt 1 view .LVU94
 483:Core/Src/main.cpp **** 
 319              		.loc 1 483 21 is_stmt 0 view .LVU95
 320 00e0 0920     		movs	r0, #9
 321 00e2 FFF7FEFF 		bl	HAL_NVIC_EnableIRQ
 322              	.LVL20:
 485:Core/Src/main.cpp ****   HAL_NVIC_EnableIRQ(EXTI9_5_IRQn);
 323              		.loc 1 485 3 is_stmt 1 view .LVU96
 485:Core/Src/main.cpp ****   HAL_NVIC_EnableIRQ(EXTI9_5_IRQn);
 324              		.loc 1 485 23 is_stmt 0 view .LVU97
 325 00e6 2246     		mov	r2, r4
 326 00e8 2146     		mov	r1, r4
 327 00ea 1720     		movs	r0, #23
 328 00ec FFF7FEFF 		bl	HAL_NVIC_SetPriority
 329              	.LVL21:
 486:Core/Src/main.cpp **** }
 330              		.loc 1 486 3 is_stmt 1 view .LVU98
 486:Core/Src/main.cpp **** }
 331              		.loc 1 486 21 is_stmt 0 view .LVU99
 332 00f0 1720     		movs	r0, #23
 333 00f2 FFF7FEFF 		bl	HAL_NVIC_EnableIRQ
 334              	.LVL22:
 487:Core/Src/main.cpp **** 
 335              		.loc 1 487 1 view .LVU100
 336 00f6 08B0     		add	sp, sp, #32
 337              	.LCFI2:
 338              		.cfi_def_cfa_offset 16
 339              		@ sp needed
 340 00f8 70BD     		pop	{r4, r5, r6, pc}
ARM GAS  C:\Users\Admin\AppData\Local\Temp\cc8l8Vwd.s 			page 25


 341              	.L9:
 342 00fa 00BF     		.align	2
 343              	.L8:
 344 00fc 00100240 		.word	1073876992
 345 0100 000C0140 		.word	1073810432
 346 0104 00002110 		.word	270598144
 347 0108 00100140 		.word	1073811456
 348 010c 00001110 		.word	269549568
 349 0110 00003110 		.word	271646720
 350              		.cfi_endproc
 351              	.LFE106:
 352              		.fnend
 354              		.section	.text._Z10blinkEventv,"ax",%progbits
 355              		.align	1
 356              		.global	_Z10blinkEventv
 357              		.syntax unified
 358              		.thumb
 359              		.thumb_func
 360              		.fpu softvfp
 362              	_Z10blinkEventv:
 363              		.fnstart
 364              	.LFB110:
 577:Core/Src/main.cpp ****   // if (toBlink && (HAL_GetTick() - blinkStart) > blinkTime)
 365              		.loc 1 577 1 is_stmt 1 view -0
 366              		.cfi_startproc
 367              		@ args = 0, pretend = 0, frame = 0
 368              		@ frame_needed = 0, uses_anonymous_args = 0
 369              		@ link register save eliminated.
 584:Core/Src/main.cpp **** 
 370              		.loc 1 584 1 is_stmt 0 view .LVU102
 371 0000 7047     		bx	lr
 372              		.cfi_endproc
 373              	.LFE110:
 374              		.cantunwind
 375              		.fnend
 377              		.section	.text._Z15greenLightEventv,"ax",%progbits
 378              		.align	1
 379              		.global	_Z15greenLightEventv
 380              		.syntax unified
 381              		.thumb
 382              		.thumb_func
 383              		.fpu softvfp
 385              	_Z15greenLightEventv:
 386              		.fnstart
 387              	.LFB115:
 727:Core/Src/main.cpp ****   switch (relay.getRelayState())
 388              		.loc 1 727 1 is_stmt 1 view -0
 389              		.cfi_startproc
 390              		@ args = 0, pretend = 0, frame = 0
 391              		@ frame_needed = 0, uses_anonymous_args = 0
 392 0000 10B5     		push	{r4, lr}
 393              		.save {r4, lr}
 394              	.LCFI3:
 395              		.cfi_def_cfa_offset 8
 396              		.cfi_offset 4, -8
 397              		.cfi_offset 14, -4
 728:Core/Src/main.cpp ****   {
ARM GAS  C:\Users\Admin\AppData\Local\Temp\cc8l8Vwd.s 			page 26


 398              		.loc 1 728 3 view .LVU104
 399              	.LVL23:
 400              	.LBB83:
 401              	.LBI83:
 245:Core/Src/main.cpp ****     {
 402              		.loc 1 245 11 view .LVU105
 403              	.LBB84:
 247:Core/Src/main.cpp ****     }
 404              		.loc 1 247 7 view .LVU106
 247:Core/Src/main.cpp ****     }
 405              		.loc 1 247 20 is_stmt 0 view .LVU107
 406 0002 174B     		ldr	r3, .L16
 407 0004 5B78     		ldrb	r3, [r3, #1]	@ zero_extendqisi2
 408              	.LVL24:
 247:Core/Src/main.cpp ****     }
 409              		.loc 1 247 20 view .LVU108
 410              	.LBE84:
 411              	.LBE83:
 728:Core/Src/main.cpp ****   {
 412              		.loc 1 728 3 view .LVU109
 413 0006 7BB1     		cbz	r3, .L12
 414 0008 012B     		cmp	r3, #1
 415 000a 1BD1     		bne	.L13
 730:Core/Src/main.cpp ****     {
 416              		.loc 1 730 5 is_stmt 1 view .LVU110
 731:Core/Src/main.cpp ****       HAL_GPIO_WritePin(GreenLed_1_GPIO_Port, GreenLed_1_Pin, GPIO_PIN_SET);
 417              		.loc 1 731 5 view .LVU111
 732:Core/Src/main.cpp ****       HAL_GPIO_WritePin(GreenLed_2_GPIO_Port, GreenLed_2_Pin, GPIO_PIN_SET);
 418              		.loc 1 732 7 view .LVU112
 732:Core/Src/main.cpp ****       HAL_GPIO_WritePin(GreenLed_2_GPIO_Port, GreenLed_2_Pin, GPIO_PIN_SET);
 419              		.loc 1 732 24 is_stmt 0 view .LVU113
 420 000c 154C     		ldr	r4, .L16+4
 421 000e 0122     		movs	r2, #1
 422 0010 4FF48041 		mov	r1, #16384
 423 0014 2046     		mov	r0, r4
 424 0016 FFF7FEFF 		bl	HAL_GPIO_WritePin
 425              	.LVL25:
 733:Core/Src/main.cpp ****       break;
 426              		.loc 1 733 7 is_stmt 1 view .LVU114
 733:Core/Src/main.cpp ****       break;
 427              		.loc 1 733 24 is_stmt 0 view .LVU115
 428 001a 0122     		movs	r2, #1
 429 001c 4FF40041 		mov	r1, #32768
 430 0020 2046     		mov	r0, r4
 431 0022 FFF7FEFF 		bl	HAL_GPIO_WritePin
 432              	.LVL26:
 734:Core/Src/main.cpp ****     }
 433              		.loc 1 734 7 is_stmt 1 view .LVU116
 434              	.L11:
 749:Core/Src/main.cpp **** 
 435              		.loc 1 749 1 is_stmt 0 view .LVU117
 436 0026 10BD     		pop	{r4, pc}
 437              	.L12:
 736:Core/Src/main.cpp ****     {
 438              		.loc 1 736 5 is_stmt 1 view .LVU118
 737:Core/Src/main.cpp ****       HAL_GPIO_WritePin(GreenLed_1_GPIO_Port, GreenLed_1_Pin, GPIO_PIN_RESET);
 439              		.loc 1 737 5 view .LVU119
ARM GAS  C:\Users\Admin\AppData\Local\Temp\cc8l8Vwd.s 			page 27


 738:Core/Src/main.cpp ****       HAL_GPIO_WritePin(GreenLed_2_GPIO_Port, GreenLed_2_Pin, GPIO_PIN_RESET);
 440              		.loc 1 738 7 view .LVU120
 738:Core/Src/main.cpp ****       HAL_GPIO_WritePin(GreenLed_2_GPIO_Port, GreenLed_2_Pin, GPIO_PIN_RESET);
 441              		.loc 1 738 24 is_stmt 0 view .LVU121
 442 0028 0E4C     		ldr	r4, .L16+4
 443 002a 0022     		movs	r2, #0
 444 002c 4FF48041 		mov	r1, #16384
 445 0030 2046     		mov	r0, r4
 446 0032 FFF7FEFF 		bl	HAL_GPIO_WritePin
 447              	.LVL27:
 739:Core/Src/main.cpp ****       break;
 448              		.loc 1 739 7 is_stmt 1 view .LVU122
 739:Core/Src/main.cpp ****       break;
 449              		.loc 1 739 24 is_stmt 0 view .LVU123
 450 0036 0022     		movs	r2, #0
 451 0038 4FF40041 		mov	r1, #32768
 452 003c 2046     		mov	r0, r4
 453 003e FFF7FEFF 		bl	HAL_GPIO_WritePin
 454              	.LVL28:
 740:Core/Src/main.cpp ****     }
 455              		.loc 1 740 7 is_stmt 1 view .LVU124
 456 0042 F0E7     		b	.L11
 457              	.L13:
 742:Core/Src/main.cpp ****     {
 458              		.loc 1 742 5 view .LVU125
 743:Core/Src/main.cpp ****       HAL_GPIO_WritePin(GreenLed_1_GPIO_Port, GreenLed_1_Pin, GPIO_PIN_SET);
 459              		.loc 1 743 5 view .LVU126
 744:Core/Src/main.cpp ****       HAL_GPIO_WritePin(GreenLed_2_GPIO_Port, GreenLed_2_Pin, GPIO_PIN_SET);
 460              		.loc 1 744 7 view .LVU127
 744:Core/Src/main.cpp ****       HAL_GPIO_WritePin(GreenLed_2_GPIO_Port, GreenLed_2_Pin, GPIO_PIN_SET);
 461              		.loc 1 744 24 is_stmt 0 view .LVU128
 462 0044 074C     		ldr	r4, .L16+4
 463 0046 0122     		movs	r2, #1
 464 0048 4FF48041 		mov	r1, #16384
 465 004c 2046     		mov	r0, r4
 466 004e FFF7FEFF 		bl	HAL_GPIO_WritePin
 467              	.LVL29:
 745:Core/Src/main.cpp ****       break;
 468              		.loc 1 745 7 is_stmt 1 view .LVU129
 745:Core/Src/main.cpp ****       break;
 469              		.loc 1 745 24 is_stmt 0 view .LVU130
 470 0052 0122     		movs	r2, #1
 471 0054 4FF40041 		mov	r1, #32768
 472 0058 2046     		mov	r0, r4
 473 005a FFF7FEFF 		bl	HAL_GPIO_WritePin
 474              	.LVL30:
 746:Core/Src/main.cpp ****     }
 475              		.loc 1 746 7 is_stmt 1 view .LVU131
 749:Core/Src/main.cpp **** 
 476              		.loc 1 749 1 is_stmt 0 view .LVU132
 477 005e E2E7     		b	.L11
 478              	.L17:
 479              		.align	2
 480              	.L16:
 481 0060 00000000 		.word	.LANCHOR1
 482 0064 000C0140 		.word	1073810432
 483              		.cfi_endproc
ARM GAS  C:\Users\Admin\AppData\Local\Temp\cc8l8Vwd.s 			page 28


 484              	.LFE115:
 485              		.fnend
 487              		.section	.text._Z9bellEventv,"ax",%progbits
 488              		.align	1
 489              		.global	_Z9bellEventv
 490              		.syntax unified
 491              		.thumb
 492              		.thumb_func
 493              		.fpu softvfp
 495              	_Z9bellEventv:
 496              		.fnstart
 497              	.LFB116:
 752:Core/Src/main.cpp ****   if(HAL_GetTick()-relay.getRelayOpenTime() < 5000 && workMode == TempOpenMode)
 498              		.loc 1 752 1 is_stmt 1 view -0
 499              		.cfi_startproc
 500              		@ args = 0, pretend = 0, frame = 0
 501              		@ frame_needed = 0, uses_anonymous_args = 0
 502 0000 10B5     		push	{r4, lr}
 503              		.save {r4, lr}
 504              	.LCFI4:
 505              		.cfi_def_cfa_offset 8
 506              		.cfi_offset 4, -8
 507              		.cfi_offset 14, -4
 753:Core/Src/main.cpp ****   {
 508              		.loc 1 753 3 view .LVU134
 753:Core/Src/main.cpp ****   {
 509              		.loc 1 753 17 is_stmt 0 view .LVU135
 510 0002 FFF7FEFF 		bl	HAL_GetTick
 511              	.LVL31:
 512              	.LBB99:
 513              	.LBI99:
 273:Core/Src/main.cpp ****     {
 514              		.loc 1 273 14 is_stmt 1 view .LVU136
 515              	.LBB100:
 275:Core/Src/main.cpp ****     }
 516              		.loc 1 275 7 view .LVU137
 275:Core/Src/main.cpp ****     }
 517              		.loc 1 275 21 is_stmt 0 view .LVU138
 518 0006 234B     		ldr	r3, .L24
 519 0008 5B68     		ldr	r3, [r3, #4]
 520              	.LVL32:
 275:Core/Src/main.cpp ****     }
 521              		.loc 1 275 21 view .LVU139
 522              	.LBE100:
 523              	.LBE99:
 753:Core/Src/main.cpp ****   {
 524              		.loc 1 753 19 view .LVU140
 525 000a C01A     		subs	r0, r0, r3
 753:Core/Src/main.cpp ****   {
 526              		.loc 1 753 52 view .LVU141
 527 000c 41F28733 		movw	r3, #4999
 528 0010 9842     		cmp	r0, r3
 529 0012 03D8     		bhi	.L18
 753:Core/Src/main.cpp ****   {
 530              		.loc 1 753 64 discriminator 1 view .LVU142
 531 0014 204B     		ldr	r3, .L24+4
 532 0016 1B78     		ldrb	r3, [r3]	@ zero_extendqisi2
ARM GAS  C:\Users\Admin\AppData\Local\Temp\cc8l8Vwd.s 			page 29


 753:Core/Src/main.cpp ****   {
 533              		.loc 1 753 52 discriminator 1 view .LVU143
 534 0018 042B     		cmp	r3, #4
 535 001a 00D0     		beq	.L22
 536              	.L18:
 766:Core/Src/main.cpp **** 
 537              		.loc 1 766 1 view .LVU144
 538 001c 10BD     		pop	{r4, pc}
 539              	.L22:
 755:Core/Src/main.cpp ****     {
 540              		.loc 1 755 5 is_stmt 1 view .LVU145
 755:Core/Src/main.cpp ****     {
 541              		.loc 1 755 19 is_stmt 0 view .LVU146
 542 001e FFF7FEFF 		bl	HAL_GetTick
 543              	.LVL33:
 544              	.LBB101:
 545              	.LBI101:
 323:Core/Src/main.cpp ****       return this->lastBeepTime;
 546              		.loc 1 323 14 is_stmt 1 view .LVU147
 547              	.LBB102:
 324:Core/Src/main.cpp ****     }
 548              		.loc 1 324 7 view .LVU148
 324:Core/Src/main.cpp ****     }
 549              		.loc 1 324 20 is_stmt 0 view .LVU149
 550 0022 1E4B     		ldr	r3, .L24+8
 551 0024 5B68     		ldr	r3, [r3, #4]
 552              	.LVL34:
 324:Core/Src/main.cpp ****     }
 553              		.loc 1 324 20 view .LVU150
 554              	.LBE102:
 555              	.LBE101:
 755:Core/Src/main.cpp ****     {
 556              		.loc 1 755 21 view .LVU151
 557 0026 C01A     		subs	r0, r0, r3
 755:Core/Src/main.cpp ****     {
 558              		.loc 1 755 5 view .LVU152
 559 0028 FA28     		cmp	r0, #250
 560 002a 1ED8     		bhi	.L23
 561              	.L20:
 761:Core/Src/main.cpp ****     {
 562              		.loc 1 761 5 is_stmt 1 view .LVU153
 761:Core/Src/main.cpp ****     {
 563              		.loc 1 761 19 is_stmt 0 view .LVU154
 564 002c FFF7FEFF 		bl	HAL_GetTick
 565              	.LVL35:
 566              	.LBB103:
 567              	.LBI103:
 323:Core/Src/main.cpp ****       return this->lastBeepTime;
 568              		.loc 1 323 14 is_stmt 1 view .LVU155
 569              	.LBB104:
 324:Core/Src/main.cpp ****     }
 570              		.loc 1 324 7 view .LVU156
 324:Core/Src/main.cpp ****     }
 571              		.loc 1 324 20 is_stmt 0 view .LVU157
 572 0030 1A4B     		ldr	r3, .L24+8
 573 0032 5B68     		ldr	r3, [r3, #4]
 574              	.LVL36:
ARM GAS  C:\Users\Admin\AppData\Local\Temp\cc8l8Vwd.s 			page 30


 324:Core/Src/main.cpp ****     }
 575              		.loc 1 324 20 view .LVU158
 576              	.LBE104:
 577              	.LBE103:
 761:Core/Src/main.cpp ****     {
 578              		.loc 1 761 21 view .LVU159
 579 0034 C01A     		subs	r0, r0, r3
 761:Core/Src/main.cpp ****     {
 580              		.loc 1 761 51 view .LVU160
 581 0036 F928     		cmp	r0, #249
 582 0038 F0D8     		bhi	.L18
 761:Core/Src/main.cpp ****     {
 583              		.loc 1 761 65 discriminator 1 view .LVU161
 584 003a FFF7FEFF 		bl	HAL_GetTick
 585              	.LVL37:
 586              	.LBB105:
 587              	.LBI105:
 323:Core/Src/main.cpp ****       return this->lastBeepTime;
 588              		.loc 1 323 14 is_stmt 1 discriminator 1 view .LVU162
 589              	.LBB106:
 324:Core/Src/main.cpp ****     }
 590              		.loc 1 324 7 discriminator 1 view .LVU163
 324:Core/Src/main.cpp ****     }
 591              		.loc 1 324 20 is_stmt 0 discriminator 1 view .LVU164
 592 003e 174B     		ldr	r3, .L24+8
 593 0040 5B68     		ldr	r3, [r3, #4]
 594              	.LVL38:
 324:Core/Src/main.cpp ****     }
 595              		.loc 1 324 20 discriminator 1 view .LVU165
 596              	.LBE106:
 597              	.LBE105:
 761:Core/Src/main.cpp ****     {
 598              		.loc 1 761 67 discriminator 1 view .LVU166
 599 0042 C01A     		subs	r0, r0, r3
 761:Core/Src/main.cpp ****     {
 600              		.loc 1 761 51 discriminator 1 view .LVU167
 601 0044 4B28     		cmp	r0, #75
 602 0046 E9D9     		bls	.L18
 763:Core/Src/main.cpp ****     }
 603              		.loc 1 763 7 is_stmt 1 view .LVU168
 604              	.LVL39:
 605              	.LBB107:
 606              	.LBI107:
 308:Core/Src/main.cpp ****       this->bellState = bellState;
 607              		.loc 1 308 10 view .LVU169
 608              	.LBB108:
 309:Core/Src/main.cpp **** 
 609              		.loc 1 309 7 view .LVU170
 309:Core/Src/main.cpp **** 
 610              		.loc 1 309 23 is_stmt 0 view .LVU171
 611 0048 144B     		ldr	r3, .L24+8
 612 004a 0022     		movs	r2, #0
 613 004c 1A70     		strb	r2, [r3]
 311:Core/Src/main.cpp ****       {
 614              		.loc 1 311 7 is_stmt 1 view .LVU172
 316:Core/Src/main.cpp ****       {
 615              		.loc 1 316 12 view .LVU173
ARM GAS  C:\Users\Admin\AppData\Local\Temp\cc8l8Vwd.s 			page 31


 318:Core/Src/main.cpp ****         HAL_GPIO_WritePin(Zumer2_GPIO_Port, Zumer2_Pin, GPIO_PIN_SET);
 616              		.loc 1 318 9 view .LVU174
 318:Core/Src/main.cpp ****         HAL_GPIO_WritePin(Zumer2_GPIO_Port, Zumer2_Pin, GPIO_PIN_SET);
 617              		.loc 1 318 26 is_stmt 0 view .LVU175
 618 004e 144C     		ldr	r4, .L24+12
 619 0050 0122     		movs	r2, #1
 620 0052 4FF48061 		mov	r1, #1024
 621 0056 2046     		mov	r0, r4
 622 0058 FFF7FEFF 		bl	HAL_GPIO_WritePin
 623              	.LVL40:
 319:Core/Src/main.cpp ****       }
 624              		.loc 1 319 9 is_stmt 1 view .LVU176
 319:Core/Src/main.cpp ****       }
 625              		.loc 1 319 26 is_stmt 0 view .LVU177
 626 005c 0122     		movs	r2, #1
 627 005e 4FF40061 		mov	r1, #2048
 628 0062 2046     		mov	r0, r4
 629 0064 FFF7FEFF 		bl	HAL_GPIO_WritePin
 630              	.LVL41:
 319:Core/Src/main.cpp ****       }
 631              		.loc 1 319 26 view .LVU178
 632              	.LBE108:
 633              	.LBE107:
 766:Core/Src/main.cpp **** 
 634              		.loc 1 766 1 view .LVU179
 635 0068 D8E7     		b	.L18
 636              	.L23:
 757:Core/Src/main.cpp ****       bell.setBellState(On);
 637              		.loc 1 757 7 is_stmt 1 view .LVU180
 757:Core/Src/main.cpp ****       bell.setBellState(On);
 638              		.loc 1 757 27 is_stmt 0 view .LVU181
 639 006a FFF7FEFF 		bl	HAL_GetTick
 640              	.LVL42:
 641              	.LBB109:
 642              	.LBI109:
 327:Core/Src/main.cpp ****       this->lastBeepTime = lastBeepTime;
 643              		.loc 1 327 10 is_stmt 1 view .LVU182
 644              	.LBB110:
 328:Core/Src/main.cpp ****     }
 645              		.loc 1 328 7 view .LVU183
 328:Core/Src/main.cpp ****     }
 646              		.loc 1 328 26 is_stmt 0 view .LVU184
 647 006e 0B4B     		ldr	r3, .L24+8
 648 0070 5860     		str	r0, [r3, #4]
 649              	.LVL43:
 328:Core/Src/main.cpp ****     }
 650              		.loc 1 328 26 view .LVU185
 651              	.LBE110:
 652              	.LBE109:
 758:Core/Src/main.cpp ****     }
 653              		.loc 1 758 7 is_stmt 1 view .LVU186
 654              	.LBB111:
 655              	.LBI111:
 308:Core/Src/main.cpp ****       this->bellState = bellState;
 656              		.loc 1 308 10 view .LVU187
 657              	.LBB112:
 309:Core/Src/main.cpp **** 
ARM GAS  C:\Users\Admin\AppData\Local\Temp\cc8l8Vwd.s 			page 32


 658              		.loc 1 309 7 view .LVU188
 309:Core/Src/main.cpp **** 
 659              		.loc 1 309 23 is_stmt 0 view .LVU189
 660 0072 0122     		movs	r2, #1
 661 0074 1A70     		strb	r2, [r3]
 311:Core/Src/main.cpp ****       {
 662              		.loc 1 311 7 is_stmt 1 view .LVU190
 313:Core/Src/main.cpp ****         HAL_GPIO_WritePin(Zumer2_GPIO_Port, Zumer2_Pin, GPIO_PIN_RESET);
 663              		.loc 1 313 9 view .LVU191
 313:Core/Src/main.cpp ****         HAL_GPIO_WritePin(Zumer2_GPIO_Port, Zumer2_Pin, GPIO_PIN_RESET);
 664              		.loc 1 313 26 is_stmt 0 view .LVU192
 665 0076 0A4C     		ldr	r4, .L24+12
 666 0078 0022     		movs	r2, #0
 667 007a 4FF48061 		mov	r1, #1024
 668 007e 2046     		mov	r0, r4
 669 0080 FFF7FEFF 		bl	HAL_GPIO_WritePin
 670              	.LVL44:
 314:Core/Src/main.cpp ****       }
 671              		.loc 1 314 9 is_stmt 1 view .LVU193
 314:Core/Src/main.cpp ****       }
 672              		.loc 1 314 26 is_stmt 0 view .LVU194
 673 0084 0022     		movs	r2, #0
 674 0086 4FF40061 		mov	r1, #2048
 675 008a 2046     		mov	r0, r4
 676 008c FFF7FEFF 		bl	HAL_GPIO_WritePin
 677              	.LVL45:
 678 0090 CCE7     		b	.L20
 679              	.L25:
 680 0092 00BF     		.align	2
 681              	.L24:
 682 0094 00000000 		.word	.LANCHOR1
 683 0098 00000000 		.word	.LANCHOR3
 684 009c 00000000 		.word	.LANCHOR2
 685 00a0 000C0140 		.word	1073810432
 686              	.LBE112:
 687              	.LBE111:
 688              		.cfi_endproc
 689              	.LFE116:
 690              		.fnend
 692              		.section	.text._Z10alarmEventv,"ax",%progbits
 693              		.align	1
 694              		.global	_Z10alarmEventv
 695              		.syntax unified
 696              		.thumb
 697              		.thumb_func
 698              		.fpu softvfp
 700              	_Z10alarmEventv:
 701              		.fnstart
 702              	.LFB117:
 769:Core/Src/main.cpp **** }
 703              		.loc 1 769 1 is_stmt 1 view -0
 704              		.cfi_startproc
 705              		@ args = 0, pretend = 0, frame = 0
 706              		@ frame_needed = 0, uses_anonymous_args = 0
 707              		@ link register save eliminated.
 770:Core/Src/main.cpp **** 
 708              		.loc 1 770 1 is_stmt 0 view .LVU196
ARM GAS  C:\Users\Admin\AppData\Local\Temp\cc8l8Vwd.s 			page 33


 709 0000 7047     		bx	lr
 710              		.cfi_endproc
 711              	.LFE117:
 712              		.cantunwind
 713              		.fnend
 715              		.section	.text.HAL_GPIO_EXTI_Callback,"ax",%progbits
 716              		.align	1
 717              		.global	HAL_GPIO_EXTI_Callback
 718              		.syntax unified
 719              		.thumb
 720              		.thumb_func
 721              		.fpu softvfp
 723              	HAL_GPIO_EXTI_Callback:
 724              		.fnstart
 725              	.LVL46:
 726              	.LFB118:
 775:Core/Src/main.cpp ****   switch (GPIO_Pin)
 727              		.loc 1 775 1 is_stmt 1 view -0
 728              		.cfi_startproc
 729              		@ args = 0, pretend = 0, frame = 0
 730              		@ frame_needed = 0, uses_anonymous_args = 0
 775:Core/Src/main.cpp ****   switch (GPIO_Pin)
 731              		.loc 1 775 1 is_stmt 0 view .LVU198
 732 0000 08B5     		push	{r3, lr}
 733              		.save {r3, lr}
 734              	.LCFI5:
 735              		.cfi_def_cfa_offset 8
 736              		.cfi_offset 3, -8
 737              		.cfi_offset 14, -4
 776:Core/Src/main.cpp ****   {
 738              		.loc 1 776 3 is_stmt 1 view .LVU199
 739 0002 0828     		cmp	r0, #8
 740 0004 0AD8     		bhi	.L28
 741 0006 03B2     		sxth	r3, r0
 742 0008 33B3     		cbz	r3, .L27
 743 000a 0138     		subs	r0, r0, #1
 744              	.LVL47:
 776:Core/Src/main.cpp ****   {
 745              		.loc 1 776 3 is_stmt 0 view .LVU200
 746 000c 0728     		cmp	r0, #7
 747 000e 23D8     		bhi	.L27
 748 0010 DFE800F0 		tbb	[pc, r0]
 749              	.LVL48:
 750              	.L31:
 751 0014 34       		.byte	(.L34-.L31)/2
 752 0015 3E       		.byte	(.L33-.L31)/2
 753 0016 22       		.byte	(.L27-.L31)/2
 754 0017 1F       		.byte	(.L32-.L31)/2
 755 0018 22       		.byte	(.L27-.L31)/2
 756 0019 22       		.byte	(.L27-.L31)/2
 757 001a 22       		.byte	(.L27-.L31)/2
 758 001b 23       		.byte	(.L30-.L31)/2
 759              		.p2align 1
 760              	.L28:
 776:Core/Src/main.cpp ****   {
 761              		.loc 1 776 3 view .LVU201
 762 001c 8028     		cmp	r0, #128
ARM GAS  C:\Users\Admin\AppData\Local\Temp\cc8l8Vwd.s 			page 34


 763 001e 41D0     		beq	.L35
 764 0020 B0F5807F 		cmp	r0, #256
 765 0024 0AD1     		bne	.L40
 788:Core/Src/main.cpp ****     {
 766              		.loc 1 788 5 is_stmt 1 view .LVU202
 789:Core/Src/main.cpp ****       if (HAL_GPIO_ReadPin(Door_GPIO_Port, Door_Pin) == 0)
 767              		.loc 1 789 5 view .LVU203
 790:Core/Src/main.cpp ****       {
 768              		.loc 1 790 7 view .LVU204
 790:Core/Src/main.cpp ****       {
 769              		.loc 1 790 27 is_stmt 0 view .LVU205
 770 0026 4FF48071 		mov	r1, #256
 771 002a 2348     		ldr	r0, .L41
 772              	.LVL49:
 790:Core/Src/main.cpp ****       {
 773              		.loc 1 790 27 view .LVU206
 774 002c FFF7FEFF 		bl	HAL_GPIO_ReadPin
 775              	.LVL50:
 790:Core/Src/main.cpp ****       {
 776              		.loc 1 790 7 view .LVU207
 777 0030 B8B9     		cbnz	r0, .L38
 792:Core/Src/main.cpp ****       }
 778              		.loc 1 792 9 is_stmt 1 view .LVU208
 779              	.LVL51:
 780              	.LBB113:
 781              	.LBI113:
 196:Core/Src/main.cpp ****     {
 782              		.loc 1 196 10 view .LVU209
 783              	.LBB114:
 198:Core/Src/main.cpp ****       this->doorStateChanged = true;
 784              		.loc 1 198 7 view .LVU210
 198:Core/Src/main.cpp ****       this->doorStateChanged = true;
 785              		.loc 1 198 23 is_stmt 0 view .LVU211
 786 0032 224B     		ldr	r3, .L41+4
 787 0034 0122     		movs	r2, #1
 788 0036 1A70     		strb	r2, [r3]
 199:Core/Src/main.cpp ****     }
 789              		.loc 1 199 7 is_stmt 1 view .LVU212
 199:Core/Src/main.cpp ****     }
 790              		.loc 1 199 30 is_stmt 0 view .LVU213
 791 0038 5A70     		strb	r2, [r3, #1]
 200:Core/Src/main.cpp **** 
 792              		.loc 1 200 5 view .LVU214
 793 003a 0DE0     		b	.L27
 794              	.LVL52:
 795              	.L40:
 200:Core/Src/main.cpp **** 
 796              		.loc 1 200 5 view .LVU215
 797              	.LBE114:
 798              	.LBE113:
 776:Core/Src/main.cpp ****   {
 799              		.loc 1 776 3 view .LVU216
 800 003c 4028     		cmp	r0, #64
 801 003e 0BD1     		bne	.L27
 818:Core/Src/main.cpp ****     {
 802              		.loc 1 818 5 is_stmt 1 view .LVU217
 819:Core/Src/main.cpp ****       if (wig_flag_inrt)
ARM GAS  C:\Users\Admin\AppData\Local\Temp\cc8l8Vwd.s 			page 35


 803              		.loc 1 819 5 view .LVU218
 820:Core/Src/main.cpp ****       {
 804              		.loc 1 820 7 view .LVU219
 820:Core/Src/main.cpp ****       {
 805              		.loc 1 820 11 is_stmt 0 view .LVU220
 806 0040 1F4B     		ldr	r3, .L41+8
 807 0042 1B78     		ldrb	r3, [r3]	@ zero_extendqisi2
 820:Core/Src/main.cpp ****       {
 808              		.loc 1 820 7 view .LVU221
 809 0044 43B1     		cbz	r3, .L27
 822:Core/Src/main.cpp ****         outsideKeyRead = true;
 810              		.loc 1 822 9 is_stmt 1 view .LVU222
 822:Core/Src/main.cpp ****         outsideKeyRead = true;
 811              		.loc 1 822 15 is_stmt 0 view .LVU223
 812 0046 FFF7FEFF 		bl	ReadD0
 813              	.LVL53:
 823:Core/Src/main.cpp ****       }
 814              		.loc 1 823 9 is_stmt 1 view .LVU224
 823:Core/Src/main.cpp ****       }
 815              		.loc 1 823 24 is_stmt 0 view .LVU225
 816 004a 1E4B     		ldr	r3, .L41+12
 817 004c 0122     		movs	r2, #1
 818 004e 1A70     		strb	r2, [r3]
 819 0050 02E0     		b	.L27
 820              	.L32:
 778:Core/Src/main.cpp ****     {
 821              		.loc 1 778 5 is_stmt 1 view .LVU226
 779:Core/Src/main.cpp ****       insideButtonPressed = true;
 822              		.loc 1 779 5 view .LVU227
 780:Core/Src/main.cpp ****       break;
 823              		.loc 1 780 7 view .LVU228
 780:Core/Src/main.cpp ****       break;
 824              		.loc 1 780 27 is_stmt 0 view .LVU229
 825 0052 1D4B     		ldr	r3, .L41+16
 826 0054 0122     		movs	r2, #1
 827 0056 1A70     		strb	r2, [r3]
 781:Core/Src/main.cpp ****     }
 828              		.loc 1 781 7 is_stmt 1 view .LVU230
 829              	.L27:
 841:Core/Src/main.cpp **** 
 830              		.loc 1 841 1 is_stmt 0 view .LVU231
 831 0058 08BD     		pop	{r3, pc}
 832              	.L30:
 783:Core/Src/main.cpp ****     {
 833              		.loc 1 783 5 is_stmt 1 view .LVU232
 784:Core/Src/main.cpp ****       outsideButtonPressed = true;
 834              		.loc 1 784 5 view .LVU233
 785:Core/Src/main.cpp ****       break;
 835              		.loc 1 785 7 view .LVU234
 785:Core/Src/main.cpp ****       break;
 836              		.loc 1 785 28 is_stmt 0 view .LVU235
 837 005a 1C4B     		ldr	r3, .L41+20
 838 005c 0122     		movs	r2, #1
 839 005e 1A70     		strb	r2, [r3]
 786:Core/Src/main.cpp ****     }
 840              		.loc 1 786 7 is_stmt 1 view .LVU236
 841 0060 FAE7     		b	.L27
ARM GAS  C:\Users\Admin\AppData\Local\Temp\cc8l8Vwd.s 			page 36


 842              	.L38:
 794:Core/Src/main.cpp ****       {
 843              		.loc 1 794 12 view .LVU237
 794:Core/Src/main.cpp ****       {
 844              		.loc 1 794 32 is_stmt 0 view .LVU238
 845 0062 4FF48071 		mov	r1, #256
 846 0066 1448     		ldr	r0, .L41
 847 0068 FFF7FEFF 		bl	HAL_GPIO_ReadPin
 848              	.LVL54:
 794:Core/Src/main.cpp ****       {
 849              		.loc 1 794 12 view .LVU239
 850 006c 0128     		cmp	r0, #1
 851 006e F3D1     		bne	.L27
 796:Core/Src/main.cpp ****       }
 852              		.loc 1 796 9 is_stmt 1 view .LVU240
 853              	.LVL55:
 854              	.LBB115:
 855              	.LBI115:
 196:Core/Src/main.cpp ****     {
 856              		.loc 1 196 10 view .LVU241
 857              	.LBB116:
 198:Core/Src/main.cpp ****       this->doorStateChanged = true;
 858              		.loc 1 198 7 view .LVU242
 198:Core/Src/main.cpp ****       this->doorStateChanged = true;
 859              		.loc 1 198 23 is_stmt 0 view .LVU243
 860 0070 124B     		ldr	r3, .L41+4
 861 0072 0022     		movs	r2, #0
 862 0074 1A70     		strb	r2, [r3]
 199:Core/Src/main.cpp ****     }
 863              		.loc 1 199 7 is_stmt 1 view .LVU244
 199:Core/Src/main.cpp ****     }
 864              		.loc 1 199 30 is_stmt 0 view .LVU245
 865 0076 0122     		movs	r2, #1
 866 0078 5A70     		strb	r2, [r3, #1]
 200:Core/Src/main.cpp **** 
 867              		.loc 1 200 5 view .LVU246
 868 007a EDE7     		b	.L27
 869              	.LVL56:
 870              	.L34:
 200:Core/Src/main.cpp **** 
 871              		.loc 1 200 5 view .LVU247
 872              	.LBE116:
 873              	.LBE115:
 800:Core/Src/main.cpp ****     {
 874              		.loc 1 800 5 is_stmt 1 view .LVU248
 801:Core/Src/main.cpp ****       if (wig_flag_inrt)
 875              		.loc 1 801 5 view .LVU249
 802:Core/Src/main.cpp ****       {
 876              		.loc 1 802 7 view .LVU250
 802:Core/Src/main.cpp ****       {
 877              		.loc 1 802 11 is_stmt 0 view .LVU251
 878 007c 104B     		ldr	r3, .L41+8
 879 007e 1B78     		ldrb	r3, [r3]	@ zero_extendqisi2
 802:Core/Src/main.cpp ****       {
 880              		.loc 1 802 7 view .LVU252
 881 0080 002B     		cmp	r3, #0
 882 0082 E9D0     		beq	.L27
ARM GAS  C:\Users\Admin\AppData\Local\Temp\cc8l8Vwd.s 			page 37


 804:Core/Src/main.cpp ****         insideKeyRead = true;
 883              		.loc 1 804 9 is_stmt 1 view .LVU253
 804:Core/Src/main.cpp ****         insideKeyRead = true;
 884              		.loc 1 804 15 is_stmt 0 view .LVU254
 885 0084 FFF7FEFF 		bl	ReadD0
 886              	.LVL57:
 805:Core/Src/main.cpp ****       }
 887              		.loc 1 805 9 is_stmt 1 view .LVU255
 805:Core/Src/main.cpp ****       }
 888              		.loc 1 805 23 is_stmt 0 view .LVU256
 889 0088 114B     		ldr	r3, .L41+24
 890 008a 0122     		movs	r2, #1
 891 008c 1A70     		strb	r2, [r3]
 892 008e E3E7     		b	.L27
 893              	.L33:
 809:Core/Src/main.cpp ****     {
 894              		.loc 1 809 5 is_stmt 1 view .LVU257
 810:Core/Src/main.cpp ****       if (wig_flag_inrt)
 895              		.loc 1 810 5 view .LVU258
 811:Core/Src/main.cpp ****       {
 896              		.loc 1 811 7 view .LVU259
 811:Core/Src/main.cpp ****       {
 897              		.loc 1 811 11 is_stmt 0 view .LVU260
 898 0090 0B4B     		ldr	r3, .L41+8
 899 0092 1B78     		ldrb	r3, [r3]	@ zero_extendqisi2
 811:Core/Src/main.cpp ****       {
 900              		.loc 1 811 7 view .LVU261
 901 0094 002B     		cmp	r3, #0
 902 0096 DFD0     		beq	.L27
 813:Core/Src/main.cpp ****         insideKeyRead = true;
 903              		.loc 1 813 9 is_stmt 1 view .LVU262
 813:Core/Src/main.cpp ****         insideKeyRead = true;
 904              		.loc 1 813 15 is_stmt 0 view .LVU263
 905 0098 FFF7FEFF 		bl	ReadD1
 906              	.LVL58:
 814:Core/Src/main.cpp ****       }
 907              		.loc 1 814 9 is_stmt 1 view .LVU264
 814:Core/Src/main.cpp ****       }
 908              		.loc 1 814 23 is_stmt 0 view .LVU265
 909 009c 0C4B     		ldr	r3, .L41+24
 910 009e 0122     		movs	r2, #1
 911 00a0 1A70     		strb	r2, [r3]
 912 00a2 D9E7     		b	.L27
 913              	.LVL59:
 914              	.L35:
 827:Core/Src/main.cpp ****     {
 915              		.loc 1 827 5 is_stmt 1 view .LVU266
 828:Core/Src/main.cpp ****       if (wig_flag_inrt)
 916              		.loc 1 828 5 view .LVU267
 829:Core/Src/main.cpp ****       {
 917              		.loc 1 829 7 view .LVU268
 829:Core/Src/main.cpp ****       {
 918              		.loc 1 829 11 is_stmt 0 view .LVU269
 919 00a4 064B     		ldr	r3, .L41+8
 920 00a6 1B78     		ldrb	r3, [r3]	@ zero_extendqisi2
 829:Core/Src/main.cpp ****       {
 921              		.loc 1 829 7 view .LVU270
ARM GAS  C:\Users\Admin\AppData\Local\Temp\cc8l8Vwd.s 			page 38


 922 00a8 002B     		cmp	r3, #0
 923 00aa D5D0     		beq	.L27
 831:Core/Src/main.cpp ****         outsideKeyRead = true;
 924              		.loc 1 831 9 is_stmt 1 view .LVU271
 831:Core/Src/main.cpp ****         outsideKeyRead = true;
 925              		.loc 1 831 15 is_stmt 0 view .LVU272
 926 00ac FFF7FEFF 		bl	ReadD1
 927              	.LVL60:
 832:Core/Src/main.cpp ****       }
 928              		.loc 1 832 9 is_stmt 1 view .LVU273
 832:Core/Src/main.cpp ****       }
 929              		.loc 1 832 24 is_stmt 0 view .LVU274
 930 00b0 044B     		ldr	r3, .L41+12
 931 00b2 0122     		movs	r2, #1
 932 00b4 1A70     		strb	r2, [r3]
 841:Core/Src/main.cpp **** 
 933              		.loc 1 841 1 view .LVU275
 934 00b6 CFE7     		b	.L27
 935              	.L42:
 936              		.align	2
 937              	.L41:
 938 00b8 00100140 		.word	1073811456
 939 00bc 00000000 		.word	.LANCHOR0
 940 00c0 00000000 		.word	.LANCHOR6
 941 00c4 00000000 		.word	.LANCHOR8
 942 00c8 00000000 		.word	.LANCHOR4
 943 00cc 00000000 		.word	.LANCHOR5
 944 00d0 00000000 		.word	.LANCHOR7
 945              		.cfi_endproc
 946              	.LFE118:
 947              		.fnend
 949              		.section	.text._Z11UART_PrintfPKcz,"ax",%progbits
 950              		.align	1
 951              		.global	_Z11UART_PrintfPKcz
 952              		.syntax unified
 953              		.thumb
 954              		.thumb_func
 955              		.fpu softvfp
 957              	_Z11UART_PrintfPKcz:
 958              		.fnstart
 959              	.LVL61:
 960              	.LFB119:
 844:Core/Src/main.cpp ****   char buff[256];
 961              		.loc 1 844 1 is_stmt 1 view -0
 962              		.cfi_startproc
 963              		@ args = 4, pretend = 16, frame = 264
 964              		@ frame_needed = 0, uses_anonymous_args = 1
 844:Core/Src/main.cpp ****   char buff[256];
 965              		.loc 1 844 1 is_stmt 0 view .LVU277
 966 0000 0FB4     		push	{r0, r1, r2, r3}
 967              		.save {r0, r1, r2, r3}
 968              	.LCFI6:
 969              		.cfi_def_cfa_offset 16
 970              		.cfi_offset 0, -16
 971              		.cfi_offset 1, -12
 972              		.cfi_offset 2, -8
 973              		.cfi_offset 3, -4
ARM GAS  C:\Users\Admin\AppData\Local\Temp\cc8l8Vwd.s 			page 39


 974 0002 00B5     		push	{lr}
 975              		.save {lr}
 976              	.LCFI7:
 977              		.cfi_def_cfa_offset 20
 978              		.cfi_offset 14, -20
 979              		.pad #268
 980 0004 C3B0     		sub	sp, sp, #268
 981              	.LCFI8:
 982              		.cfi_def_cfa_offset 288
 983 0006 44AB     		add	r3, sp, #272
 984 0008 53F8042B 		ldr	r2, [r3], #4
 845:Core/Src/main.cpp ****   va_list args;
 985              		.loc 1 845 3 is_stmt 1 view .LVU278
 846:Core/Src/main.cpp ****   va_start(args, fmt);
 986              		.loc 1 846 3 view .LVU279
 847:Core/Src/main.cpp ****   vsnprintf(buff, sizeof(buff), fmt, args);
 987              		.loc 1 847 3 view .LVU280
 988 000c 0193     		str	r3, [sp, #4]
 848:Core/Src/main.cpp ****   HAL_UART_Transmit(&huart1, (uint8_t *)buff, strlen(buff), HAL_MAX_DELAY);
 989              		.loc 1 848 3 view .LVU281
 848:Core/Src/main.cpp ****   HAL_UART_Transmit(&huart1, (uint8_t *)buff, strlen(buff), HAL_MAX_DELAY);
 990              		.loc 1 848 12 is_stmt 0 view .LVU282
 991 000e 4FF48071 		mov	r1, #256
 992 0012 02A8     		add	r0, sp, #8
 993 0014 FFF7FEFF 		bl	vsnprintf
 994              	.LVL62:
 849:Core/Src/main.cpp ****   va_end(args);
 995              		.loc 1 849 3 is_stmt 1 view .LVU283
 849:Core/Src/main.cpp ****   va_end(args);
 996              		.loc 1 849 53 is_stmt 0 view .LVU284
 997 0018 02A8     		add	r0, sp, #8
 998 001a FFF7FEFF 		bl	strlen
 999              	.LVL63:
 849:Core/Src/main.cpp ****   va_end(args);
 1000              		.loc 1 849 20 view .LVU285
 1001 001e 4FF0FF33 		mov	r3, #-1
 1002 0022 82B2     		uxth	r2, r0
 1003 0024 02A9     		add	r1, sp, #8
 1004 0026 0448     		ldr	r0, .L45
 1005 0028 FFF7FEFF 		bl	HAL_UART_Transmit
 1006              	.LVL64:
 850:Core/Src/main.cpp **** }
 1007              		.loc 1 850 3 is_stmt 1 view .LVU286
 851:Core/Src/main.cpp **** 
 1008              		.loc 1 851 1 is_stmt 0 view .LVU287
 1009 002c 43B0     		add	sp, sp, #268
 1010              	.LCFI9:
 1011              		.cfi_def_cfa_offset 20
 1012              		@ sp needed
 1013 002e 5DF804EB 		ldr	lr, [sp], #4
 1014              	.LCFI10:
 1015              		.cfi_restore 14
 1016              		.cfi_def_cfa_offset 16
 1017 0032 04B0     		add	sp, sp, #16
 1018              	.LCFI11:
 1019              		.cfi_restore 3
 1020              		.cfi_restore 2
ARM GAS  C:\Users\Admin\AppData\Local\Temp\cc8l8Vwd.s 			page 40


 1021              		.cfi_restore 1
 1022              		.cfi_restore 0
 1023              		.cfi_def_cfa_offset 0
 1024 0034 7047     		bx	lr
 1025              	.L46:
 1026 0036 00BF     		.align	2
 1027              	.L45:
 1028 0038 00000000 		.word	.LANCHOR9
 1029              		.cfi_endproc
 1030              	.LFE119:
 1031              		.fnend
 1033              		.section	.rodata._Z14timeTrackEventv.str1.4,"aMS",%progbits,1
 1034              		.align	2
 1035              	.LC0:
 1036 0000 20736563 		.ascii	" sec.\000"
 1036      2E00
 1037 0006 0000     		.align	2
 1038              	.LC1:
 1039 0008 54696D65 		.ascii	"Time passed: %d%s\015\012\000"
 1039      20706173 
 1039      7365643A 
 1039      20256425 
 1039      730D0A00 
 1040              		.section	.text._Z14timeTrackEventv,"ax",%progbits
 1041              		.align	1
 1042              		.global	_Z14timeTrackEventv
 1043              		.syntax unified
 1044              		.thumb
 1045              		.thumb_func
 1046              		.fpu softvfp
 1048              	_Z14timeTrackEventv:
 1049              		.fnstart
 1050              	.LFB108:
 558:Core/Src/main.cpp ****   if ((HAL_GetTick() - timmeTrack) > 5000)
 1051              		.loc 1 558 1 is_stmt 1 view -0
 1052              		.cfi_startproc
 1053              		@ args = 0, pretend = 0, frame = 0
 1054              		@ frame_needed = 0, uses_anonymous_args = 0
 1055 0000 08B5     		push	{r3, lr}
 1056              		.save {r3, lr}
 1057              	.LCFI12:
 1058              		.cfi_def_cfa_offset 8
 1059              		.cfi_offset 3, -8
 1060              		.cfi_offset 14, -4
 559:Core/Src/main.cpp ****   {
 1061              		.loc 1 559 3 view .LVU289
 559:Core/Src/main.cpp ****   {
 1062              		.loc 1 559 19 is_stmt 0 view .LVU290
 1063 0002 FFF7FEFF 		bl	HAL_GetTick
 1064              	.LVL65:
 559:Core/Src/main.cpp ****   {
 1065              		.loc 1 559 22 view .LVU291
 1066 0006 0D4B     		ldr	r3, .L51
 1067 0008 1B68     		ldr	r3, [r3]
 1068 000a C01A     		subs	r0, r0, r3
 559:Core/Src/main.cpp ****   {
 1069              		.loc 1 559 3 view .LVU292
ARM GAS  C:\Users\Admin\AppData\Local\Temp\cc8l8Vwd.s 			page 41


 1070 000c 41F28833 		movw	r3, #5000
 1071 0010 9842     		cmp	r0, r3
 1072 0012 00D8     		bhi	.L50
 1073              	.L47:
 564:Core/Src/main.cpp **** 
 1074              		.loc 1 564 1 view .LVU293
 1075 0014 08BD     		pop	{r3, pc}
 1076              	.L50:
 561:Core/Src/main.cpp ****     timmeTrack = HAL_GetTick();
 1077              		.loc 1 561 5 is_stmt 1 view .LVU294
 561:Core/Src/main.cpp ****     timmeTrack = HAL_GetTick();
 1078              		.loc 1 561 54 is_stmt 0 view .LVU295
 1079 0016 FFF7FEFF 		bl	HAL_GetTick
 1080              	.LVL66:
 561:Core/Src/main.cpp ****     timmeTrack = HAL_GetTick();
 1081              		.loc 1 561 57 view .LVU296
 1082 001a 094B     		ldr	r3, .L51+4
 1083 001c 1968     		ldr	r1, [r3]
 1084 001e 411A     		subs	r1, r0, r1
 561:Core/Src/main.cpp ****     timmeTrack = HAL_GetTick();
 1085              		.loc 1 561 16 view .LVU297
 1086 0020 0848     		ldr	r0, .L51+8
 1087 0022 A0FB0131 		umull	r3, r1, r0, r1
 1088 0026 084A     		ldr	r2, .L51+12
 1089 0028 8909     		lsrs	r1, r1, #6
 1090 002a 0848     		ldr	r0, .L51+16
 1091 002c FFF7FEFF 		bl	_Z11UART_PrintfPKcz
 1092              	.LVL67:
 562:Core/Src/main.cpp ****   }
 1093              		.loc 1 562 5 is_stmt 1 view .LVU298
 562:Core/Src/main.cpp ****   }
 1094              		.loc 1 562 29 is_stmt 0 view .LVU299
 1095 0030 FFF7FEFF 		bl	HAL_GetTick
 1096              	.LVL68:
 562:Core/Src/main.cpp ****   }
 1097              		.loc 1 562 16 view .LVU300
 1098 0034 014B     		ldr	r3, .L51
 1099 0036 1860     		str	r0, [r3]
 564:Core/Src/main.cpp **** 
 1100              		.loc 1 564 1 view .LVU301
 1101 0038 ECE7     		b	.L47
 1102              	.L52:
 1103 003a 00BF     		.align	2
 1104              	.L51:
 1105 003c 00000000 		.word	.LANCHOR10
 1106 0040 00000000 		.word	.LANCHOR11
 1107 0044 D34D6210 		.word	274877907
 1108 0048 00000000 		.word	.LC0
 1109 004c 08000000 		.word	.LC1
 1110              		.cfi_endproc
 1111              	.LFE108:
 1112              		.fnend
 1114              		.section	.rodata._Z18buttonPressedEventv.str1.4,"aMS",%progbits,1
 1115              		.align	2
 1116              	.LC2:
 1117 0000 496E7369 		.ascii	"Inside button was pressed.\015\012\000"
 1117      64652062 
ARM GAS  C:\Users\Admin\AppData\Local\Temp\cc8l8Vwd.s 			page 42


 1117      7574746F 
 1117      6E207761 
 1117      73207072 
 1118 001d 000000   		.align	2
 1119              	.LC3:
 1120 0020 4F757473 		.ascii	"Outside button was pressed.\015\012\000"
 1120      69646520 
 1120      62757474 
 1120      6F6E2077 
 1120      61732070 
 1121 003e 0000     		.align	2
 1122              	.LC4:
 1123 0040 446F6F72 		.ascii	"Door has been unlocked\015\012\000"
 1123      20686173 
 1123      20626565 
 1123      6E20756E 
 1123      6C6F636B 
 1124 0059 000000   		.align	2
 1125              	.LC5:
 1126 005c 53776974 		.ascii	"Switched to Open mode.\015\012\000"
 1126      63686564 
 1126      20746F20 
 1126      4F70656E 
 1126      206D6F64 
 1127              		.section	.text._Z18buttonPressedEventv,"ax",%progbits
 1128              		.align	1
 1129              		.global	_Z18buttonPressedEventv
 1130              		.syntax unified
 1131              		.thumb
 1132              		.thumb_func
 1133              		.fpu softvfp
 1135              	_Z18buttonPressedEventv:
 1136              		.fnstart
 1137              	.LFB113:
 667:Core/Src/main.cpp ****   if (insideButtonPressed)
 1138              		.loc 1 667 1 is_stmt 1 view -0
 1139              		.cfi_startproc
 1140              		@ args = 0, pretend = 0, frame = 0
 1141              		@ frame_needed = 0, uses_anonymous_args = 0
 1142 0000 10B5     		push	{r4, lr}
 1143              		.save {r4, lr}
 1144              	.LCFI13:
 1145              		.cfi_def_cfa_offset 8
 1146              		.cfi_offset 4, -8
 1147              		.cfi_offset 14, -4
 668:Core/Src/main.cpp ****     UART_Printf("Inside button was pressed.\r\n");
 1148              		.loc 1 668 3 view .LVU303
 1149 0002 1F4B     		ldr	r3, .L64
 1150 0004 1B78     		ldrb	r3, [r3]	@ zero_extendqisi2
 1151 0006 CBB9     		cbnz	r3, .L62
 1152              	.L54:
 671:Core/Src/main.cpp ****     UART_Printf("Outside button was pressed.\r\n");
 1153              		.loc 1 671 3 view .LVU304
 1154 0008 1E4B     		ldr	r3, .L64+4
 1155 000a 1B78     		ldrb	r3, [r3]	@ zero_extendqisi2
 1156 000c D3B9     		cbnz	r3, .L63
 1157              	.L55:
ARM GAS  C:\Users\Admin\AppData\Local\Temp\cc8l8Vwd.s 			page 43


 674:Core/Src/main.cpp ****   {
 1158              		.loc 1 674 3 view .LVU305
 1159 000e 1D4B     		ldr	r3, .L64+4
 1160 0010 1B78     		ldrb	r3, [r3]	@ zero_extendqisi2
 1161 0012 1BB9     		cbnz	r3, .L56
 674:Core/Src/main.cpp ****   {
 1162              		.loc 1 674 28 is_stmt 0 discriminator 1 view .LVU306
 1163 0014 1A4B     		ldr	r3, .L64
 1164 0016 1B78     		ldrb	r3, [r3]	@ zero_extendqisi2
 1165 0018 002B     		cmp	r3, #0
 1166 001a 2FD0     		beq	.L53
 1167              	.L56:
 676:Core/Src/main.cpp ****     {
 1168              		.loc 1 676 5 is_stmt 1 view .LVU307
 676:Core/Src/main.cpp ****     {
 1169              		.loc 1 676 13 is_stmt 0 view .LVU308
 1170 001c 1A4B     		ldr	r3, .L64+8
 1171 001e 1B78     		ldrb	r3, [r3]	@ zero_extendqisi2
 676:Core/Src/main.cpp ****     {
 1172              		.loc 1 676 5 view .LVU309
 1173 0020 012B     		cmp	r3, #1
 1174 0022 13D9     		bls	.L58
 1175 0024 032B     		cmp	r3, #3
 1176 0026 24D1     		bne	.L60
 694:Core/Src/main.cpp ****       {
 1177              		.loc 1 694 7 is_stmt 1 view .LVU310
 695:Core/Src/main.cpp ****         UART_Printf("Switched to Open mode.\r\n");
 1178              		.loc 1 695 7 view .LVU311
 696:Core/Src/main.cpp ****         workMode = OpenMode;
 1179              		.loc 1 696 9 view .LVU312
 696:Core/Src/main.cpp ****         workMode = OpenMode;
 1180              		.loc 1 696 20 is_stmt 0 view .LVU313
 1181 0028 1848     		ldr	r0, .L64+12
 1182 002a FFF7FEFF 		bl	_Z11UART_PrintfPKcz
 1183              	.LVL69:
 697:Core/Src/main.cpp ****         relay.setRelayState(OpenedState);
 1184              		.loc 1 697 9 is_stmt 1 view .LVU314
 697:Core/Src/main.cpp ****         relay.setRelayState(OpenedState);
 1185              		.loc 1 697 18 is_stmt 0 view .LVU315
 1186 002e 164B     		ldr	r3, .L64+8
 1187 0030 0222     		movs	r2, #2
 1188 0032 1A70     		strb	r2, [r3]
 698:Core/Src/main.cpp ****         break;
 1189              		.loc 1 698 9 is_stmt 1 view .LVU316
 1190              	.LVL70:
 1191              	.LBB117:
 1192              	.LBI117:
 250:Core/Src/main.cpp ****     {
 1193              		.loc 1 250 10 view .LVU317
 1194              	.LBB118:
 252:Core/Src/main.cpp ****       {
 1195              		.loc 1 252 7 view .LVU318
 266:Core/Src/main.cpp ****       {
 1196              		.loc 1 266 12 view .LVU319
 269:Core/Src/main.cpp ****       }
 1197              		.loc 1 269 9 view .LVU320
 269:Core/Src/main.cpp ****       }
ARM GAS  C:\Users\Admin\AppData\Local\Temp\cc8l8Vwd.s 			page 44


 1198              		.loc 1 269 26 is_stmt 0 view .LVU321
 1199 0034 164B     		ldr	r3, .L64+16
 1200 0036 0022     		movs	r2, #0
 1201 0038 5A70     		strb	r2, [r3, #1]
 1202 003a 1AE0     		b	.L60
 1203              	.LVL71:
 1204              	.L62:
 269:Core/Src/main.cpp ****       }
 1205              		.loc 1 269 26 view .LVU322
 1206              	.LBE118:
 1207              	.LBE117:
 669:Core/Src/main.cpp **** 
 1208              		.loc 1 669 5 is_stmt 1 view .LVU323
 669:Core/Src/main.cpp **** 
 1209              		.loc 1 669 16 is_stmt 0 view .LVU324
 1210 003c 1548     		ldr	r0, .L64+20
 1211 003e FFF7FEFF 		bl	_Z11UART_PrintfPKcz
 1212              	.LVL72:
 1213 0042 E1E7     		b	.L54
 1214              	.L63:
 672:Core/Src/main.cpp **** 
 1215              		.loc 1 672 5 is_stmt 1 view .LVU325
 672:Core/Src/main.cpp **** 
 1216              		.loc 1 672 16 is_stmt 0 view .LVU326
 1217 0044 1448     		ldr	r0, .L64+24
 1218 0046 FFF7FEFF 		bl	_Z11UART_PrintfPKcz
 1219              	.LVL73:
 1220 004a E0E7     		b	.L55
 1221              	.L58:
 678:Core/Src/main.cpp ****       case ClosedMode:
 1222              		.loc 1 678 7 is_stmt 1 view .LVU327
 679:Core/Src/main.cpp ****       {
 1223              		.loc 1 679 7 view .LVU328
 680:Core/Src/main.cpp ****         UART_Printf("Door has been unlocked\r\n");
 1224              		.loc 1 680 7 view .LVU329
 681:Core/Src/main.cpp ****         relay.setRelayState(OpenedState);
 1225              		.loc 1 681 9 view .LVU330
 681:Core/Src/main.cpp ****         relay.setRelayState(OpenedState);
 1226              		.loc 1 681 20 is_stmt 0 view .LVU331
 1227 004c 1348     		ldr	r0, .L64+28
 1228 004e FFF7FEFF 		bl	_Z11UART_PrintfPKcz
 1229              	.LVL74:
 682:Core/Src/main.cpp ****         relay.setRelayOpenTime(HAL_GetTick());
 1230              		.loc 1 682 9 is_stmt 1 view .LVU332
 1231              	.LBB119:
 1232              	.LBI119:
 250:Core/Src/main.cpp ****     {
 1233              		.loc 1 250 10 view .LVU333
 1234              	.LBB120:
 252:Core/Src/main.cpp ****       {
 1235              		.loc 1 252 7 view .LVU334
 266:Core/Src/main.cpp ****       {
 1236              		.loc 1 266 12 view .LVU335
 269:Core/Src/main.cpp ****       }
 1237              		.loc 1 269 9 view .LVU336
 269:Core/Src/main.cpp ****       }
 1238              		.loc 1 269 26 is_stmt 0 view .LVU337
ARM GAS  C:\Users\Admin\AppData\Local\Temp\cc8l8Vwd.s 			page 45


 1239 0052 0F4C     		ldr	r4, .L64+16
 1240 0054 0023     		movs	r3, #0
 1241 0056 6370     		strb	r3, [r4, #1]
 1242              	.LVL75:
 269:Core/Src/main.cpp ****       }
 1243              		.loc 1 269 26 view .LVU338
 1244              	.LBE120:
 1245              	.LBE119:
 683:Core/Src/main.cpp ****         bell.setLastBeepTime(HAL_GetTick());
 1246              		.loc 1 683 9 is_stmt 1 view .LVU339
 683:Core/Src/main.cpp ****         bell.setLastBeepTime(HAL_GetTick());
 1247              		.loc 1 683 31 is_stmt 0 view .LVU340
 1248 0058 FFF7FEFF 		bl	HAL_GetTick
 1249              	.LVL76:
 1250              	.LBB121:
 1251              	.LBI121:
 278:Core/Src/main.cpp ****     {
 1252              		.loc 1 278 10 is_stmt 1 view .LVU341
 1253              	.LBB122:
 280:Core/Src/main.cpp ****     }
 1254              		.loc 1 280 7 view .LVU342
 280:Core/Src/main.cpp ****     }
 1255              		.loc 1 280 27 is_stmt 0 view .LVU343
 1256 005c 6060     		str	r0, [r4, #4]
 1257              	.LVL77:
 280:Core/Src/main.cpp ****     }
 1258              		.loc 1 280 27 view .LVU344
 1259              	.LBE122:
 1260              	.LBE121:
 684:Core/Src/main.cpp ****         previousWorkMode = workMode;
 1261              		.loc 1 684 9 is_stmt 1 view .LVU345
 684:Core/Src/main.cpp ****         previousWorkMode = workMode;
 1262              		.loc 1 684 29 is_stmt 0 view .LVU346
 1263 005e FFF7FEFF 		bl	HAL_GetTick
 1264              	.LVL78:
 1265              	.LBB123:
 1266              	.LBI123:
 327:Core/Src/main.cpp ****       this->lastBeepTime = lastBeepTime;
 1267              		.loc 1 327 10 is_stmt 1 view .LVU347
 1268              	.LBB124:
 328:Core/Src/main.cpp ****     }
 1269              		.loc 1 328 7 view .LVU348
 328:Core/Src/main.cpp ****     }
 1270              		.loc 1 328 26 is_stmt 0 view .LVU349
 1271 0062 0F4B     		ldr	r3, .L64+32
 1272 0064 5860     		str	r0, [r3, #4]
 1273              	.LVL79:
 328:Core/Src/main.cpp ****     }
 1274              		.loc 1 328 26 view .LVU350
 1275              	.LBE124:
 1276              	.LBE123:
 685:Core/Src/main.cpp ****         workMode = TempOpenMode;
 1277              		.loc 1 685 9 is_stmt 1 view .LVU351
 685:Core/Src/main.cpp ****         workMode = TempOpenMode;
 1278              		.loc 1 685 26 is_stmt 0 view .LVU352
 1279 0066 084B     		ldr	r3, .L64+8
 1280 0068 1978     		ldrb	r1, [r3]	@ zero_extendqisi2
ARM GAS  C:\Users\Admin\AppData\Local\Temp\cc8l8Vwd.s 			page 46


 1281 006a 0E4A     		ldr	r2, .L64+36
 1282 006c 1170     		strb	r1, [r2]
 686:Core/Src/main.cpp ****         break;
 1283              		.loc 1 686 9 is_stmt 1 view .LVU353
 686:Core/Src/main.cpp ****         break;
 1284              		.loc 1 686 18 is_stmt 0 view .LVU354
 1285 006e 0422     		movs	r2, #4
 1286 0070 1A70     		strb	r2, [r3]
 687:Core/Src/main.cpp ****       }
 1287              		.loc 1 687 9 is_stmt 1 view .LVU355
 1288              	.L60:
 706:Core/Src/main.cpp ****     insideButtonPressed = false;
 1289              		.loc 1 706 5 view .LVU356
 706:Core/Src/main.cpp ****     insideButtonPressed = false;
 1290              		.loc 1 706 26 is_stmt 0 view .LVU357
 1291 0072 0023     		movs	r3, #0
 1292 0074 034A     		ldr	r2, .L64+4
 1293 0076 1370     		strb	r3, [r2]
 707:Core/Src/main.cpp ****   }
 1294              		.loc 1 707 5 is_stmt 1 view .LVU358
 707:Core/Src/main.cpp ****   }
 1295              		.loc 1 707 25 is_stmt 0 view .LVU359
 1296 0078 014A     		ldr	r2, .L64
 1297 007a 1370     		strb	r3, [r2]
 1298              	.L53:
 709:Core/Src/main.cpp **** 
 1299              		.loc 1 709 1 view .LVU360
 1300 007c 10BD     		pop	{r4, pc}
 1301              	.L65:
 1302 007e 00BF     		.align	2
 1303              	.L64:
 1304 0080 00000000 		.word	.LANCHOR4
 1305 0084 00000000 		.word	.LANCHOR5
 1306 0088 00000000 		.word	.LANCHOR3
 1307 008c 5C000000 		.word	.LC5
 1308 0090 00000000 		.word	.LANCHOR1
 1309 0094 00000000 		.word	.LC2
 1310 0098 20000000 		.word	.LC3
 1311 009c 40000000 		.word	.LC4
 1312 00a0 00000000 		.word	.LANCHOR2
 1313 00a4 00000000 		.word	.LANCHOR12
 1314              		.cfi_endproc
 1315              	.LFE113:
 1316              		.fnend
 1318              		.section	.rodata._Z14doorCheckEventv.str1.4,"aMS",%progbits,1
 1319              		.align	2
 1320              	.LC6:
 1321 0000 416C6172 		.ascii	"Alarm triggered.\015\012\000"
 1321      6D207472 
 1321      69676765 
 1321      7265642E 
 1321      0D0A00
 1322 0013 00       		.align	2
 1323              	.LC7:
 1324 0014 52656C61 		.ascii	"Relay was closed.\015\012\000"
 1324      79207761 
 1324      7320636C 
ARM GAS  C:\Users\Admin\AppData\Local\Temp\cc8l8Vwd.s 			page 47


 1324      6F736564 
 1324      2E0D0A00 
 1325              		.align	2
 1326              	.LC8:
 1327 0028 4572726F 		.ascii	"Error. Door is not closed.\015\012\000"
 1327      722E2044 
 1327      6F6F7220 
 1327      6973206E 
 1327      6F742063 
 1328              		.section	.text._Z14doorCheckEventv,"ax",%progbits
 1329              		.align	1
 1330              		.global	_Z14doorCheckEventv
 1331              		.syntax unified
 1332              		.thumb
 1333              		.thumb_func
 1334              		.fpu softvfp
 1336              	_Z14doorCheckEventv:
 1337              		.fnstart
 1338              	.LFB114:
 712:Core/Src/main.cpp ****   if( (HAL_GetTick() - relay.getRelayOpenTime()) > 5000 && door.getDoorState() == OpenedState)
 1339              		.loc 1 712 1 is_stmt 1 view -0
 1340              		.cfi_startproc
 1341              		@ args = 0, pretend = 0, frame = 0
 1342              		@ frame_needed = 0, uses_anonymous_args = 0
 1343 0000 08B5     		push	{r3, lr}
 1344              		.save {r3, lr}
 1345              	.LCFI14:
 1346              		.cfi_def_cfa_offset 8
 1347              		.cfi_offset 3, -8
 1348              		.cfi_offset 14, -4
 713:Core/Src/main.cpp ****   {
 1349              		.loc 1 713 3 view .LVU362
 713:Core/Src/main.cpp ****   {
 1350              		.loc 1 713 19 is_stmt 0 view .LVU363
 1351 0002 FFF7FEFF 		bl	HAL_GetTick
 1352              	.LVL80:
 1353              	.LBB137:
 1354              	.LBI137:
 273:Core/Src/main.cpp ****     {
 1355              		.loc 1 273 14 is_stmt 1 view .LVU364
 1356              	.LBB138:
 275:Core/Src/main.cpp ****     }
 1357              		.loc 1 275 7 view .LVU365
 275:Core/Src/main.cpp ****     }
 1358              		.loc 1 275 21 is_stmt 0 view .LVU366
 1359 0006 194B     		ldr	r3, .L75
 1360 0008 5B68     		ldr	r3, [r3, #4]
 1361              	.LVL81:
 275:Core/Src/main.cpp ****     }
 1362              		.loc 1 275 21 view .LVU367
 1363              	.LBE138:
 1364              	.LBE137:
 713:Core/Src/main.cpp ****   {
 1365              		.loc 1 713 22 view .LVU368
 1366 000a C01A     		subs	r0, r0, r3
 713:Core/Src/main.cpp ****   {
 1367              		.loc 1 713 57 view .LVU369
ARM GAS  C:\Users\Admin\AppData\Local\Temp\cc8l8Vwd.s 			page 48


 1368 000c 41F28833 		movw	r3, #5000
 1369 0010 9842     		cmp	r0, r3
 1370 0012 02D9     		bls	.L67
 1371              	.LVL82:
 1372              	.LBB139:
 1373              	.LBI139:
 191:Core/Src/main.cpp ****     {
 1374              		.loc 1 191 11 is_stmt 1 view .LVU370
 1375              	.LBB140:
 193:Core/Src/main.cpp ****     }
 1376              		.loc 1 193 7 view .LVU371
 193:Core/Src/main.cpp ****     }
 1377              		.loc 1 193 14 is_stmt 0 view .LVU372
 1378 0014 164B     		ldr	r3, .L75+4
 1379 0016 1B78     		ldrb	r3, [r3]	@ zero_extendqisi2
 1380              	.LVL83:
 193:Core/Src/main.cpp ****     }
 1381              		.loc 1 193 14 view .LVU373
 1382              	.LBE140:
 1383              	.LBE139:
 713:Core/Src/main.cpp ****   {
 1384              		.loc 1 713 57 view .LVU374
 1385 0018 6BB1     		cbz	r3, .L72
 1386              	.L67:
 719:Core/Src/main.cpp ****   {
 1387              		.loc 1 719 8 is_stmt 1 discriminator 4 view .LVU375
 719:Core/Src/main.cpp ****   {
 1388              		.loc 1 719 23 is_stmt 0 discriminator 4 view .LVU376
 1389 001a FFF7FEFF 		bl	HAL_GetTick
 1390              	.LVL84:
 1391              	.LBB141:
 1392              	.LBI141:
 273:Core/Src/main.cpp ****     {
 1393              		.loc 1 273 14 is_stmt 1 discriminator 4 view .LVU377
 1394              	.LBB142:
 275:Core/Src/main.cpp ****     }
 1395              		.loc 1 275 7 discriminator 4 view .LVU378
 275:Core/Src/main.cpp ****     }
 1396              		.loc 1 275 21 is_stmt 0 discriminator 4 view .LVU379
 1397 001e 134B     		ldr	r3, .L75
 1398 0020 5B68     		ldr	r3, [r3, #4]
 1399              	.LVL85:
 275:Core/Src/main.cpp ****     }
 1400              		.loc 1 275 21 discriminator 4 view .LVU380
 1401              	.LBE142:
 1402              	.LBE141:
 719:Core/Src/main.cpp ****   {
 1403              		.loc 1 719 26 discriminator 4 view .LVU381
 1404 0022 C01A     		subs	r0, r0, r3
 719:Core/Src/main.cpp ****   {
 1405              		.loc 1 719 99 discriminator 4 view .LVU382
 1406 0024 41F28833 		movw	r3, #5000
 1407 0028 9842     		cmp	r0, r3
 1408 002a 03D9     		bls	.L66
 1409              	.LVL86:
 1410              	.LBB143:
 1411              	.LBI143:
ARM GAS  C:\Users\Admin\AppData\Local\Temp\cc8l8Vwd.s 			page 49


 191:Core/Src/main.cpp ****     {
 1412              		.loc 1 191 11 is_stmt 1 view .LVU383
 1413              	.LBB144:
 193:Core/Src/main.cpp ****     }
 1414              		.loc 1 193 7 view .LVU384
 193:Core/Src/main.cpp ****     }
 1415              		.loc 1 193 14 is_stmt 0 view .LVU385
 1416 002c 104B     		ldr	r3, .L75+4
 1417 002e 1B78     		ldrb	r3, [r3]	@ zero_extendqisi2
 1418              	.LVL87:
 193:Core/Src/main.cpp ****     }
 1419              		.loc 1 193 14 view .LVU386
 1420              	.LBE144:
 1421              	.LBE143:
 719:Core/Src/main.cpp ****   {
 1422              		.loc 1 719 61 view .LVU387
 1423 0030 012B     		cmp	r3, #1
 1424 0032 04D0     		beq	.L73
 1425              	.L66:
 724:Core/Src/main.cpp **** 
 1426              		.loc 1 724 1 view .LVU388
 1427 0034 08BD     		pop	{r3, pc}
 1428              	.L72:
 716:Core/Src/main.cpp ****     // workMode = AlarmMode;
 1429              		.loc 1 716 5 is_stmt 1 view .LVU389
 716:Core/Src/main.cpp ****     // workMode = AlarmMode;
 1430              		.loc 1 716 16 is_stmt 0 view .LVU390
 1431 0036 0F48     		ldr	r0, .L75+8
 1432 0038 FFF7FEFF 		bl	_Z11UART_PrintfPKcz
 1433              	.LVL88:
 1434 003c FAE7     		b	.L66
 1435              	.L73:
 719:Core/Src/main.cpp ****   {
 1436              		.loc 1 719 111 discriminator 3 view .LVU391
 1437 003e 0E4B     		ldr	r3, .L75+12
 1438 0040 1B78     		ldrb	r3, [r3]	@ zero_extendqisi2
 719:Core/Src/main.cpp ****   {
 1439              		.loc 1 719 99 discriminator 3 view .LVU392
 1440 0042 042B     		cmp	r3, #4
 1441 0044 F6D1     		bne	.L66
 721:Core/Src/main.cpp ****     workMode = previousWorkMode;
 1442              		.loc 1 721 5 is_stmt 1 view .LVU393
 1443              	.LVL89:
 1444              	.LBB145:
 1445              	.LBI145:
 250:Core/Src/main.cpp ****     {
 1446              		.loc 1 250 10 view .LVU394
 1447              	.LBB146:
 252:Core/Src/main.cpp ****       {
 1448              		.loc 1 252 7 view .LVU395
 254:Core/Src/main.cpp ****         {
 1449              		.loc 1 254 9 view .LVU396
 1450              	.LBB147:
 1451              	.LBI147:
 191:Core/Src/main.cpp ****     {
 1452              		.loc 1 191 11 view .LVU397
 1453              	.LBB148:
ARM GAS  C:\Users\Admin\AppData\Local\Temp\cc8l8Vwd.s 			page 50


 193:Core/Src/main.cpp ****     }
 1454              		.loc 1 193 7 view .LVU398
 193:Core/Src/main.cpp ****     }
 1455              		.loc 1 193 14 is_stmt 0 view .LVU399
 1456 0046 0A4B     		ldr	r3, .L75+4
 1457 0048 1B78     		ldrb	r3, [r3]	@ zero_extendqisi2
 1458              	.LVL90:
 193:Core/Src/main.cpp ****     }
 1459              		.loc 1 193 14 view .LVU400
 1460              	.LBE148:
 1461              	.LBE147:
 254:Core/Src/main.cpp ****         {
 1462              		.loc 1 254 9 view .LVU401
 1463 004a 012B     		cmp	r3, #1
 1464 004c 07D0     		beq	.L74
 262:Core/Src/main.cpp ****           // implement alarm mechanics
 1465              		.loc 1 262 11 is_stmt 1 view .LVU402
 262:Core/Src/main.cpp ****           // implement alarm mechanics
 1466              		.loc 1 262 22 is_stmt 0 view .LVU403
 1467 004e 0B48     		ldr	r0, .L75+16
 1468 0050 FFF7FEFF 		bl	_Z11UART_PrintfPKcz
 1469              	.LVL91:
 1470              	.L70:
 262:Core/Src/main.cpp ****           // implement alarm mechanics
 1471              		.loc 1 262 22 view .LVU404
 1472              	.LBE146:
 1473              	.LBE145:
 722:Core/Src/main.cpp ****   }
 1474              		.loc 1 722 5 is_stmt 1 view .LVU405
 722:Core/Src/main.cpp ****   }
 1475              		.loc 1 722 14 is_stmt 0 view .LVU406
 1476 0054 0A4B     		ldr	r3, .L75+20
 1477 0056 1A78     		ldrb	r2, [r3]	@ zero_extendqisi2
 1478 0058 074B     		ldr	r3, .L75+12
 1479 005a 1A70     		strb	r2, [r3]
 724:Core/Src/main.cpp **** 
 1480              		.loc 1 724 1 view .LVU407
 1481 005c EAE7     		b	.L66
 1482              	.LVL92:
 1483              	.L74:
 1484              	.LBB150:
 1485              	.LBB149:
 256:Core/Src/main.cpp ****           // implement relay closing mechanics
 1486              		.loc 1 256 11 is_stmt 1 view .LVU408
 256:Core/Src/main.cpp ****           // implement relay closing mechanics
 1487              		.loc 1 256 22 is_stmt 0 view .LVU409
 1488 005e 0948     		ldr	r0, .L75+24
 1489 0060 FFF7FEFF 		bl	_Z11UART_PrintfPKcz
 1490              	.LVL93:
 258:Core/Src/main.cpp ****         }
 1491              		.loc 1 258 11 is_stmt 1 view .LVU410
 258:Core/Src/main.cpp ****         }
 1492              		.loc 1 258 28 is_stmt 0 view .LVU411
 1493 0064 014B     		ldr	r3, .L75
 1494 0066 0122     		movs	r2, #1
 1495 0068 5A70     		strb	r2, [r3, #1]
 1496 006a F3E7     		b	.L70
ARM GAS  C:\Users\Admin\AppData\Local\Temp\cc8l8Vwd.s 			page 51


 1497              	.L76:
 1498              		.align	2
 1499              	.L75:
 1500 006c 00000000 		.word	.LANCHOR1
 1501 0070 00000000 		.word	.LANCHOR0
 1502 0074 00000000 		.word	.LC6
 1503 0078 00000000 		.word	.LANCHOR3
 1504 007c 28000000 		.word	.LC8
 1505 0080 00000000 		.word	.LANCHOR12
 1506 0084 14000000 		.word	.LC7
 1507              	.LBE149:
 1508              	.LBE150:
 1509              		.cfi_endproc
 1510              	.LFE114:
 1511              		.fnend
 1513              		.section	.rodata._Z21doorChangedStateEventv.str1.4,"aMS",%progbits,1
 1514              		.align	2
 1515              	.LC9:
 1516 0000 446F6F72 		.ascii	"Door was opened.\015\012\000"
 1516      20776173 
 1516      206F7065 
 1516      6E65642E 
 1516      0D0A00
 1517 0013 00       		.align	2
 1518              	.LC10:
 1519 0014 446F6F72 		.ascii	"Door was closed.\015\012\000"
 1519      20776173 
 1519      20636C6F 
 1519      7365642E 
 1519      0D0A00
 1520              		.section	.text._Z21doorChangedStateEventv,"ax",%progbits
 1521              		.align	1
 1522              		.global	_Z21doorChangedStateEventv
 1523              		.syntax unified
 1524              		.thumb
 1525              		.thumb_func
 1526              		.fpu softvfp
 1528              	_Z21doorChangedStateEventv:
 1529              		.fnstart
 1530              	.LFB111:
 587:Core/Src/main.cpp ****   if(door.isDoorStateChanged())
 1531              		.loc 1 587 1 is_stmt 1 view -0
 1532              		.cfi_startproc
 1533              		@ args = 0, pretend = 0, frame = 0
 1534              		@ frame_needed = 0, uses_anonymous_args = 0
 1535 0000 08B5     		push	{r3, lr}
 1536              		.save {r3, lr}
 1537              	.LCFI15:
 1538              		.cfi_def_cfa_offset 8
 1539              		.cfi_offset 3, -8
 1540              		.cfi_offset 14, -4
 588:Core/Src/main.cpp ****   {
 1541              		.loc 1 588 3 view .LVU413
 1542              	.LVL94:
 1543              	.LBB161:
 1544              	.LBI161:
 202:Core/Src/main.cpp ****     {
ARM GAS  C:\Users\Admin\AppData\Local\Temp\cc8l8Vwd.s 			page 52


 1545              		.loc 1 202 10 view .LVU414
 1546              	.LBB162:
 204:Core/Src/main.cpp ****     }
 1547              		.loc 1 204 7 view .LVU415
 204:Core/Src/main.cpp ****     }
 1548              		.loc 1 204 21 is_stmt 0 view .LVU416
 1549 0002 154B     		ldr	r3, .L88
 1550 0004 5B78     		ldrb	r3, [r3, #1]	@ zero_extendqisi2
 1551              	.LVL95:
 204:Core/Src/main.cpp ****     }
 1552              		.loc 1 204 21 view .LVU417
 1553              	.LBE162:
 1554              	.LBE161:
 588:Core/Src/main.cpp ****   {
 1555              		.loc 1 588 3 view .LVU418
 1556 0006 3BB1     		cbz	r3, .L77
 590:Core/Src/main.cpp ****     {
 1557              		.loc 1 590 5 is_stmt 1 view .LVU419
 1558              	.LVL96:
 1559              	.LBB163:
 1560              	.LBI163:
 191:Core/Src/main.cpp ****     {
 1561              		.loc 1 191 11 view .LVU420
 1562              	.LBB164:
 193:Core/Src/main.cpp ****     }
 1563              		.loc 1 193 7 view .LVU421
 193:Core/Src/main.cpp ****     }
 1564              		.loc 1 193 14 is_stmt 0 view .LVU422
 1565 0008 134B     		ldr	r3, .L88
 1566 000a 1B78     		ldrb	r3, [r3]	@ zero_extendqisi2
 1567              	.LVL97:
 193:Core/Src/main.cpp ****     }
 1568              		.loc 1 193 14 view .LVU423
 1569              	.LBE164:
 1570              	.LBE163:
 590:Core/Src/main.cpp ****     {
 1571              		.loc 1 590 5 view .LVU424
 1572 000c 2BB1     		cbz	r3, .L79
 1573 000e 012B     		cmp	r3, #1
 1574 0010 07D0     		beq	.L80
 1575              	.L81:
 613:Core/Src/main.cpp ****   }
 1576              		.loc 1 613 5 is_stmt 1 view .LVU425
 1577              	.LVL98:
 1578              	.LBB165:
 1579              	.LBI165:
 207:Core/Src/main.cpp ****     {
 1580              		.loc 1 207 10 view .LVU426
 1581              	.LBB166:
 209:Core/Src/main.cpp ****     }
 1582              		.loc 1 209 7 view .LVU427
 209:Core/Src/main.cpp ****     }
 1583              		.loc 1 209 31 is_stmt 0 view .LVU428
 1584 0012 114B     		ldr	r3, .L88
 1585 0014 0022     		movs	r2, #0
 1586 0016 5A70     		strb	r2, [r3, #1]
 1587              	.LVL99:
ARM GAS  C:\Users\Admin\AppData\Local\Temp\cc8l8Vwd.s 			page 53


 1588              	.L77:
 209:Core/Src/main.cpp ****     }
 1589              		.loc 1 209 31 view .LVU429
 1590              	.LBE166:
 1591              	.LBE165:
 615:Core/Src/main.cpp **** 
 1592              		.loc 1 615 1 view .LVU430
 1593 0018 08BD     		pop	{r3, pc}
 1594              	.L79:
 592:Core/Src/main.cpp ****       {
 1595              		.loc 1 592 7 is_stmt 1 view .LVU431
 593:Core/Src/main.cpp ****         UART_Printf("Door was opened.\r\n");
 1596              		.loc 1 593 7 view .LVU432
 594:Core/Src/main.cpp ****         break;
 1597              		.loc 1 594 9 view .LVU433
 594:Core/Src/main.cpp ****         break;
 1598              		.loc 1 594 20 is_stmt 0 view .LVU434
 1599 001a 1048     		ldr	r0, .L88+4
 1600 001c FFF7FEFF 		bl	_Z11UART_PrintfPKcz
 1601              	.LVL100:
 595:Core/Src/main.cpp ****       }
 1602              		.loc 1 595 9 is_stmt 1 view .LVU435
 1603 0020 F7E7     		b	.L81
 1604              	.L80:
 597:Core/Src/main.cpp ****       {
 1605              		.loc 1 597 7 view .LVU436
 598:Core/Src/main.cpp ****         if(workMode == TempOpenMode)
 1606              		.loc 1 598 7 view .LVU437
 599:Core/Src/main.cpp ****         {
 1607              		.loc 1 599 9 view .LVU438
 599:Core/Src/main.cpp ****         {
 1608              		.loc 1 599 21 is_stmt 0 view .LVU439
 1609 0022 0F4B     		ldr	r3, .L88+8
 1610 0024 1B78     		ldrb	r3, [r3]	@ zero_extendqisi2
 599:Core/Src/main.cpp ****         {
 1611              		.loc 1 599 9 view .LVU440
 1612 0026 042B     		cmp	r3, #4
 1613 0028 03D0     		beq	.L86
 1614              	.L82:
 604:Core/Src/main.cpp ****         break;
 1615              		.loc 1 604 9 is_stmt 1 view .LVU441
 604:Core/Src/main.cpp ****         break;
 1616              		.loc 1 604 20 is_stmt 0 view .LVU442
 1617 002a 0E48     		ldr	r0, .L88+12
 1618 002c FFF7FEFF 		bl	_Z11UART_PrintfPKcz
 1619              	.LVL101:
 605:Core/Src/main.cpp ****       }
 1620              		.loc 1 605 9 is_stmt 1 view .LVU443
 1621 0030 EFE7     		b	.L81
 1622              	.L86:
 601:Core/Src/main.cpp ****           relay.setRelayState(ClosedState);
 1623              		.loc 1 601 11 view .LVU444
 601:Core/Src/main.cpp ****           relay.setRelayState(ClosedState);
 1624              		.loc 1 601 20 is_stmt 0 view .LVU445
 1625 0032 0D4B     		ldr	r3, .L88+16
 1626 0034 1A78     		ldrb	r2, [r3]	@ zero_extendqisi2
 1627 0036 0A4B     		ldr	r3, .L88+8
ARM GAS  C:\Users\Admin\AppData\Local\Temp\cc8l8Vwd.s 			page 54


 1628 0038 1A70     		strb	r2, [r3]
 602:Core/Src/main.cpp ****         }
 1629              		.loc 1 602 11 is_stmt 1 view .LVU446
 1630              	.LVL102:
 1631              	.LBB167:
 1632              	.LBI167:
 250:Core/Src/main.cpp ****     {
 1633              		.loc 1 250 10 view .LVU447
 1634              	.LBB168:
 252:Core/Src/main.cpp ****       {
 1635              		.loc 1 252 7 view .LVU448
 254:Core/Src/main.cpp ****         {
 1636              		.loc 1 254 9 view .LVU449
 1637              	.LBB169:
 1638              	.LBI169:
 191:Core/Src/main.cpp ****     {
 1639              		.loc 1 191 11 view .LVU450
 1640              	.LBB170:
 193:Core/Src/main.cpp ****     }
 1641              		.loc 1 193 7 view .LVU451
 193:Core/Src/main.cpp ****     }
 1642              		.loc 1 193 14 is_stmt 0 view .LVU452
 1643 003a 074B     		ldr	r3, .L88
 1644 003c 1B78     		ldrb	r3, [r3]	@ zero_extendqisi2
 1645              	.LVL103:
 193:Core/Src/main.cpp ****     }
 1646              		.loc 1 193 14 view .LVU453
 1647              	.LBE170:
 1648              	.LBE169:
 254:Core/Src/main.cpp ****         {
 1649              		.loc 1 254 9 view .LVU454
 1650 003e 012B     		cmp	r3, #1
 1651 0040 03D0     		beq	.L87
 262:Core/Src/main.cpp ****           // implement alarm mechanics
 1652              		.loc 1 262 11 is_stmt 1 view .LVU455
 262:Core/Src/main.cpp ****           // implement alarm mechanics
 1653              		.loc 1 262 22 is_stmt 0 view .LVU456
 1654 0042 0A48     		ldr	r0, .L88+20
 1655 0044 FFF7FEFF 		bl	_Z11UART_PrintfPKcz
 1656              	.LVL104:
 271:Core/Src/main.cpp **** 
 1657              		.loc 1 271 5 view .LVU457
 1658 0048 EFE7     		b	.L82
 1659              	.L87:
 256:Core/Src/main.cpp ****           // implement relay closing mechanics
 1660              		.loc 1 256 11 is_stmt 1 view .LVU458
 256:Core/Src/main.cpp ****           // implement relay closing mechanics
 1661              		.loc 1 256 22 is_stmt 0 view .LVU459
 1662 004a 0948     		ldr	r0, .L88+24
 1663 004c FFF7FEFF 		bl	_Z11UART_PrintfPKcz
 1664              	.LVL105:
 258:Core/Src/main.cpp ****         }
 1665              		.loc 1 258 11 is_stmt 1 view .LVU460
 258:Core/Src/main.cpp ****         }
 1666              		.loc 1 258 28 is_stmt 0 view .LVU461
 1667 0050 084B     		ldr	r3, .L88+28
 1668 0052 0122     		movs	r2, #1
ARM GAS  C:\Users\Admin\AppData\Local\Temp\cc8l8Vwd.s 			page 55


 1669 0054 5A70     		strb	r2, [r3, #1]
 1670 0056 E8E7     		b	.L82
 1671              	.L89:
 1672              		.align	2
 1673              	.L88:
 1674 0058 00000000 		.word	.LANCHOR0
 1675 005c 00000000 		.word	.LC9
 1676 0060 00000000 		.word	.LANCHOR3
 1677 0064 14000000 		.word	.LC10
 1678 0068 00000000 		.word	.LANCHOR12
 1679 006c 28000000 		.word	.LC8
 1680 0070 14000000 		.word	.LC7
 1681 0074 00000000 		.word	.LANCHOR1
 1682              	.LBE168:
 1683              	.LBE167:
 1684              		.cfi_endproc
 1685              	.LFE111:
 1686              		.fnend
 1688              		.section	.text._Z10verifyCodem,"ax",%progbits
 1689              		.align	1
 1690              		.global	_Z10verifyCodem
 1691              		.syntax unified
 1692              		.thumb
 1693              		.thumb_func
 1694              		.fpu softvfp
 1696              	_Z10verifyCodem:
 1697              		.fnstart
 1698              	.LVL106:
 1699              	.LFB120:
 854:Core/Src/main.cpp ****   uint32_t codes[] =
 1700              		.loc 1 854 1 is_stmt 1 view -0
 1701              		.cfi_startproc
 1702              		@ args = 0, pretend = 0, frame = 0
 1703              		@ frame_needed = 0, uses_anonymous_args = 0
 1704              		@ link register save eliminated.
 855:Core/Src/main.cpp ****       {12563593};
 1705              		.loc 1 855 3 view .LVU463
 858:Core/Src/main.cpp ****   {
 1706              		.loc 1 858 3 view .LVU464
 1707              	.LBB171:
 858:Core/Src/main.cpp ****   {
 1708              		.loc 1 858 12 is_stmt 0 view .LVU465
 1709 0000 0023     		movs	r3, #0
 1710              	.LVL107:
 1711              	.L92:
 858:Core/Src/main.cpp ****   {
 1712              		.loc 1 858 21 is_stmt 1 discriminator 1 view .LVU466
 1713 0002 23B9     		cbnz	r3, .L93
 860:Core/Src/main.cpp ****       return true;
 1714              		.loc 1 860 5 view .LVU467
 1715 0004 044A     		ldr	r2, .L95
 1716 0006 9042     		cmp	r0, r2
 1717 0008 03D0     		beq	.L94
 858:Core/Src/main.cpp ****   {
 1718              		.loc 1 858 3 discriminator 2 view .LVU468
 1719 000a 0133     		adds	r3, r3, #1
 1720              	.LVL108:
ARM GAS  C:\Users\Admin\AppData\Local\Temp\cc8l8Vwd.s 			page 56


 858:Core/Src/main.cpp ****   {
 1721              		.loc 1 858 3 is_stmt 0 discriminator 2 view .LVU469
 1722 000c F9E7     		b	.L92
 1723              	.L93:
 858:Core/Src/main.cpp ****   {
 1724              		.loc 1 858 3 discriminator 2 view .LVU470
 1725              	.LBE171:
 864:Core/Src/main.cpp **** }
 1726              		.loc 1 864 10 view .LVU471
 1727 000e 0020     		movs	r0, #0
 1728              	.LVL109:
 864:Core/Src/main.cpp **** }
 1729              		.loc 1 864 10 view .LVU472
 1730 0010 7047     		bx	lr
 1731              	.LVL110:
 1732              	.L94:
 1733              	.LBB172:
 861:Core/Src/main.cpp ****   }
 1734              		.loc 1 861 14 view .LVU473
 1735 0012 0120     		movs	r0, #1
 1736              	.LVL111:
 861:Core/Src/main.cpp ****   }
 1737              		.loc 1 861 14 view .LVU474
 1738              	.LBE172:
 865:Core/Src/main.cpp **** 
 1739              		.loc 1 865 1 view .LVU475
 1740 0014 7047     		bx	lr
 1741              	.L96:
 1742 0016 00BF     		.align	2
 1743              	.L95:
 1744 0018 89B4BF00 		.word	12563593
 1745              		.cfi_endproc
 1746              	.LFE120:
 1747              		.cantunwind
 1748              		.fnend
 1750              		.section	.rodata._Z16intercomKeyEventv.str1.4,"aMS",%progbits,1
 1751              		.align	2
 1752              	.LC11:
 1753 0000 496E7369 		.ascii	"Inside key reader has been used.\015\012\000"
 1753      6465206B 
 1753      65792072 
 1753      65616465 
 1753      72206861 
 1754 0023 00       		.align	2
 1755              	.LC12:
 1756 0024 4F757473 		.ascii	"Outside key reader has been used.\015\012\000"
 1756      69646520 
 1756      6B657920 
 1756      72656164 
 1756      65722068 
 1757              		.align	2
 1758              	.LC13:
 1759 0048 4B657920 		.ascii	"Key id: %d\015\012\000"
 1759      69643A20 
 1759      25640D0A 
 1759      00
 1760 0055 000000   		.align	2
ARM GAS  C:\Users\Admin\AppData\Local\Temp\cc8l8Vwd.s 			page 57


 1761              	.LC14:
 1762 0058 446F6F72 		.ascii	"Door is locked.\015\012\000"
 1762      20697320 
 1762      6C6F636B 
 1762      65642E0D 
 1762      0A00
 1763              		.section	.text._Z16intercomKeyEventv,"ax",%progbits
 1764              		.align	1
 1765              		.global	_Z16intercomKeyEventv
 1766              		.syntax unified
 1767              		.thumb
 1768              		.thumb_func
 1769              		.fpu softvfp
 1771              	_Z16intercomKeyEventv:
 1772              		.fnstart
 1773              	.LFB112:
 618:Core/Src/main.cpp ****   if(wig_available() && verifyCode(getCode()))
 1774              		.loc 1 618 1 is_stmt 1 view -0
 1775              		.cfi_startproc
 1776              		@ args = 0, pretend = 0, frame = 0
 1777              		@ frame_needed = 0, uses_anonymous_args = 0
 1778 0000 10B5     		push	{r4, lr}
 1779              		.save {r4, lr}
 1780              	.LCFI16:
 1781              		.cfi_def_cfa_offset 8
 1782              		.cfi_offset 4, -8
 1783              		.cfi_offset 14, -4
 619:Core/Src/main.cpp ****   {
 1784              		.loc 1 619 3 view .LVU477
 619:Core/Src/main.cpp ****   {
 1785              		.loc 1 619 19 is_stmt 0 view .LVU478
 1786 0002 FFF7FEFF 		bl	wig_available
 1787              	.LVL112:
 619:Core/Src/main.cpp ****   {
 1788              		.loc 1 619 22 view .LVU479
 1789 0006 00B9     		cbnz	r0, .L105
 1790              	.L97:
 664:Core/Src/main.cpp **** 
 1791              		.loc 1 664 1 view .LVU480
 1792 0008 10BD     		pop	{r4, pc}
 1793              	.L105:
 619:Core/Src/main.cpp ****   {
 1794              		.loc 1 619 35 discriminator 1 view .LVU481
 1795 000a FFF7FEFF 		bl	getCode
 1796              	.LVL113:
 1797 000e FFF7FEFF 		bl	_Z10verifyCodem
 1798              	.LVL114:
 619:Core/Src/main.cpp ****   {
 1799              		.loc 1 619 22 discriminator 1 view .LVU482
 1800 0012 0028     		cmp	r0, #0
 1801 0014 F8D0     		beq	.L97
 621:Core/Src/main.cpp ****       UART_Printf("Inside key reader has been used.\r\n");
 1802              		.loc 1 621 5 is_stmt 1 view .LVU483
 1803 0016 1E4B     		ldr	r3, .L109
 1804 0018 1B78     		ldrb	r3, [r3]	@ zero_extendqisi2
 1805 001a 7BB9     		cbnz	r3, .L106
 1806              	.L99:
ARM GAS  C:\Users\Admin\AppData\Local\Temp\cc8l8Vwd.s 			page 58


 624:Core/Src/main.cpp ****       UART_Printf("Outside key reader has been used.\r\n");
 1807              		.loc 1 624 5 view .LVU484
 1808 001c 1D4B     		ldr	r3, .L109+4
 1809 001e 1B78     		ldrb	r3, [r3]	@ zero_extendqisi2
 1810 0020 83B9     		cbnz	r3, .L107
 1811              	.L100:
 627:Core/Src/main.cpp ****     {
 1812              		.loc 1 627 5 view .LVU485
 627:Core/Src/main.cpp ****     {
 1813              		.loc 1 627 13 is_stmt 0 view .LVU486
 1814 0022 1D4B     		ldr	r3, .L109+8
 1815 0024 1B78     		ldrb	r3, [r3]	@ zero_extendqisi2
 627:Core/Src/main.cpp ****     {
 1816              		.loc 1 627 5 view .LVU487
 1817 0026 012B     		cmp	r3, #1
 1818 0028 23D0     		beq	.L101
 1819 002a 032B     		cmp	r3, #3
 1820 002c 25D0     		beq	.L102
 1821 002e 6BB1     		cbz	r3, .L108
 1822              	.L103:
 661:Core/Src/main.cpp ****   outsideKeyRead = false;
 1823              		.loc 1 661 3 is_stmt 1 view .LVU488
 661:Core/Src/main.cpp ****   outsideKeyRead = false;
 1824              		.loc 1 661 17 is_stmt 0 view .LVU489
 1825 0030 0023     		movs	r3, #0
 1826 0032 174A     		ldr	r2, .L109
 1827 0034 1370     		strb	r3, [r2]
 662:Core/Src/main.cpp ****   }
 1828              		.loc 1 662 3 is_stmt 1 view .LVU490
 662:Core/Src/main.cpp ****   }
 1829              		.loc 1 662 18 is_stmt 0 view .LVU491
 1830 0036 174A     		ldr	r2, .L109+4
 1831 0038 1370     		strb	r3, [r2]
 664:Core/Src/main.cpp **** 
 1832              		.loc 1 664 1 view .LVU492
 1833 003a E5E7     		b	.L97
 1834              	.L106:
 622:Core/Src/main.cpp **** 
 1835              		.loc 1 622 7 is_stmt 1 view .LVU493
 622:Core/Src/main.cpp **** 
 1836              		.loc 1 622 18 is_stmt 0 view .LVU494
 1837 003c 1748     		ldr	r0, .L109+12
 1838 003e FFF7FEFF 		bl	_Z11UART_PrintfPKcz
 1839              	.LVL115:
 1840 0042 EBE7     		b	.L99
 1841              	.L107:
 625:Core/Src/main.cpp **** 
 1842              		.loc 1 625 7 is_stmt 1 view .LVU495
 625:Core/Src/main.cpp **** 
 1843              		.loc 1 625 18 is_stmt 0 view .LVU496
 1844 0044 1648     		ldr	r0, .L109+16
 1845 0046 FFF7FEFF 		bl	_Z11UART_PrintfPKcz
 1846              	.LVL116:
 1847 004a EAE7     		b	.L100
 1848              	.L108:
 629:Core/Src/main.cpp ****       {
 1849              		.loc 1 629 7 is_stmt 1 view .LVU497
ARM GAS  C:\Users\Admin\AppData\Local\Temp\cc8l8Vwd.s 			page 59


 630:Core/Src/main.cpp ****         UART_Printf("Key id: %d\r\n", getCode());
 1850              		.loc 1 630 7 view .LVU498
 631:Core/Src/main.cpp ****         relay.setRelayState(OpenedState);
 1851              		.loc 1 631 9 view .LVU499
 631:Core/Src/main.cpp ****         relay.setRelayState(OpenedState);
 1852              		.loc 1 631 20 is_stmt 0 view .LVU500
 1853 004c FFF7FEFF 		bl	getCode
 1854              	.LVL117:
 1855 0050 0146     		mov	r1, r0
 1856 0052 1448     		ldr	r0, .L109+20
 1857 0054 FFF7FEFF 		bl	_Z11UART_PrintfPKcz
 1858              	.LVL118:
 632:Core/Src/main.cpp ****         relay.setRelayOpenTime(HAL_GetTick());
 1859              		.loc 1 632 9 is_stmt 1 view .LVU501
 1860              	.LBB173:
 1861              	.LBI173:
 250:Core/Src/main.cpp ****     {
 1862              		.loc 1 250 10 view .LVU502
 1863              	.LBB174:
 252:Core/Src/main.cpp ****       {
 1864              		.loc 1 252 7 view .LVU503
 266:Core/Src/main.cpp ****       {
 1865              		.loc 1 266 12 view .LVU504
 269:Core/Src/main.cpp ****       }
 1866              		.loc 1 269 9 view .LVU505
 269:Core/Src/main.cpp ****       }
 1867              		.loc 1 269 26 is_stmt 0 view .LVU506
 1868 0058 134C     		ldr	r4, .L109+24
 1869 005a 0023     		movs	r3, #0
 1870 005c 6370     		strb	r3, [r4, #1]
 1871              	.LVL119:
 269:Core/Src/main.cpp ****       }
 1872              		.loc 1 269 26 view .LVU507
 1873              	.LBE174:
 1874              	.LBE173:
 633:Core/Src/main.cpp ****         previousWorkMode = workMode;
 1875              		.loc 1 633 9 is_stmt 1 view .LVU508
 633:Core/Src/main.cpp ****         previousWorkMode = workMode;
 1876              		.loc 1 633 31 is_stmt 0 view .LVU509
 1877 005e FFF7FEFF 		bl	HAL_GetTick
 1878              	.LVL120:
 1879              	.LBB175:
 1880              	.LBI175:
 278:Core/Src/main.cpp ****     {
 1881              		.loc 1 278 10 is_stmt 1 view .LVU510
 1882              	.LBB176:
 280:Core/Src/main.cpp ****     }
 1883              		.loc 1 280 7 view .LVU511
 280:Core/Src/main.cpp ****     }
 1884              		.loc 1 280 27 is_stmt 0 view .LVU512
 1885 0062 6060     		str	r0, [r4, #4]
 1886              	.LVL121:
 280:Core/Src/main.cpp ****     }
 1887              		.loc 1 280 27 view .LVU513
 1888              	.LBE176:
 1889              	.LBE175:
 634:Core/Src/main.cpp ****         workMode = TempOpenMode;
ARM GAS  C:\Users\Admin\AppData\Local\Temp\cc8l8Vwd.s 			page 60


 1890              		.loc 1 634 9 is_stmt 1 view .LVU514
 634:Core/Src/main.cpp ****         workMode = TempOpenMode;
 1891              		.loc 1 634 26 is_stmt 0 view .LVU515
 1892 0064 0C4B     		ldr	r3, .L109+8
 1893 0066 1978     		ldrb	r1, [r3]	@ zero_extendqisi2
 1894 0068 104A     		ldr	r2, .L109+28
 1895 006a 1170     		strb	r1, [r2]
 635:Core/Src/main.cpp ****         break;
 1896              		.loc 1 635 9 is_stmt 1 view .LVU516
 635:Core/Src/main.cpp ****         break;
 1897              		.loc 1 635 18 is_stmt 0 view .LVU517
 1898 006c 0422     		movs	r2, #4
 1899 006e 1A70     		strb	r2, [r3]
 636:Core/Src/main.cpp ****       }
 1900              		.loc 1 636 9 is_stmt 1 view .LVU518
 1901 0070 DEE7     		b	.L103
 1902              	.L101:
 638:Core/Src/main.cpp ****       {
 1903              		.loc 1 638 7 view .LVU519
 639:Core/Src/main.cpp ****         UART_Printf("Door is locked.\r\n");
 1904              		.loc 1 639 7 view .LVU520
 640:Core/Src/main.cpp ****         // blink mechanics to implement
 1905              		.loc 1 640 9 view .LVU521
 640:Core/Src/main.cpp ****         // blink mechanics to implement
 1906              		.loc 1 640 20 is_stmt 0 view .LVU522
 1907 0072 0F48     		ldr	r0, .L109+32
 1908 0074 FFF7FEFF 		bl	_Z11UART_PrintfPKcz
 1909              	.LVL122:
 642:Core/Src/main.cpp ****       }
 1910              		.loc 1 642 9 is_stmt 1 view .LVU523
 1911 0078 DAE7     		b	.L103
 1912              	.L102:
 649:Core/Src/main.cpp ****       {
 1913              		.loc 1 649 7 view .LVU524
 650:Core/Src/main.cpp ****         UART_Printf("Switched to Open mode.\r\n");
 1914              		.loc 1 650 7 view .LVU525
 651:Core/Src/main.cpp ****         workMode = OpenMode;
 1915              		.loc 1 651 9 view .LVU526
 651:Core/Src/main.cpp ****         workMode = OpenMode;
 1916              		.loc 1 651 20 is_stmt 0 view .LVU527
 1917 007a 0E48     		ldr	r0, .L109+36
 1918 007c FFF7FEFF 		bl	_Z11UART_PrintfPKcz
 1919              	.LVL123:
 652:Core/Src/main.cpp ****         relay.setRelayState(OpenedState);
 1920              		.loc 1 652 9 is_stmt 1 view .LVU528
 652:Core/Src/main.cpp ****         relay.setRelayState(OpenedState);
 1921              		.loc 1 652 18 is_stmt 0 view .LVU529
 1922 0080 054B     		ldr	r3, .L109+8
 1923 0082 0222     		movs	r2, #2
 1924 0084 1A70     		strb	r2, [r3]
 653:Core/Src/main.cpp ****         break;
 1925              		.loc 1 653 9 is_stmt 1 view .LVU530
 1926              	.LVL124:
 1927              	.LBB177:
 1928              	.LBI177:
 250:Core/Src/main.cpp ****     {
 1929              		.loc 1 250 10 view .LVU531
ARM GAS  C:\Users\Admin\AppData\Local\Temp\cc8l8Vwd.s 			page 61


 1930              	.LBB178:
 252:Core/Src/main.cpp ****       {
 1931              		.loc 1 252 7 view .LVU532
 266:Core/Src/main.cpp ****       {
 1932              		.loc 1 266 12 view .LVU533
 269:Core/Src/main.cpp ****       }
 1933              		.loc 1 269 9 view .LVU534
 269:Core/Src/main.cpp ****       }
 1934              		.loc 1 269 26 is_stmt 0 view .LVU535
 1935 0086 084B     		ldr	r3, .L109+24
 1936 0088 0022     		movs	r2, #0
 1937 008a 5A70     		strb	r2, [r3, #1]
 1938 008c D0E7     		b	.L103
 1939              	.L110:
 1940 008e 00BF     		.align	2
 1941              	.L109:
 1942 0090 00000000 		.word	.LANCHOR7
 1943 0094 00000000 		.word	.LANCHOR8
 1944 0098 00000000 		.word	.LANCHOR3
 1945 009c 00000000 		.word	.LC11
 1946 00a0 24000000 		.word	.LC12
 1947 00a4 48000000 		.word	.LC13
 1948 00a8 00000000 		.word	.LANCHOR1
 1949 00ac 00000000 		.word	.LANCHOR12
 1950 00b0 58000000 		.word	.LC14
 1951 00b4 5C000000 		.word	.LC5
 1952              	.LBE178:
 1953              	.LBE177:
 1954              		.cfi_endproc
 1955              	.LFE112:
 1956              		.fnend
 1958              		.section	.rodata._Z10switchModev.str1.4,"aMS",%progbits,1
 1959              		.align	2
 1960              	.LC15:
 1961 0000 0A537769 		.ascii	"\012Switched to Closed mode.\015\012\000"
 1961      74636865 
 1961      6420746F 
 1961      20436C6F 
 1961      73656420 
 1962              		.align	2
 1963              	.LC16:
 1964 001c 0A537769 		.ascii	"\012Switched to Open mode.\015\012\000"
 1964      74636865 
 1964      6420746F 
 1964      204F7065 
 1964      6E206D6F 
 1965 0036 0000     		.align	2
 1966              	.LC17:
 1967 0038 0A537769 		.ascii	"\012Switched to CondOpen mode.\015\012\000"
 1967      74636865 
 1967      6420746F 
 1967      20436F6E 
 1967      644F7065 
 1968 0056 0000     		.align	2
 1969              	.LC18:
 1970 0058 0A537769 		.ascii	"\012Switched to Normal mode.\015\012\000"
 1970      74636865 
ARM GAS  C:\Users\Admin\AppData\Local\Temp\cc8l8Vwd.s 			page 62


 1970      6420746F 
 1970      204E6F72 
 1970      6D616C20 
 1971              		.align	2
 1972              	.LC19:
 1973 0074 556E6B6E 		.ascii	"Unknown mode, switched to normal.\015\012\000"
 1973      6F776E20 
 1973      6D6F6465 
 1973      2C207377 
 1973      69746368 
 1974              		.section	.text._Z10switchModev,"ax",%progbits
 1975              		.align	1
 1976              		.global	_Z10switchModev
 1977              		.syntax unified
 1978              		.thumb
 1979              		.thumb_func
 1980              		.fpu softvfp
 1982              	_Z10switchModev:
 1983              		.fnstart
 1984              	.LFB121:
 868:Core/Src/main.cpp ****   switch(workMode)
 1985              		.loc 1 868 1 is_stmt 1 view -0
 1986              		.cfi_startproc
 1987              		@ args = 0, pretend = 0, frame = 0
 1988              		@ frame_needed = 0, uses_anonymous_args = 0
 1989 0000 08B5     		push	{r3, lr}
 1990              		.save {r3, lr}
 1991              	.LCFI17:
 1992              		.cfi_def_cfa_offset 8
 1993              		.cfi_offset 3, -8
 1994              		.cfi_offset 14, -4
 869:Core/Src/main.cpp ****   {
 1995              		.loc 1 869 3 view .LVU537
 869:Core/Src/main.cpp ****   {
 1996              		.loc 1 869 10 is_stmt 0 view .LVU538
 1997 0002 334B     		ldr	r3, .L131
 1998 0004 1B78     		ldrb	r3, [r3]	@ zero_extendqisi2
 1999 0006 032B     		cmp	r3, #3
 2000 0008 4CD8     		bhi	.L112
 2001 000a DFE803F0 		tbb	[pc, r3]
 2002              	.L114:
 2003 000e 02       		.byte	(.L117-.L114)/2
 2004 000f 17       		.byte	(.L116-.L114)/2
 2005 0010 21       		.byte	(.L115-.L114)/2
 2006 0011 36       		.byte	(.L113-.L114)/2
 2007              		.p2align 1
 2008              	.L117:
 871:Core/Src/main.cpp ****     {
 2009              		.loc 1 871 5 is_stmt 1 view .LVU539
 872:Core/Src/main.cpp ****       UART_Printf("\nSwitched to Closed mode.\r\n");
 2010              		.loc 1 872 5 view .LVU540
 873:Core/Src/main.cpp ****       workMode = ClosedMode;
 2011              		.loc 1 873 7 view .LVU541
 873:Core/Src/main.cpp ****       workMode = ClosedMode;
 2012              		.loc 1 873 18 is_stmt 0 view .LVU542
 2013 0012 3048     		ldr	r0, .L131+4
 2014 0014 FFF7FEFF 		bl	_Z11UART_PrintfPKcz
ARM GAS  C:\Users\Admin\AppData\Local\Temp\cc8l8Vwd.s 			page 63


 2015              	.LVL125:
 874:Core/Src/main.cpp ****       relay.setRelayState(ClosedState);
 2016              		.loc 1 874 7 is_stmt 1 view .LVU543
 874:Core/Src/main.cpp ****       relay.setRelayState(ClosedState);
 2017              		.loc 1 874 16 is_stmt 0 view .LVU544
 2018 0018 2D4B     		ldr	r3, .L131
 2019 001a 0122     		movs	r2, #1
 2020 001c 1A70     		strb	r2, [r3]
 875:Core/Src/main.cpp ****       break;
 2021              		.loc 1 875 7 is_stmt 1 view .LVU545
 2022              	.LVL126:
 2023              	.LBB197:
 2024              	.LBI197:
 250:Core/Src/main.cpp ****     {
 2025              		.loc 1 250 10 view .LVU546
 2026              	.LBB198:
 252:Core/Src/main.cpp ****       {
 2027              		.loc 1 252 7 view .LVU547
 254:Core/Src/main.cpp ****         {
 2028              		.loc 1 254 9 view .LVU548
 2029              	.LBB199:
 2030              	.LBI199:
 191:Core/Src/main.cpp ****     {
 2031              		.loc 1 191 11 view .LVU549
 2032              	.LBB200:
 193:Core/Src/main.cpp ****     }
 2033              		.loc 1 193 7 view .LVU550
 193:Core/Src/main.cpp ****     }
 2034              		.loc 1 193 14 is_stmt 0 view .LVU551
 2035 001e 2E4B     		ldr	r3, .L131+8
 2036 0020 1B78     		ldrb	r3, [r3]	@ zero_extendqisi2
 2037              	.LVL127:
 193:Core/Src/main.cpp ****     }
 2038              		.loc 1 193 14 view .LVU552
 2039              	.LBE200:
 2040              	.LBE199:
 254:Core/Src/main.cpp ****         {
 2041              		.loc 1 254 9 view .LVU553
 2042 0022 9342     		cmp	r3, r2
 2043 0024 03D0     		beq	.L128
 262:Core/Src/main.cpp ****           // implement alarm mechanics
 2044              		.loc 1 262 11 is_stmt 1 view .LVU554
 262:Core/Src/main.cpp ****           // implement alarm mechanics
 2045              		.loc 1 262 22 is_stmt 0 view .LVU555
 2046 0026 2D48     		ldr	r0, .L131+12
 2047 0028 FFF7FEFF 		bl	_Z11UART_PrintfPKcz
 2048              	.LVL128:
 271:Core/Src/main.cpp **** 
 2049              		.loc 1 271 5 view .LVU556
 2050 002c 0FE0     		b	.L111
 2051              	.L128:
 256:Core/Src/main.cpp ****           // implement relay closing mechanics
 2052              		.loc 1 256 11 is_stmt 1 view .LVU557
 256:Core/Src/main.cpp ****           // implement relay closing mechanics
 2053              		.loc 1 256 22 is_stmt 0 view .LVU558
 2054 002e 2C48     		ldr	r0, .L131+16
 2055 0030 FFF7FEFF 		bl	_Z11UART_PrintfPKcz
ARM GAS  C:\Users\Admin\AppData\Local\Temp\cc8l8Vwd.s 			page 64


 2056              	.LVL129:
 258:Core/Src/main.cpp ****         }
 2057              		.loc 1 258 11 is_stmt 1 view .LVU559
 258:Core/Src/main.cpp ****         }
 2058              		.loc 1 258 28 is_stmt 0 view .LVU560
 2059 0034 2B4B     		ldr	r3, .L131+20
 2060 0036 0122     		movs	r2, #1
 2061 0038 5A70     		strb	r2, [r3, #1]
 2062 003a 08E0     		b	.L111
 2063              	.LVL130:
 2064              	.L116:
 258:Core/Src/main.cpp ****         }
 2065              		.loc 1 258 28 view .LVU561
 2066              	.LBE198:
 2067              	.LBE197:
 878:Core/Src/main.cpp ****     {
 2068              		.loc 1 878 5 is_stmt 1 view .LVU562
 879:Core/Src/main.cpp ****       UART_Printf("\nSwitched to Open mode.\r\n");
 2069              		.loc 1 879 5 view .LVU563
 880:Core/Src/main.cpp ****       workMode = OpenMode;
 2070              		.loc 1 880 7 view .LVU564
 880:Core/Src/main.cpp ****       workMode = OpenMode;
 2071              		.loc 1 880 18 is_stmt 0 view .LVU565
 2072 003c 2A48     		ldr	r0, .L131+24
 2073 003e FFF7FEFF 		bl	_Z11UART_PrintfPKcz
 2074              	.LVL131:
 881:Core/Src/main.cpp ****       relay.setRelayState(OpenedState);
 2075              		.loc 1 881 7 is_stmt 1 view .LVU566
 881:Core/Src/main.cpp ****       relay.setRelayState(OpenedState);
 2076              		.loc 1 881 16 is_stmt 0 view .LVU567
 2077 0042 234B     		ldr	r3, .L131
 2078 0044 0222     		movs	r2, #2
 2079 0046 1A70     		strb	r2, [r3]
 882:Core/Src/main.cpp ****       break;
 2080              		.loc 1 882 7 is_stmt 1 view .LVU568
 2081              	.LVL132:
 2082              	.LBB201:
 2083              	.LBI201:
 250:Core/Src/main.cpp ****     {
 2084              		.loc 1 250 10 view .LVU569
 2085              	.LBB202:
 252:Core/Src/main.cpp ****       {
 2086              		.loc 1 252 7 view .LVU570
 266:Core/Src/main.cpp ****       {
 2087              		.loc 1 266 12 view .LVU571
 269:Core/Src/main.cpp ****       }
 2088              		.loc 1 269 9 view .LVU572
 269:Core/Src/main.cpp ****       }
 2089              		.loc 1 269 26 is_stmt 0 view .LVU573
 2090 0048 264B     		ldr	r3, .L131+20
 2091 004a 0022     		movs	r2, #0
 2092 004c 5A70     		strb	r2, [r3, #1]
 2093              	.LVL133:
 2094              	.L111:
 269:Core/Src/main.cpp ****       }
 2095              		.loc 1 269 26 view .LVU574
 2096              	.LBE202:
ARM GAS  C:\Users\Admin\AppData\Local\Temp\cc8l8Vwd.s 			page 65


 2097              	.LBE201:
 909:Core/Src/main.cpp **** 
 2098              		.loc 1 909 1 view .LVU575
 2099 004e 08BD     		pop	{r3, pc}
 2100              	.L115:
 885:Core/Src/main.cpp ****     {
 2101              		.loc 1 885 5 is_stmt 1 view .LVU576
 886:Core/Src/main.cpp ****       UART_Printf("\nSwitched to CondOpen mode.\r\n");
 2102              		.loc 1 886 5 view .LVU577
 887:Core/Src/main.cpp ****       workMode = CondOpenMode;
 2103              		.loc 1 887 7 view .LVU578
 887:Core/Src/main.cpp ****       workMode = CondOpenMode;
 2104              		.loc 1 887 18 is_stmt 0 view .LVU579
 2105 0050 2648     		ldr	r0, .L131+28
 2106 0052 FFF7FEFF 		bl	_Z11UART_PrintfPKcz
 2107              	.LVL134:
 888:Core/Src/main.cpp ****       relay.setRelayState(ClosedState);
 2108              		.loc 1 888 7 is_stmt 1 view .LVU580
 888:Core/Src/main.cpp ****       relay.setRelayState(ClosedState);
 2109              		.loc 1 888 16 is_stmt 0 view .LVU581
 2110 0056 1E4B     		ldr	r3, .L131
 2111 0058 0322     		movs	r2, #3
 2112 005a 1A70     		strb	r2, [r3]
 889:Core/Src/main.cpp ****       break;
 2113              		.loc 1 889 7 is_stmt 1 view .LVU582
 2114              	.LVL135:
 2115              	.LBB203:
 2116              	.LBI203:
 250:Core/Src/main.cpp ****     {
 2117              		.loc 1 250 10 view .LVU583
 2118              	.LBB204:
 252:Core/Src/main.cpp ****       {
 2119              		.loc 1 252 7 view .LVU584
 254:Core/Src/main.cpp ****         {
 2120              		.loc 1 254 9 view .LVU585
 2121              	.LBB205:
 2122              	.LBI205:
 191:Core/Src/main.cpp ****     {
 2123              		.loc 1 191 11 view .LVU586
 2124              	.LBB206:
 193:Core/Src/main.cpp ****     }
 2125              		.loc 1 193 7 view .LVU587
 193:Core/Src/main.cpp ****     }
 2126              		.loc 1 193 14 is_stmt 0 view .LVU588
 2127 005c 1E4B     		ldr	r3, .L131+8
 2128 005e 1B78     		ldrb	r3, [r3]	@ zero_extendqisi2
 2129              	.LVL136:
 193:Core/Src/main.cpp ****     }
 2130              		.loc 1 193 14 view .LVU589
 2131              	.LBE206:
 2132              	.LBE205:
 254:Core/Src/main.cpp ****         {
 2133              		.loc 1 254 9 view .LVU590
 2134 0060 012B     		cmp	r3, #1
 2135 0062 03D0     		beq	.L129
 262:Core/Src/main.cpp ****           // implement alarm mechanics
 2136              		.loc 1 262 11 is_stmt 1 view .LVU591
ARM GAS  C:\Users\Admin\AppData\Local\Temp\cc8l8Vwd.s 			page 66


 262:Core/Src/main.cpp ****           // implement alarm mechanics
 2137              		.loc 1 262 22 is_stmt 0 view .LVU592
 2138 0064 1D48     		ldr	r0, .L131+12
 2139 0066 FFF7FEFF 		bl	_Z11UART_PrintfPKcz
 2140              	.LVL137:
 271:Core/Src/main.cpp **** 
 2141              		.loc 1 271 5 view .LVU593
 2142 006a F0E7     		b	.L111
 2143              	.L129:
 256:Core/Src/main.cpp ****           // implement relay closing mechanics
 2144              		.loc 1 256 11 is_stmt 1 view .LVU594
 256:Core/Src/main.cpp ****           // implement relay closing mechanics
 2145              		.loc 1 256 22 is_stmt 0 view .LVU595
 2146 006c 1C48     		ldr	r0, .L131+16
 2147 006e FFF7FEFF 		bl	_Z11UART_PrintfPKcz
 2148              	.LVL138:
 258:Core/Src/main.cpp ****         }
 2149              		.loc 1 258 11 is_stmt 1 view .LVU596
 258:Core/Src/main.cpp ****         }
 2150              		.loc 1 258 28 is_stmt 0 view .LVU597
 2151 0072 1C4B     		ldr	r3, .L131+20
 2152 0074 0122     		movs	r2, #1
 2153 0076 5A70     		strb	r2, [r3, #1]
 2154 0078 E9E7     		b	.L111
 2155              	.LVL139:
 2156              	.L113:
 258:Core/Src/main.cpp ****         }
 2157              		.loc 1 258 28 view .LVU598
 2158              	.LBE204:
 2159              	.LBE203:
 892:Core/Src/main.cpp ****     {
 2160              		.loc 1 892 5 is_stmt 1 view .LVU599
 893:Core/Src/main.cpp ****       UART_Printf("\nSwitched to Normal mode.\r\n");
 2161              		.loc 1 893 5 view .LVU600
 894:Core/Src/main.cpp ****       workMode = NormalMode;
 2162              		.loc 1 894 7 view .LVU601
 894:Core/Src/main.cpp ****       workMode = NormalMode;
 2163              		.loc 1 894 18 is_stmt 0 view .LVU602
 2164 007a 1D48     		ldr	r0, .L131+32
 2165 007c FFF7FEFF 		bl	_Z11UART_PrintfPKcz
 2166              	.LVL140:
 895:Core/Src/main.cpp ****       relay.setRelayState(ClosedState);
 2167              		.loc 1 895 7 is_stmt 1 view .LVU603
 895:Core/Src/main.cpp ****       relay.setRelayState(ClosedState);
 2168              		.loc 1 895 16 is_stmt 0 view .LVU604
 2169 0080 134B     		ldr	r3, .L131
 2170 0082 0022     		movs	r2, #0
 2171 0084 1A70     		strb	r2, [r3]
 896:Core/Src/main.cpp ****       break;
 2172              		.loc 1 896 7 is_stmt 1 view .LVU605
 2173              	.LVL141:
 2174              	.LBB207:
 2175              	.LBI207:
 250:Core/Src/main.cpp ****     {
 2176              		.loc 1 250 10 view .LVU606
 2177              	.LBB208:
 252:Core/Src/main.cpp ****       {
ARM GAS  C:\Users\Admin\AppData\Local\Temp\cc8l8Vwd.s 			page 67


 2178              		.loc 1 252 7 view .LVU607
 254:Core/Src/main.cpp ****         {
 2179              		.loc 1 254 9 view .LVU608
 2180              	.LBB209:
 2181              	.LBI209:
 191:Core/Src/main.cpp ****     {
 2182              		.loc 1 191 11 view .LVU609
 2183              	.LBB210:
 193:Core/Src/main.cpp ****     }
 2184              		.loc 1 193 7 view .LVU610
 193:Core/Src/main.cpp ****     }
 2185              		.loc 1 193 14 is_stmt 0 view .LVU611
 2186 0086 144B     		ldr	r3, .L131+8
 2187 0088 1B78     		ldrb	r3, [r3]	@ zero_extendqisi2
 2188              	.LVL142:
 193:Core/Src/main.cpp ****     }
 2189              		.loc 1 193 14 view .LVU612
 2190              	.LBE210:
 2191              	.LBE209:
 254:Core/Src/main.cpp ****         {
 2192              		.loc 1 254 9 view .LVU613
 2193 008a 012B     		cmp	r3, #1
 2194 008c 03D0     		beq	.L130
 262:Core/Src/main.cpp ****           // implement alarm mechanics
 2195              		.loc 1 262 11 is_stmt 1 view .LVU614
 262:Core/Src/main.cpp ****           // implement alarm mechanics
 2196              		.loc 1 262 22 is_stmt 0 view .LVU615
 2197 008e 1348     		ldr	r0, .L131+12
 2198 0090 FFF7FEFF 		bl	_Z11UART_PrintfPKcz
 2199              	.LVL143:
 271:Core/Src/main.cpp **** 
 2200              		.loc 1 271 5 view .LVU616
 2201 0094 DBE7     		b	.L111
 2202              	.L130:
 256:Core/Src/main.cpp ****           // implement relay closing mechanics
 2203              		.loc 1 256 11 is_stmt 1 view .LVU617
 256:Core/Src/main.cpp ****           // implement relay closing mechanics
 2204              		.loc 1 256 22 is_stmt 0 view .LVU618
 2205 0096 1248     		ldr	r0, .L131+16
 2206 0098 FFF7FEFF 		bl	_Z11UART_PrintfPKcz
 2207              	.LVL144:
 258:Core/Src/main.cpp ****         }
 2208              		.loc 1 258 11 is_stmt 1 view .LVU619
 258:Core/Src/main.cpp ****         }
 2209              		.loc 1 258 28 is_stmt 0 view .LVU620
 2210 009c 114B     		ldr	r3, .L131+20
 2211 009e 0122     		movs	r2, #1
 2212 00a0 5A70     		strb	r2, [r3, #1]
 2213 00a2 D4E7     		b	.L111
 2214              	.LVL145:
 2215              	.L112:
 258:Core/Src/main.cpp ****         }
 2216              		.loc 1 258 28 view .LVU621
 2217              	.LBE208:
 2218              	.LBE207:
 899:Core/Src/main.cpp ****     {
 2219              		.loc 1 899 5 is_stmt 1 view .LVU622
ARM GAS  C:\Users\Admin\AppData\Local\Temp\cc8l8Vwd.s 			page 68


 900:Core/Src/main.cpp ****       UART_Printf("Unknown mode, switched to normal.\r\n");
 2220              		.loc 1 900 5 view .LVU623
 901:Core/Src/main.cpp ****       workMode = NormalMode;
 2221              		.loc 1 901 7 view .LVU624
 901:Core/Src/main.cpp ****       workMode = NormalMode;
 2222              		.loc 1 901 18 is_stmt 0 view .LVU625
 2223 00a4 1348     		ldr	r0, .L131+36
 2224 00a6 FFF7FEFF 		bl	_Z11UART_PrintfPKcz
 2225              	.LVL146:
 902:Core/Src/main.cpp ****       relay.setRelayState(ClosedState);
 2226              		.loc 1 902 7 is_stmt 1 view .LVU626
 902:Core/Src/main.cpp ****       relay.setRelayState(ClosedState);
 2227              		.loc 1 902 16 is_stmt 0 view .LVU627
 2228 00aa 094B     		ldr	r3, .L131
 2229 00ac 0022     		movs	r2, #0
 2230 00ae 1A70     		strb	r2, [r3]
 903:Core/Src/main.cpp ****       break;
 2231              		.loc 1 903 7 is_stmt 1 view .LVU628
 2232              	.LVL147:
 2233              	.LBB211:
 2234              	.LBI211:
 250:Core/Src/main.cpp ****     {
 2235              		.loc 1 250 10 view .LVU629
 2236              	.LBB212:
 252:Core/Src/main.cpp ****       {
 2237              		.loc 1 252 7 view .LVU630
 254:Core/Src/main.cpp ****         {
 2238              		.loc 1 254 9 view .LVU631
 2239              	.LBB213:
 2240              	.LBI213:
 191:Core/Src/main.cpp ****     {
 2241              		.loc 1 191 11 view .LVU632
 2242              	.LBB214:
 193:Core/Src/main.cpp ****     }
 2243              		.loc 1 193 7 view .LVU633
 193:Core/Src/main.cpp ****     }
 2244              		.loc 1 193 14 is_stmt 0 view .LVU634
 2245 00b0 094B     		ldr	r3, .L131+8
 2246 00b2 1B78     		ldrb	r3, [r3]	@ zero_extendqisi2
 2247              	.LVL148:
 193:Core/Src/main.cpp ****     }
 2248              		.loc 1 193 14 view .LVU635
 2249              	.LBE214:
 2250              	.LBE213:
 254:Core/Src/main.cpp ****         {
 2251              		.loc 1 254 9 view .LVU636
 2252 00b4 012B     		cmp	r3, #1
 2253 00b6 06D1     		bne	.L125
 256:Core/Src/main.cpp ****           // implement relay closing mechanics
 2254              		.loc 1 256 11 is_stmt 1 view .LVU637
 256:Core/Src/main.cpp ****           // implement relay closing mechanics
 2255              		.loc 1 256 22 is_stmt 0 view .LVU638
 2256 00b8 0948     		ldr	r0, .L131+16
 2257 00ba FFF7FEFF 		bl	_Z11UART_PrintfPKcz
 2258              	.LVL149:
 258:Core/Src/main.cpp ****         }
 2259              		.loc 1 258 11 is_stmt 1 view .LVU639
ARM GAS  C:\Users\Admin\AppData\Local\Temp\cc8l8Vwd.s 			page 69


 258:Core/Src/main.cpp ****         }
 2260              		.loc 1 258 28 is_stmt 0 view .LVU640
 2261 00be 094B     		ldr	r3, .L131+20
 2262 00c0 0122     		movs	r2, #1
 2263 00c2 5A70     		strb	r2, [r3, #1]
 2264 00c4 C3E7     		b	.L111
 2265              	.L125:
 262:Core/Src/main.cpp ****           // implement alarm mechanics
 2266              		.loc 1 262 11 is_stmt 1 view .LVU641
 262:Core/Src/main.cpp ****           // implement alarm mechanics
 2267              		.loc 1 262 22 is_stmt 0 view .LVU642
 2268 00c6 0548     		ldr	r0, .L131+12
 2269 00c8 FFF7FEFF 		bl	_Z11UART_PrintfPKcz
 2270              	.LVL150:
 262:Core/Src/main.cpp ****           // implement alarm mechanics
 2271              		.loc 1 262 22 view .LVU643
 2272              	.LBE212:
 2273              	.LBE211:
 908:Core/Src/main.cpp **** }
 2274              		.loc 1 908 3 is_stmt 1 view .LVU644
 2275 00cc BFE7     		b	.L111
 2276              	.L132:
 2277 00ce 00BF     		.align	2
 2278              	.L131:
 2279 00d0 00000000 		.word	.LANCHOR3
 2280 00d4 00000000 		.word	.LC15
 2281 00d8 00000000 		.word	.LANCHOR0
 2282 00dc 28000000 		.word	.LC8
 2283 00e0 14000000 		.word	.LC7
 2284 00e4 00000000 		.word	.LANCHOR1
 2285 00e8 1C000000 		.word	.LC16
 2286 00ec 38000000 		.word	.LC17
 2287 00f0 58000000 		.word	.LC18
 2288 00f4 74000000 		.word	.LC19
 2289              		.cfi_endproc
 2290              	.LFE121:
 2291              		.fnend
 2293              		.section	.rodata._Z15changeModeEventv.str1.4,"aMS",%progbits,1
 2294              		.align	2
 2295              	.LC20:
 2296 0000 576F726B 		.ascii	"Work mode: %d\015\012\000"
 2296      206D6F64 
 2296      653A2025 
 2296      640D0A00 
 2297              		.section	.text._Z15changeModeEventv,"ax",%progbits
 2298              		.align	1
 2299              		.global	_Z15changeModeEventv
 2300              		.syntax unified
 2301              		.thumb
 2302              		.thumb_func
 2303              		.fpu softvfp
 2305              	_Z15changeModeEventv:
 2306              		.fnstart
 2307              	.LFB109:
 567:Core/Src/main.cpp ****   if ((HAL_GetTick() - timme) > 15000)
 2308              		.loc 1 567 1 view -0
 2309              		.cfi_startproc
ARM GAS  C:\Users\Admin\AppData\Local\Temp\cc8l8Vwd.s 			page 70


 2310              		@ args = 0, pretend = 0, frame = 0
 2311              		@ frame_needed = 0, uses_anonymous_args = 0
 2312 0000 08B5     		push	{r3, lr}
 2313              		.save {r3, lr}
 2314              	.LCFI18:
 2315              		.cfi_def_cfa_offset 8
 2316              		.cfi_offset 3, -8
 2317              		.cfi_offset 14, -4
 568:Core/Src/main.cpp ****   {
 2318              		.loc 1 568 3 view .LVU646
 568:Core/Src/main.cpp ****   {
 2319              		.loc 1 568 19 is_stmt 0 view .LVU647
 2320 0002 FFF7FEFF 		bl	HAL_GetTick
 2321              	.LVL151:
 568:Core/Src/main.cpp ****   {
 2322              		.loc 1 568 22 view .LVU648
 2323 0006 0A4B     		ldr	r3, .L137
 2324 0008 1B68     		ldr	r3, [r3]
 2325 000a C01A     		subs	r0, r0, r3
 568:Core/Src/main.cpp ****   {
 2326              		.loc 1 568 3 view .LVU649
 2327 000c 43F69823 		movw	r3, #15000
 2328 0010 9842     		cmp	r0, r3
 2329 0012 00D8     		bhi	.L136
 2330              	.L133:
 574:Core/Src/main.cpp **** 
 2331              		.loc 1 574 1 view .LVU650
 2332 0014 08BD     		pop	{r3, pc}
 2333              	.L136:
 570:Core/Src/main.cpp ****     switchMode();
 2334              		.loc 1 570 5 is_stmt 1 view .LVU651
 570:Core/Src/main.cpp ****     switchMode();
 2335              		.loc 1 570 24 is_stmt 0 view .LVU652
 2336 0016 FFF7FEFF 		bl	HAL_GetTick
 2337              	.LVL152:
 570:Core/Src/main.cpp ****     switchMode();
 2338              		.loc 1 570 11 view .LVU653
 2339 001a 054B     		ldr	r3, .L137
 2340 001c 1860     		str	r0, [r3]
 571:Core/Src/main.cpp ****     UART_Printf("Work mode: %d\r\n", workMode);
 2341              		.loc 1 571 5 is_stmt 1 view .LVU654
 571:Core/Src/main.cpp ****     UART_Printf("Work mode: %d\r\n", workMode);
 2342              		.loc 1 571 15 is_stmt 0 view .LVU655
 2343 001e FFF7FEFF 		bl	_Z10switchModev
 2344              	.LVL153:
 572:Core/Src/main.cpp ****   }
 2345              		.loc 1 572 5 is_stmt 1 view .LVU656
 572:Core/Src/main.cpp ****   }
 2346              		.loc 1 572 16 is_stmt 0 view .LVU657
 2347 0022 044B     		ldr	r3, .L137+4
 2348 0024 1978     		ldrb	r1, [r3]	@ zero_extendqisi2
 2349 0026 0448     		ldr	r0, .L137+8
 2350 0028 FFF7FEFF 		bl	_Z11UART_PrintfPKcz
 2351              	.LVL154:
 574:Core/Src/main.cpp **** 
 2352              		.loc 1 574 1 view .LVU658
 2353 002c F2E7     		b	.L133
ARM GAS  C:\Users\Admin\AppData\Local\Temp\cc8l8Vwd.s 			page 71


 2354              	.L138:
 2355 002e 00BF     		.align	2
 2356              	.L137:
 2357 0030 00000000 		.word	.LANCHOR11
 2358 0034 00000000 		.word	.LANCHOR3
 2359 0038 00000000 		.word	.LC20
 2360              		.cfi_endproc
 2361              	.LFE109:
 2362              		.fnend
 2364              		.section	.text.Error_Handler,"ax",%progbits
 2365              		.align	1
 2366              		.global	Error_Handler
 2367              		.syntax unified
 2368              		.thumb
 2369              		.thumb_func
 2370              		.fpu softvfp
 2372              	Error_Handler:
 2373              		.fnstart
 2374              	.LFB122:
 927:Core/Src/main.cpp ****   /* USER CODE BEGIN Error_Handler_Debug */
 2375              		.loc 1 927 1 is_stmt 1 view -0
 2376              		.cfi_startproc
 2377              		@ Volatile: function does not return.
 2378              		@ args = 0, pretend = 0, frame = 0
 2379              		@ frame_needed = 0, uses_anonymous_args = 0
 2380              		@ link register save eliminated.
 930:Core/Src/main.cpp ****   while (1)
 2381              		.loc 1 930 3 view .LVU660
 2382              	.LBB215:
 2383              	.LBI215:
 2384              		.file 2 "Drivers/CMSIS/Include/cmsis_gcc.h"
   1:Drivers/CMSIS/Include/cmsis_gcc.h **** /**************************************************************************//**
   2:Drivers/CMSIS/Include/cmsis_gcc.h ****  * @file     cmsis_gcc.h
   3:Drivers/CMSIS/Include/cmsis_gcc.h ****  * @brief    CMSIS compiler GCC header file
   4:Drivers/CMSIS/Include/cmsis_gcc.h ****  * @version  V5.0.4
   5:Drivers/CMSIS/Include/cmsis_gcc.h ****  * @date     09. April 2018
   6:Drivers/CMSIS/Include/cmsis_gcc.h ****  ******************************************************************************/
   7:Drivers/CMSIS/Include/cmsis_gcc.h **** /*
   8:Drivers/CMSIS/Include/cmsis_gcc.h ****  * Copyright (c) 2009-2018 Arm Limited. All rights reserved.
   9:Drivers/CMSIS/Include/cmsis_gcc.h ****  *
  10:Drivers/CMSIS/Include/cmsis_gcc.h ****  * SPDX-License-Identifier: Apache-2.0
  11:Drivers/CMSIS/Include/cmsis_gcc.h ****  *
  12:Drivers/CMSIS/Include/cmsis_gcc.h ****  * Licensed under the Apache License, Version 2.0 (the License); you may
  13:Drivers/CMSIS/Include/cmsis_gcc.h ****  * not use this file except in compliance with the License.
  14:Drivers/CMSIS/Include/cmsis_gcc.h ****  * You may obtain a copy of the License at
  15:Drivers/CMSIS/Include/cmsis_gcc.h ****  *
  16:Drivers/CMSIS/Include/cmsis_gcc.h ****  * www.apache.org/licenses/LICENSE-2.0
  17:Drivers/CMSIS/Include/cmsis_gcc.h ****  *
  18:Drivers/CMSIS/Include/cmsis_gcc.h ****  * Unless required by applicable law or agreed to in writing, software
  19:Drivers/CMSIS/Include/cmsis_gcc.h ****  * distributed under the License is distributed on an AS IS BASIS, WITHOUT
  20:Drivers/CMSIS/Include/cmsis_gcc.h ****  * WARRANTIES OR CONDITIONS OF ANY KIND, either express or implied.
  21:Drivers/CMSIS/Include/cmsis_gcc.h ****  * See the License for the specific language governing permissions and
  22:Drivers/CMSIS/Include/cmsis_gcc.h ****  * limitations under the License.
  23:Drivers/CMSIS/Include/cmsis_gcc.h ****  */
  24:Drivers/CMSIS/Include/cmsis_gcc.h **** 
  25:Drivers/CMSIS/Include/cmsis_gcc.h **** #ifndef __CMSIS_GCC_H
  26:Drivers/CMSIS/Include/cmsis_gcc.h **** #define __CMSIS_GCC_H
ARM GAS  C:\Users\Admin\AppData\Local\Temp\cc8l8Vwd.s 			page 72


  27:Drivers/CMSIS/Include/cmsis_gcc.h **** 
  28:Drivers/CMSIS/Include/cmsis_gcc.h **** /* ignore some GCC warnings */
  29:Drivers/CMSIS/Include/cmsis_gcc.h **** #pragma GCC diagnostic push
  30:Drivers/CMSIS/Include/cmsis_gcc.h **** #pragma GCC diagnostic ignored "-Wsign-conversion"
  31:Drivers/CMSIS/Include/cmsis_gcc.h **** #pragma GCC diagnostic ignored "-Wconversion"
  32:Drivers/CMSIS/Include/cmsis_gcc.h **** #pragma GCC diagnostic ignored "-Wunused-parameter"
  33:Drivers/CMSIS/Include/cmsis_gcc.h **** 
  34:Drivers/CMSIS/Include/cmsis_gcc.h **** /* Fallback for __has_builtin */
  35:Drivers/CMSIS/Include/cmsis_gcc.h **** #ifndef __has_builtin
  36:Drivers/CMSIS/Include/cmsis_gcc.h ****   #define __has_builtin(x) (0)
  37:Drivers/CMSIS/Include/cmsis_gcc.h **** #endif
  38:Drivers/CMSIS/Include/cmsis_gcc.h **** 
  39:Drivers/CMSIS/Include/cmsis_gcc.h **** /* CMSIS compiler specific defines */
  40:Drivers/CMSIS/Include/cmsis_gcc.h **** #ifndef   __ASM
  41:Drivers/CMSIS/Include/cmsis_gcc.h ****   #define __ASM                                  __asm
  42:Drivers/CMSIS/Include/cmsis_gcc.h **** #endif
  43:Drivers/CMSIS/Include/cmsis_gcc.h **** #ifndef   __INLINE
  44:Drivers/CMSIS/Include/cmsis_gcc.h ****   #define __INLINE                               inline
  45:Drivers/CMSIS/Include/cmsis_gcc.h **** #endif
  46:Drivers/CMSIS/Include/cmsis_gcc.h **** #ifndef   __STATIC_INLINE
  47:Drivers/CMSIS/Include/cmsis_gcc.h ****   #define __STATIC_INLINE                        static inline
  48:Drivers/CMSIS/Include/cmsis_gcc.h **** #endif
  49:Drivers/CMSIS/Include/cmsis_gcc.h **** #ifndef   __STATIC_FORCEINLINE                 
  50:Drivers/CMSIS/Include/cmsis_gcc.h ****   #define __STATIC_FORCEINLINE                   __attribute__((always_inline)) static inline
  51:Drivers/CMSIS/Include/cmsis_gcc.h **** #endif                                           
  52:Drivers/CMSIS/Include/cmsis_gcc.h **** #ifndef   __NO_RETURN
  53:Drivers/CMSIS/Include/cmsis_gcc.h ****   #define __NO_RETURN                            __attribute__((__noreturn__))
  54:Drivers/CMSIS/Include/cmsis_gcc.h **** #endif
  55:Drivers/CMSIS/Include/cmsis_gcc.h **** #ifndef   __USED
  56:Drivers/CMSIS/Include/cmsis_gcc.h ****   #define __USED                                 __attribute__((used))
  57:Drivers/CMSIS/Include/cmsis_gcc.h **** #endif
  58:Drivers/CMSIS/Include/cmsis_gcc.h **** #ifndef   __WEAK
  59:Drivers/CMSIS/Include/cmsis_gcc.h ****   #define __WEAK                                 __attribute__((weak))
  60:Drivers/CMSIS/Include/cmsis_gcc.h **** #endif
  61:Drivers/CMSIS/Include/cmsis_gcc.h **** #ifndef   __PACKED
  62:Drivers/CMSIS/Include/cmsis_gcc.h ****   #define __PACKED                               __attribute__((packed, aligned(1)))
  63:Drivers/CMSIS/Include/cmsis_gcc.h **** #endif
  64:Drivers/CMSIS/Include/cmsis_gcc.h **** #ifndef   __PACKED_STRUCT
  65:Drivers/CMSIS/Include/cmsis_gcc.h ****   #define __PACKED_STRUCT                        struct __attribute__((packed, aligned(1)))
  66:Drivers/CMSIS/Include/cmsis_gcc.h **** #endif
  67:Drivers/CMSIS/Include/cmsis_gcc.h **** #ifndef   __PACKED_UNION
  68:Drivers/CMSIS/Include/cmsis_gcc.h ****   #define __PACKED_UNION                         union __attribute__((packed, aligned(1)))
  69:Drivers/CMSIS/Include/cmsis_gcc.h **** #endif
  70:Drivers/CMSIS/Include/cmsis_gcc.h **** #ifndef   __UNALIGNED_UINT32        /* deprecated */
  71:Drivers/CMSIS/Include/cmsis_gcc.h ****   #pragma GCC diagnostic push
  72:Drivers/CMSIS/Include/cmsis_gcc.h ****   #pragma GCC diagnostic ignored "-Wpacked"
  73:Drivers/CMSIS/Include/cmsis_gcc.h ****   #pragma GCC diagnostic ignored "-Wattributes"
  74:Drivers/CMSIS/Include/cmsis_gcc.h ****   struct __attribute__((packed)) T_UINT32 { uint32_t v; };
  75:Drivers/CMSIS/Include/cmsis_gcc.h ****   #pragma GCC diagnostic pop
  76:Drivers/CMSIS/Include/cmsis_gcc.h ****   #define __UNALIGNED_UINT32(x)                  (((struct T_UINT32 *)(x))->v)
  77:Drivers/CMSIS/Include/cmsis_gcc.h **** #endif
  78:Drivers/CMSIS/Include/cmsis_gcc.h **** #ifndef   __UNALIGNED_UINT16_WRITE
  79:Drivers/CMSIS/Include/cmsis_gcc.h ****   #pragma GCC diagnostic push
  80:Drivers/CMSIS/Include/cmsis_gcc.h ****   #pragma GCC diagnostic ignored "-Wpacked"
  81:Drivers/CMSIS/Include/cmsis_gcc.h ****   #pragma GCC diagnostic ignored "-Wattributes"
  82:Drivers/CMSIS/Include/cmsis_gcc.h ****   __PACKED_STRUCT T_UINT16_WRITE { uint16_t v; };
  83:Drivers/CMSIS/Include/cmsis_gcc.h ****   #pragma GCC diagnostic pop
ARM GAS  C:\Users\Admin\AppData\Local\Temp\cc8l8Vwd.s 			page 73


  84:Drivers/CMSIS/Include/cmsis_gcc.h ****   #define __UNALIGNED_UINT16_WRITE(addr, val)    (void)((((struct T_UINT16_WRITE *)(void *)(addr))-
  85:Drivers/CMSIS/Include/cmsis_gcc.h **** #endif
  86:Drivers/CMSIS/Include/cmsis_gcc.h **** #ifndef   __UNALIGNED_UINT16_READ
  87:Drivers/CMSIS/Include/cmsis_gcc.h ****   #pragma GCC diagnostic push
  88:Drivers/CMSIS/Include/cmsis_gcc.h ****   #pragma GCC diagnostic ignored "-Wpacked"
  89:Drivers/CMSIS/Include/cmsis_gcc.h ****   #pragma GCC diagnostic ignored "-Wattributes"
  90:Drivers/CMSIS/Include/cmsis_gcc.h ****   __PACKED_STRUCT T_UINT16_READ { uint16_t v; };
  91:Drivers/CMSIS/Include/cmsis_gcc.h ****   #pragma GCC diagnostic pop
  92:Drivers/CMSIS/Include/cmsis_gcc.h ****   #define __UNALIGNED_UINT16_READ(addr)          (((const struct T_UINT16_READ *)(const void *)(add
  93:Drivers/CMSIS/Include/cmsis_gcc.h **** #endif
  94:Drivers/CMSIS/Include/cmsis_gcc.h **** #ifndef   __UNALIGNED_UINT32_WRITE
  95:Drivers/CMSIS/Include/cmsis_gcc.h ****   #pragma GCC diagnostic push
  96:Drivers/CMSIS/Include/cmsis_gcc.h ****   #pragma GCC diagnostic ignored "-Wpacked"
  97:Drivers/CMSIS/Include/cmsis_gcc.h ****   #pragma GCC diagnostic ignored "-Wattributes"
  98:Drivers/CMSIS/Include/cmsis_gcc.h ****   __PACKED_STRUCT T_UINT32_WRITE { uint32_t v; };
  99:Drivers/CMSIS/Include/cmsis_gcc.h ****   #pragma GCC diagnostic pop
 100:Drivers/CMSIS/Include/cmsis_gcc.h ****   #define __UNALIGNED_UINT32_WRITE(addr, val)    (void)((((struct T_UINT32_WRITE *)(void *)(addr))-
 101:Drivers/CMSIS/Include/cmsis_gcc.h **** #endif
 102:Drivers/CMSIS/Include/cmsis_gcc.h **** #ifndef   __UNALIGNED_UINT32_READ
 103:Drivers/CMSIS/Include/cmsis_gcc.h ****   #pragma GCC diagnostic push
 104:Drivers/CMSIS/Include/cmsis_gcc.h ****   #pragma GCC diagnostic ignored "-Wpacked"
 105:Drivers/CMSIS/Include/cmsis_gcc.h ****   #pragma GCC diagnostic ignored "-Wattributes"
 106:Drivers/CMSIS/Include/cmsis_gcc.h ****   __PACKED_STRUCT T_UINT32_READ { uint32_t v; };
 107:Drivers/CMSIS/Include/cmsis_gcc.h ****   #pragma GCC diagnostic pop
 108:Drivers/CMSIS/Include/cmsis_gcc.h ****   #define __UNALIGNED_UINT32_READ(addr)          (((const struct T_UINT32_READ *)(const void *)(add
 109:Drivers/CMSIS/Include/cmsis_gcc.h **** #endif
 110:Drivers/CMSIS/Include/cmsis_gcc.h **** #ifndef   __ALIGNED
 111:Drivers/CMSIS/Include/cmsis_gcc.h ****   #define __ALIGNED(x)                           __attribute__((aligned(x)))
 112:Drivers/CMSIS/Include/cmsis_gcc.h **** #endif
 113:Drivers/CMSIS/Include/cmsis_gcc.h **** #ifndef   __RESTRICT
 114:Drivers/CMSIS/Include/cmsis_gcc.h ****   #define __RESTRICT                             __restrict
 115:Drivers/CMSIS/Include/cmsis_gcc.h **** #endif
 116:Drivers/CMSIS/Include/cmsis_gcc.h **** 
 117:Drivers/CMSIS/Include/cmsis_gcc.h **** 
 118:Drivers/CMSIS/Include/cmsis_gcc.h **** /* ###########################  Core Function Access  ########################### */
 119:Drivers/CMSIS/Include/cmsis_gcc.h **** /** \ingroup  CMSIS_Core_FunctionInterface
 120:Drivers/CMSIS/Include/cmsis_gcc.h ****     \defgroup CMSIS_Core_RegAccFunctions CMSIS Core Register Access Functions
 121:Drivers/CMSIS/Include/cmsis_gcc.h ****   @{
 122:Drivers/CMSIS/Include/cmsis_gcc.h ****  */
 123:Drivers/CMSIS/Include/cmsis_gcc.h **** 
 124:Drivers/CMSIS/Include/cmsis_gcc.h **** /**
 125:Drivers/CMSIS/Include/cmsis_gcc.h ****   \brief   Enable IRQ Interrupts
 126:Drivers/CMSIS/Include/cmsis_gcc.h ****   \details Enables IRQ interrupts by clearing the I-bit in the CPSR.
 127:Drivers/CMSIS/Include/cmsis_gcc.h ****            Can only be executed in Privileged modes.
 128:Drivers/CMSIS/Include/cmsis_gcc.h ****  */
 129:Drivers/CMSIS/Include/cmsis_gcc.h **** __STATIC_FORCEINLINE void __enable_irq(void)
 130:Drivers/CMSIS/Include/cmsis_gcc.h **** {
 131:Drivers/CMSIS/Include/cmsis_gcc.h ****   __ASM volatile ("cpsie i" : : : "memory");
 132:Drivers/CMSIS/Include/cmsis_gcc.h **** }
 133:Drivers/CMSIS/Include/cmsis_gcc.h **** 
 134:Drivers/CMSIS/Include/cmsis_gcc.h **** 
 135:Drivers/CMSIS/Include/cmsis_gcc.h **** /**
 136:Drivers/CMSIS/Include/cmsis_gcc.h ****   \brief   Disable IRQ Interrupts
 137:Drivers/CMSIS/Include/cmsis_gcc.h ****   \details Disables IRQ interrupts by setting the I-bit in the CPSR.
 138:Drivers/CMSIS/Include/cmsis_gcc.h ****            Can only be executed in Privileged modes.
 139:Drivers/CMSIS/Include/cmsis_gcc.h ****  */
 140:Drivers/CMSIS/Include/cmsis_gcc.h **** __STATIC_FORCEINLINE void __disable_irq(void)
ARM GAS  C:\Users\Admin\AppData\Local\Temp\cc8l8Vwd.s 			page 74


 2385              		.loc 2 140 27 view .LVU661
 2386              	.LBB216:
 141:Drivers/CMSIS/Include/cmsis_gcc.h **** {
 142:Drivers/CMSIS/Include/cmsis_gcc.h ****   __ASM volatile ("cpsid i" : : : "memory");
 2387              		.loc 2 142 3 view .LVU662
 2388              		.syntax unified
 2389              	@ 142 "Drivers/CMSIS/Include/cmsis_gcc.h" 1
 2390 0000 72B6     		cpsid i
 2391              	@ 0 "" 2
 2392              		.thumb
 2393              		.syntax unified
 2394              	.L140:
 2395              	.LBE216:
 2396              	.LBE215:
 931:Core/Src/main.cpp ****   {
 2397              		.loc 1 931 3 discriminator 1 view .LVU663
 931:Core/Src/main.cpp ****   {
 2398              		.loc 1 931 3 discriminator 1 view .LVU664
 2399 0002 FEE7     		b	.L140
 2400              		.cfi_endproc
 2401              	.LFE122:
 2402              		.cantunwind
 2403              		.fnend
 2405              		.section	.text._Z18SystemClock_Configv,"ax",%progbits
 2406              		.align	1
 2407              		.global	_Z18SystemClock_Configv
 2408              		.syntax unified
 2409              		.thumb
 2410              		.thumb_func
 2411              		.fpu softvfp
 2413              	_Z18SystemClock_Configv:
 2414              		.fnstart
 2415              	.LFB104:
 367:Core/Src/main.cpp ****   RCC_OscInitTypeDef RCC_OscInitStruct = {0};
 2416              		.loc 1 367 1 view -0
 2417              		.cfi_startproc
 2418              		@ args = 0, pretend = 0, frame = 64
 2419              		@ frame_needed = 0, uses_anonymous_args = 0
 2420 0000 00B5     		push	{lr}
 2421              		.save {lr}
 2422              	.LCFI19:
 2423              		.cfi_def_cfa_offset 4
 2424              		.cfi_offset 14, -4
 2425              		.pad #68
 2426 0002 91B0     		sub	sp, sp, #68
 2427              	.LCFI20:
 2428              		.cfi_def_cfa_offset 72
 368:Core/Src/main.cpp ****   RCC_ClkInitTypeDef RCC_ClkInitStruct = {0};
 2429              		.loc 1 368 3 view .LVU666
 368:Core/Src/main.cpp ****   RCC_ClkInitTypeDef RCC_ClkInitStruct = {0};
 2430              		.loc 1 368 22 is_stmt 0 view .LVU667
 2431 0004 2822     		movs	r2, #40
 2432 0006 0021     		movs	r1, #0
 2433 0008 06A8     		add	r0, sp, #24
 2434 000a FFF7FEFF 		bl	memset
 2435              	.LVL155:
 369:Core/Src/main.cpp **** 
ARM GAS  C:\Users\Admin\AppData\Local\Temp\cc8l8Vwd.s 			page 75


 2436              		.loc 1 369 3 is_stmt 1 view .LVU668
 369:Core/Src/main.cpp **** 
 2437              		.loc 1 369 22 is_stmt 0 view .LVU669
 2438 000e 0023     		movs	r3, #0
 2439 0010 0193     		str	r3, [sp, #4]
 2440 0012 0293     		str	r3, [sp, #8]
 2441 0014 0393     		str	r3, [sp, #12]
 2442 0016 0493     		str	r3, [sp, #16]
 2443 0018 0593     		str	r3, [sp, #20]
 374:Core/Src/main.cpp ****   RCC_OscInitStruct.HSIState = RCC_HSI_ON;
 2444              		.loc 1 374 3 is_stmt 1 view .LVU670
 374:Core/Src/main.cpp ****   RCC_OscInitStruct.HSIState = RCC_HSI_ON;
 2445              		.loc 1 374 36 is_stmt 0 view .LVU671
 2446 001a 0223     		movs	r3, #2
 2447 001c 0693     		str	r3, [sp, #24]
 375:Core/Src/main.cpp ****   RCC_OscInitStruct.HSICalibrationValue = RCC_HSICALIBRATION_DEFAULT;
 2448              		.loc 1 375 3 is_stmt 1 view .LVU672
 375:Core/Src/main.cpp ****   RCC_OscInitStruct.HSICalibrationValue = RCC_HSICALIBRATION_DEFAULT;
 2449              		.loc 1 375 30 is_stmt 0 view .LVU673
 2450 001e 0122     		movs	r2, #1
 2451 0020 0A92     		str	r2, [sp, #40]
 376:Core/Src/main.cpp ****   RCC_OscInitStruct.PLL.PLLState = RCC_PLL_ON;
 2452              		.loc 1 376 3 is_stmt 1 view .LVU674
 376:Core/Src/main.cpp ****   RCC_OscInitStruct.PLL.PLLState = RCC_PLL_ON;
 2453              		.loc 1 376 41 is_stmt 0 view .LVU675
 2454 0022 1022     		movs	r2, #16
 2455 0024 0B92     		str	r2, [sp, #44]
 377:Core/Src/main.cpp ****   RCC_OscInitStruct.PLL.PLLSource = RCC_PLLSOURCE_HSI_DIV2;
 2456              		.loc 1 377 3 is_stmt 1 view .LVU676
 377:Core/Src/main.cpp ****   RCC_OscInitStruct.PLL.PLLSource = RCC_PLLSOURCE_HSI_DIV2;
 2457              		.loc 1 377 34 is_stmt 0 view .LVU677
 2458 0026 0D93     		str	r3, [sp, #52]
 378:Core/Src/main.cpp ****   RCC_OscInitStruct.PLL.PLLMUL = RCC_PLL_MUL9;
 2459              		.loc 1 378 3 is_stmt 1 view .LVU678
 379:Core/Src/main.cpp ****   if (HAL_RCC_OscConfig(&RCC_OscInitStruct) != HAL_OK)
 2460              		.loc 1 379 3 view .LVU679
 379:Core/Src/main.cpp ****   if (HAL_RCC_OscConfig(&RCC_OscInitStruct) != HAL_OK)
 2461              		.loc 1 379 32 is_stmt 0 view .LVU680
 2462 0028 4FF4E013 		mov	r3, #1835008
 2463 002c 0F93     		str	r3, [sp, #60]
 380:Core/Src/main.cpp ****   {
 2464              		.loc 1 380 3 is_stmt 1 view .LVU681
 380:Core/Src/main.cpp ****   {
 2465              		.loc 1 380 24 is_stmt 0 view .LVU682
 2466 002e 06A8     		add	r0, sp, #24
 2467 0030 FFF7FEFF 		bl	HAL_RCC_OscConfig
 2468              	.LVL156:
 380:Core/Src/main.cpp ****   {
 2469              		.loc 1 380 3 view .LVU683
 2470 0034 88B9     		cbnz	r0, .L145
 386:Core/Src/main.cpp ****   RCC_ClkInitStruct.SYSCLKSource = RCC_SYSCLKSOURCE_PLLCLK;
 2471              		.loc 1 386 3 is_stmt 1 view .LVU684
 386:Core/Src/main.cpp ****   RCC_ClkInitStruct.SYSCLKSource = RCC_SYSCLKSOURCE_PLLCLK;
 2472              		.loc 1 386 31 is_stmt 0 view .LVU685
 2473 0036 0F23     		movs	r3, #15
 2474 0038 0193     		str	r3, [sp, #4]
 387:Core/Src/main.cpp ****   RCC_ClkInitStruct.AHBCLKDivider = RCC_SYSCLK_DIV1;
ARM GAS  C:\Users\Admin\AppData\Local\Temp\cc8l8Vwd.s 			page 76


 2475              		.loc 1 387 3 is_stmt 1 view .LVU686
 387:Core/Src/main.cpp ****   RCC_ClkInitStruct.AHBCLKDivider = RCC_SYSCLK_DIV1;
 2476              		.loc 1 387 34 is_stmt 0 view .LVU687
 2477 003a 0223     		movs	r3, #2
 2478 003c 0293     		str	r3, [sp, #8]
 388:Core/Src/main.cpp ****   RCC_ClkInitStruct.APB1CLKDivider = RCC_HCLK_DIV2;
 2479              		.loc 1 388 3 is_stmt 1 view .LVU688
 388:Core/Src/main.cpp ****   RCC_ClkInitStruct.APB1CLKDivider = RCC_HCLK_DIV2;
 2480              		.loc 1 388 35 is_stmt 0 view .LVU689
 2481 003e 0023     		movs	r3, #0
 2482 0040 0393     		str	r3, [sp, #12]
 389:Core/Src/main.cpp ****   RCC_ClkInitStruct.APB2CLKDivider = RCC_HCLK_DIV1;
 2483              		.loc 1 389 3 is_stmt 1 view .LVU690
 389:Core/Src/main.cpp ****   RCC_ClkInitStruct.APB2CLKDivider = RCC_HCLK_DIV1;
 2484              		.loc 1 389 36 is_stmt 0 view .LVU691
 2485 0042 4FF48062 		mov	r2, #1024
 2486 0046 0492     		str	r2, [sp, #16]
 390:Core/Src/main.cpp **** 
 2487              		.loc 1 390 3 is_stmt 1 view .LVU692
 390:Core/Src/main.cpp **** 
 2488              		.loc 1 390 36 is_stmt 0 view .LVU693
 2489 0048 0593     		str	r3, [sp, #20]
 392:Core/Src/main.cpp ****   {
 2490              		.loc 1 392 3 is_stmt 1 view .LVU694
 392:Core/Src/main.cpp ****   {
 2491              		.loc 1 392 26 is_stmt 0 view .LVU695
 2492 004a 0121     		movs	r1, #1
 2493 004c 01A8     		add	r0, sp, #4
 2494 004e FFF7FEFF 		bl	HAL_RCC_ClockConfig
 2495              	.LVL157:
 392:Core/Src/main.cpp ****   {
 2496              		.loc 1 392 3 view .LVU696
 2497 0052 20B9     		cbnz	r0, .L146
 396:Core/Src/main.cpp **** 
 2498              		.loc 1 396 1 view .LVU697
 2499 0054 11B0     		add	sp, sp, #68
 2500              	.LCFI21:
 2501              		.cfi_remember_state
 2502              		.cfi_def_cfa_offset 4
 2503              		@ sp needed
 2504 0056 5DF804FB 		ldr	pc, [sp], #4
 2505              	.L145:
 2506              	.LCFI22:
 2507              		.cfi_restore_state
 382:Core/Src/main.cpp ****   }
 2508              		.loc 1 382 5 is_stmt 1 view .LVU698
 382:Core/Src/main.cpp ****   }
 2509              		.loc 1 382 18 is_stmt 0 view .LVU699
 2510 005a FFF7FEFF 		bl	Error_Handler
 2511              	.LVL158:
 2512              	.L146:
 394:Core/Src/main.cpp ****   }
 2513              		.loc 1 394 5 is_stmt 1 view .LVU700
 394:Core/Src/main.cpp ****   }
 2514              		.loc 1 394 18 is_stmt 0 view .LVU701
 2515 005e FFF7FEFF 		bl	Error_Handler
 2516              	.LVL159:
ARM GAS  C:\Users\Admin\AppData\Local\Temp\cc8l8Vwd.s 			page 77


 2517              		.cfi_endproc
 2518              	.LFE104:
 2519              		.fnend
 2521              		.section	.text._ZL19MX_USART1_UART_Initv,"ax",%progbits
 2522              		.align	1
 2523              		.syntax unified
 2524              		.thumb
 2525              		.thumb_func
 2526              		.fpu softvfp
 2528              	_ZL19MX_USART1_UART_Initv:
 2529              		.fnstart
 2530              	.LFB105:
 404:Core/Src/main.cpp **** 
 2531              		.loc 1 404 1 is_stmt 1 view -0
 2532              		.cfi_startproc
 2533              		@ args = 0, pretend = 0, frame = 0
 2534              		@ frame_needed = 0, uses_anonymous_args = 0
 2535 0000 08B5     		push	{r3, lr}
 2536              		.save {r3, lr}
 2537              	.LCFI23:
 2538              		.cfi_def_cfa_offset 8
 2539              		.cfi_offset 3, -8
 2540              		.cfi_offset 14, -4
 413:Core/Src/main.cpp ****   huart1.Init.BaudRate = 115200;
 2541              		.loc 1 413 3 view .LVU703
 413:Core/Src/main.cpp ****   huart1.Init.BaudRate = 115200;
 2542              		.loc 1 413 19 is_stmt 0 view .LVU704
 2543 0002 0A48     		ldr	r0, .L151
 2544 0004 0A4B     		ldr	r3, .L151+4
 2545 0006 0360     		str	r3, [r0]
 414:Core/Src/main.cpp ****   huart1.Init.WordLength = UART_WORDLENGTH_8B;
 2546              		.loc 1 414 3 is_stmt 1 view .LVU705
 414:Core/Src/main.cpp ****   huart1.Init.WordLength = UART_WORDLENGTH_8B;
 2547              		.loc 1 414 24 is_stmt 0 view .LVU706
 2548 0008 4FF4E133 		mov	r3, #115200
 2549 000c 4360     		str	r3, [r0, #4]
 415:Core/Src/main.cpp ****   huart1.Init.StopBits = UART_STOPBITS_1;
 2550              		.loc 1 415 3 is_stmt 1 view .LVU707
 415:Core/Src/main.cpp ****   huart1.Init.StopBits = UART_STOPBITS_1;
 2551              		.loc 1 415 26 is_stmt 0 view .LVU708
 2552 000e 0023     		movs	r3, #0
 2553 0010 8360     		str	r3, [r0, #8]
 416:Core/Src/main.cpp ****   huart1.Init.Parity = UART_PARITY_NONE;
 2554              		.loc 1 416 3 is_stmt 1 view .LVU709
 416:Core/Src/main.cpp ****   huart1.Init.Parity = UART_PARITY_NONE;
 2555              		.loc 1 416 24 is_stmt 0 view .LVU710
 2556 0012 C360     		str	r3, [r0, #12]
 417:Core/Src/main.cpp ****   huart1.Init.Mode = UART_MODE_TX_RX;
 2557              		.loc 1 417 3 is_stmt 1 view .LVU711
 417:Core/Src/main.cpp ****   huart1.Init.Mode = UART_MODE_TX_RX;
 2558              		.loc 1 417 22 is_stmt 0 view .LVU712
 2559 0014 0361     		str	r3, [r0, #16]
 418:Core/Src/main.cpp ****   huart1.Init.HwFlowCtl = UART_HWCONTROL_NONE;
 2560              		.loc 1 418 3 is_stmt 1 view .LVU713
 418:Core/Src/main.cpp ****   huart1.Init.HwFlowCtl = UART_HWCONTROL_NONE;
 2561              		.loc 1 418 20 is_stmt 0 view .LVU714
 2562 0016 0C22     		movs	r2, #12
ARM GAS  C:\Users\Admin\AppData\Local\Temp\cc8l8Vwd.s 			page 78


 2563 0018 4261     		str	r2, [r0, #20]
 419:Core/Src/main.cpp ****   huart1.Init.OverSampling = UART_OVERSAMPLING_16;
 2564              		.loc 1 419 3 is_stmt 1 view .LVU715
 419:Core/Src/main.cpp ****   huart1.Init.OverSampling = UART_OVERSAMPLING_16;
 2565              		.loc 1 419 25 is_stmt 0 view .LVU716
 2566 001a 8361     		str	r3, [r0, #24]
 420:Core/Src/main.cpp ****   if (HAL_UART_Init(&huart1) != HAL_OK)
 2567              		.loc 1 420 3 is_stmt 1 view .LVU717
 420:Core/Src/main.cpp ****   if (HAL_UART_Init(&huart1) != HAL_OK)
 2568              		.loc 1 420 28 is_stmt 0 view .LVU718
 2569 001c C361     		str	r3, [r0, #28]
 421:Core/Src/main.cpp ****   {
 2570              		.loc 1 421 3 is_stmt 1 view .LVU719
 421:Core/Src/main.cpp ****   {
 2571              		.loc 1 421 20 is_stmt 0 view .LVU720
 2572 001e FFF7FEFF 		bl	HAL_UART_Init
 2573              	.LVL160:
 421:Core/Src/main.cpp ****   {
 2574              		.loc 1 421 3 view .LVU721
 2575 0022 00B9     		cbnz	r0, .L150
 428:Core/Src/main.cpp **** 
 2576              		.loc 1 428 1 view .LVU722
 2577 0024 08BD     		pop	{r3, pc}
 2578              	.L150:
 423:Core/Src/main.cpp ****   }
 2579              		.loc 1 423 5 is_stmt 1 view .LVU723
 423:Core/Src/main.cpp ****   }
 2580              		.loc 1 423 18 is_stmt 0 view .LVU724
 2581 0026 FFF7FEFF 		bl	Error_Handler
 2582              	.LVL161:
 2583              	.L152:
 2584 002a 00BF     		.align	2
 2585              	.L151:
 2586 002c 00000000 		.word	.LANCHOR9
 2587 0030 00380140 		.word	1073821696
 2588              		.cfi_endproc
 2589              	.LFE105:
 2590              		.fnend
 2592              		.section	.text.main,"ax",%progbits
 2593              		.align	1
 2594              		.global	main
 2595              		.syntax unified
 2596              		.thumb
 2597              		.thumb_func
 2598              		.fpu softvfp
 2600              	main:
 2601              		.fnstart
 2602              	.LFB107:
 496:Core/Src/main.cpp ****   /* USER CODE BEGIN 1 */
 2603              		.loc 1 496 1 is_stmt 1 view -0
 2604              		.cfi_startproc
 2605              		@ args = 0, pretend = 0, frame = 0
 2606              		@ frame_needed = 0, uses_anonymous_args = 0
 2607 0000 08B5     		push	{r3, lr}
 2608              		.save {r3, lr}
 2609              	.LCFI24:
 2610              		.cfi_def_cfa_offset 8
ARM GAS  C:\Users\Admin\AppData\Local\Temp\cc8l8Vwd.s 			page 79


 2611              		.cfi_offset 3, -8
 2612              		.cfi_offset 14, -4
 503:Core/Src/main.cpp **** 
 2613              		.loc 1 503 3 view .LVU726
 503:Core/Src/main.cpp **** 
 2614              		.loc 1 503 11 is_stmt 0 view .LVU727
 2615 0002 FFF7FEFF 		bl	HAL_Init
 2616              	.LVL162:
 510:Core/Src/main.cpp **** 
 2617              		.loc 1 510 3 is_stmt 1 view .LVU728
 510:Core/Src/main.cpp **** 
 2618              		.loc 1 510 21 is_stmt 0 view .LVU729
 2619 0006 FFF7FEFF 		bl	_Z18SystemClock_Configv
 2620              	.LVL163:
 517:Core/Src/main.cpp ****   MX_USART1_UART_Init();
 2621              		.loc 1 517 3 is_stmt 1 view .LVU730
 517:Core/Src/main.cpp ****   MX_USART1_UART_Init();
 2622              		.loc 1 517 15 is_stmt 0 view .LVU731
 2623 000a FFF7FEFF 		bl	_ZL12MX_GPIO_Initv
 2624              	.LVL164:
 518:Core/Src/main.cpp ****   /* USER CODE BEGIN 2 */
 2625              		.loc 1 518 3 is_stmt 1 view .LVU732
 518:Core/Src/main.cpp ****   /* USER CODE BEGIN 2 */
 2626              		.loc 1 518 22 is_stmt 0 view .LVU733
 2627 000e FFF7FEFF 		bl	_ZL19MX_USART1_UART_Initv
 2628              	.LVL165:
 521:Core/Src/main.cpp **** 
 2629              		.loc 1 521 3 is_stmt 1 view .LVU734
 521:Core/Src/main.cpp **** 
 2630              		.loc 1 521 14 is_stmt 0 view .LVU735
 2631 0012 0A48     		ldr	r0, .L156
 2632 0014 FFF7FEFF 		bl	_Z11UART_PrintfPKcz
 2633              	.LVL166:
 2634              	.L154:
 527:Core/Src/main.cpp ****   {
 2635              		.loc 1 527 3 is_stmt 1 discriminator 1 view .LVU736
 529:Core/Src/main.cpp **** 
 2636              		.loc 1 529 5 discriminator 1 view .LVU737
 529:Core/Src/main.cpp **** 
 2637              		.loc 1 529 19 is_stmt 0 discriminator 1 view .LVU738
 2638 0018 FFF7FEFF 		bl	_Z14timeTrackEventv
 2639              	.LVL167:
 531:Core/Src/main.cpp **** 
 2640              		.loc 1 531 5 is_stmt 1 discriminator 1 view .LVU739
 531:Core/Src/main.cpp **** 
 2641              		.loc 1 531 20 is_stmt 0 discriminator 1 view .LVU740
 2642 001c FFF7FEFF 		bl	_Z15changeModeEventv
 2643              	.LVL168:
 533:Core/Src/main.cpp **** 
 2644              		.loc 1 533 5 is_stmt 1 discriminator 1 view .LVU741
 533:Core/Src/main.cpp **** 
 2645              		.loc 1 533 26 is_stmt 0 discriminator 1 view .LVU742
 2646 0020 FFF7FEFF 		bl	_Z21doorChangedStateEventv
 2647              	.LVL169:
 535:Core/Src/main.cpp **** 
 2648              		.loc 1 535 5 is_stmt 1 discriminator 1 view .LVU743
 535:Core/Src/main.cpp **** 
ARM GAS  C:\Users\Admin\AppData\Local\Temp\cc8l8Vwd.s 			page 80


 2649              		.loc 1 535 21 is_stmt 0 discriminator 1 view .LVU744
 2650 0024 FFF7FEFF 		bl	_Z16intercomKeyEventv
 2651              	.LVL170:
 537:Core/Src/main.cpp **** 
 2652              		.loc 1 537 5 is_stmt 1 discriminator 1 view .LVU745
 537:Core/Src/main.cpp **** 
 2653              		.loc 1 537 23 is_stmt 0 discriminator 1 view .LVU746
 2654 0028 FFF7FEFF 		bl	_Z18buttonPressedEventv
 2655              	.LVL171:
 539:Core/Src/main.cpp **** 
 2656              		.loc 1 539 5 is_stmt 1 discriminator 1 view .LVU747
 539:Core/Src/main.cpp **** 
 2657              		.loc 1 539 19 is_stmt 0 discriminator 1 view .LVU748
 2658 002c FFF7FEFF 		bl	_Z14doorCheckEventv
 2659              	.LVL172:
 541:Core/Src/main.cpp **** 
 2660              		.loc 1 541 5 is_stmt 1 discriminator 1 view .LVU749
 541:Core/Src/main.cpp **** 
 2661              		.loc 1 541 20 is_stmt 0 discriminator 1 view .LVU750
 2662 0030 FFF7FEFF 		bl	_Z15greenLightEventv
 2663              	.LVL173:
 543:Core/Src/main.cpp **** 
 2664              		.loc 1 543 5 is_stmt 1 discriminator 1 view .LVU751
 543:Core/Src/main.cpp **** 
 2665              		.loc 1 543 14 is_stmt 0 discriminator 1 view .LVU752
 2666 0034 FFF7FEFF 		bl	_Z9bellEventv
 2667              	.LVL174:
 545:Core/Src/main.cpp ****     /* USER CODE END WHILE */
 2668              		.loc 1 545 5 is_stmt 1 discriminator 1 view .LVU753
 527:Core/Src/main.cpp ****   {
 2669              		.loc 1 527 3 discriminator 1 view .LVU754
 2670 0038 EEE7     		b	.L154
 2671              	.L157:
 2672 003a 00BF     		.align	2
 2673              	.L156:
 2674 003c 58000000 		.word	.LC18
 2675              		.cfi_endproc
 2676              	.LFE107:
 2677              		.fnend
 2679              		.section	.text._GLOBAL__sub_I_huart1,"ax",%progbits
 2680              		.align	1
 2681              		.syntax unified
 2682              		.thumb
 2683              		.thumb_func
 2684              		.fpu softvfp
 2686              	_GLOBAL__sub_I_huart1:
 2687              		.fnstart
 2688              	.LFB124:
 2689              		.loc 1 935 1 view -0
 2690              		.cfi_startproc
 2691              		@ args = 0, pretend = 0, frame = 0
 2692              		@ frame_needed = 0, uses_anonymous_args = 0
 2693 0000 08B5     		push	{r3, lr}
 2694              	.LCFI25:
 2695              		.cfi_def_cfa_offset 8
 2696              		.cfi_offset 3, -8
 2697              		.cfi_offset 14, -4
ARM GAS  C:\Users\Admin\AppData\Local\Temp\cc8l8Vwd.s 			page 81


 2698              		.loc 1 935 1 is_stmt 0 view .LVU756
 2699 0002 4FF6FF71 		movw	r1, #65535
 2700 0006 0120     		movs	r0, #1
 2701 0008 FFF7FEFF 		bl	_Z41__static_initialization_and_destruction_0ii
 2702              	.LVL175:
 2703 000c 08BD     		pop	{r3, pc}
 2704              		.cfi_endproc
 2705              	.LFE124:
 2706              		.cantunwind
 2707              		.fnend
 2709              		.section	.init_array,"aw",%init_array
 2710              		.align	2
 2711 0000 00000000 		.word	_GLOBAL__sub_I_huart1(target1)
 2712              		.global	bell
 2713              		.global	relay
 2714              		.global	timme
 2715              		.global	timmeTrack
 2716              		.global	outsideKeyRead
 2717              		.global	insideKeyRead
 2718              		.global	outsideButtonPressed
 2719              		.global	insideButtonPressed
 2720              		.global	door
 2721              		.global	alarmCause
 2722              		.global	previousWorkMode
 2723              		.global	workMode
 2724              		.global	wig_flag_inrt
 2725              		.global	huart1
 2726              		.section	.bss.bell,"aw",%nobits
 2727              		.align	2
 2728              		.set	.LANCHOR2,. + 0
 2731              	bell:
 2732 0000 00000000 		.space	12
 2732      00000000 
 2732      00000000 
 2733              		.section	.bss.door,"aw",%nobits
 2734              		.align	2
 2735              		.set	.LANCHOR0,. + 0
 2738              	door:
 2739 0000 0000     		.space	2
 2740              		.section	.bss.huart1,"aw",%nobits
 2741              		.align	2
 2742              		.set	.LANCHOR9,. + 0
 2745              	huart1:
 2746 0000 00000000 		.space	64
 2746      00000000 
 2746      00000000 
 2746      00000000 
 2746      00000000 
 2747              		.section	.bss.insideButtonPressed,"aw",%nobits
 2748              		.set	.LANCHOR4,. + 0
 2751              	insideButtonPressed:
 2752 0000 00       		.space	1
 2753              		.section	.bss.insideKeyRead,"aw",%nobits
 2754              		.set	.LANCHOR7,. + 0
 2757              	insideKeyRead:
 2758 0000 00       		.space	1
 2759              		.section	.bss.outsideButtonPressed,"aw",%nobits
ARM GAS  C:\Users\Admin\AppData\Local\Temp\cc8l8Vwd.s 			page 82


 2760              		.set	.LANCHOR5,. + 0
 2763              	outsideButtonPressed:
 2764 0000 00       		.space	1
 2765              		.section	.bss.outsideKeyRead,"aw",%nobits
 2766              		.set	.LANCHOR8,. + 0
 2769              	outsideKeyRead:
 2770 0000 00       		.space	1
 2771              		.section	.bss.previousWorkMode,"aw",%nobits
 2772              		.set	.LANCHOR12,. + 0
 2775              	previousWorkMode:
 2776 0000 00       		.space	1
 2777              		.section	.bss.relay,"aw",%nobits
 2778              		.align	2
 2779              		.set	.LANCHOR1,. + 0
 2782              	relay:
 2783 0000 00000000 		.space	8
 2783      00000000 
 2784              		.section	.bss.timme,"aw",%nobits
 2785              		.align	2
 2786              		.set	.LANCHOR11,. + 0
 2789              	timme:
 2790 0000 00000000 		.space	4
 2791              		.section	.bss.timmeTrack,"aw",%nobits
 2792              		.align	2
 2793              		.set	.LANCHOR10,. + 0
 2796              	timmeTrack:
 2797 0000 00000000 		.space	4
 2798              		.section	.bss.workMode,"aw",%nobits
 2799              		.set	.LANCHOR3,. + 0
 2802              	workMode:
 2803 0000 00       		.space	1
 2804              		.section	.data.alarmCause,"aw"
 2807              	alarmCause:
 2808 0000 01       		.byte	1
 2809              		.section	.data.wig_flag_inrt,"aw"
 2810              		.set	.LANCHOR6,. + 0
 2813              	wig_flag_inrt:
 2814 0000 01       		.byte	1
 2815              		.text
 2816              	.Letext0:
 2817              		.file 3 "Drivers/CMSIS/Device/ST/STM32F1xx/Include/stm32f103xg.h"
 2818              		.file 4 "e:\\dev\\tools\\gcc-arm-none-eabi-10-2020-q4-major\\arm-none-eabi\\include\\machine\\_def
 2819              		.file 5 "e:\\dev\\tools\\gcc-arm-none-eabi-10-2020-q4-major\\arm-none-eabi\\include\\sys\\_stdint.
 2820              		.file 6 "Drivers/CMSIS/Device/ST/STM32F1xx/Include/stm32f1xx.h"
 2821              		.file 7 "Drivers/STM32F1xx_HAL_Driver/Inc/stm32f1xx_hal_def.h"
 2822              		.file 8 "Drivers/STM32F1xx_HAL_Driver/Inc/stm32f1xx_hal_rcc.h"
 2823              		.file 9 "Drivers/STM32F1xx_HAL_Driver/Inc/stm32f1xx_hal_rcc_ex.h"
 2824              		.file 10 "Drivers/STM32F1xx_HAL_Driver/Inc/stm32f1xx_hal_gpio.h"
 2825              		.file 11 "Drivers/STM32F1xx_HAL_Driver/Inc/stm32f1xx_hal_dma.h"
 2826              		.file 12 "Drivers/STM32F1xx_HAL_Driver/Inc/stm32f1xx_hal_uart.h"
 2827              		.file 13 "Drivers/STM32F1xx_HAL_Driver/Inc/stm32f1xx_hal.h"
 2828              		.file 14 "e:\\dev\\tools\\gcc-arm-none-eabi-10-2020-q4-major\\lib\\gcc\\arm-none-eabi\\10.2.1\\inc
 2829              		.file 15 "e:\\dev\\tools\\gcc-arm-none-eabi-10-2020-q4-major\\arm-none-eabi\\include\\stdio.h"
 2830              		.file 16 "e:\\dev\\tools\\gcc-arm-none-eabi-10-2020-q4-major\\arm-none-eabi\\include\\string.h"
 2831              		.file 17 "Core/Inc/wiegand.h"
 2832              		.file 18 "Drivers/STM32F1xx_HAL_Driver/Inc/stm32f1xx_hal_cortex.h"
 2833              		.file 19 "<built-in>"
ARM GAS  C:\Users\Admin\AppData\Local\Temp\cc8l8Vwd.s 			page 83


ARM GAS  C:\Users\Admin\AppData\Local\Temp\cc8l8Vwd.s 			page 84


DEFINED SYMBOLS
                            *ABS*:00000000 main.cpp
C:\Users\Admin\AppData\Local\Temp\cc8l8Vwd.s:16     .text._Z41__static_initialization_and_destruction_0ii:00000000 $t
C:\Users\Admin\AppData\Local\Temp\cc8l8Vwd.s:23     .text._Z41__static_initialization_and_destruction_0ii:00000000 _Z41__static_initialization_and_destruction_0ii
C:\Users\Admin\AppData\Local\Temp\cc8l8Vwd.s:110    .text._Z41__static_initialization_and_destruction_0ii:00000028 $d
.ARM.exidx.text._Z41__static_initialization_and_destruction_0ii:00000000 $d
C:\Users\Admin\AppData\Local\Temp\cc8l8Vwd.s:119    .text._ZL12MX_GPIO_Initv:00000000 $t
C:\Users\Admin\AppData\Local\Temp\cc8l8Vwd.s:125    .text._ZL12MX_GPIO_Initv:00000000 _ZL12MX_GPIO_Initv
C:\Users\Admin\AppData\Local\Temp\cc8l8Vwd.s:344    .text._ZL12MX_GPIO_Initv:000000fc $d
.ARM.exidx.text._ZL12MX_GPIO_Initv:00000000 $d
C:\Users\Admin\AppData\Local\Temp\cc8l8Vwd.s:355    .text._Z10blinkEventv:00000000 $t
C:\Users\Admin\AppData\Local\Temp\cc8l8Vwd.s:362    .text._Z10blinkEventv:00000000 _Z10blinkEventv
  .ARM.exidx.text._Z10blinkEventv:00000000 $d
C:\Users\Admin\AppData\Local\Temp\cc8l8Vwd.s:378    .text._Z15greenLightEventv:00000000 $t
C:\Users\Admin\AppData\Local\Temp\cc8l8Vwd.s:385    .text._Z15greenLightEventv:00000000 _Z15greenLightEventv
C:\Users\Admin\AppData\Local\Temp\cc8l8Vwd.s:481    .text._Z15greenLightEventv:00000060 $d
.ARM.exidx.text._Z15greenLightEventv:00000000 $d
C:\Users\Admin\AppData\Local\Temp\cc8l8Vwd.s:488    .text._Z9bellEventv:00000000 $t
C:\Users\Admin\AppData\Local\Temp\cc8l8Vwd.s:495    .text._Z9bellEventv:00000000 _Z9bellEventv
C:\Users\Admin\AppData\Local\Temp\cc8l8Vwd.s:682    .text._Z9bellEventv:00000094 $d
    .ARM.exidx.text._Z9bellEventv:00000000 $d
C:\Users\Admin\AppData\Local\Temp\cc8l8Vwd.s:693    .text._Z10alarmEventv:00000000 $t
C:\Users\Admin\AppData\Local\Temp\cc8l8Vwd.s:700    .text._Z10alarmEventv:00000000 _Z10alarmEventv
  .ARM.exidx.text._Z10alarmEventv:00000000 $d
C:\Users\Admin\AppData\Local\Temp\cc8l8Vwd.s:716    .text.HAL_GPIO_EXTI_Callback:00000000 $t
C:\Users\Admin\AppData\Local\Temp\cc8l8Vwd.s:723    .text.HAL_GPIO_EXTI_Callback:00000000 HAL_GPIO_EXTI_Callback
C:\Users\Admin\AppData\Local\Temp\cc8l8Vwd.s:751    .text.HAL_GPIO_EXTI_Callback:00000014 $d
C:\Users\Admin\AppData\Local\Temp\cc8l8Vwd.s:759    .text.HAL_GPIO_EXTI_Callback:0000001c $t
C:\Users\Admin\AppData\Local\Temp\cc8l8Vwd.s:938    .text.HAL_GPIO_EXTI_Callback:000000b8 $d
.ARM.extab.text.HAL_GPIO_EXTI_Callback:00000000 $d
.ARM.exidx.text.HAL_GPIO_EXTI_Callback:00000000 $d
C:\Users\Admin\AppData\Local\Temp\cc8l8Vwd.s:950    .text._Z11UART_PrintfPKcz:00000000 $t
C:\Users\Admin\AppData\Local\Temp\cc8l8Vwd.s:957    .text._Z11UART_PrintfPKcz:00000000 _Z11UART_PrintfPKcz
C:\Users\Admin\AppData\Local\Temp\cc8l8Vwd.s:1028   .text._Z11UART_PrintfPKcz:00000038 $d
.ARM.extab.text._Z11UART_PrintfPKcz:00000000 $d
.ARM.exidx.text._Z11UART_PrintfPKcz:00000000 $d
C:\Users\Admin\AppData\Local\Temp\cc8l8Vwd.s:1034   .rodata._Z14timeTrackEventv.str1.4:00000000 $d
C:\Users\Admin\AppData\Local\Temp\cc8l8Vwd.s:1041   .text._Z14timeTrackEventv:00000000 $t
C:\Users\Admin\AppData\Local\Temp\cc8l8Vwd.s:1048   .text._Z14timeTrackEventv:00000000 _Z14timeTrackEventv
C:\Users\Admin\AppData\Local\Temp\cc8l8Vwd.s:1105   .text._Z14timeTrackEventv:0000003c $d
.ARM.extab.text._Z14timeTrackEventv:00000000 $d
.ARM.exidx.text._Z14timeTrackEventv:00000000 $d
C:\Users\Admin\AppData\Local\Temp\cc8l8Vwd.s:1115   .rodata._Z18buttonPressedEventv.str1.4:00000000 $d
C:\Users\Admin\AppData\Local\Temp\cc8l8Vwd.s:1128   .text._Z18buttonPressedEventv:00000000 $t
C:\Users\Admin\AppData\Local\Temp\cc8l8Vwd.s:1135   .text._Z18buttonPressedEventv:00000000 _Z18buttonPressedEventv
C:\Users\Admin\AppData\Local\Temp\cc8l8Vwd.s:1304   .text._Z18buttonPressedEventv:00000080 $d
.ARM.exidx.text._Z18buttonPressedEventv:00000000 $d
C:\Users\Admin\AppData\Local\Temp\cc8l8Vwd.s:1319   .rodata._Z14doorCheckEventv.str1.4:00000000 $d
C:\Users\Admin\AppData\Local\Temp\cc8l8Vwd.s:1329   .text._Z14doorCheckEventv:00000000 $t
C:\Users\Admin\AppData\Local\Temp\cc8l8Vwd.s:1336   .text._Z14doorCheckEventv:00000000 _Z14doorCheckEventv
C:\Users\Admin\AppData\Local\Temp\cc8l8Vwd.s:1500   .text._Z14doorCheckEventv:0000006c $d
.ARM.extab.text._Z14doorCheckEventv:00000000 $d
.ARM.exidx.text._Z14doorCheckEventv:00000000 $d
C:\Users\Admin\AppData\Local\Temp\cc8l8Vwd.s:1514   .rodata._Z21doorChangedStateEventv.str1.4:00000000 $d
C:\Users\Admin\AppData\Local\Temp\cc8l8Vwd.s:1521   .text._Z21doorChangedStateEventv:00000000 $t
C:\Users\Admin\AppData\Local\Temp\cc8l8Vwd.s:1528   .text._Z21doorChangedStateEventv:00000000 _Z21doorChangedStateEventv
C:\Users\Admin\AppData\Local\Temp\cc8l8Vwd.s:1674   .text._Z21doorChangedStateEventv:00000058 $d
ARM GAS  C:\Users\Admin\AppData\Local\Temp\cc8l8Vwd.s 			page 85


.ARM.extab.text._Z21doorChangedStateEventv:00000000 $d
.ARM.exidx.text._Z21doorChangedStateEventv:00000000 $d
C:\Users\Admin\AppData\Local\Temp\cc8l8Vwd.s:1689   .text._Z10verifyCodem:00000000 $t
C:\Users\Admin\AppData\Local\Temp\cc8l8Vwd.s:1696   .text._Z10verifyCodem:00000000 _Z10verifyCodem
C:\Users\Admin\AppData\Local\Temp\cc8l8Vwd.s:1744   .text._Z10verifyCodem:00000018 $d
  .ARM.exidx.text._Z10verifyCodem:00000000 $d
C:\Users\Admin\AppData\Local\Temp\cc8l8Vwd.s:1751   .rodata._Z16intercomKeyEventv.str1.4:00000000 $d
C:\Users\Admin\AppData\Local\Temp\cc8l8Vwd.s:1764   .text._Z16intercomKeyEventv:00000000 $t
C:\Users\Admin\AppData\Local\Temp\cc8l8Vwd.s:1771   .text._Z16intercomKeyEventv:00000000 _Z16intercomKeyEventv
C:\Users\Admin\AppData\Local\Temp\cc8l8Vwd.s:1942   .text._Z16intercomKeyEventv:00000090 $d
.ARM.exidx.text._Z16intercomKeyEventv:00000000 $d
C:\Users\Admin\AppData\Local\Temp\cc8l8Vwd.s:1959   .rodata._Z10switchModev.str1.4:00000000 $d
C:\Users\Admin\AppData\Local\Temp\cc8l8Vwd.s:1975   .text._Z10switchModev:00000000 $t
C:\Users\Admin\AppData\Local\Temp\cc8l8Vwd.s:1982   .text._Z10switchModev:00000000 _Z10switchModev
C:\Users\Admin\AppData\Local\Temp\cc8l8Vwd.s:2003   .text._Z10switchModev:0000000e $d
C:\Users\Admin\AppData\Local\Temp\cc8l8Vwd.s:2007   .text._Z10switchModev:00000012 $t
C:\Users\Admin\AppData\Local\Temp\cc8l8Vwd.s:2279   .text._Z10switchModev:000000d0 $d
  .ARM.extab.text._Z10switchModev:00000000 $d
  .ARM.exidx.text._Z10switchModev:00000000 $d
C:\Users\Admin\AppData\Local\Temp\cc8l8Vwd.s:2294   .rodata._Z15changeModeEventv.str1.4:00000000 $d
C:\Users\Admin\AppData\Local\Temp\cc8l8Vwd.s:2298   .text._Z15changeModeEventv:00000000 $t
C:\Users\Admin\AppData\Local\Temp\cc8l8Vwd.s:2305   .text._Z15changeModeEventv:00000000 _Z15changeModeEventv
C:\Users\Admin\AppData\Local\Temp\cc8l8Vwd.s:2357   .text._Z15changeModeEventv:00000030 $d
.ARM.extab.text._Z15changeModeEventv:00000000 $d
.ARM.exidx.text._Z15changeModeEventv:00000000 $d
C:\Users\Admin\AppData\Local\Temp\cc8l8Vwd.s:2365   .text.Error_Handler:00000000 $t
C:\Users\Admin\AppData\Local\Temp\cc8l8Vwd.s:2372   .text.Error_Handler:00000000 Error_Handler
    .ARM.exidx.text.Error_Handler:00000000 $d
C:\Users\Admin\AppData\Local\Temp\cc8l8Vwd.s:2406   .text._Z18SystemClock_Configv:00000000 $t
C:\Users\Admin\AppData\Local\Temp\cc8l8Vwd.s:2413   .text._Z18SystemClock_Configv:00000000 _Z18SystemClock_Configv
.ARM.exidx.text._Z18SystemClock_Configv:00000000 $d
C:\Users\Admin\AppData\Local\Temp\cc8l8Vwd.s:2522   .text._ZL19MX_USART1_UART_Initv:00000000 $t
C:\Users\Admin\AppData\Local\Temp\cc8l8Vwd.s:2528   .text._ZL19MX_USART1_UART_Initv:00000000 _ZL19MX_USART1_UART_Initv
C:\Users\Admin\AppData\Local\Temp\cc8l8Vwd.s:2586   .text._ZL19MX_USART1_UART_Initv:0000002c $d
.ARM.extab.text._ZL19MX_USART1_UART_Initv:00000000 $d
.ARM.exidx.text._ZL19MX_USART1_UART_Initv:00000000 $d
C:\Users\Admin\AppData\Local\Temp\cc8l8Vwd.s:2593   .text.main:00000000 $t
C:\Users\Admin\AppData\Local\Temp\cc8l8Vwd.s:2600   .text.main:00000000 main
C:\Users\Admin\AppData\Local\Temp\cc8l8Vwd.s:2674   .text.main:0000003c $d
             .ARM.extab.text.main:00000000 $d
             .ARM.exidx.text.main:00000000 $d
C:\Users\Admin\AppData\Local\Temp\cc8l8Vwd.s:2680   .text._GLOBAL__sub_I_huart1:00000000 $t
C:\Users\Admin\AppData\Local\Temp\cc8l8Vwd.s:2686   .text._GLOBAL__sub_I_huart1:00000000 _GLOBAL__sub_I_huart1
.ARM.exidx.text._GLOBAL__sub_I_huart1:00000000 $d
C:\Users\Admin\AppData\Local\Temp\cc8l8Vwd.s:2710   .init_array:00000000 $d
C:\Users\Admin\AppData\Local\Temp\cc8l8Vwd.s:2731   .bss.bell:00000000 bell
C:\Users\Admin\AppData\Local\Temp\cc8l8Vwd.s:2782   .bss.relay:00000000 relay
C:\Users\Admin\AppData\Local\Temp\cc8l8Vwd.s:2789   .bss.timme:00000000 timme
C:\Users\Admin\AppData\Local\Temp\cc8l8Vwd.s:2796   .bss.timmeTrack:00000000 timmeTrack
C:\Users\Admin\AppData\Local\Temp\cc8l8Vwd.s:2769   .bss.outsideKeyRead:00000000 outsideKeyRead
C:\Users\Admin\AppData\Local\Temp\cc8l8Vwd.s:2757   .bss.insideKeyRead:00000000 insideKeyRead
C:\Users\Admin\AppData\Local\Temp\cc8l8Vwd.s:2763   .bss.outsideButtonPressed:00000000 outsideButtonPressed
C:\Users\Admin\AppData\Local\Temp\cc8l8Vwd.s:2751   .bss.insideButtonPressed:00000000 insideButtonPressed
C:\Users\Admin\AppData\Local\Temp\cc8l8Vwd.s:2738   .bss.door:00000000 door
C:\Users\Admin\AppData\Local\Temp\cc8l8Vwd.s:2807   .data.alarmCause:00000000 alarmCause
C:\Users\Admin\AppData\Local\Temp\cc8l8Vwd.s:2775   .bss.previousWorkMode:00000000 previousWorkMode
C:\Users\Admin\AppData\Local\Temp\cc8l8Vwd.s:2802   .bss.workMode:00000000 workMode
ARM GAS  C:\Users\Admin\AppData\Local\Temp\cc8l8Vwd.s 			page 86


C:\Users\Admin\AppData\Local\Temp\cc8l8Vwd.s:2813   .data.wig_flag_inrt:00000000 wig_flag_inrt
C:\Users\Admin\AppData\Local\Temp\cc8l8Vwd.s:2745   .bss.huart1:00000000 huart1
C:\Users\Admin\AppData\Local\Temp\cc8l8Vwd.s:2727   .bss.bell:00000000 $d
C:\Users\Admin\AppData\Local\Temp\cc8l8Vwd.s:2734   .bss.door:00000000 $d
C:\Users\Admin\AppData\Local\Temp\cc8l8Vwd.s:2741   .bss.huart1:00000000 $d
C:\Users\Admin\AppData\Local\Temp\cc8l8Vwd.s:2752   .bss.insideButtonPressed:00000000 $d
C:\Users\Admin\AppData\Local\Temp\cc8l8Vwd.s:2758   .bss.insideKeyRead:00000000 $d
C:\Users\Admin\AppData\Local\Temp\cc8l8Vwd.s:2764   .bss.outsideButtonPressed:00000000 $d
C:\Users\Admin\AppData\Local\Temp\cc8l8Vwd.s:2770   .bss.outsideKeyRead:00000000 $d
C:\Users\Admin\AppData\Local\Temp\cc8l8Vwd.s:2776   .bss.previousWorkMode:00000000 $d
C:\Users\Admin\AppData\Local\Temp\cc8l8Vwd.s:2778   .bss.relay:00000000 $d
C:\Users\Admin\AppData\Local\Temp\cc8l8Vwd.s:2785   .bss.timme:00000000 $d
C:\Users\Admin\AppData\Local\Temp\cc8l8Vwd.s:2792   .bss.timmeTrack:00000000 $d
C:\Users\Admin\AppData\Local\Temp\cc8l8Vwd.s:2803   .bss.workMode:00000000 $d

UNDEFINED SYMBOLS
HAL_GPIO_WritePin
HAL_GPIO_Init
HAL_NVIC_SetPriority
HAL_NVIC_EnableIRQ
__aeabi_unwind_cpp_pr0
HAL_GetTick
HAL_GPIO_ReadPin
ReadD0
ReadD1
__aeabi_unwind_cpp_pr1
vsnprintf
strlen
HAL_UART_Transmit
wig_available
getCode
memset
HAL_RCC_OscConfig
HAL_RCC_ClockConfig
HAL_UART_Init
HAL_Init
