ARM GAS  C:\Users\Admin\AppData\Local\Temp\ccIdiaoq.s 			page 1


   1              		.cpu cortex-m3
   2              		.eabi_attribute 20, 1
   3              		.eabi_attribute 21, 1
   4              		.eabi_attribute 23, 3
   5              		.eabi_attribute 24, 1
   6              		.eabi_attribute 25, 1
   7              		.eabi_attribute 26, 1
   8              		.eabi_attribute 30, 1
   9              		.eabi_attribute 34, 1
  10              		.eabi_attribute 18, 4
  11              		.file	"Mode.cpp"
  12              		.text
  13              	.Ltext0:
  14              		.cfi_sections	.debug_frame
  15              		.section	.text._ZN4ModeD2Ev,"ax",%progbits
  16              		.align	1
  17              		.global	_ZN4ModeD2Ev
  18              		.arch armv7-m
  19              		.syntax unified
  20              		.thumb
  21              		.thumb_func
  22              		.fpu softvfp
  24              	_ZN4ModeD2Ev:
  25              		.fnstart
  26              	.LVL0:
  27              	.LFB1:
  28              		.file 1 "Core/Src/Intercom/Mode.cpp"
   1:Core/Src/Intercom/Mode.cpp **** #include "Intercom/Intercom.h"
   2:Core/Src/Intercom/Mode.cpp **** 
   3:Core/Src/Intercom/Mode.cpp **** Mode::~Mode()
  29              		.loc 1 3 1 view -0
  30              		.cfi_startproc
  31              		@ args = 0, pretend = 0, frame = 0
  32              		@ frame_needed = 0, uses_anonymous_args = 0
  33              		@ link register save eliminated.
  34              	.LBB2:
  35              		.loc 1 3 13 is_stmt 0 view .LVU1
  36 0000 014B     		ldr	r3, .L2
  37 0002 0360     		str	r3, [r0]
  38              	.LBE2:
   4:Core/Src/Intercom/Mode.cpp **** {
   5:Core/Src/Intercom/Mode.cpp **** }
  39              		.loc 1 5 1 view .LVU2
  40 0004 7047     		bx	lr
  41              	.L3:
  42 0006 00BF     		.align	2
  43              	.L2:
  44 0008 08000000 		.word	.LANCHOR0+8
  45              		.cfi_endproc
  46              	.LFE1:
  47              		.cantunwind
  48              		.fnend
  50              		.global	_ZN4ModeD1Ev
  51              		.thumb_set _ZN4ModeD1Ev,_ZN4ModeD2Ev
  52              		.section	.text._ZN4ModeD0Ev,"ax",%progbits
  53              		.align	1
  54              		.global	_ZN4ModeD0Ev
ARM GAS  C:\Users\Admin\AppData\Local\Temp\ccIdiaoq.s 			page 2


  55              		.syntax unified
  56              		.thumb
  57              		.thumb_func
  58              		.fpu softvfp
  60              	_ZN4ModeD0Ev:
  61              		.fnstart
  62              	.LVL1:
  63              	.LFB3:
   3:Core/Src/Intercom/Mode.cpp **** 
  64              		.loc 1 3 1 is_stmt 1 view -0
  65              		.cfi_startproc
  66              		@ args = 0, pretend = 0, frame = 0
  67              		@ frame_needed = 0, uses_anonymous_args = 0
   3:Core/Src/Intercom/Mode.cpp **** 
  68              		.loc 1 3 1 is_stmt 0 view .LVU4
  69 0000 10B5     		push	{r4, lr}
  70              	.LCFI0:
  71              		.cfi_def_cfa_offset 8
  72              		.cfi_offset 4, -8
  73              		.cfi_offset 14, -4
  74 0002 0446     		mov	r4, r0
  75              		.loc 1 5 1 view .LVU5
  76 0004 FFF7FEFF 		bl	_ZN4ModeD1Ev
  77              	.LVL2:
  78              		.loc 1 5 1 view .LVU6
  79 0008 0821     		movs	r1, #8
  80 000a 2046     		mov	r0, r4
  81 000c FFF7FEFF 		bl	_ZdlPvj
  82              	.LVL3:
  83 0010 2046     		mov	r0, r4
  84 0012 10BD     		pop	{r4, pc}
  85              		.loc 1 5 1 view .LVU7
  86              		.cfi_endproc
  87              	.LFE3:
  88              		.cantunwind
  89              		.fnend
  91              		.section	.text._ZN4Mode7SetModeEP8Intercom,"ax",%progbits
  92              		.align	1
  93              		.global	_ZN4Mode7SetModeEP8Intercom
  94              		.syntax unified
  95              		.thumb
  96              		.thumb_func
  97              		.fpu softvfp
  99              	_ZN4Mode7SetModeEP8Intercom:
 100              		.fnstart
 101              	.LVL4:
 102              	.LFB4:
   6:Core/Src/Intercom/Mode.cpp **** 
   7:Core/Src/Intercom/Mode.cpp **** void Mode::SetMode(Intercom *intercom)
   8:Core/Src/Intercom/Mode.cpp **** {
 103              		.loc 1 8 1 is_stmt 1 view -0
 104              		.cfi_startproc
 105              		@ args = 0, pretend = 0, frame = 0
 106              		@ frame_needed = 0, uses_anonymous_args = 0
 107              		@ link register save eliminated.
   9:Core/Src/Intercom/Mode.cpp ****     this->intercom = intercom;
 108              		.loc 1 9 5 view .LVU9
ARM GAS  C:\Users\Admin\AppData\Local\Temp\ccIdiaoq.s 			page 3


 109              		.loc 1 9 20 is_stmt 0 view .LVU10
 110 0000 4160     		str	r1, [r0, #4]
  10:Core/Src/Intercom/Mode.cpp **** }...
 111              		.loc 1 10 1 view .LVU11
 112 0002 7047     		bx	lr
 113              		.cfi_endproc
 114              	.LFE4:
 115              		.cantunwind
 116              		.fnend
 118              		.global	_ZTS4Mode
 119              		.global	_ZTI4Mode
 120              		.global	_ZTV4Mode
 121              		.section	.rodata._ZTI4Mode,"a"
 122              		.align	2
 125              	_ZTI4Mode:
 126 0000 08000000 		.word	_ZTVN10__cxxabiv117__class_type_infoE+8
 127 0004 00000000 		.word	_ZTS4Mode
 128              		.section	.rodata._ZTS4Mode,"a"
 129              		.align	2
 132              	_ZTS4Mode:
 133 0000 344D6F64 		.ascii	"4Mode\000"
 133      6500
 134              		.section	.rodata._ZTV4Mode,"a"
 135              		.align	2
 136              		.set	.LANCHOR0,. + 0
 139              	_ZTV4Mode:
 140 0000 00000000 		.word	0
 141 0004 00000000 		.word	_ZTI4Mode
 142 0008 00000000 		.word	0
 143 000c 00000000 		.word	0
 144 0010 00000000 		.word	__cxa_pure_virtual
 145              		.text
 146              	.Letext0:
 147              		.file 2 "e:\\dev\\tools\\gcc-arm-none-eabi-10-2020-q4-major\\arm-none-eabi\\include\\c++\\10.2.1\\
 148              		.file 3 "e:\\dev\\tools\\gcc-arm-none-eabi-10-2020-q4-major\\arm-none-eabi\\include\\c++\\10.2.1\\
 149              		.file 4 "e:\\dev\\tools\\gcc-arm-none-eabi-10-2020-q4-major\\arm-none-eabi\\include\\machine\\_def
 150              		.file 5 "e:\\dev\\tools\\gcc-arm-none-eabi-10-2020-q4-major\\arm-none-eabi\\include\\sys\\_stdint.
 151              		.file 6 "e:\\dev\\tools\\gcc-arm-none-eabi-10-2020-q4-major\\arm-none-eabi\\include\\stdint.h"
 152              		.file 7 "Core/Inc/Intercom/Intercom.h"
 153              		.file 8 "<built-in>"
 154              		.file 9 "Core/Inc/Side.h"
ARM GAS  C:\Users\Admin\AppData\Local\Temp\ccIdiaoq.s 			page 4

