ARM GAS  C:\Users\Admin\AppData\Local\Temp\ccRA1E2t.s 			page 1


   1              		.cpu cortex-m3
   2              		.eabi_attribute 20, 1
   3              		.eabi_attribute 21, 1
   4              		.eabi_attribute 23, 3
   5              		.eabi_attribute 24, 1
   6              		.eabi_attribute 25, 1
   7              		.eabi_attribute 26, 1
   8              		.eabi_attribute 30, 1
   9              		.eabi_attribute 34, 1
  10              		.eabi_attribute 18, 4
  11              		.file	"PinIn.cpp"
  12              		.text
  13              	.Ltext0:
  14              		.cfi_sections	.debug_frame
  15              		.section	.text._ZN5PinInC2EP12GPIO_TypeDeft,"ax",%progbits
  16              		.align	1
  17              		.global	_ZN5PinInC2EP12GPIO_TypeDeft
  18              		.arch armv7-m
  19              		.syntax unified
  20              		.thumb
  21              		.thumb_func
  22              		.fpu softvfp
  24              	_ZN5PinInC2EP12GPIO_TypeDeft:
  25              		.fnstart
  26              	.LVL0:
  27              	.LFB73:
  28              		.file 1 "Core/Src/PinIn.cpp"
   1:Core/Src/PinIn.cpp **** #include "PinIn.h"
   2:Core/Src/PinIn.cpp **** 
   3:Core/Src/PinIn.cpp **** PinIn::PinIn(GPIO_TypeDef *GPIOx, uint16_t GPIO_Pin)
  29              		.loc 1 3 1 view -0
  30              		.cfi_startproc
  31              		@ args = 0, pretend = 0, frame = 16
  32              		@ frame_needed = 0, uses_anonymous_args = 0
  33              		.loc 1 3 1 is_stmt 0 view .LVU1
  34 0000 10B5     		push	{r4, lr}
  35              		.save {r4, lr}
  36              	.LCFI0:
  37              		.cfi_def_cfa_offset 8
  38              		.cfi_offset 4, -8
  39              		.cfi_offset 14, -4
  40              		.pad #16
  41 0002 84B0     		sub	sp, sp, #16
  42              	.LCFI1:
  43              		.cfi_def_cfa_offset 24
  44 0004 0446     		mov	r4, r0
  45 0006 0846     		mov	r0, r1
  46              	.LVL1:
  47              	.LBB2:
   4:Core/Src/PinIn.cpp **** {
   5:Core/Src/PinIn.cpp ****     this->GPIOx = GPIOx;
  48              		.loc 1 5 5 is_stmt 1 view .LVU2
  49              		.loc 1 5 17 is_stmt 0 view .LVU3
  50 0008 2160     		str	r1, [r4]
   6:Core/Src/PinIn.cpp ****     this->GPIO_Pin = GPIO_Pin;
  51              		.loc 1 6 5 is_stmt 1 view .LVU4
  52              		.loc 1 6 20 is_stmt 0 view .LVU5
ARM GAS  C:\Users\Admin\AppData\Local\Temp\ccRA1E2t.s 			page 2


  53 000a A280     		strh	r2, [r4, #4]	@ movhi
   7:Core/Src/PinIn.cpp **** 
   8:Core/Src/PinIn.cpp ****     GPIO_InitTypeDef GPIO_InitStruct = {0};
  54              		.loc 1 8 5 is_stmt 1 view .LVU6
  55              		.loc 1 8 22 is_stmt 0 view .LVU7
  56 000c 0023     		movs	r3, #0
  57 000e 0093     		str	r3, [sp]
  58 0010 0193     		str	r3, [sp, #4]
  59 0012 0293     		str	r3, [sp, #8]
  60 0014 0393     		str	r3, [sp, #12]
   9:Core/Src/PinIn.cpp ****     GPIO_InitStruct.Pin = GPIO_Pin;
  61              		.loc 1 9 5 is_stmt 1 view .LVU8
  62              		.loc 1 9 25 is_stmt 0 view .LVU9
  63 0016 0092     		str	r2, [sp]
  10:Core/Src/PinIn.cpp ****     GPIO_InitStruct.Mode = GPIO_MODE_OUTPUT_PP;
  64              		.loc 1 10 5 is_stmt 1 view .LVU10
  65              		.loc 1 10 26 is_stmt 0 view .LVU11
  66 0018 0123     		movs	r3, #1
  67 001a 0193     		str	r3, [sp, #4]
  11:Core/Src/PinIn.cpp ****     GPIO_InitStruct.Pull = GPIO_NOPULL;
  68              		.loc 1 11 5 is_stmt 1 view .LVU12
  12:Core/Src/PinIn.cpp ****     GPIO_InitStruct.Speed = GPIO_SPEED_FREQ_LOW;
  69              		.loc 1 12 5 view .LVU13
  70              		.loc 1 12 27 is_stmt 0 view .LVU14
  71 001c 0223     		movs	r3, #2
  72 001e 0393     		str	r3, [sp, #12]
  13:Core/Src/PinIn.cpp ****     HAL_GPIO_Init(GPIOx, &GPIO_InitStruct);
  73              		.loc 1 13 5 is_stmt 1 view .LVU15
  74              		.loc 1 13 18 is_stmt 0 view .LVU16
  75 0020 6946     		mov	r1, sp
  76              	.LVL2:
  77              		.loc 1 13 18 view .LVU17
  78 0022 FFF7FEFF 		bl	HAL_GPIO_Init
  79              	.LVL3:
  80              		.loc 1 13 18 view .LVU18
  81              	.LBE2:
  14:Core/Src/PinIn.cpp **** }
  82              		.loc 1 14 1 view .LVU19
  83 0026 2046     		mov	r0, r4
  84 0028 04B0     		add	sp, sp, #16
  85              	.LCFI2:
  86              		.cfi_def_cfa_offset 8
  87              		@ sp needed
  88 002a 10BD     		pop	{r4, pc}
  89              		.loc 1 14 1 view .LVU20
  90              		.cfi_endproc
  91              	.LFE73:
  92              		.fnend
  94              		.global	_ZN5PinInC1EP12GPIO_TypeDeft
  95              		.thumb_set _ZN5PinInC1EP12GPIO_TypeDeft,_ZN5PinInC2EP12GPIO_TypeDeft
  96              		.section	.text._ZN5PinIn8getStateEv,"ax",%progbits
  97              		.align	1
  98              		.global	_ZN5PinIn8getStateEv
  99              		.syntax unified
 100              		.thumb
 101              		.thumb_func
 102              		.fpu softvfp
ARM GAS  C:\Users\Admin\AppData\Local\Temp\ccRA1E2t.s 			page 3


 104              	_ZN5PinIn8getStateEv:
 105              		.fnstart
 106              	.LVL4:
 107              	.LFB75:
  15:Core/Src/PinIn.cpp **** 
  16:Core/Src/PinIn.cpp **** State PinIn::getState()
  17:Core/Src/PinIn.cpp **** {
 108              		.loc 1 17 1 is_stmt 1 view -0
 109              		.cfi_startproc
 110              		@ args = 0, pretend = 0, frame = 0
 111              		@ frame_needed = 0, uses_anonymous_args = 0
 112              		.loc 1 17 1 is_stmt 0 view .LVU22
 113 0000 08B5     		push	{r3, lr}
 114              		.save {r3, lr}
 115              	.LCFI3:
 116              		.cfi_def_cfa_offset 8
 117              		.cfi_offset 3, -8
 118              		.cfi_offset 14, -4
  18:Core/Src/PinIn.cpp ****     if (HAL_GPIO_ReadPin(GPIOx, GPIO_Pin) == GPIO_PIN_SET)
 119              		.loc 1 18 5 is_stmt 1 view .LVU23
 120              		.loc 1 18 25 is_stmt 0 view .LVU24
 121 0002 8188     		ldrh	r1, [r0, #4]
 122 0004 0068     		ldr	r0, [r0]
 123              	.LVL5:
 124              		.loc 1 18 25 view .LVU25
 125 0006 FFF7FEFF 		bl	HAL_GPIO_ReadPin
 126              	.LVL6:
 127              		.loc 1 18 5 view .LVU26
 128 000a 0128     		cmp	r0, #1
 129 000c 01D0     		beq	.L5
  19:Core/Src/PinIn.cpp ****     {
  20:Core/Src/PinIn.cpp ****         return State::On;
  21:Core/Src/PinIn.cpp ****     }
  22:Core/Src/PinIn.cpp **** 
  23:Core/Src/PinIn.cpp ****     return State::Off;
 130              		.loc 1 23 19 view .LVU27
 131 000e 0020     		movs	r0, #0
 132              	.L3:
  24:Core/Src/PinIn.cpp **** }...
 133              		.loc 1 24 1 view .LVU28
 134 0010 08BD     		pop	{r3, pc}
 135              	.L5:
  20:Core/Src/PinIn.cpp ****         return State::On;
 136              		.loc 1 20 23 view .LVU29
 137 0012 0120     		movs	r0, #1
 138 0014 FCE7     		b	.L3
 139              		.cfi_endproc
 140              	.LFE75:
 141              		.fnend
 143              		.text
 144              	.Letext0:
 145              		.file 2 "e:\\dev\\tools\\gcc-arm-none-eabi-10-2020-q4-major\\arm-none-eabi\\include\\machine\\_def
 146              		.file 3 "e:\\dev\\tools\\gcc-arm-none-eabi-10-2020-q4-major\\arm-none-eabi\\include\\sys\\_stdint.
 147              		.file 4 "Drivers/CMSIS/Device/ST/STM32F1xx/Include/stm32f103xg.h"
 148              		.file 5 "Drivers/STM32F1xx_HAL_Driver/Inc/stm32f1xx_hal_gpio.h"
 149              		.file 6 "Core/Inc/PinIn.h"
 150              		.file 7 "Core/Inc/State.h"
ARM GAS  C:\Users\Admin\AppData\Local\Temp\ccRA1E2t.s 			page 4


ARM GAS  C:\Users\Admin\AppData\Local\Temp\ccRA1E2t.s 			page 5

