ARM GAS  C:\Users\Admin\AppData\Local\Temp\ccvYiLa7.s 			page 1


   1              		.cpu cortex-m3
   2              		.eabi_attribute 20, 1
   3              		.eabi_attribute 21, 1
   4              		.eabi_attribute 23, 3
   5              		.eabi_attribute 24, 1
   6              		.eabi_attribute 25, 1
   7              		.eabi_attribute 26, 1
   8              		.eabi_attribute 30, 1
   9              		.eabi_attribute 34, 1
  10              		.eabi_attribute 18, 4
  11              		.file	"Timer.cpp"
  12              		.text
  13              	.Ltext0:
  14              		.cfi_sections	.debug_frame
  15              		.section	.text._ZN5TimerC2Emm,"ax",%progbits
  16              		.align	1
  17              		.global	_ZN5TimerC2Emm
  18              		.arch armv7-m
  19              		.syntax unified
  20              		.thumb
  21              		.thumb_func
  22              		.fpu softvfp
  24              	_ZN5TimerC2Emm:
  25              		.fnstart
  26              	.LVL0:
  27              	.LFB76:
  28              		.file 1 "Core/Src/Timer.cpp"
   1:Core/Src/Timer.cpp **** #include "Timer.h"
   2:Core/Src/Timer.cpp **** 
   3:Core/Src/Timer.cpp **** Timer::Timer()
   4:Core/Src/Timer.cpp **** {
   5:Core/Src/Timer.cpp ****     start();
   6:Core/Src/Timer.cpp ****     setLastTick();
   7:Core/Src/Timer.cpp **** }
   8:Core/Src/Timer.cpp **** 
   9:Core/Src/Timer.cpp **** Timer::Timer(uint32_t startTime, uint32_t lastTick)
  29              		.loc 1 9 1 view -0
  30              		.cfi_startproc
  31              		@ args = 0, pretend = 0, frame = 0
  32              		@ frame_needed = 0, uses_anonymous_args = 0
  33              		@ link register save eliminated.
  34              	.LBB2:
  10:Core/Src/Timer.cpp **** {
  11:Core/Src/Timer.cpp ****     this->startTime = startTime;
  35              		.loc 1 11 5 view .LVU1
  36              		.loc 1 11 21 is_stmt 0 view .LVU2
  37 0000 0160     		str	r1, [r0]
  12:Core/Src/Timer.cpp ****     this->lastTick = lastTick;
  38              		.loc 1 12 5 is_stmt 1 view .LVU3
  39              		.loc 1 12 20 is_stmt 0 view .LVU4
  40 0002 4260     		str	r2, [r0, #4]
  41              	.LBE2:
  13:Core/Src/Timer.cpp **** }
  42              		.loc 1 13 1 view .LVU5
  43 0004 7047     		bx	lr
  44              		.cfi_endproc
  45              	.LFE76:
ARM GAS  C:\Users\Admin\AppData\Local\Temp\ccvYiLa7.s 			page 2


  46              		.cantunwind
  47              		.fnend
  49              		.global	_ZN5TimerC1Emm
  50              		.thumb_set _ZN5TimerC1Emm,_ZN5TimerC2Emm
  51              		.section	.text._ZN5Timer5startEv,"ax",%progbits
  52              		.align	1
  53              		.global	_ZN5Timer5startEv
  54              		.syntax unified
  55              		.thumb
  56              		.thumb_func
  57              		.fpu softvfp
  59              	_ZN5Timer5startEv:
  60              		.fnstart
  61              	.LVL1:
  62              	.LFB78:
  14:Core/Src/Timer.cpp **** 
  15:Core/Src/Timer.cpp **** void Timer::start()
  16:Core/Src/Timer.cpp **** {
  63              		.loc 1 16 1 is_stmt 1 view -0
  64              		.cfi_startproc
  65              		@ args = 0, pretend = 0, frame = 0
  66              		@ frame_needed = 0, uses_anonymous_args = 0
  67              		.loc 1 16 1 is_stmt 0 view .LVU7
  68 0000 10B5     		push	{r4, lr}
  69              		.save {r4, lr}
  70              	.LCFI0:
  71              		.cfi_def_cfa_offset 8
  72              		.cfi_offset 4, -8
  73              		.cfi_offset 14, -4
  74 0002 0446     		mov	r4, r0
  17:Core/Src/Timer.cpp ****     this->startTime = HAL_GetTick();
  75              		.loc 1 17 5 is_stmt 1 view .LVU8
  76              		.loc 1 17 34 is_stmt 0 view .LVU9
  77 0004 FFF7FEFF 		bl	HAL_GetTick
  78              	.LVL2:
  79              		.loc 1 17 21 view .LVU10
  80 0008 2060     		str	r0, [r4]
  18:Core/Src/Timer.cpp **** }
  81              		.loc 1 18 1 view .LVU11
  82 000a 10BD     		pop	{r4, pc}
  83              		.loc 1 18 1 view .LVU12
  84              		.cfi_endproc
  85              	.LFE78:
  86              		.fnend
  88              		.section	.text._ZN5Timer12getStartTimeEv,"ax",%progbits
  89              		.align	1
  90              		.global	_ZN5Timer12getStartTimeEv
  91              		.syntax unified
  92              		.thumb
  93              		.thumb_func
  94              		.fpu softvfp
  96              	_ZN5Timer12getStartTimeEv:
  97              		.fnstart
  98              	.LVL3:
  99              	.LFB79:
  19:Core/Src/Timer.cpp **** 
  20:Core/Src/Timer.cpp **** uint32_t Timer::getStartTime()
ARM GAS  C:\Users\Admin\AppData\Local\Temp\ccvYiLa7.s 			page 3


  21:Core/Src/Timer.cpp **** {
 100              		.loc 1 21 1 is_stmt 1 view -0
 101              		.cfi_startproc
 102              		@ args = 0, pretend = 0, frame = 0
 103              		@ frame_needed = 0, uses_anonymous_args = 0
 104              		@ link register save eliminated.
  22:Core/Src/Timer.cpp ****     return this->startTime;
 105              		.loc 1 22 5 view .LVU14
  23:Core/Src/Timer.cpp **** }
 106              		.loc 1 23 1 is_stmt 0 view .LVU15
 107 0000 0068     		ldr	r0, [r0]
 108              	.LVL4:
 109              		.loc 1 23 1 view .LVU16
 110 0002 7047     		bx	lr
 111              		.cfi_endproc
 112              	.LFE79:
 113              		.cantunwind
 114              		.fnend
 116              		.section	.text._ZN5Timer11setLastTickEv,"ax",%progbits
 117              		.align	1
 118              		.global	_ZN5Timer11setLastTickEv
 119              		.syntax unified
 120              		.thumb
 121              		.thumb_func
 122              		.fpu softvfp
 124              	_ZN5Timer11setLastTickEv:
 125              		.fnstart
 126              	.LVL5:
 127              	.LFB80:
  24:Core/Src/Timer.cpp **** 
  25:Core/Src/Timer.cpp **** void Timer::setLastTick()
  26:Core/Src/Timer.cpp **** {
 128              		.loc 1 26 1 is_stmt 1 view -0
 129              		.cfi_startproc
 130              		@ args = 0, pretend = 0, frame = 0
 131              		@ frame_needed = 0, uses_anonymous_args = 0
 132              		.loc 1 26 1 is_stmt 0 view .LVU18
 133 0000 10B5     		push	{r4, lr}
 134              		.save {r4, lr}
 135              	.LCFI1:
 136              		.cfi_def_cfa_offset 8
 137              		.cfi_offset 4, -8
 138              		.cfi_offset 14, -4
 139 0002 0446     		mov	r4, r0
  27:Core/Src/Timer.cpp ****     this->lastTick = HAL_GetTick();
 140              		.loc 1 27 5 is_stmt 1 view .LVU19
 141              		.loc 1 27 33 is_stmt 0 view .LVU20
 142 0004 FFF7FEFF 		bl	HAL_GetTick
 143              	.LVL6:
 144              		.loc 1 27 20 view .LVU21
 145 0008 6060     		str	r0, [r4, #4]
  28:Core/Src/Timer.cpp **** }
 146              		.loc 1 28 1 view .LVU22
 147 000a 10BD     		pop	{r4, pc}
 148              		.loc 1 28 1 view .LVU23
 149              		.cfi_endproc
 150              	.LFE80:
ARM GAS  C:\Users\Admin\AppData\Local\Temp\ccvYiLa7.s 			page 4


 151              		.fnend
 153              		.section	.text._ZN5TimerC2Ev,"ax",%progbits
 154              		.align	1
 155              		.global	_ZN5TimerC2Ev
 156              		.syntax unified
 157              		.thumb
 158              		.thumb_func
 159              		.fpu softvfp
 161              	_ZN5TimerC2Ev:
 162              		.fnstart
 163              	.LVL7:
 164              	.LFB73:
   3:Core/Src/Timer.cpp **** {
 165              		.loc 1 3 1 is_stmt 1 view -0
 166              		.cfi_startproc
 167              		@ args = 0, pretend = 0, frame = 0
 168              		@ frame_needed = 0, uses_anonymous_args = 0
   3:Core/Src/Timer.cpp **** {
 169              		.loc 1 3 1 is_stmt 0 view .LVU25
 170 0000 10B5     		push	{r4, lr}
 171              		.save {r4, lr}
 172              	.LCFI2:
 173              		.cfi_def_cfa_offset 8
 174              		.cfi_offset 4, -8
 175              		.cfi_offset 14, -4
 176 0002 0446     		mov	r4, r0
 177              	.LBB3:
   5:Core/Src/Timer.cpp ****     setLastTick();
 178              		.loc 1 5 5 is_stmt 1 view .LVU26
   5:Core/Src/Timer.cpp ****     setLastTick();
 179              		.loc 1 5 10 is_stmt 0 view .LVU27
 180 0004 FFF7FEFF 		bl	_ZN5Timer5startEv
 181              	.LVL8:
   6:Core/Src/Timer.cpp **** }
 182              		.loc 1 6 5 is_stmt 1 view .LVU28
   6:Core/Src/Timer.cpp **** }
 183              		.loc 1 6 16 is_stmt 0 view .LVU29
 184 0008 2046     		mov	r0, r4
 185 000a FFF7FEFF 		bl	_ZN5Timer11setLastTickEv
 186              	.LVL9:
 187              	.LBE3:
   7:Core/Src/Timer.cpp **** 
 188              		.loc 1 7 1 view .LVU30
 189 000e 2046     		mov	r0, r4
 190 0010 10BD     		pop	{r4, pc}
   7:Core/Src/Timer.cpp **** 
 191              		.loc 1 7 1 view .LVU31
 192              		.cfi_endproc
 193              	.LFE73:
 194              		.fnend
 196              		.global	_ZN5TimerC1Ev
 197              		.thumb_set _ZN5TimerC1Ev,_ZN5TimerC2Ev
 198              		.section	.text._ZN5Timer11getLastTickEv,"ax",%progbits
 199              		.align	1
 200              		.global	_ZN5Timer11getLastTickEv
 201              		.syntax unified
 202              		.thumb
ARM GAS  C:\Users\Admin\AppData\Local\Temp\ccvYiLa7.s 			page 5


 203              		.thumb_func
 204              		.fpu softvfp
 206              	_ZN5Timer11getLastTickEv:
 207              		.fnstart
 208              	.LVL10:
 209              	.LFB81:
  29:Core/Src/Timer.cpp **** 
  30:Core/Src/Timer.cpp **** uint32_t Timer::getLastTick()
  31:Core/Src/Timer.cpp **** {
 210              		.loc 1 31 1 is_stmt 1 view -0
 211              		.cfi_startproc
 212              		@ args = 0, pretend = 0, frame = 0
 213              		@ frame_needed = 0, uses_anonymous_args = 0
 214              		@ link register save eliminated.
  32:Core/Src/Timer.cpp ****     return this->lastTick;
 215              		.loc 1 32 5 view .LVU33
  33:Core/Src/Timer.cpp **** }...
 216              		.loc 1 33 1 is_stmt 0 view .LVU34
 217 0000 4068     		ldr	r0, [r0, #4]
 218              	.LVL11:
 219              		.loc 1 33 1 view .LVU35
 220 0002 7047     		bx	lr
 221              		.cfi_endproc
 222              	.LFE81:
 223              		.cantunwind
 224              		.fnend
 226              		.text
 227              	.Letext0:
 228              		.file 2 "e:\\dev\\tools\\gcc-arm-none-eabi-10-2020-q4-major\\arm-none-eabi\\include\\machine\\_def
 229              		.file 3 "e:\\dev\\tools\\gcc-arm-none-eabi-10-2020-q4-major\\arm-none-eabi\\include\\sys\\_stdint.
 230              		.file 4 "Core/Inc/Timer.h"
 231              		.file 5 "Drivers/STM32F1xx_HAL_Driver/Inc/stm32f1xx_hal.h"
ARM GAS  C:\Users\Admin\AppData\Local\Temp\ccvYiLa7.s 			page 6

