ARM GAS  C:\Users\Admin\AppData\Local\Temp\ccPySy1h.s 			page 1


   1              		.cpu cortex-m3
   2              		.eabi_attribute 20, 1
   3              		.eabi_attribute 21, 1
   4              		.eabi_attribute 23, 3
   5              		.eabi_attribute 24, 1
   6              		.eabi_attribute 25, 1
   7              		.eabi_attribute 26, 1
   8              		.eabi_attribute 30, 1
   9              		.eabi_attribute 34, 1
  10              		.eabi_attribute 18, 4
  11              		.file	"UART_Printf.cpp"
  12              		.text
  13              	.Ltext0:
  14              		.cfi_sections	.debug_frame
  15              		.section	.text._Z9UART_Initv,"ax",%progbits
  16              		.align	1
  17              		.global	_Z9UART_Initv
  18              		.arch armv7-m
  19              		.syntax unified
  20              		.thumb
  21              		.thumb_func
  22              		.fpu softvfp
  24              	_Z9UART_Initv:
  25              		.fnstart
  26              	.LFB73:
  27              		.file 1 "Core/Src/UART_Printf.cpp"
   1:Core/Src/UART_Printf.cpp **** #include "UART_Printf.h"
   2:Core/Src/UART_Printf.cpp **** 
   3:Core/Src/UART_Printf.cpp **** UART_HandleTypeDef huart1;
   4:Core/Src/UART_Printf.cpp **** 
   5:Core/Src/UART_Printf.cpp **** void UART_Init()
   6:Core/Src/UART_Printf.cpp **** {
  28              		.loc 1 6 1 view -0
  29              		.cfi_startproc
  30              		@ args = 0, pretend = 0, frame = 16
  31              		@ frame_needed = 0, uses_anonymous_args = 0
  32              		@ link register save eliminated.
  33 0000 84B0     		sub	sp, sp, #16
  34              	.LCFI0:
  35              		.cfi_def_cfa_offset 16
   7:Core/Src/UART_Printf.cpp ****     __HAL_RCC_GPIOC_CLK_ENABLE();
  36              		.loc 1 7 5 view .LVU1
  37              	.LBB2:
  38              		.loc 1 7 5 view .LVU2
  39              		.loc 1 7 5 view .LVU3
  40 0002 164B     		ldr	r3, .L3
  41 0004 9A69     		ldr	r2, [r3, #24]
  42 0006 42F01002 		orr	r2, r2, #16
  43 000a 9A61     		str	r2, [r3, #24]
  44              		.loc 1 7 5 view .LVU4
  45 000c 9A69     		ldr	r2, [r3, #24]
  46 000e 02F01002 		and	r2, r2, #16
  47 0012 0192     		str	r2, [sp, #4]
  48              		.loc 1 7 5 view .LVU5
  49 0014 019A     		ldr	r2, [sp, #4]
  50              	.LBE2:
   8:Core/Src/UART_Printf.cpp ****     __HAL_RCC_GPIOB_CLK_ENABLE();
ARM GAS  C:\Users\Admin\AppData\Local\Temp\ccPySy1h.s 			page 2


  51              		.loc 1 8 5 view .LVU6
  52              	.LBB3:
  53              		.loc 1 8 5 view .LVU7
  54              		.loc 1 8 5 view .LVU8
  55 0016 9A69     		ldr	r2, [r3, #24]
  56 0018 42F00802 		orr	r2, r2, #8
  57 001c 9A61     		str	r2, [r3, #24]
  58              		.loc 1 8 5 view .LVU9
  59 001e 9A69     		ldr	r2, [r3, #24]
  60 0020 02F00802 		and	r2, r2, #8
  61 0024 0292     		str	r2, [sp, #8]
  62              		.loc 1 8 5 view .LVU10
  63 0026 029A     		ldr	r2, [sp, #8]
  64              	.LBE3:
   9:Core/Src/UART_Printf.cpp ****     __HAL_RCC_GPIOA_CLK_ENABLE();
  65              		.loc 1 9 5 view .LVU11
  66              	.LBB4:
  67              		.loc 1 9 5 view .LVU12
  68              		.loc 1 9 5 view .LVU13
  69 0028 9A69     		ldr	r2, [r3, #24]
  70 002a 42F00402 		orr	r2, r2, #4
  71 002e 9A61     		str	r2, [r3, #24]
  72              		.loc 1 9 5 view .LVU14
  73 0030 9B69     		ldr	r3, [r3, #24]
  74 0032 03F00403 		and	r3, r3, #4
  75 0036 0393     		str	r3, [sp, #12]
  76              		.loc 1 9 5 view .LVU15
  77 0038 039B     		ldr	r3, [sp, #12]
  78              	.LBE4:
  10:Core/Src/UART_Printf.cpp **** 
  11:Core/Src/UART_Printf.cpp ****     huart1.Instance = USART1;
  79              		.loc 1 11 5 view .LVU16
  80              		.loc 1 11 21 is_stmt 0 view .LVU17
  81 003a 094B     		ldr	r3, .L3+4
  82 003c 094A     		ldr	r2, .L3+8
  83 003e 1A60     		str	r2, [r3]
  12:Core/Src/UART_Printf.cpp ****     huart1.Init.BaudRate = 115200;
  84              		.loc 1 12 5 is_stmt 1 view .LVU18
  85              		.loc 1 12 26 is_stmt 0 view .LVU19
  86 0040 4FF4E132 		mov	r2, #115200
  87 0044 5A60     		str	r2, [r3, #4]
  13:Core/Src/UART_Printf.cpp ****     huart1.Init.WordLength = UART_WORDLENGTH_8B;
  88              		.loc 1 13 5 is_stmt 1 view .LVU20
  89              		.loc 1 13 28 is_stmt 0 view .LVU21
  90 0046 0022     		movs	r2, #0
  91 0048 9A60     		str	r2, [r3, #8]
  14:Core/Src/UART_Printf.cpp ****     huart1.Init.StopBits = UART_STOPBITS_1;
  92              		.loc 1 14 5 is_stmt 1 view .LVU22
  93              		.loc 1 14 26 is_stmt 0 view .LVU23
  94 004a DA60     		str	r2, [r3, #12]
  15:Core/Src/UART_Printf.cpp ****     huart1.Init.Parity = UART_PARITY_NONE;
  95              		.loc 1 15 5 is_stmt 1 view .LVU24
  96              		.loc 1 15 24 is_stmt 0 view .LVU25
  97 004c 1A61     		str	r2, [r3, #16]
  16:Core/Src/UART_Printf.cpp ****     huart1.Init.Mode = UART_MODE_TX_RX;
  98              		.loc 1 16 5 is_stmt 1 view .LVU26
  99              		.loc 1 16 22 is_stmt 0 view .LVU27
ARM GAS  C:\Users\Admin\AppData\Local\Temp\ccPySy1h.s 			page 3


 100 004e 0C21     		movs	r1, #12
 101 0050 5961     		str	r1, [r3, #20]
  17:Core/Src/UART_Printf.cpp ****     huart1.Init.HwFlowCtl = UART_HWCONTROL_NONE;
 102              		.loc 1 17 5 is_stmt 1 view .LVU28
 103              		.loc 1 17 27 is_stmt 0 view .LVU29
 104 0052 9A61     		str	r2, [r3, #24]
  18:Core/Src/UART_Printf.cpp ****     huart1.Init.OverSampling = UART_OVERSAMPLING_16;
 105              		.loc 1 18 5 is_stmt 1 view .LVU30
 106              		.loc 1 18 30 is_stmt 0 view .LVU31
 107 0054 DA61     		str	r2, [r3, #28]
  19:Core/Src/UART_Printf.cpp **** }
 108              		.loc 1 19 1 view .LVU32
 109 0056 04B0     		add	sp, sp, #16
 110              	.LCFI1:
 111              		.cfi_def_cfa_offset 0
 112              		@ sp needed
 113 0058 7047     		bx	lr
 114              	.L4:
 115 005a 00BF     		.align	2
 116              	.L3:
 117 005c 00100240 		.word	1073876992
 118 0060 00000000 		.word	.LANCHOR0
 119 0064 00380140 		.word	1073821696
 120              		.cfi_endproc
 121              	.LFE73:
 122              		.cantunwind
 123              		.fnend
 125              		.section	.text._Z11UART_PrintfPKcz,"ax",%progbits
 126              		.align	1
 127              		.global	_Z11UART_PrintfPKcz
 128              		.syntax unified
 129              		.thumb
 130              		.thumb_func
 131              		.fpu softvfp
 133              	_Z11UART_PrintfPKcz:
 134              		.fnstart
 135              	.LVL0:
 136              	.LFB74:
  20:Core/Src/UART_Printf.cpp **** 
  21:Core/Src/UART_Printf.cpp **** extern void UART_Printf(const char *fmt, ...)
  22:Core/Src/UART_Printf.cpp **** {
 137              		.loc 1 22 1 is_stmt 1 view -0
 138              		.cfi_startproc
 139              		@ args = 4, pretend = 16, frame = 264
 140              		@ frame_needed = 0, uses_anonymous_args = 1
 141              		.loc 1 22 1 is_stmt 0 view .LVU34
 142 0000 0FB4     		push	{r0, r1, r2, r3}
 143              		.save {r0, r1, r2, r3}
 144              	.LCFI2:
 145              		.cfi_def_cfa_offset 16
 146              		.cfi_offset 0, -16
 147              		.cfi_offset 1, -12
 148              		.cfi_offset 2, -8
 149              		.cfi_offset 3, -4
 150 0002 30B5     		push	{r4, r5, lr}
 151              		.save {r4, r5, lr}
 152              	.LCFI3:
ARM GAS  C:\Users\Admin\AppData\Local\Temp\ccPySy1h.s 			page 4


 153              		.cfi_def_cfa_offset 28
 154              		.cfi_offset 4, -28
 155              		.cfi_offset 5, -24
 156              		.cfi_offset 14, -20
 157              		.pad #268
 158 0004 C3B0     		sub	sp, sp, #268
 159              	.LCFI4:
 160              		.cfi_def_cfa_offset 296
 161 0006 46AC     		add	r4, sp, #280
 162 0008 54F8045B 		ldr	r5, [r4], #4
  23:Core/Src/UART_Printf.cpp ****     UART_Init();
 163              		.loc 1 23 5 is_stmt 1 view .LVU35
 164              		.loc 1 23 14 is_stmt 0 view .LVU36
 165 000c FFF7FEFF 		bl	_Z9UART_Initv
 166              	.LVL1:
  24:Core/Src/UART_Printf.cpp ****     char buff[256];
 167              		.loc 1 24 5 is_stmt 1 view .LVU37
  25:Core/Src/UART_Printf.cpp ****     va_list args;
 168              		.loc 1 25 5 view .LVU38
  26:Core/Src/UART_Printf.cpp ****     va_start(args, fmt);
 169              		.loc 1 26 5 view .LVU39
 170 0010 0194     		str	r4, [sp, #4]
  27:Core/Src/UART_Printf.cpp ****     vsnprintf(buff, sizeof(buff), fmt, args);
 171              		.loc 1 27 5 view .LVU40
 172              		.loc 1 27 14 is_stmt 0 view .LVU41
 173 0012 2346     		mov	r3, r4
 174 0014 2A46     		mov	r2, r5
 175 0016 4FF48071 		mov	r1, #256
 176 001a 02A8     		add	r0, sp, #8
 177 001c FFF7FEFF 		bl	vsnprintf
 178              	.LVL2:
  28:Core/Src/UART_Printf.cpp ****     HAL_UART_Transmit(&huart1, (uint8_t *)buff, strlen(buff), HAL_MAX_DELAY);
 179              		.loc 1 28 5 is_stmt 1 view .LVU42
 180              		.loc 1 28 55 is_stmt 0 view .LVU43
 181 0020 02A8     		add	r0, sp, #8
 182 0022 FFF7FEFF 		bl	strlen
 183              	.LVL3:
 184              		.loc 1 28 22 view .LVU44
 185 0026 4FF0FF33 		mov	r3, #-1
 186 002a 82B2     		uxth	r2, r0
 187 002c 02A9     		add	r1, sp, #8
 188 002e 0448     		ldr	r0, .L7
 189 0030 FFF7FEFF 		bl	HAL_UART_Transmit
 190              	.LVL4:
  29:Core/Src/UART_Printf.cpp ****     va_end(args);
 191              		.loc 1 29 5 is_stmt 1 view .LVU45
  30:Core/Src/UART_Printf.cpp **** }...
 192              		.loc 1 30 1 is_stmt 0 view .LVU46
 193 0034 43B0     		add	sp, sp, #268
 194              	.LCFI5:
 195              		.cfi_def_cfa_offset 28
 196              		@ sp needed
 197 0036 BDE83040 		pop	{r4, r5, lr}
 198              	.LCFI6:
 199              		.cfi_restore 14
 200              		.cfi_restore 5
 201              		.cfi_restore 4
ARM GAS  C:\Users\Admin\AppData\Local\Temp\ccPySy1h.s 			page 5


 202              		.cfi_def_cfa_offset 16
 203 003a 04B0     		add	sp, sp, #16
 204              	.LCFI7:
 205              		.cfi_restore 3
 206              		.cfi_restore 2
 207              		.cfi_restore 1
 208              		.cfi_restore 0
 209              		.cfi_def_cfa_offset 0
 210 003c 7047     		bx	lr
 211              	.L8:
 212 003e 00BF     		.align	2
 213              	.L7:
 214 0040 00000000 		.word	.LANCHOR0
 215              		.cfi_endproc
 216              	.LFE74:
 217              		.fnend
 219              		.global	huart1
 220              		.section	.bss.huart1,"aw",%nobits
 221              		.align	2
 222              		.set	.LANCHOR0,. + 0
 225              	huart1:
 226 0000 00000000 		.space	64
 226      00000000 
 226      00000000 
 226      00000000 
 226      00000000 
 227              		.text
 228              	.Letext0:
 229              		.file 2 "e:\\dev\\tools\\gcc-arm-none-eabi-10-2020-q4-major\\arm-none-eabi\\include\\machine\\_def
 230              		.file 3 "e:\\dev\\tools\\gcc-arm-none-eabi-10-2020-q4-major\\lib\\gcc\\arm-none-eabi\\10.2.1\\incl
 231              		.file 4 "e:\\dev\\tools\\gcc-arm-none-eabi-10-2020-q4-major\\arm-none-eabi\\include\\stdio.h"
 232              		.file 5 "e:\\dev\\tools\\gcc-arm-none-eabi-10-2020-q4-major\\arm-none-eabi\\include\\sys\\_stdint.
 233              		.file 6 "Drivers/CMSIS/Device/ST/STM32F1xx/Include/stm32f103xg.h"
 234              		.file 7 "Drivers/CMSIS/Device/ST/STM32F1xx/Include/stm32f1xx.h"
 235              		.file 8 "Drivers/STM32F1xx_HAL_Driver/Inc/stm32f1xx_hal_def.h"
 236              		.file 9 "Drivers/STM32F1xx_HAL_Driver/Inc/stm32f1xx_hal_dma.h"
 237              		.file 10 "Drivers/STM32F1xx_HAL_Driver/Inc/stm32f1xx_hal_uart.h"
 238              		.file 11 "Drivers/STM32F1xx_HAL_Driver/Inc/stm32f1xx_hal.h"
 239              		.file 12 "e:\\dev\\tools\\gcc-arm-none-eabi-10-2020-q4-major\\arm-none-eabi\\include\\string.h"
 240              		.file 13 "<built-in>"
ARM GAS  C:\Users\Admin\AppData\Local\Temp\ccPySy1h.s 			page 6

