ARM GAS  C:\Users\Admin\AppData\Local\Temp\ccngn7i3.s 			page 1


   1              		.cpu cortex-m3
   2              		.eabi_attribute 20, 1
   3              		.eabi_attribute 21, 1
   4              		.eabi_attribute 23, 3
   5              		.eabi_attribute 24, 1
   6              		.eabi_attribute 25, 1
   7              		.eabi_attribute 26, 1
   8              		.eabi_attribute 30, 1
   9              		.eabi_attribute 34, 1
  10              		.eabi_attribute 18, 4
  11              		.file	"wiegand.c"
  12              		.text
  13              	.Ltext0:
  14              		.cfi_sections	.debug_frame
  15              		.section	.text.getCode,"ax",%progbits
  16              		.align	1
  17              		.global	getCode
  18              		.arch armv7-m
  19              		.syntax unified
  20              		.thumb
  21              		.thumb_func
  22              		.fpu softvfp
  24              	getCode:
  25              	.LFB72:
  26              		.file 1 "Core/Src/wiegand.c"
   1:Core/Src/wiegand.c **** /*
   2:Core/Src/wiegand.c ****  * wiegand.c
   3:Core/Src/wiegand.c ****  *
   4:Core/Src/wiegand.c ****  *  Created on: 18 февр. 2020 г.
   5:Core/Src/wiegand.c ****  *      Author: dima
   6:Core/Src/wiegand.c ****  */
   7:Core/Src/wiegand.c **** 
   8:Core/Src/wiegand.c **** #include "wiegand.h"
   9:Core/Src/wiegand.c **** #include <stdint.h>
  10:Core/Src/wiegand.c **** 
  11:Core/Src/wiegand.c **** volatile uint32_t cardTempHigh = 0;
  12:Core/Src/wiegand.c **** volatile uint32_t cardTemp = 0;
  13:Core/Src/wiegand.c **** volatile uint32_t lastWiegand = 0;
  14:Core/Src/wiegand.c **** uint32_t code = 0;
  15:Core/Src/wiegand.c **** volatile int16_t bitCount = 0;
  16:Core/Src/wiegand.c **** int16_t wiegandType = 0;
  17:Core/Src/wiegand.c **** 
  18:Core/Src/wiegand.c **** 
  19:Core/Src/wiegand.c **** 
  20:Core/Src/wiegand.c **** uint32_t getCode()
  21:Core/Src/wiegand.c **** {
  27              		.loc 1 21 1 view -0
  28              		.cfi_startproc
  29              		@ args = 0, pretend = 0, frame = 0
  30              		@ frame_needed = 0, uses_anonymous_args = 0
  31              		@ link register save eliminated.
  22:Core/Src/wiegand.c **** 	return code;
  32              		.loc 1 22 2 view .LVU1
  23:Core/Src/wiegand.c **** }
  33              		.loc 1 23 1 is_stmt 0 view .LVU2
  34 0000 014B     		ldr	r3, .L2
  35 0002 1868     		ldr	r0, [r3]
ARM GAS  C:\Users\Admin\AppData\Local\Temp\ccngn7i3.s 			page 2


  36 0004 7047     		bx	lr
  37              	.L3:
  38 0006 00BF     		.align	2
  39              	.L2:
  40 0008 00000000 		.word	.LANCHOR0
  41              		.cfi_endproc
  42              	.LFE72:
  44              		.section	.text.getWiegandType,"ax",%progbits
  45              		.align	1
  46              		.global	getWiegandType
  47              		.syntax unified
  48              		.thumb
  49              		.thumb_func
  50              		.fpu softvfp
  52              	getWiegandType:
  53              	.LFB73:
  24:Core/Src/wiegand.c **** 
  25:Core/Src/wiegand.c **** int16_t getWiegandType()
  26:Core/Src/wiegand.c **** {
  54              		.loc 1 26 1 is_stmt 1 view -0
  55              		.cfi_startproc
  56              		@ args = 0, pretend = 0, frame = 0
  57              		@ frame_needed = 0, uses_anonymous_args = 0
  58              		@ link register save eliminated.
  27:Core/Src/wiegand.c **** 	return wiegandType;
  59              		.loc 1 27 2 view .LVU4
  28:Core/Src/wiegand.c **** }
  60              		.loc 1 28 1 is_stmt 0 view .LVU5
  61 0000 014B     		ldr	r3, .L5
  62 0002 B3F90000 		ldrsh	r0, [r3]
  63 0006 7047     		bx	lr
  64              	.L6:
  65              		.align	2
  66              	.L5:
  67 0008 00000000 		.word	.LANCHOR1
  68              		.cfi_endproc
  69              	.LFE73:
  71              		.section	.text.ReadD0,"ax",%progbits
  72              		.align	1
  73              		.global	ReadD0
  74              		.syntax unified
  75              		.thumb
  76              		.thumb_func
  77              		.fpu softvfp
  79              	ReadD0:
  80              	.LFB74:
  29:Core/Src/wiegand.c **** /*
  30:Core/Src/wiegand.c **** uint8_t wig_available()
  31:Core/Src/wiegand.c **** {
  32:Core/Src/wiegand.c **** 	uint8_t ret;
  33:Core/Src/wiegand.c **** 	//HAL_NVIC_DisableIRQ(EXTI15_10_IRQn);   // отключаем прерывания WIG
  34:Core/Src/wiegand.c **** 
  35:Core/Src/wiegand.c **** 	ret = DoWiegandConversion();
  36:Core/Src/wiegand.c **** 
  37:Core/Src/wiegand.c **** 	//__HAL_GPIO_EXTI_CLEAR_IT(D0);    // очищаем бит EXTI_PR
  38:Core/Src/wiegand.c **** 	//__HAL_GPIO_EXTI_CLEAR_IT(D0_Pin);    // очищаем бит EXTI_PR
  39:Core/Src/wiegand.c **** 	//NVIC_ClearPendingIRQ(EXTI15_10_IRQn);  // очищаем бит NVIC_ICPRx
ARM GAS  C:\Users\Admin\AppData\Local\Temp\ccngn7i3.s 			page 3


  40:Core/Src/wiegand.c **** 	//HAL_NVIC_EnableIRQ(EXTI15_10_IRQn);    // включаем прерывания WIG
  41:Core/Src/wiegand.c **** 
  42:Core/Src/wiegand.c **** 	return ret;
  43:Core/Src/wiegand.c **** }
  44:Core/Src/wiegand.c **** */
  45:Core/Src/wiegand.c **** 
  46:Core/Src/wiegand.c **** void ReadD0()
  47:Core/Src/wiegand.c **** {
  81              		.loc 1 47 1 is_stmt 1 view -0
  82              		.cfi_startproc
  83              		@ args = 0, pretend = 0, frame = 0
  84              		@ frame_needed = 0, uses_anonymous_args = 0
  85 0000 08B5     		push	{r3, lr}
  86              	.LCFI0:
  87              		.cfi_def_cfa_offset 8
  88              		.cfi_offset 3, -8
  89              		.cfi_offset 14, -4
  48:Core/Src/wiegand.c **** 	bitCount++;				// Increament bit count for Interrupt connected to D0
  90              		.loc 1 48 2 view .LVU7
  91              		.loc 1 48 10 is_stmt 0 view .LVU8
  92 0002 104A     		ldr	r2, .L11
  93 0004 1388     		ldrh	r3, [r2]
  94 0006 0133     		adds	r3, r3, #1
  95 0008 1BB2     		sxth	r3, r3
  96 000a 1380     		strh	r3, [r2]	@ movhi
  49:Core/Src/wiegand.c **** 
  50:Core/Src/wiegand.c **** 	if (bitCount > 31)			// If bit count more than 31, process high bits
  97              		.loc 1 50 2 is_stmt 1 view .LVU9
  98              		.loc 1 50 15 is_stmt 0 view .LVU10
  99 000c 1388     		ldrh	r3, [r2]
 100 000e 1BB2     		sxth	r3, r3
 101              		.loc 1 50 5 view .LVU11
 102 0010 1F2B     		cmp	r3, #31
 103 0012 11DD     		ble	.L8
  51:Core/Src/wiegand.c **** 	{
  52:Core/Src/wiegand.c **** 		cardTempHigh |= ((0x80000000 & cardTemp) >> 31);	//	shift value to high bits
 104              		.loc 1 52 3 is_stmt 1 view .LVU12
 105              		.loc 1 52 44 is_stmt 0 view .LVU13
 106 0014 0C4A     		ldr	r2, .L11+4
 107 0016 1068     		ldr	r0, [r2]
 108              		.loc 1 52 16 view .LVU14
 109 0018 0C4B     		ldr	r3, .L11+8
 110 001a 1968     		ldr	r1, [r3]
 111 001c 41EAD071 		orr	r1, r1, r0, lsr #31
 112 0020 1960     		str	r1, [r3]
  53:Core/Src/wiegand.c **** 		cardTempHigh <<= 1;
 113              		.loc 1 53 3 is_stmt 1 view .LVU15
 114              		.loc 1 53 16 is_stmt 0 view .LVU16
 115 0022 1968     		ldr	r1, [r3]
 116 0024 4900     		lsls	r1, r1, #1
 117 0026 1960     		str	r1, [r3]
  54:Core/Src/wiegand.c **** 		cardTemp <<= 1;
 118              		.loc 1 54 3 is_stmt 1 view .LVU17
 119              		.loc 1 54 12 is_stmt 0 view .LVU18
 120 0028 1368     		ldr	r3, [r2]
 121 002a 5B00     		lsls	r3, r3, #1
 122 002c 1360     		str	r3, [r2]
ARM GAS  C:\Users\Admin\AppData\Local\Temp\ccngn7i3.s 			page 4


 123              	.L9:
  55:Core/Src/wiegand.c **** 	}
  56:Core/Src/wiegand.c **** 	else
  57:Core/Src/wiegand.c **** 	{
  58:Core/Src/wiegand.c **** 		cardTemp <<= 1;		// D0 represent binary 0, so just left shift card data
  59:Core/Src/wiegand.c **** 	}
  60:Core/Src/wiegand.c **** 
  61:Core/Src/wiegand.c **** 	lastWiegand = HAL_GetTick();	// Keep track of last wiegand bit received
 124              		.loc 1 61 2 is_stmt 1 view .LVU19
 125              		.loc 1 61 16 is_stmt 0 view .LVU20
 126 002e FFF7FEFF 		bl	HAL_GetTick
 127              	.LVL0:
 128              		.loc 1 61 14 view .LVU21
 129 0032 074B     		ldr	r3, .L11+12
 130 0034 1860     		str	r0, [r3]
  62:Core/Src/wiegand.c **** }
 131              		.loc 1 62 1 view .LVU22
 132 0036 08BD     		pop	{r3, pc}
 133              	.L8:
  58:Core/Src/wiegand.c **** 	}
 134              		.loc 1 58 3 is_stmt 1 view .LVU23
  58:Core/Src/wiegand.c **** 	}
 135              		.loc 1 58 12 is_stmt 0 view .LVU24
 136 0038 034A     		ldr	r2, .L11+4
 137 003a 1368     		ldr	r3, [r2]
 138 003c 5B00     		lsls	r3, r3, #1
 139 003e 1360     		str	r3, [r2]
 140 0040 F5E7     		b	.L9
 141              	.L12:
 142 0042 00BF     		.align	2
 143              	.L11:
 144 0044 00000000 		.word	.LANCHOR2
 145 0048 00000000 		.word	.LANCHOR3
 146 004c 00000000 		.word	.LANCHOR4
 147 0050 00000000 		.word	.LANCHOR5
 148              		.cfi_endproc
 149              	.LFE74:
 151              		.section	.text.ReadD1,"ax",%progbits
 152              		.align	1
 153              		.global	ReadD1
 154              		.syntax unified
 155              		.thumb
 156              		.thumb_func
 157              		.fpu softvfp
 159              	ReadD1:
 160              	.LFB75:
  63:Core/Src/wiegand.c **** 
  64:Core/Src/wiegand.c **** void ReadD1()
  65:Core/Src/wiegand.c **** {
 161              		.loc 1 65 1 is_stmt 1 view -0
 162              		.cfi_startproc
 163              		@ args = 0, pretend = 0, frame = 0
 164              		@ frame_needed = 0, uses_anonymous_args = 0
 165 0000 08B5     		push	{r3, lr}
 166              	.LCFI1:
 167              		.cfi_def_cfa_offset 8
 168              		.cfi_offset 3, -8
ARM GAS  C:\Users\Admin\AppData\Local\Temp\ccngn7i3.s 			page 5


 169              		.cfi_offset 14, -4
  66:Core/Src/wiegand.c **** 	bitCount++;				// Increment bit count for Interrupt connected to D1
 170              		.loc 1 66 2 view .LVU26
 171              		.loc 1 66 10 is_stmt 0 view .LVU27
 172 0002 144A     		ldr	r2, .L17
 173 0004 1388     		ldrh	r3, [r2]
 174 0006 0133     		adds	r3, r3, #1
 175 0008 1BB2     		sxth	r3, r3
 176 000a 1380     		strh	r3, [r2]	@ movhi
  67:Core/Src/wiegand.c **** 
  68:Core/Src/wiegand.c **** 	if(bitCount > 31)			// If bit count more than 31, process high bits
 177              		.loc 1 68 2 is_stmt 1 view .LVU28
 178              		.loc 1 68 14 is_stmt 0 view .LVU29
 179 000c 1388     		ldrh	r3, [r2]
 180 000e 1BB2     		sxth	r3, r3
 181              		.loc 1 68 4 view .LVU30
 182 0010 1F2B     		cmp	r3, #31
 183 0012 15DD     		ble	.L14
  69:Core/Src/wiegand.c **** 	{
  70:Core/Src/wiegand.c **** 		cardTempHigh |= ((0x80000000 & cardTemp) >> 31);	// shift value to high bits
 184              		.loc 1 70 3 is_stmt 1 view .LVU31
 185              		.loc 1 70 44 is_stmt 0 view .LVU32
 186 0014 104B     		ldr	r3, .L17+4
 187 0016 1868     		ldr	r0, [r3]
 188              		.loc 1 70 16 view .LVU33
 189 0018 104A     		ldr	r2, .L17+8
 190 001a 1168     		ldr	r1, [r2]
 191 001c 41EAD071 		orr	r1, r1, r0, lsr #31
 192 0020 1160     		str	r1, [r2]
  71:Core/Src/wiegand.c **** 		cardTempHigh <<= 1;
 193              		.loc 1 71 3 is_stmt 1 view .LVU34
 194              		.loc 1 71 16 is_stmt 0 view .LVU35
 195 0022 1168     		ldr	r1, [r2]
 196 0024 4900     		lsls	r1, r1, #1
 197 0026 1160     		str	r1, [r2]
  72:Core/Src/wiegand.c **** 		cardTemp |= 1;
 198              		.loc 1 72 3 is_stmt 1 view .LVU36
 199              		.loc 1 72 12 is_stmt 0 view .LVU37
 200 0028 1A68     		ldr	r2, [r3]
 201 002a 42F00102 		orr	r2, r2, #1
 202 002e 1A60     		str	r2, [r3]
  73:Core/Src/wiegand.c **** 		cardTemp <<= 1;
 203              		.loc 1 73 3 is_stmt 1 view .LVU38
 204              		.loc 1 73 12 is_stmt 0 view .LVU39
 205 0030 1A68     		ldr	r2, [r3]
 206 0032 5200     		lsls	r2, r2, #1
 207 0034 1A60     		str	r2, [r3]
 208              	.L15:
  74:Core/Src/wiegand.c **** 	}
  75:Core/Src/wiegand.c **** 	else
  76:Core/Src/wiegand.c **** 	{
  77:Core/Src/wiegand.c **** 		cardTemp |= 1;			// D1 represent binary 1, so OR card data with 1 then
  78:Core/Src/wiegand.c **** 		cardTemp <<= 1;		// left shift card data
  79:Core/Src/wiegand.c **** 	}
  80:Core/Src/wiegand.c **** 
  81:Core/Src/wiegand.c **** 	lastWiegand = HAL_GetTick();	// Keep track of last wiegand bit received
 209              		.loc 1 81 2 is_stmt 1 view .LVU40
ARM GAS  C:\Users\Admin\AppData\Local\Temp\ccngn7i3.s 			page 6


 210              		.loc 1 81 16 is_stmt 0 view .LVU41
 211 0036 FFF7FEFF 		bl	HAL_GetTick
 212              	.LVL1:
 213              		.loc 1 81 14 view .LVU42
 214 003a 094B     		ldr	r3, .L17+12
 215 003c 1860     		str	r0, [r3]
  82:Core/Src/wiegand.c **** }
 216              		.loc 1 82 1 view .LVU43
 217 003e 08BD     		pop	{r3, pc}
 218              	.L14:
  77:Core/Src/wiegand.c **** 		cardTemp <<= 1;		// left shift card data
 219              		.loc 1 77 3 is_stmt 1 view .LVU44
  77:Core/Src/wiegand.c **** 		cardTemp <<= 1;		// left shift card data
 220              		.loc 1 77 12 is_stmt 0 view .LVU45
 221 0040 054B     		ldr	r3, .L17+4
 222 0042 1A68     		ldr	r2, [r3]
 223 0044 42F00102 		orr	r2, r2, #1
 224 0048 1A60     		str	r2, [r3]
  78:Core/Src/wiegand.c **** 	}
 225              		.loc 1 78 3 is_stmt 1 view .LVU46
  78:Core/Src/wiegand.c **** 	}
 226              		.loc 1 78 12 is_stmt 0 view .LVU47
 227 004a 1A68     		ldr	r2, [r3]
 228 004c 5200     		lsls	r2, r2, #1
 229 004e 1A60     		str	r2, [r3]
 230 0050 F1E7     		b	.L15
 231              	.L18:
 232 0052 00BF     		.align	2
 233              	.L17:
 234 0054 00000000 		.word	.LANCHOR2
 235 0058 00000000 		.word	.LANCHOR3
 236 005c 00000000 		.word	.LANCHOR4
 237 0060 00000000 		.word	.LANCHOR5
 238              		.cfi_endproc
 239              	.LFE75:
 241              		.section	.text.GetCardId,"ax",%progbits
 242              		.align	1
 243              		.global	GetCardId
 244              		.syntax unified
 245              		.thumb
 246              		.thumb_func
 247              		.fpu softvfp
 249              	GetCardId:
 250              	.LVL2:
 251              	.LFB76:
  83:Core/Src/wiegand.c **** 
  84:Core/Src/wiegand.c **** uint32_t GetCardId(volatile uint32_t *codehigh, volatile uint32_t *codelow, uint8_t bitlength)
  85:Core/Src/wiegand.c **** {
 252              		.loc 1 85 1 is_stmt 1 view -0
 253              		.cfi_startproc
 254              		@ args = 0, pretend = 0, frame = 0
 255              		@ frame_needed = 0, uses_anonymous_args = 0
 256              		@ link register save eliminated.
  86:Core/Src/wiegand.c **** 
  87:Core/Src/wiegand.c **** 	if(bitlength == 26)								// EM tag
 257              		.loc 1 87 2 view .LVU49
 258              		.loc 1 87 4 is_stmt 0 view .LVU50
ARM GAS  C:\Users\Admin\AppData\Local\Temp\ccngn7i3.s 			page 7


 259 0000 1A2A     		cmp	r2, #26
 260 0002 03D0     		beq	.L23
  88:Core/Src/wiegand.c **** 	{
  89:Core/Src/wiegand.c **** 		return (*codelow & 0x1FFFFFE) >> 1;
  90:Core/Src/wiegand.c **** 	}
  91:Core/Src/wiegand.c **** 
  92:Core/Src/wiegand.c **** 	if(bitlength == 34)								// Mifare
 261              		.loc 1 92 2 is_stmt 1 view .LVU51
 262              		.loc 1 92 4 is_stmt 0 view .LVU52
 263 0004 222A     		cmp	r2, #34
 264 0006 05D0     		beq	.L24
  93:Core/Src/wiegand.c **** 	{
  94:Core/Src/wiegand.c **** 		*codehigh = *codehigh & 0x03;				// only need the 2 LSB of the codehigh
  95:Core/Src/wiegand.c **** 		*codehigh <<= 30;							// shift 2 LSB to MSB
  96:Core/Src/wiegand.c **** 		*codelow >>= 1;
  97:Core/Src/wiegand.c **** 		return *codehigh | *codelow;
  98:Core/Src/wiegand.c **** 	}
  99:Core/Src/wiegand.c **** 
 100:Core/Src/wiegand.c **** 	return *codelow;								// EM tag or Mifare without parity bits
 265              		.loc 1 100 2 is_stmt 1 view .LVU53
 266              		.loc 1 100 9 is_stmt 0 view .LVU54
 267 0008 0868     		ldr	r0, [r1]
 268              	.LVL3:
 101:Core/Src/wiegand.c **** }
 269              		.loc 1 101 1 view .LVU55
 270 000a 7047     		bx	lr
 271              	.LVL4:
 272              	.L23:
  89:Core/Src/wiegand.c **** 	}
 273              		.loc 1 89 3 is_stmt 1 view .LVU56
  89:Core/Src/wiegand.c **** 	}
 274              		.loc 1 89 11 is_stmt 0 view .LVU57
 275 000c 0868     		ldr	r0, [r1]
 276              	.LVL5:
  89:Core/Src/wiegand.c **** 	}
 277              		.loc 1 89 33 view .LVU58
 278 000e C0F35700 		ubfx	r0, r0, #1, #24
 279 0012 7047     		bx	lr
 280              	.LVL6:
 281              	.L24:
  94:Core/Src/wiegand.c **** 		*codehigh <<= 30;							// shift 2 LSB to MSB
 282              		.loc 1 94 3 is_stmt 1 view .LVU59
  94:Core/Src/wiegand.c **** 		*codehigh <<= 30;							// shift 2 LSB to MSB
 283              		.loc 1 94 15 is_stmt 0 view .LVU60
 284 0014 0368     		ldr	r3, [r0]
  94:Core/Src/wiegand.c **** 		*codehigh <<= 30;							// shift 2 LSB to MSB
 285              		.loc 1 94 25 view .LVU61
 286 0016 03F00303 		and	r3, r3, #3
  94:Core/Src/wiegand.c **** 		*codehigh <<= 30;							// shift 2 LSB to MSB
 287              		.loc 1 94 13 view .LVU62
 288 001a 0360     		str	r3, [r0]
  95:Core/Src/wiegand.c **** 		*codelow >>= 1;
 289              		.loc 1 95 3 is_stmt 1 view .LVU63
  95:Core/Src/wiegand.c **** 		*codelow >>= 1;
 290              		.loc 1 95 13 is_stmt 0 view .LVU64
 291 001c 0368     		ldr	r3, [r0]
 292 001e 9B07     		lsls	r3, r3, #30
ARM GAS  C:\Users\Admin\AppData\Local\Temp\ccngn7i3.s 			page 8


 293 0020 0360     		str	r3, [r0]
  96:Core/Src/wiegand.c **** 		return *codehigh | *codelow;
 294              		.loc 1 96 3 is_stmt 1 view .LVU65
  96:Core/Src/wiegand.c **** 		return *codehigh | *codelow;
 295              		.loc 1 96 12 is_stmt 0 view .LVU66
 296 0022 0B68     		ldr	r3, [r1]
 297 0024 5B08     		lsrs	r3, r3, #1
 298 0026 0B60     		str	r3, [r1]
  97:Core/Src/wiegand.c **** 	}
 299              		.loc 1 97 3 is_stmt 1 view .LVU67
  97:Core/Src/wiegand.c **** 	}
 300              		.loc 1 97 10 is_stmt 0 view .LVU68
 301 0028 0068     		ldr	r0, [r0]
 302              	.LVL7:
  97:Core/Src/wiegand.c **** 	}
 303              		.loc 1 97 22 view .LVU69
 304 002a 0B68     		ldr	r3, [r1]
  97:Core/Src/wiegand.c **** 	}
 305              		.loc 1 97 20 view .LVU70
 306 002c 1843     		orrs	r0, r0, r3
 307 002e 7047     		bx	lr
 308              		.cfi_endproc
 309              	.LFE76:
 311              		.section	.text.translateEnterEscapeKeyPress,"ax",%progbits
 312              		.align	1
 313              		.global	translateEnterEscapeKeyPress
 314              		.syntax unified
 315              		.thumb
 316              		.thumb_func
 317              		.fpu softvfp
 319              	translateEnterEscapeKeyPress:
 320              	.LVL8:
 321              	.LFB77:
 102:Core/Src/wiegand.c **** 
 103:Core/Src/wiegand.c **** uint8_t translateEnterEscapeKeyPress(uint8_t originalKeyPress)
 104:Core/Src/wiegand.c **** {
 322              		.loc 1 104 1 is_stmt 1 view -0
 323              		.cfi_startproc
 324              		@ args = 0, pretend = 0, frame = 0
 325              		@ frame_needed = 0, uses_anonymous_args = 0
 326              		@ link register save eliminated.
 105:Core/Src/wiegand.c **** 	switch(originalKeyPress)
 327              		.loc 1 105 2 view .LVU72
 328 0000 0A28     		cmp	r0, #10
 329 0002 03D0     		beq	.L27
 330 0004 0B28     		cmp	r0, #11
 331 0006 02D1     		bne	.L26
 332 0008 0D20     		movs	r0, #13
 333              	.LVL9:
 334              		.loc 1 105 2 is_stmt 0 view .LVU73
 335 000a 7047     		bx	lr
 336              	.LVL10:
 337              	.L27:
 106:Core/Src/wiegand.c **** 	{
 107:Core/Src/wiegand.c **** 		case 0x0b:        // 11 or * key
 108:Core/Src/wiegand.c **** 			return 0x0d;  // 13 or ASCII ENTER
 109:Core/Src/wiegand.c **** 
ARM GAS  C:\Users\Admin\AppData\Local\Temp\ccngn7i3.s 			page 9


 110:Core/Src/wiegand.c **** 		case 0x0a:        // 10 or # key
 111:Core/Src/wiegand.c **** 			return 0x1b;  // 27 or ASCII ESCAPE
 338              		.loc 1 111 11 view .LVU74
 339 000c 1B20     		movs	r0, #27
 340              	.LVL11:
 341              	.L26:
 112:Core/Src/wiegand.c **** 
 113:Core/Src/wiegand.c **** 		default:
 114:Core/Src/wiegand.c **** 			return originalKeyPress;
 115:Core/Src/wiegand.c **** 	}
 116:Core/Src/wiegand.c **** }
 342              		.loc 1 116 1 view .LVU75
 343 000e 7047     		bx	lr
 344              		.cfi_endproc
 345              	.LFE77:
 347              		.section	.text.wig_available,"ax",%progbits
 348              		.align	1
 349              		.global	wig_available
 350              		.syntax unified
 351              		.thumb
 352              		.thumb_func
 353              		.fpu softvfp
 355              	wig_available:
 356              	.LFB78:
 117:Core/Src/wiegand.c **** 
 118:Core/Src/wiegand.c **** uint8_t wig_available()
 119:Core/Src/wiegand.c **** {
 357              		.loc 1 119 1 is_stmt 1 view -0
 358              		.cfi_startproc
 359              		@ args = 0, pretend = 0, frame = 0
 360              		@ frame_needed = 0, uses_anonymous_args = 0
 361 0000 70B5     		push	{r4, r5, r6, lr}
 362              	.LCFI2:
 363              		.cfi_def_cfa_offset 16
 364              		.cfi_offset 4, -16
 365              		.cfi_offset 5, -12
 366              		.cfi_offset 6, -8
 367              		.cfi_offset 14, -4
 120:Core/Src/wiegand.c **** 	uint32_t cardID;
 368              		.loc 1 120 2 view .LVU77
 121:Core/Src/wiegand.c **** 	uint32_t time_wig = HAL_GetTick();
 369              		.loc 1 121 2 view .LVU78
 370              		.loc 1 121 22 is_stmt 0 view .LVU79
 371 0002 FFF7FEFF 		bl	HAL_GetTick
 372              	.LVL12:
 122:Core/Src/wiegand.c **** 
 123:Core/Src/wiegand.c **** 	if((time_wig - lastWiegand) > 25) // if no more signal coming through after 25ms
 373              		.loc 1 123 2 is_stmt 1 view .LVU80
 374              		.loc 1 123 15 is_stmt 0 view .LVU81
 375 0006 4A4B     		ldr	r3, .L40
 376 0008 1B68     		ldr	r3, [r3]
 377 000a C31A     		subs	r3, r0, r3
 378              		.loc 1 123 4 view .LVU82
 379 000c 192B     		cmp	r3, #25
 380 000e 40F28C80 		bls	.L36
 124:Core/Src/wiegand.c **** 	{
 125:Core/Src/wiegand.c **** 		if((bitCount == 24) || (bitCount == 26) || (bitCount == 32) || (bitCount == 34) || (bitCount == 8
ARM GAS  C:\Users\Admin\AppData\Local\Temp\ccngn7i3.s 			page 10


 381              		.loc 1 125 3 is_stmt 1 view .LVU83
 382              		.loc 1 125 16 is_stmt 0 view .LVU84
 383 0012 484B     		ldr	r3, .L40+4
 384 0014 1B88     		ldrh	r3, [r3]
 385 0016 1BB2     		sxth	r3, r3
 386              		.loc 1 125 5 view .LVU85
 387 0018 182B     		cmp	r3, #24
 388 001a 18D0     		beq	.L30
 389              		.loc 1 125 36 discriminator 1 view .LVU86
 390 001c 454B     		ldr	r3, .L40+4
 391 001e 1B88     		ldrh	r3, [r3]
 392 0020 1BB2     		sxth	r3, r3
 393              		.loc 1 125 23 discriminator 1 view .LVU87
 394 0022 1A2B     		cmp	r3, #26
 395 0024 13D0     		beq	.L30
 396              		.loc 1 125 56 discriminator 2 view .LVU88
 397 0026 434B     		ldr	r3, .L40+4
 398 0028 1B88     		ldrh	r3, [r3]
 399 002a 1BB2     		sxth	r3, r3
 400              		.loc 1 125 43 discriminator 2 view .LVU89
 401 002c 202B     		cmp	r3, #32
 402 002e 0ED0     		beq	.L30
 403              		.loc 1 125 76 discriminator 3 view .LVU90
 404 0030 404B     		ldr	r3, .L40+4
 405 0032 1B88     		ldrh	r3, [r3]
 406 0034 1BB2     		sxth	r3, r3
 407              		.loc 1 125 63 discriminator 3 view .LVU91
 408 0036 222B     		cmp	r3, #34
 409 0038 09D0     		beq	.L30
 410              		.loc 1 125 96 discriminator 4 view .LVU92
 411 003a 3E4B     		ldr	r3, .L40+4
 412 003c 1B88     		ldrh	r3, [r3]
 413 003e 1BB2     		sxth	r3, r3
 414              		.loc 1 125 83 discriminator 4 view .LVU93
 415 0040 082B     		cmp	r3, #8
 416 0042 04D0     		beq	.L30
 417              		.loc 1 125 115 discriminator 5 view .LVU94
 418 0044 3B4B     		ldr	r3, .L40+4
 419 0046 1B88     		ldrh	r3, [r3]
 420 0048 1BB2     		sxth	r3, r3
 421              		.loc 1 125 102 discriminator 5 view .LVU95
 422 004a 042B     		cmp	r3, #4
 423 004c 63D1     		bne	.L31
 424              	.L30:
 126:Core/Src/wiegand.c **** 		{
 127:Core/Src/wiegand.c **** 			cardTemp >>= 1; // shift right 1 bit to get back the real value - interrupt done 1 left shift in
 425              		.loc 1 127 4 is_stmt 1 view .LVU96
 426              		.loc 1 127 13 is_stmt 0 view .LVU97
 427 004e 3A4A     		ldr	r2, .L40+8
 428 0050 1368     		ldr	r3, [r2]
 429 0052 5B08     		lsrs	r3, r3, #1
 430 0054 1360     		str	r3, [r2]
 128:Core/Src/wiegand.c **** 
 129:Core/Src/wiegand.c **** 			if(bitCount > 32) // bit count more than 32 bits, shift high bits right to make adjustment
 431              		.loc 1 129 4 is_stmt 1 view .LVU98
 432              		.loc 1 129 16 is_stmt 0 view .LVU99
 433 0056 374B     		ldr	r3, .L40+4
ARM GAS  C:\Users\Admin\AppData\Local\Temp\ccngn7i3.s 			page 11


 434 0058 1B88     		ldrh	r3, [r3]
 435 005a 1BB2     		sxth	r3, r3
 436              		.loc 1 129 6 view .LVU100
 437 005c 202B     		cmp	r3, #32
 438 005e 03DD     		ble	.L32
 130:Core/Src/wiegand.c **** 			{
 131:Core/Src/wiegand.c **** 				cardTempHigh >>= 1;
 439              		.loc 1 131 5 is_stmt 1 view .LVU101
 440              		.loc 1 131 18 is_stmt 0 view .LVU102
 441 0060 364A     		ldr	r2, .L40+12
 442 0062 1368     		ldr	r3, [r2]
 443 0064 5B08     		lsrs	r3, r3, #1
 444 0066 1360     		str	r3, [r2]
 445              	.L32:
 132:Core/Src/wiegand.c **** 			}
 133:Core/Src/wiegand.c **** 
 134:Core/Src/wiegand.c **** 			if(bitCount == 8)		// keypress wiegand with integrity
 446              		.loc 1 134 4 is_stmt 1 view .LVU103
 447              		.loc 1 134 16 is_stmt 0 view .LVU104
 448 0068 324B     		ldr	r3, .L40+4
 449 006a 1B88     		ldrh	r3, [r3]
 450 006c 1BB2     		sxth	r3, r3
 451              		.loc 1 134 6 view .LVU105
 452 006e 082B     		cmp	r3, #8
 453 0070 17D0     		beq	.L38
 135:Core/Src/wiegand.c **** 			{
 136:Core/Src/wiegand.c **** 				// 8-bit Wiegand keyboard data, high nibble is the "NOT" of low nibble
 137:Core/Src/wiegand.c **** 				// eg if key 1 pressed, data=E1 in binary 11100001 , high nibble=1110 , low nibble = 0001
 138:Core/Src/wiegand.c **** 				uint8_t highNibble = (cardTemp & 0xf0) >> 4;
 139:Core/Src/wiegand.c **** 				uint8_t lowNibble = (cardTemp & 0x0f);
 140:Core/Src/wiegand.c **** 				wiegandType = bitCount;
 141:Core/Src/wiegand.c **** 				bitCount = 0;
 142:Core/Src/wiegand.c **** 				cardTemp = 0;
 143:Core/Src/wiegand.c **** 				cardTempHigh = 0;
 144:Core/Src/wiegand.c **** 
 145:Core/Src/wiegand.c **** 				if(lowNibble == (~highNibble & 0x0f))		// check if low nibble matches the "NOT" of high nibble.
 146:Core/Src/wiegand.c **** 				{
 147:Core/Src/wiegand.c **** 					code = (int16_t)translateEnterEscapeKeyPress(lowNibble);
 148:Core/Src/wiegand.c **** 					return 1;
 149:Core/Src/wiegand.c **** 				}
 150:Core/Src/wiegand.c **** 				else
 151:Core/Src/wiegand.c **** 				{
 152:Core/Src/wiegand.c **** 					lastWiegand = time_wig;
 153:Core/Src/wiegand.c **** 					bitCount = 0;
 154:Core/Src/wiegand.c **** 					cardTemp = 0;
 155:Core/Src/wiegand.c **** 					cardTempHigh = 0;
 156:Core/Src/wiegand.c **** 					return 0;
 157:Core/Src/wiegand.c **** 				}
 158:Core/Src/wiegand.c **** 
 159:Core/Src/wiegand.c **** 				// TODO: Handle validation failure case!
 160:Core/Src/wiegand.c **** 			}
 161:Core/Src/wiegand.c **** 			else if(4 == bitCount)
 454              		.loc 1 161 9 is_stmt 1 view .LVU106
 455              		.loc 1 161 14 is_stmt 0 view .LVU107
 456 0072 304B     		ldr	r3, .L40+4
 457 0074 1B88     		ldrh	r3, [r3]
 458 0076 1BB2     		sxth	r3, r3
ARM GAS  C:\Users\Admin\AppData\Local\Temp\ccngn7i3.s 			page 12


 459              		.loc 1 161 11 view .LVU108
 460 0078 042B     		cmp	r3, #4
 461 007a 38D1     		bne	.L35
 162:Core/Src/wiegand.c **** 			{
 163:Core/Src/wiegand.c **** 				// 4-bit Wiegand codes have no data integrity check so we just
 164:Core/Src/wiegand.c **** 				// read the LOW nibble.
 165:Core/Src/wiegand.c **** 				code = (int16_t)translateEnterEscapeKeyPress(cardTemp & 0x0000000F);
 462              		.loc 1 165 5 is_stmt 1 view .LVU109
 463              		.loc 1 165 21 is_stmt 0 view .LVU110
 464 007c 2E4C     		ldr	r4, .L40+8
 465 007e 2068     		ldr	r0, [r4]
 466              	.LVL13:
 467              		.loc 1 165 21 view .LVU111
 468 0080 00F00F00 		and	r0, r0, #15
 469 0084 FFF7FEFF 		bl	translateEnterEscapeKeyPress
 470              	.LVL14:
 471              		.loc 1 165 10 view .LVU112
 472 0088 2D4B     		ldr	r3, .L40+16
 473 008a 1860     		str	r0, [r3]
 166:Core/Src/wiegand.c **** 
 167:Core/Src/wiegand.c **** 				wiegandType = bitCount;
 474              		.loc 1 167 5 is_stmt 1 view .LVU113
 475              		.loc 1 167 17 is_stmt 0 view .LVU114
 476 008c 294A     		ldr	r2, .L40+4
 477 008e 1188     		ldrh	r1, [r2]
 478 0090 2C4B     		ldr	r3, .L40+20
 479 0092 1980     		strh	r1, [r3]	@ movhi
 168:Core/Src/wiegand.c **** 				bitCount = 0;
 480              		.loc 1 168 5 is_stmt 1 view .LVU115
 481              		.loc 1 168 14 is_stmt 0 view .LVU116
 482 0094 0023     		movs	r3, #0
 483 0096 1380     		strh	r3, [r2]	@ movhi
 169:Core/Src/wiegand.c **** 				cardTemp = 0;
 484              		.loc 1 169 5 is_stmt 1 view .LVU117
 485              		.loc 1 169 14 is_stmt 0 view .LVU118
 486 0098 2360     		str	r3, [r4]
 170:Core/Src/wiegand.c **** 				cardTempHigh = 0;
 487              		.loc 1 170 5 is_stmt 1 view .LVU119
 488              		.loc 1 170 18 is_stmt 0 view .LVU120
 489 009a 284A     		ldr	r2, .L40+12
 490 009c 1360     		str	r3, [r2]
 171:Core/Src/wiegand.c **** 
 172:Core/Src/wiegand.c **** 				return 1;
 491              		.loc 1 172 5 is_stmt 1 view .LVU121
 492              		.loc 1 172 12 is_stmt 0 view .LVU122
 493 009e 0120     		movs	r0, #1
 494 00a0 44E0     		b	.L29
 495              	.LVL15:
 496              	.L38:
 497              	.LBB2:
 138:Core/Src/wiegand.c **** 				uint8_t lowNibble = (cardTemp & 0x0f);
 498              		.loc 1 138 5 is_stmt 1 view .LVU123
 138:Core/Src/wiegand.c **** 				uint8_t lowNibble = (cardTemp & 0x0f);
 499              		.loc 1 138 44 is_stmt 0 view .LVU124
 500 00a2 254C     		ldr	r4, .L40+8
 501 00a4 2368     		ldr	r3, [r4]
 138:Core/Src/wiegand.c **** 				uint8_t lowNibble = (cardTemp & 0x0f);
ARM GAS  C:\Users\Admin\AppData\Local\Temp\ccngn7i3.s 			page 13


 502              		.loc 1 138 13 view .LVU125
 503 00a6 C3F30313 		ubfx	r3, r3, #4, #4
 504              	.LVL16:
 139:Core/Src/wiegand.c **** 				wiegandType = bitCount;
 505              		.loc 1 139 5 is_stmt 1 view .LVU126
 139:Core/Src/wiegand.c **** 				wiegandType = bitCount;
 506              		.loc 1 139 35 is_stmt 0 view .LVU127
 507 00aa 2268     		ldr	r2, [r4]
 139:Core/Src/wiegand.c **** 				wiegandType = bitCount;
 508              		.loc 1 139 13 view .LVU128
 509 00ac 02F00F02 		and	r2, r2, #15
 510              	.LVL17:
 140:Core/Src/wiegand.c **** 				bitCount = 0;
 511              		.loc 1 140 5 is_stmt 1 view .LVU129
 140:Core/Src/wiegand.c **** 				bitCount = 0;
 512              		.loc 1 140 17 is_stmt 0 view .LVU130
 513 00b0 204D     		ldr	r5, .L40+4
 514 00b2 2E88     		ldrh	r6, [r5]
 515 00b4 2349     		ldr	r1, .L40+20
 516 00b6 0E80     		strh	r6, [r1]	@ movhi
 141:Core/Src/wiegand.c **** 				cardTemp = 0;
 517              		.loc 1 141 5 is_stmt 1 view .LVU131
 141:Core/Src/wiegand.c **** 				cardTemp = 0;
 518              		.loc 1 141 14 is_stmt 0 view .LVU132
 519 00b8 0021     		movs	r1, #0
 520 00ba 2980     		strh	r1, [r5]	@ movhi
 142:Core/Src/wiegand.c **** 				cardTempHigh = 0;
 521              		.loc 1 142 5 is_stmt 1 view .LVU133
 142:Core/Src/wiegand.c **** 				cardTempHigh = 0;
 522              		.loc 1 142 14 is_stmt 0 view .LVU134
 523 00bc 2160     		str	r1, [r4]
 143:Core/Src/wiegand.c **** 
 524              		.loc 1 143 5 is_stmt 1 view .LVU135
 143:Core/Src/wiegand.c **** 
 525              		.loc 1 143 18 is_stmt 0 view .LVU136
 526 00be 1F4C     		ldr	r4, .L40+12
 527 00c0 2160     		str	r1, [r4]
 145:Core/Src/wiegand.c **** 				{
 528              		.loc 1 145 5 is_stmt 1 view .LVU137
 145:Core/Src/wiegand.c **** 				{
 529              		.loc 1 145 22 is_stmt 0 view .LVU138
 530 00c2 DB43     		mvns	r3, r3
 531              	.LVL18:
 145:Core/Src/wiegand.c **** 				{
 532              		.loc 1 145 34 view .LVU139
 533 00c4 03F00F03 		and	r3, r3, #15
 534              	.LVL19:
 145:Core/Src/wiegand.c **** 				{
 535              		.loc 1 145 7 view .LVU140
 536 00c8 9A42     		cmp	r2, r3
 537 00ca 09D0     		beq	.L39
 152:Core/Src/wiegand.c **** 					bitCount = 0;
 538              		.loc 1 152 6 is_stmt 1 view .LVU141
 152:Core/Src/wiegand.c **** 					bitCount = 0;
 539              		.loc 1 152 18 is_stmt 0 view .LVU142
 540 00cc 184B     		ldr	r3, .L40
 541 00ce 1860     		str	r0, [r3]
ARM GAS  C:\Users\Admin\AppData\Local\Temp\ccngn7i3.s 			page 14


 153:Core/Src/wiegand.c **** 					cardTemp = 0;
 542              		.loc 1 153 6 is_stmt 1 view .LVU143
 153:Core/Src/wiegand.c **** 					cardTemp = 0;
 543              		.loc 1 153 15 is_stmt 0 view .LVU144
 544 00d0 0020     		movs	r0, #0
 545              	.LVL20:
 153:Core/Src/wiegand.c **** 					cardTemp = 0;
 546              		.loc 1 153 15 view .LVU145
 547 00d2 184B     		ldr	r3, .L40+4
 153:Core/Src/wiegand.c **** 					cardTemp = 0;
 548              		.loc 1 153 15 view .LVU146
 549 00d4 1880     		strh	r0, [r3]	@ movhi
 550              	.LVL21:
 154:Core/Src/wiegand.c **** 					cardTempHigh = 0;
 551              		.loc 1 154 6 is_stmt 1 view .LVU147
 154:Core/Src/wiegand.c **** 					cardTempHigh = 0;
 552              		.loc 1 154 15 is_stmt 0 view .LVU148
 553 00d6 184B     		ldr	r3, .L40+8
 554 00d8 1860     		str	r0, [r3]
 155:Core/Src/wiegand.c **** 					return 0;
 555              		.loc 1 155 6 is_stmt 1 view .LVU149
 155:Core/Src/wiegand.c **** 					return 0;
 556              		.loc 1 155 19 is_stmt 0 view .LVU150
 557 00da 184B     		ldr	r3, .L40+12
 558 00dc 1860     		str	r0, [r3]
 156:Core/Src/wiegand.c **** 				}
 559              		.loc 1 156 6 is_stmt 1 view .LVU151
 156:Core/Src/wiegand.c **** 				}
 560              		.loc 1 156 13 is_stmt 0 view .LVU152
 561 00de 25E0     		b	.L29
 562              	.LVL22:
 563              	.L39:
 147:Core/Src/wiegand.c **** 					return 1;
 564              		.loc 1 147 6 is_stmt 1 view .LVU153
 147:Core/Src/wiegand.c **** 					return 1;
 565              		.loc 1 147 22 is_stmt 0 view .LVU154
 566 00e0 1046     		mov	r0, r2
 567              	.LVL23:
 147:Core/Src/wiegand.c **** 					return 1;
 568              		.loc 1 147 22 view .LVU155
 569 00e2 FFF7FEFF 		bl	translateEnterEscapeKeyPress
 570              	.LVL24:
 147:Core/Src/wiegand.c **** 					return 1;
 571              		.loc 1 147 11 view .LVU156
 572 00e6 164B     		ldr	r3, .L40+16
 573 00e8 1860     		str	r0, [r3]
 148:Core/Src/wiegand.c **** 				}
 574              		.loc 1 148 6 is_stmt 1 view .LVU157
 148:Core/Src/wiegand.c **** 				}
 575              		.loc 1 148 13 is_stmt 0 view .LVU158
 576 00ea 0120     		movs	r0, #1
 577 00ec 1EE0     		b	.L29
 578              	.LVL25:
 579              	.L35:
 148:Core/Src/wiegand.c **** 				}
 580              		.loc 1 148 13 view .LVU159
 581              	.LBE2:
ARM GAS  C:\Users\Admin\AppData\Local\Temp\ccngn7i3.s 			page 15


 173:Core/Src/wiegand.c **** 			}
 174:Core/Src/wiegand.c **** 			else		// wiegand 26 or wiegand 34
 175:Core/Src/wiegand.c **** 			{
 176:Core/Src/wiegand.c **** 				cardID = GetCardId(&cardTempHigh, &cardTemp, bitCount);
 582              		.loc 1 176 5 is_stmt 1 view .LVU160
 583              		.loc 1 176 14 is_stmt 0 view .LVU161
 584 00ee 114C     		ldr	r4, .L40+4
 585 00f0 2288     		ldrh	r2, [r4]
 586 00f2 114E     		ldr	r6, .L40+8
 587 00f4 114D     		ldr	r5, .L40+12
 588 00f6 D2B2     		uxtb	r2, r2
 589 00f8 3146     		mov	r1, r6
 590 00fa 2846     		mov	r0, r5
 591              	.LVL26:
 592              		.loc 1 176 14 view .LVU162
 593 00fc FFF7FEFF 		bl	GetCardId
 594              	.LVL27:
 177:Core/Src/wiegand.c **** 				wiegandType = bitCount;
 595              		.loc 1 177 5 is_stmt 1 view .LVU163
 596              		.loc 1 177 17 is_stmt 0 view .LVU164
 597 0100 2288     		ldrh	r2, [r4]
 598 0102 104B     		ldr	r3, .L40+20
 599 0104 1A80     		strh	r2, [r3]	@ movhi
 178:Core/Src/wiegand.c **** 				bitCount = 0;
 600              		.loc 1 178 5 is_stmt 1 view .LVU165
 601              		.loc 1 178 14 is_stmt 0 view .LVU166
 602 0106 0023     		movs	r3, #0
 603 0108 2380     		strh	r3, [r4]	@ movhi
 179:Core/Src/wiegand.c **** 				cardTemp = 0;
 604              		.loc 1 179 5 is_stmt 1 view .LVU167
 605              		.loc 1 179 14 is_stmt 0 view .LVU168
 606 010a 3360     		str	r3, [r6]
 180:Core/Src/wiegand.c **** 				cardTempHigh = 0;
 607              		.loc 1 180 5 is_stmt 1 view .LVU169
 608              		.loc 1 180 18 is_stmt 0 view .LVU170
 609 010c 2B60     		str	r3, [r5]
 181:Core/Src/wiegand.c **** 				code = cardID;
 610              		.loc 1 181 5 is_stmt 1 view .LVU171
 611              		.loc 1 181 10 is_stmt 0 view .LVU172
 612 010e 0C4B     		ldr	r3, .L40+16
 613 0110 1860     		str	r0, [r3]
 182:Core/Src/wiegand.c **** 				return 1;
 614              		.loc 1 182 5 is_stmt 1 view .LVU173
 615              		.loc 1 182 12 is_stmt 0 view .LVU174
 616 0112 0120     		movs	r0, #1
 617              	.LVL28:
 618              		.loc 1 182 12 view .LVU175
 619 0114 0AE0     		b	.L29
 620              	.LVL29:
 621              	.L31:
 183:Core/Src/wiegand.c **** 			}
 184:Core/Src/wiegand.c **** 		}
 185:Core/Src/wiegand.c **** 		else
 186:Core/Src/wiegand.c **** 		{
 187:Core/Src/wiegand.c **** 			// well time over 25 ms and bitCount !=8 , !=26, !=34 , must be noise or nothing then.
 188:Core/Src/wiegand.c **** 			lastWiegand = time_wig;
 622              		.loc 1 188 4 is_stmt 1 view .LVU176
ARM GAS  C:\Users\Admin\AppData\Local\Temp\ccngn7i3.s 			page 16


 623              		.loc 1 188 16 is_stmt 0 view .LVU177
 624 0116 064B     		ldr	r3, .L40
 625 0118 1860     		str	r0, [r3]
 189:Core/Src/wiegand.c **** 			bitCount = 0;
 626              		.loc 1 189 4 is_stmt 1 view .LVU178
 627              		.loc 1 189 13 is_stmt 0 view .LVU179
 628 011a 0020     		movs	r0, #0
 629              	.LVL30:
 630              		.loc 1 189 13 view .LVU180
 631 011c 054B     		ldr	r3, .L40+4
 632              		.loc 1 189 13 view .LVU181
 633 011e 1880     		strh	r0, [r3]	@ movhi
 634              	.LVL31:
 190:Core/Src/wiegand.c **** 			cardTemp = 0;
 635              		.loc 1 190 4 is_stmt 1 view .LVU182
 636              		.loc 1 190 13 is_stmt 0 view .LVU183
 637 0120 054B     		ldr	r3, .L40+8
 638 0122 1860     		str	r0, [r3]
 191:Core/Src/wiegand.c **** 			cardTempHigh = 0;
 639              		.loc 1 191 4 is_stmt 1 view .LVU184
 640              		.loc 1 191 17 is_stmt 0 view .LVU185
 641 0124 054B     		ldr	r3, .L40+12
 642 0126 1860     		str	r0, [r3]
 192:Core/Src/wiegand.c **** 			return 0;
 643              		.loc 1 192 4 is_stmt 1 view .LVU186
 644              		.loc 1 192 11 is_stmt 0 view .LVU187
 645 0128 00E0     		b	.L29
 646              	.LVL32:
 647              	.L36:
 193:Core/Src/wiegand.c **** 		}
 194:Core/Src/wiegand.c **** 	}
 195:Core/Src/wiegand.c **** 	else
 196:Core/Src/wiegand.c **** 	{
 197:Core/Src/wiegand.c **** 		return 0;
 648              		.loc 1 197 10 view .LVU188
 649 012a 0020     		movs	r0, #0
 650              	.LVL33:
 651              	.L29:
 198:Core/Src/wiegand.c **** 	}
 199:Core/Src/wiegand.c **** }...
 652              		.loc 1 199 1 view .LVU189
 653 012c 70BD     		pop	{r4, r5, r6, pc}
 654              	.L41:
 655 012e 00BF     		.align	2
 656              	.L40:
 657 0130 00000000 		.word	.LANCHOR5
 658 0134 00000000 		.word	.LANCHOR2
 659 0138 00000000 		.word	.LANCHOR3
 660 013c 00000000 		.word	.LANCHOR4
 661 0140 00000000 		.word	.LANCHOR0
 662 0144 00000000 		.word	.LANCHOR1
 663              		.cfi_endproc
 664              	.LFE78:
 666              		.global	wiegandType
 667              		.global	bitCount
 668              		.global	code
 669              		.global	lastWiegand
ARM GAS  C:\Users\Admin\AppData\Local\Temp\ccngn7i3.s 			page 17


 670              		.global	cardTemp
 671              		.global	cardTempHigh
 672              		.section	.bss.bitCount,"aw",%nobits
 673              		.align	1
 674              		.set	.LANCHOR2,. + 0
 677              	bitCount:
 678 0000 0000     		.space	2
 679              		.section	.bss.cardTemp,"aw",%nobits
 680              		.align	2
 681              		.set	.LANCHOR3,. + 0
 684              	cardTemp:
 685 0000 00000000 		.space	4
 686              		.section	.bss.cardTempHigh,"aw",%nobits
 687              		.align	2
 688              		.set	.LANCHOR4,. + 0
 691              	cardTempHigh:
 692 0000 00000000 		.space	4
 693              		.section	.bss.code,"aw",%nobits
 694              		.align	2
 695              		.set	.LANCHOR0,. + 0
 698              	code:
 699 0000 00000000 		.space	4
 700              		.section	.bss.lastWiegand,"aw",%nobits
 701              		.align	2
 702              		.set	.LANCHOR5,. + 0
 705              	lastWiegand:
 706 0000 00000000 		.space	4
 707              		.section	.bss.wiegandType,"aw",%nobits
 708              		.align	1
 709              		.set	.LANCHOR1,. + 0
 712              	wiegandType:
 713 0000 0000     		.space	2
 714              		.text
 715              	.Letext0:
 716              		.file 2 "e:\\dev\\tools\\gcc-arm-none-eabi-10-2020-q4-major\\arm-none-eabi\\include\\machine\\_def
 717              		.file 3 "e:\\dev\\tools\\gcc-arm-none-eabi-10-2020-q4-major\\arm-none-eabi\\include\\sys\\_stdint.
 718              		.file 4 "Drivers/STM32F1xx_HAL_Driver/Inc/stm32f1xx_hal.h"
ARM GAS  C:\Users\Admin\AppData\Local\Temp\ccngn7i3.s 			page 18

